	.text
	.file	"bb_gemm.c"
	.globl	bb_gemm                 # -- Begin function bb_gemm
	.p2align	4, 0x90
	.type	bb_gemm,@function
bb_gemm:                                # @bb_gemm
	.cfi_startproc
# %bb.0:                                # %entry
	pushq	%rbp
	.cfi_def_cfa_offset 16
	.cfi_offset %rbp, -16
	movq	%rsp, %rbp
	.cfi_def_cfa_register %rbp
	subq	$4008, %rsp             # imm = 0xFA8
	xorl	%eax, %eax
	movl	%eax, %ecx
	movq	%rdi, -8(%rbp)          # 8-byte Spill
	movq	%rsi, -16(%rbp)         # 8-byte Spill
	movq	%rdx, -24(%rbp)         # 8-byte Spill
	movq	%rcx, -32(%rbp)         # 8-byte Spill
	jmp	.LBB0_1
.LBB0_1:                                # %for.body
                                        # =>This Loop Header: Depth=1
                                        #     Child Loop BB0_3 Depth 2
                                        #     Child Loop BB0_6 Depth 2
                                        #     Child Loop BB0_8 Depth 2
                                        #     Child Loop BB0_10 Depth 2
                                        #     Child Loop BB0_12 Depth 2
                                        #     Child Loop BB0_14 Depth 2
                                        #     Child Loop BB0_16 Depth 2
                                        #     Child Loop BB0_18 Depth 2
                                        #     Child Loop BB0_20 Depth 2
                                        #     Child Loop BB0_22 Depth 2
                                        #     Child Loop BB0_24 Depth 2
                                        #     Child Loop BB0_26 Depth 2
                                        #     Child Loop BB0_28 Depth 2
                                        #     Child Loop BB0_30 Depth 2
                                        #     Child Loop BB0_32 Depth 2
                                        #     Child Loop BB0_34 Depth 2
                                        #     Child Loop BB0_36 Depth 2
                                        #     Child Loop BB0_38 Depth 2
                                        #     Child Loop BB0_40 Depth 2
                                        #     Child Loop BB0_42 Depth 2
                                        #     Child Loop BB0_44 Depth 2
                                        #     Child Loop BB0_46 Depth 2
                                        #     Child Loop BB0_48 Depth 2
                                        #     Child Loop BB0_50 Depth 2
                                        #     Child Loop BB0_52 Depth 2
                                        #     Child Loop BB0_54 Depth 2
                                        #     Child Loop BB0_56 Depth 2
                                        #     Child Loop BB0_58 Depth 2
                                        #     Child Loop BB0_60 Depth 2
                                        #     Child Loop BB0_62 Depth 2
                                        #     Child Loop BB0_64 Depth 2
                                        #     Child Loop BB0_66 Depth 2
                                        #     Child Loop BB0_68 Depth 2
                                        #     Child Loop BB0_70 Depth 2
                                        #     Child Loop BB0_72 Depth 2
                                        #     Child Loop BB0_74 Depth 2
                                        #     Child Loop BB0_76 Depth 2
                                        #     Child Loop BB0_78 Depth 2
                                        #     Child Loop BB0_80 Depth 2
                                        #     Child Loop BB0_82 Depth 2
                                        #     Child Loop BB0_84 Depth 2
                                        #     Child Loop BB0_86 Depth 2
                                        #     Child Loop BB0_88 Depth 2
                                        #     Child Loop BB0_90 Depth 2
                                        #     Child Loop BB0_92 Depth 2
                                        #     Child Loop BB0_94 Depth 2
                                        #     Child Loop BB0_96 Depth 2
                                        #     Child Loop BB0_98 Depth 2
                                        #     Child Loop BB0_100 Depth 2
                                        #     Child Loop BB0_102 Depth 2
                                        #     Child Loop BB0_104 Depth 2
                                        #     Child Loop BB0_106 Depth 2
                                        #     Child Loop BB0_108 Depth 2
                                        #     Child Loop BB0_110 Depth 2
                                        #     Child Loop BB0_112 Depth 2
                                        #     Child Loop BB0_114 Depth 2
                                        #     Child Loop BB0_116 Depth 2
                                        #     Child Loop BB0_118 Depth 2
                                        #     Child Loop BB0_120 Depth 2
                                        #     Child Loop BB0_122 Depth 2
                                        #     Child Loop BB0_124 Depth 2
                                        #     Child Loop BB0_126 Depth 2
                                        #     Child Loop BB0_128 Depth 2
                                        #     Child Loop BB0_130 Depth 2
                                        #     Child Loop BB0_132 Depth 2
                                        #     Child Loop BB0_134 Depth 2
                                        #     Child Loop BB0_136 Depth 2
                                        #     Child Loop BB0_138 Depth 2
                                        #     Child Loop BB0_140 Depth 2
                                        #     Child Loop BB0_142 Depth 2
                                        #     Child Loop BB0_144 Depth 2
                                        #     Child Loop BB0_146 Depth 2
                                        #     Child Loop BB0_148 Depth 2
                                        #     Child Loop BB0_150 Depth 2
                                        #     Child Loop BB0_152 Depth 2
                                        #     Child Loop BB0_154 Depth 2
                                        #     Child Loop BB0_156 Depth 2
                                        #     Child Loop BB0_158 Depth 2
                                        #     Child Loop BB0_160 Depth 2
                                        #     Child Loop BB0_162 Depth 2
                                        #     Child Loop BB0_164 Depth 2
                                        #     Child Loop BB0_166 Depth 2
                                        #     Child Loop BB0_168 Depth 2
                                        #     Child Loop BB0_170 Depth 2
                                        #     Child Loop BB0_172 Depth 2
                                        #     Child Loop BB0_174 Depth 2
                                        #     Child Loop BB0_176 Depth 2
                                        #     Child Loop BB0_178 Depth 2
                                        #     Child Loop BB0_180 Depth 2
                                        #     Child Loop BB0_182 Depth 2
                                        #     Child Loop BB0_184 Depth 2
                                        #     Child Loop BB0_186 Depth 2
                                        #     Child Loop BB0_188 Depth 2
                                        #     Child Loop BB0_190 Depth 2
                                        #     Child Loop BB0_192 Depth 2
                                        #     Child Loop BB0_194 Depth 2
                                        #     Child Loop BB0_196 Depth 2
                                        #     Child Loop BB0_198 Depth 2
                                        #     Child Loop BB0_200 Depth 2
                                        #     Child Loop BB0_202 Depth 2
                                        #     Child Loop BB0_204 Depth 2
                                        #     Child Loop BB0_206 Depth 2
                                        #     Child Loop BB0_208 Depth 2
                                        #     Child Loop BB0_210 Depth 2
                                        #     Child Loop BB0_212 Depth 2
                                        #     Child Loop BB0_214 Depth 2
                                        #     Child Loop BB0_216 Depth 2
                                        #     Child Loop BB0_218 Depth 2
                                        #     Child Loop BB0_220 Depth 2
                                        #     Child Loop BB0_222 Depth 2
                                        #     Child Loop BB0_224 Depth 2
                                        #     Child Loop BB0_226 Depth 2
                                        #     Child Loop BB0_228 Depth 2
                                        #     Child Loop BB0_230 Depth 2
                                        #     Child Loop BB0_232 Depth 2
                                        #     Child Loop BB0_234 Depth 2
                                        #     Child Loop BB0_236 Depth 2
                                        #     Child Loop BB0_238 Depth 2
                                        #     Child Loop BB0_240 Depth 2
                                        #     Child Loop BB0_242 Depth 2
                                        #     Child Loop BB0_244 Depth 2
                                        #     Child Loop BB0_246 Depth 2
                                        #     Child Loop BB0_248 Depth 2
                                        #     Child Loop BB0_250 Depth 2
                                        #     Child Loop BB0_252 Depth 2
                                        #     Child Loop BB0_254 Depth 2
                                        #     Child Loop BB0_256 Depth 2
                                        #     Child Loop BB0_258 Depth 2
                                        #     Child Loop BB0_260 Depth 2
                                        #     Child Loop BB0_262 Depth 2
                                        #     Child Loop BB0_264 Depth 2
                                        #     Child Loop BB0_266 Depth 2
                                        #     Child Loop BB0_268 Depth 2
                                        #     Child Loop BB0_270 Depth 2
                                        #     Child Loop BB0_272 Depth 2
                                        #     Child Loop BB0_274 Depth 2
                                        #     Child Loop BB0_276 Depth 2
                                        #     Child Loop BB0_278 Depth 2
                                        #     Child Loop BB0_280 Depth 2
                                        #     Child Loop BB0_282 Depth 2
                                        #     Child Loop BB0_284 Depth 2
                                        #     Child Loop BB0_286 Depth 2
                                        #     Child Loop BB0_288 Depth 2
                                        #     Child Loop BB0_290 Depth 2
                                        #     Child Loop BB0_292 Depth 2
                                        #     Child Loop BB0_294 Depth 2
                                        #     Child Loop BB0_296 Depth 2
                                        #     Child Loop BB0_298 Depth 2
                                        #     Child Loop BB0_300 Depth 2
                                        #     Child Loop BB0_302 Depth 2
                                        #     Child Loop BB0_304 Depth 2
                                        #     Child Loop BB0_306 Depth 2
                                        #     Child Loop BB0_308 Depth 2
                                        #     Child Loop BB0_310 Depth 2
                                        #     Child Loop BB0_312 Depth 2
                                        #     Child Loop BB0_314 Depth 2
                                        #     Child Loop BB0_316 Depth 2
                                        #     Child Loop BB0_318 Depth 2
                                        #     Child Loop BB0_320 Depth 2
                                        #     Child Loop BB0_322 Depth 2
                                        #     Child Loop BB0_324 Depth 2
                                        #     Child Loop BB0_326 Depth 2
                                        #     Child Loop BB0_328 Depth 2
                                        #     Child Loop BB0_330 Depth 2
                                        #     Child Loop BB0_332 Depth 2
                                        #     Child Loop BB0_334 Depth 2
                                        #     Child Loop BB0_336 Depth 2
                                        #     Child Loop BB0_338 Depth 2
                                        #     Child Loop BB0_340 Depth 2
                                        #     Child Loop BB0_342 Depth 2
                                        #     Child Loop BB0_344 Depth 2
                                        #     Child Loop BB0_346 Depth 2
                                        #     Child Loop BB0_348 Depth 2
                                        #     Child Loop BB0_350 Depth 2
                                        #     Child Loop BB0_352 Depth 2
                                        #     Child Loop BB0_354 Depth 2
                                        #     Child Loop BB0_356 Depth 2
                                        #     Child Loop BB0_358 Depth 2
                                        #     Child Loop BB0_360 Depth 2
                                        #     Child Loop BB0_362 Depth 2
                                        #     Child Loop BB0_364 Depth 2
                                        #     Child Loop BB0_366 Depth 2
                                        #     Child Loop BB0_368 Depth 2
                                        #     Child Loop BB0_370 Depth 2
                                        #     Child Loop BB0_372 Depth 2
                                        #     Child Loop BB0_374 Depth 2
                                        #     Child Loop BB0_376 Depth 2
                                        #     Child Loop BB0_378 Depth 2
                                        #     Child Loop BB0_380 Depth 2
                                        #     Child Loop BB0_382 Depth 2
                                        #     Child Loop BB0_384 Depth 2
                                        #     Child Loop BB0_386 Depth 2
                                        #     Child Loop BB0_388 Depth 2
                                        #     Child Loop BB0_390 Depth 2
                                        #     Child Loop BB0_392 Depth 2
                                        #     Child Loop BB0_394 Depth 2
                                        #     Child Loop BB0_396 Depth 2
                                        #     Child Loop BB0_398 Depth 2
                                        #     Child Loop BB0_400 Depth 2
                                        #     Child Loop BB0_402 Depth 2
                                        #     Child Loop BB0_404 Depth 2
                                        #     Child Loop BB0_406 Depth 2
                                        #     Child Loop BB0_408 Depth 2
                                        #     Child Loop BB0_410 Depth 2
                                        #     Child Loop BB0_412 Depth 2
                                        #     Child Loop BB0_414 Depth 2
                                        #     Child Loop BB0_416 Depth 2
                                        #     Child Loop BB0_418 Depth 2
                                        #     Child Loop BB0_420 Depth 2
                                        #     Child Loop BB0_422 Depth 2
                                        #     Child Loop BB0_424 Depth 2
                                        #     Child Loop BB0_426 Depth 2
                                        #     Child Loop BB0_428 Depth 2
                                        #     Child Loop BB0_430 Depth 2
                                        #     Child Loop BB0_432 Depth 2
                                        #     Child Loop BB0_434 Depth 2
                                        #     Child Loop BB0_436 Depth 2
                                        #     Child Loop BB0_438 Depth 2
                                        #     Child Loop BB0_440 Depth 2
                                        #     Child Loop BB0_442 Depth 2
                                        #     Child Loop BB0_444 Depth 2
                                        #     Child Loop BB0_446 Depth 2
                                        #     Child Loop BB0_448 Depth 2
                                        #     Child Loop BB0_450 Depth 2
                                        #     Child Loop BB0_452 Depth 2
                                        #     Child Loop BB0_454 Depth 2
                                        #     Child Loop BB0_456 Depth 2
                                        #     Child Loop BB0_458 Depth 2
                                        #     Child Loop BB0_460 Depth 2
                                        #     Child Loop BB0_462 Depth 2
                                        #     Child Loop BB0_464 Depth 2
                                        #     Child Loop BB0_466 Depth 2
                                        #     Child Loop BB0_468 Depth 2
                                        #     Child Loop BB0_470 Depth 2
                                        #     Child Loop BB0_472 Depth 2
                                        #     Child Loop BB0_474 Depth 2
                                        #     Child Loop BB0_476 Depth 2
                                        #     Child Loop BB0_478 Depth 2
                                        #     Child Loop BB0_480 Depth 2
                                        #     Child Loop BB0_482 Depth 2
                                        #     Child Loop BB0_484 Depth 2
                                        #     Child Loop BB0_486 Depth 2
                                        #     Child Loop BB0_488 Depth 2
                                        #     Child Loop BB0_490 Depth 2
                                        #     Child Loop BB0_492 Depth 2
                                        #     Child Loop BB0_494 Depth 2
                                        #     Child Loop BB0_496 Depth 2
                                        #     Child Loop BB0_498 Depth 2
                                        #     Child Loop BB0_500 Depth 2
                                        #     Child Loop BB0_502 Depth 2
                                        #     Child Loop BB0_504 Depth 2
                                        #     Child Loop BB0_506 Depth 2
                                        #     Child Loop BB0_508 Depth 2
                                        #     Child Loop BB0_510 Depth 2
                                        #     Child Loop BB0_512 Depth 2
                                        #     Child Loop BB0_514 Depth 2
	movq	-32(%rbp), %rax         # 8-byte Reload
	movq	%rax, -40(%rbp)         # 8-byte Spill
# %bb.2:                                # %for.body3
                                        #   in Loop: Header=BB0_1 Depth=1
	xorl	%eax, %eax
	movl	%eax, %ecx
	movq	-40(%rbp), %rdx         # 8-byte Reload
	shlq	$10, %rdx
	movq	-8(%rbp), %rsi          # 8-byte Reload
	movl	(%rsi,%rdx,4), %eax
	movl	%eax, -44(%rbp)         # 4-byte Spill
	movq	%rcx, -56(%rbp)         # 8-byte Spill
.LBB0_3:                                # %for.body6
                                        #   Parent Loop BB0_1 Depth=1
                                        # =>  This Inner Loop Header: Depth=2
	movq	-56(%rbp), %rax         # 8-byte Reload
	movl	-44(%rbp), %ecx         # 4-byte Reload
	movq	-16(%rbp), %rdx         # 8-byte Reload
	imull	(%rdx,%rax,4), %ecx
	movq	-40(%rbp), %rsi         # 8-byte Reload
	shlq	$10, %rsi
	addq	%rax, %rsi
	movq	-24(%rbp), %rdi         # 8-byte Reload
	addl	(%rdi,%rsi,4), %ecx
	movl	%ecx, (%rdi,%rsi,4)
	movq	%rax, %rsi
	addq	$1, %rsi
	movl	-44(%rbp), %ecx         # 4-byte Reload
	imull	4(%rdx,%rax,4), %ecx
	movq	-40(%rbp), %r8          # 8-byte Reload
	shlq	$10, %r8
	addq	%rsi, %r8
	addl	(%rdi,%r8,4), %ecx
	movl	%ecx, (%rdi,%r8,4)
	addq	$1, %rsi
	movl	-44(%rbp), %ecx         # 4-byte Reload
	imull	8(%rdx,%rax,4), %ecx
	movq	-40(%rbp), %r8          # 8-byte Reload
	shlq	$10, %r8
	addq	%rsi, %r8
	addl	(%rdi,%r8,4), %ecx
	movl	%ecx, (%rdi,%r8,4)
	addq	$1, %rsi
	movl	-44(%rbp), %ecx         # 4-byte Reload
	imull	12(%rdx,%rax,4), %ecx
	movq	-40(%rbp), %rax         # 8-byte Reload
	shlq	$10, %rax
	addq	%rsi, %rax
	addl	(%rdi,%rax,4), %ecx
	movl	%ecx, (%rdi,%rax,4)
	addq	$1, %rsi
	cmpq	$256, %rsi              # imm = 0x100
	movq	%rsi, -56(%rbp)         # 8-byte Spill
	jne	.LBB0_3
# %bb.4:                                # %for.inc17
                                        #   in Loop: Header=BB0_1 Depth=1
	xorl	%eax, %eax
	movl	%eax, %ecx
	movq	-40(%rbp), %rdx         # 8-byte Reload
	shlq	$10, %rdx
	movq	-8(%rbp), %rsi          # 8-byte Reload
	movl	4(%rsi,%rdx,4), %eax
	movl	%eax, -60(%rbp)         # 4-byte Spill
	movq	%rcx, -72(%rbp)         # 8-byte Spill
	jmp	.LBB0_6
.LBB0_5:                                # %for.end22
	addq	$4008, %rsp             # imm = 0xFA8
	popq	%rbp
	.cfi_def_cfa %rsp, 8
	retq
.LBB0_6:                                # %for.body6.1
                                        #   Parent Loop BB0_1 Depth=1
                                        # =>  This Inner Loop Header: Depth=2
	.cfi_def_cfa %rbp, 16
	movq	-72(%rbp), %rax         # 8-byte Reload
	movq	%rax, %rcx
	addq	$1024, %rcx             # imm = 0x400
	movl	-60(%rbp), %edx         # 4-byte Reload
	movq	-16(%rbp), %rsi         # 8-byte Reload
	imull	(%rsi,%rcx,4), %edx
	movq	-40(%rbp), %rcx         # 8-byte Reload
	shlq	$10, %rcx
	addq	%rax, %rcx
	movq	-24(%rbp), %rdi         # 8-byte Reload
	addl	(%rdi,%rcx,4), %edx
	movl	%edx, (%rdi,%rcx,4)
	addq	$1, %rax
	movq	%rax, %rcx
	addq	$1024, %rcx             # imm = 0x400
	movl	-60(%rbp), %edx         # 4-byte Reload
	imull	(%rsi,%rcx,4), %edx
	movq	-40(%rbp), %rcx         # 8-byte Reload
	shlq	$10, %rcx
	addq	%rax, %rcx
	addl	(%rdi,%rcx,4), %edx
	movl	%edx, (%rdi,%rcx,4)
	addq	$1, %rax
	movq	%rax, %rcx
	addq	$1024, %rcx             # imm = 0x400
	movl	-60(%rbp), %edx         # 4-byte Reload
	imull	(%rsi,%rcx,4), %edx
	movq	-40(%rbp), %rcx         # 8-byte Reload
	shlq	$10, %rcx
	addq	%rax, %rcx
	addl	(%rdi,%rcx,4), %edx
	movl	%edx, (%rdi,%rcx,4)
	addq	$1, %rax
	movq	%rax, %rcx
	addq	$1024, %rcx             # imm = 0x400
	movl	-60(%rbp), %edx         # 4-byte Reload
	imull	(%rsi,%rcx,4), %edx
	movq	-40(%rbp), %rcx         # 8-byte Reload
	shlq	$10, %rcx
	addq	%rax, %rcx
	addl	(%rdi,%rcx,4), %edx
	movl	%edx, (%rdi,%rcx,4)
	addq	$1, %rax
	cmpq	$256, %rax              # imm = 0x100
	movq	%rax, -72(%rbp)         # 8-byte Spill
	jne	.LBB0_6
# %bb.7:                                # %for.inc17.1
                                        #   in Loop: Header=BB0_1 Depth=1
	xorl	%eax, %eax
	movl	%eax, %ecx
	movq	-40(%rbp), %rdx         # 8-byte Reload
	shlq	$10, %rdx
	movq	-8(%rbp), %rsi          # 8-byte Reload
	movl	8(%rsi,%rdx,4), %eax
	movl	%eax, -76(%rbp)         # 4-byte Spill
	movq	%rcx, -88(%rbp)         # 8-byte Spill
.LBB0_8:                                # %for.body6.2
                                        #   Parent Loop BB0_1 Depth=1
                                        # =>  This Inner Loop Header: Depth=2
	movq	-88(%rbp), %rax         # 8-byte Reload
	movq	%rax, %rcx
	addq	$2048, %rcx             # imm = 0x800
	movl	-76(%rbp), %edx         # 4-byte Reload
	movq	-16(%rbp), %rsi         # 8-byte Reload
	imull	(%rsi,%rcx,4), %edx
	movq	-40(%rbp), %rcx         # 8-byte Reload
	shlq	$10, %rcx
	addq	%rax, %rcx
	movq	-24(%rbp), %rdi         # 8-byte Reload
	addl	(%rdi,%rcx,4), %edx
	movl	%edx, (%rdi,%rcx,4)
	addq	$1, %rax
	movq	%rax, %rcx
	addq	$2048, %rcx             # imm = 0x800
	movl	-76(%rbp), %edx         # 4-byte Reload
	imull	(%rsi,%rcx,4), %edx
	movq	-40(%rbp), %rcx         # 8-byte Reload
	shlq	$10, %rcx
	addq	%rax, %rcx
	addl	(%rdi,%rcx,4), %edx
	movl	%edx, (%rdi,%rcx,4)
	addq	$1, %rax
	movq	%rax, %rcx
	addq	$2048, %rcx             # imm = 0x800
	movl	-76(%rbp), %edx         # 4-byte Reload
	imull	(%rsi,%rcx,4), %edx
	movq	-40(%rbp), %rcx         # 8-byte Reload
	shlq	$10, %rcx
	addq	%rax, %rcx
	addl	(%rdi,%rcx,4), %edx
	movl	%edx, (%rdi,%rcx,4)
	addq	$1, %rax
	movq	%rax, %rcx
	addq	$2048, %rcx             # imm = 0x800
	movl	-76(%rbp), %edx         # 4-byte Reload
	imull	(%rsi,%rcx,4), %edx
	movq	-40(%rbp), %rcx         # 8-byte Reload
	shlq	$10, %rcx
	addq	%rax, %rcx
	addl	(%rdi,%rcx,4), %edx
	movl	%edx, (%rdi,%rcx,4)
	addq	$1, %rax
	cmpq	$256, %rax              # imm = 0x100
	movq	%rax, -88(%rbp)         # 8-byte Spill
	jne	.LBB0_8
# %bb.9:                                # %for.inc17.2
                                        #   in Loop: Header=BB0_1 Depth=1
	xorl	%eax, %eax
	movl	%eax, %ecx
	movq	-40(%rbp), %rdx         # 8-byte Reload
	shlq	$10, %rdx
	movq	-8(%rbp), %rsi          # 8-byte Reload
	movl	12(%rsi,%rdx,4), %eax
	movl	%eax, -92(%rbp)         # 4-byte Spill
	movq	%rcx, -104(%rbp)        # 8-byte Spill
.LBB0_10:                               # %for.body6.3
                                        #   Parent Loop BB0_1 Depth=1
                                        # =>  This Inner Loop Header: Depth=2
	movq	-104(%rbp), %rax        # 8-byte Reload
	movq	%rax, %rcx
	addq	$3072, %rcx             # imm = 0xC00
	movl	-92(%rbp), %edx         # 4-byte Reload
	movq	-16(%rbp), %rsi         # 8-byte Reload
	imull	(%rsi,%rcx,4), %edx
	movq	-40(%rbp), %rcx         # 8-byte Reload
	shlq	$10, %rcx
	addq	%rax, %rcx
	movq	-24(%rbp), %rdi         # 8-byte Reload
	addl	(%rdi,%rcx,4), %edx
	movl	%edx, (%rdi,%rcx,4)
	addq	$1, %rax
	movq	%rax, %rcx
	addq	$3072, %rcx             # imm = 0xC00
	movl	-92(%rbp), %edx         # 4-byte Reload
	imull	(%rsi,%rcx,4), %edx
	movq	-40(%rbp), %rcx         # 8-byte Reload
	shlq	$10, %rcx
	addq	%rax, %rcx
	addl	(%rdi,%rcx,4), %edx
	movl	%edx, (%rdi,%rcx,4)
	addq	$1, %rax
	movq	%rax, %rcx
	addq	$3072, %rcx             # imm = 0xC00
	movl	-92(%rbp), %edx         # 4-byte Reload
	imull	(%rsi,%rcx,4), %edx
	movq	-40(%rbp), %rcx         # 8-byte Reload
	shlq	$10, %rcx
	addq	%rax, %rcx
	addl	(%rdi,%rcx,4), %edx
	movl	%edx, (%rdi,%rcx,4)
	addq	$1, %rax
	movq	%rax, %rcx
	addq	$3072, %rcx             # imm = 0xC00
	movl	-92(%rbp), %edx         # 4-byte Reload
	imull	(%rsi,%rcx,4), %edx
	movq	-40(%rbp), %rcx         # 8-byte Reload
	shlq	$10, %rcx
	addq	%rax, %rcx
	addl	(%rdi,%rcx,4), %edx
	movl	%edx, (%rdi,%rcx,4)
	addq	$1, %rax
	cmpq	$256, %rax              # imm = 0x100
	movq	%rax, -104(%rbp)        # 8-byte Spill
	jne	.LBB0_10
# %bb.11:                               # %for.inc17.3
                                        #   in Loop: Header=BB0_1 Depth=1
	xorl	%eax, %eax
	movl	%eax, %ecx
	movq	-40(%rbp), %rdx         # 8-byte Reload
	shlq	$10, %rdx
	movq	-8(%rbp), %rsi          # 8-byte Reload
	movl	16(%rsi,%rdx,4), %eax
	movl	%eax, -108(%rbp)        # 4-byte Spill
	movq	%rcx, -120(%rbp)        # 8-byte Spill
.LBB0_12:                               # %for.body6.4
                                        #   Parent Loop BB0_1 Depth=1
                                        # =>  This Inner Loop Header: Depth=2
	movq	-120(%rbp), %rax        # 8-byte Reload
	movq	%rax, %rcx
	addq	$4096, %rcx             # imm = 0x1000
	movl	-108(%rbp), %edx        # 4-byte Reload
	movq	-16(%rbp), %rsi         # 8-byte Reload
	imull	(%rsi,%rcx,4), %edx
	movq	-40(%rbp), %rcx         # 8-byte Reload
	shlq	$10, %rcx
	addq	%rax, %rcx
	movq	-24(%rbp), %rdi         # 8-byte Reload
	addl	(%rdi,%rcx,4), %edx
	movl	%edx, (%rdi,%rcx,4)
	addq	$1, %rax
	movq	%rax, %rcx
	addq	$4096, %rcx             # imm = 0x1000
	movl	-108(%rbp), %edx        # 4-byte Reload
	imull	(%rsi,%rcx,4), %edx
	movq	-40(%rbp), %rcx         # 8-byte Reload
	shlq	$10, %rcx
	addq	%rax, %rcx
	addl	(%rdi,%rcx,4), %edx
	movl	%edx, (%rdi,%rcx,4)
	addq	$1, %rax
	movq	%rax, %rcx
	addq	$4096, %rcx             # imm = 0x1000
	movl	-108(%rbp), %edx        # 4-byte Reload
	imull	(%rsi,%rcx,4), %edx
	movq	-40(%rbp), %rcx         # 8-byte Reload
	shlq	$10, %rcx
	addq	%rax, %rcx
	addl	(%rdi,%rcx,4), %edx
	movl	%edx, (%rdi,%rcx,4)
	addq	$1, %rax
	movq	%rax, %rcx
	addq	$4096, %rcx             # imm = 0x1000
	movl	-108(%rbp), %edx        # 4-byte Reload
	imull	(%rsi,%rcx,4), %edx
	movq	-40(%rbp), %rcx         # 8-byte Reload
	shlq	$10, %rcx
	addq	%rax, %rcx
	addl	(%rdi,%rcx,4), %edx
	movl	%edx, (%rdi,%rcx,4)
	addq	$1, %rax
	cmpq	$256, %rax              # imm = 0x100
	movq	%rax, -120(%rbp)        # 8-byte Spill
	jne	.LBB0_12
# %bb.13:                               # %for.inc17.4
                                        #   in Loop: Header=BB0_1 Depth=1
	xorl	%eax, %eax
	movl	%eax, %ecx
	movq	-40(%rbp), %rdx         # 8-byte Reload
	shlq	$10, %rdx
	movq	-8(%rbp), %rsi          # 8-byte Reload
	movl	20(%rsi,%rdx,4), %eax
	movl	%eax, -124(%rbp)        # 4-byte Spill
	movq	%rcx, -136(%rbp)        # 8-byte Spill
.LBB0_14:                               # %for.body6.5
                                        #   Parent Loop BB0_1 Depth=1
                                        # =>  This Inner Loop Header: Depth=2
	movq	-136(%rbp), %rax        # 8-byte Reload
	movq	%rax, %rcx
	addq	$5120, %rcx             # imm = 0x1400
	movl	-124(%rbp), %edx        # 4-byte Reload
	movq	-16(%rbp), %rsi         # 8-byte Reload
	imull	(%rsi,%rcx,4), %edx
	movq	-40(%rbp), %rcx         # 8-byte Reload
	shlq	$10, %rcx
	addq	%rax, %rcx
	movq	-24(%rbp), %rdi         # 8-byte Reload
	addl	(%rdi,%rcx,4), %edx
	movl	%edx, (%rdi,%rcx,4)
	addq	$1, %rax
	movq	%rax, %rcx
	addq	$5120, %rcx             # imm = 0x1400
	movl	-124(%rbp), %edx        # 4-byte Reload
	imull	(%rsi,%rcx,4), %edx
	movq	-40(%rbp), %rcx         # 8-byte Reload
	shlq	$10, %rcx
	addq	%rax, %rcx
	addl	(%rdi,%rcx,4), %edx
	movl	%edx, (%rdi,%rcx,4)
	addq	$1, %rax
	movq	%rax, %rcx
	addq	$5120, %rcx             # imm = 0x1400
	movl	-124(%rbp), %edx        # 4-byte Reload
	imull	(%rsi,%rcx,4), %edx
	movq	-40(%rbp), %rcx         # 8-byte Reload
	shlq	$10, %rcx
	addq	%rax, %rcx
	addl	(%rdi,%rcx,4), %edx
	movl	%edx, (%rdi,%rcx,4)
	addq	$1, %rax
	movq	%rax, %rcx
	addq	$5120, %rcx             # imm = 0x1400
	movl	-124(%rbp), %edx        # 4-byte Reload
	imull	(%rsi,%rcx,4), %edx
	movq	-40(%rbp), %rcx         # 8-byte Reload
	shlq	$10, %rcx
	addq	%rax, %rcx
	addl	(%rdi,%rcx,4), %edx
	movl	%edx, (%rdi,%rcx,4)
	addq	$1, %rax
	cmpq	$256, %rax              # imm = 0x100
	movq	%rax, -136(%rbp)        # 8-byte Spill
	jne	.LBB0_14
# %bb.15:                               # %for.inc17.5
                                        #   in Loop: Header=BB0_1 Depth=1
	xorl	%eax, %eax
	movl	%eax, %ecx
	movq	-40(%rbp), %rdx         # 8-byte Reload
	shlq	$10, %rdx
	movq	-8(%rbp), %rsi          # 8-byte Reload
	movl	24(%rsi,%rdx,4), %eax
	movl	%eax, -140(%rbp)        # 4-byte Spill
	movq	%rcx, -152(%rbp)        # 8-byte Spill
.LBB0_16:                               # %for.body6.6
                                        #   Parent Loop BB0_1 Depth=1
                                        # =>  This Inner Loop Header: Depth=2
	movq	-152(%rbp), %rax        # 8-byte Reload
	movq	%rax, %rcx
	addq	$6144, %rcx             # imm = 0x1800
	movl	-140(%rbp), %edx        # 4-byte Reload
	movq	-16(%rbp), %rsi         # 8-byte Reload
	imull	(%rsi,%rcx,4), %edx
	movq	-40(%rbp), %rcx         # 8-byte Reload
	shlq	$10, %rcx
	addq	%rax, %rcx
	movq	-24(%rbp), %rdi         # 8-byte Reload
	addl	(%rdi,%rcx,4), %edx
	movl	%edx, (%rdi,%rcx,4)
	addq	$1, %rax
	movq	%rax, %rcx
	addq	$6144, %rcx             # imm = 0x1800
	movl	-140(%rbp), %edx        # 4-byte Reload
	imull	(%rsi,%rcx,4), %edx
	movq	-40(%rbp), %rcx         # 8-byte Reload
	shlq	$10, %rcx
	addq	%rax, %rcx
	addl	(%rdi,%rcx,4), %edx
	movl	%edx, (%rdi,%rcx,4)
	addq	$1, %rax
	movq	%rax, %rcx
	addq	$6144, %rcx             # imm = 0x1800
	movl	-140(%rbp), %edx        # 4-byte Reload
	imull	(%rsi,%rcx,4), %edx
	movq	-40(%rbp), %rcx         # 8-byte Reload
	shlq	$10, %rcx
	addq	%rax, %rcx
	addl	(%rdi,%rcx,4), %edx
	movl	%edx, (%rdi,%rcx,4)
	addq	$1, %rax
	movq	%rax, %rcx
	addq	$6144, %rcx             # imm = 0x1800
	movl	-140(%rbp), %edx        # 4-byte Reload
	imull	(%rsi,%rcx,4), %edx
	movq	-40(%rbp), %rcx         # 8-byte Reload
	shlq	$10, %rcx
	addq	%rax, %rcx
	addl	(%rdi,%rcx,4), %edx
	movl	%edx, (%rdi,%rcx,4)
	addq	$1, %rax
	cmpq	$256, %rax              # imm = 0x100
	movq	%rax, -152(%rbp)        # 8-byte Spill
	jne	.LBB0_16
# %bb.17:                               # %for.inc17.6
                                        #   in Loop: Header=BB0_1 Depth=1
	xorl	%eax, %eax
	movl	%eax, %ecx
	movq	-40(%rbp), %rdx         # 8-byte Reload
	shlq	$10, %rdx
	movq	-8(%rbp), %rsi          # 8-byte Reload
	movl	28(%rsi,%rdx,4), %eax
	movl	%eax, -156(%rbp)        # 4-byte Spill
	movq	%rcx, -168(%rbp)        # 8-byte Spill
.LBB0_18:                               # %for.body6.7
                                        #   Parent Loop BB0_1 Depth=1
                                        # =>  This Inner Loop Header: Depth=2
	movq	-168(%rbp), %rax        # 8-byte Reload
	movq	%rax, %rcx
	addq	$7168, %rcx             # imm = 0x1C00
	movl	-156(%rbp), %edx        # 4-byte Reload
	movq	-16(%rbp), %rsi         # 8-byte Reload
	imull	(%rsi,%rcx,4), %edx
	movq	-40(%rbp), %rcx         # 8-byte Reload
	shlq	$10, %rcx
	addq	%rax, %rcx
	movq	-24(%rbp), %rdi         # 8-byte Reload
	addl	(%rdi,%rcx,4), %edx
	movl	%edx, (%rdi,%rcx,4)
	addq	$1, %rax
	movq	%rax, %rcx
	addq	$7168, %rcx             # imm = 0x1C00
	movl	-156(%rbp), %edx        # 4-byte Reload
	imull	(%rsi,%rcx,4), %edx
	movq	-40(%rbp), %rcx         # 8-byte Reload
	shlq	$10, %rcx
	addq	%rax, %rcx
	addl	(%rdi,%rcx,4), %edx
	movl	%edx, (%rdi,%rcx,4)
	addq	$1, %rax
	movq	%rax, %rcx
	addq	$7168, %rcx             # imm = 0x1C00
	movl	-156(%rbp), %edx        # 4-byte Reload
	imull	(%rsi,%rcx,4), %edx
	movq	-40(%rbp), %rcx         # 8-byte Reload
	shlq	$10, %rcx
	addq	%rax, %rcx
	addl	(%rdi,%rcx,4), %edx
	movl	%edx, (%rdi,%rcx,4)
	addq	$1, %rax
	movq	%rax, %rcx
	addq	$7168, %rcx             # imm = 0x1C00
	movl	-156(%rbp), %edx        # 4-byte Reload
	imull	(%rsi,%rcx,4), %edx
	movq	-40(%rbp), %rcx         # 8-byte Reload
	shlq	$10, %rcx
	addq	%rax, %rcx
	addl	(%rdi,%rcx,4), %edx
	movl	%edx, (%rdi,%rcx,4)
	addq	$1, %rax
	cmpq	$256, %rax              # imm = 0x100
	movq	%rax, -168(%rbp)        # 8-byte Spill
	jne	.LBB0_18
# %bb.19:                               # %for.inc17.7
                                        #   in Loop: Header=BB0_1 Depth=1
	xorl	%eax, %eax
	movl	%eax, %ecx
	movq	-40(%rbp), %rdx         # 8-byte Reload
	shlq	$10, %rdx
	movq	-8(%rbp), %rsi          # 8-byte Reload
	movl	32(%rsi,%rdx,4), %eax
	movl	%eax, -172(%rbp)        # 4-byte Spill
	movq	%rcx, -184(%rbp)        # 8-byte Spill
.LBB0_20:                               # %for.body6.8
                                        #   Parent Loop BB0_1 Depth=1
                                        # =>  This Inner Loop Header: Depth=2
	movq	-184(%rbp), %rax        # 8-byte Reload
	movq	%rax, %rcx
	addq	$8192, %rcx             # imm = 0x2000
	movl	-172(%rbp), %edx        # 4-byte Reload
	movq	-16(%rbp), %rsi         # 8-byte Reload
	imull	(%rsi,%rcx,4), %edx
	movq	-40(%rbp), %rcx         # 8-byte Reload
	shlq	$10, %rcx
	addq	%rax, %rcx
	movq	-24(%rbp), %rdi         # 8-byte Reload
	addl	(%rdi,%rcx,4), %edx
	movl	%edx, (%rdi,%rcx,4)
	addq	$1, %rax
	movq	%rax, %rcx
	addq	$8192, %rcx             # imm = 0x2000
	movl	-172(%rbp), %edx        # 4-byte Reload
	imull	(%rsi,%rcx,4), %edx
	movq	-40(%rbp), %rcx         # 8-byte Reload
	shlq	$10, %rcx
	addq	%rax, %rcx
	addl	(%rdi,%rcx,4), %edx
	movl	%edx, (%rdi,%rcx,4)
	addq	$1, %rax
	movq	%rax, %rcx
	addq	$8192, %rcx             # imm = 0x2000
	movl	-172(%rbp), %edx        # 4-byte Reload
	imull	(%rsi,%rcx,4), %edx
	movq	-40(%rbp), %rcx         # 8-byte Reload
	shlq	$10, %rcx
	addq	%rax, %rcx
	addl	(%rdi,%rcx,4), %edx
	movl	%edx, (%rdi,%rcx,4)
	addq	$1, %rax
	movq	%rax, %rcx
	addq	$8192, %rcx             # imm = 0x2000
	movl	-172(%rbp), %edx        # 4-byte Reload
	imull	(%rsi,%rcx,4), %edx
	movq	-40(%rbp), %rcx         # 8-byte Reload
	shlq	$10, %rcx
	addq	%rax, %rcx
	addl	(%rdi,%rcx,4), %edx
	movl	%edx, (%rdi,%rcx,4)
	addq	$1, %rax
	cmpq	$256, %rax              # imm = 0x100
	movq	%rax, -184(%rbp)        # 8-byte Spill
	jne	.LBB0_20
# %bb.21:                               # %for.inc17.8
                                        #   in Loop: Header=BB0_1 Depth=1
	xorl	%eax, %eax
	movl	%eax, %ecx
	movq	-40(%rbp), %rdx         # 8-byte Reload
	shlq	$10, %rdx
	movq	-8(%rbp), %rsi          # 8-byte Reload
	movl	36(%rsi,%rdx,4), %eax
	movl	%eax, -188(%rbp)        # 4-byte Spill
	movq	%rcx, -200(%rbp)        # 8-byte Spill
.LBB0_22:                               # %for.body6.9
                                        #   Parent Loop BB0_1 Depth=1
                                        # =>  This Inner Loop Header: Depth=2
	movq	-200(%rbp), %rax        # 8-byte Reload
	movq	%rax, %rcx
	addq	$9216, %rcx             # imm = 0x2400
	movl	-188(%rbp), %edx        # 4-byte Reload
	movq	-16(%rbp), %rsi         # 8-byte Reload
	imull	(%rsi,%rcx,4), %edx
	movq	-40(%rbp), %rcx         # 8-byte Reload
	shlq	$10, %rcx
	addq	%rax, %rcx
	movq	-24(%rbp), %rdi         # 8-byte Reload
	addl	(%rdi,%rcx,4), %edx
	movl	%edx, (%rdi,%rcx,4)
	addq	$1, %rax
	movq	%rax, %rcx
	addq	$9216, %rcx             # imm = 0x2400
	movl	-188(%rbp), %edx        # 4-byte Reload
	imull	(%rsi,%rcx,4), %edx
	movq	-40(%rbp), %rcx         # 8-byte Reload
	shlq	$10, %rcx
	addq	%rax, %rcx
	addl	(%rdi,%rcx,4), %edx
	movl	%edx, (%rdi,%rcx,4)
	addq	$1, %rax
	movq	%rax, %rcx
	addq	$9216, %rcx             # imm = 0x2400
	movl	-188(%rbp), %edx        # 4-byte Reload
	imull	(%rsi,%rcx,4), %edx
	movq	-40(%rbp), %rcx         # 8-byte Reload
	shlq	$10, %rcx
	addq	%rax, %rcx
	addl	(%rdi,%rcx,4), %edx
	movl	%edx, (%rdi,%rcx,4)
	addq	$1, %rax
	movq	%rax, %rcx
	addq	$9216, %rcx             # imm = 0x2400
	movl	-188(%rbp), %edx        # 4-byte Reload
	imull	(%rsi,%rcx,4), %edx
	movq	-40(%rbp), %rcx         # 8-byte Reload
	shlq	$10, %rcx
	addq	%rax, %rcx
	addl	(%rdi,%rcx,4), %edx
	movl	%edx, (%rdi,%rcx,4)
	addq	$1, %rax
	cmpq	$256, %rax              # imm = 0x100
	movq	%rax, -200(%rbp)        # 8-byte Spill
	jne	.LBB0_22
# %bb.23:                               # %for.inc17.9
                                        #   in Loop: Header=BB0_1 Depth=1
	xorl	%eax, %eax
	movl	%eax, %ecx
	movq	-40(%rbp), %rdx         # 8-byte Reload
	shlq	$10, %rdx
	movq	-8(%rbp), %rsi          # 8-byte Reload
	movl	40(%rsi,%rdx,4), %eax
	movl	%eax, -204(%rbp)        # 4-byte Spill
	movq	%rcx, -216(%rbp)        # 8-byte Spill
.LBB0_24:                               # %for.body6.10
                                        #   Parent Loop BB0_1 Depth=1
                                        # =>  This Inner Loop Header: Depth=2
	movq	-216(%rbp), %rax        # 8-byte Reload
	movq	%rax, %rcx
	addq	$10240, %rcx            # imm = 0x2800
	movl	-204(%rbp), %edx        # 4-byte Reload
	movq	-16(%rbp), %rsi         # 8-byte Reload
	imull	(%rsi,%rcx,4), %edx
	movq	-40(%rbp), %rcx         # 8-byte Reload
	shlq	$10, %rcx
	addq	%rax, %rcx
	movq	-24(%rbp), %rdi         # 8-byte Reload
	addl	(%rdi,%rcx,4), %edx
	movl	%edx, (%rdi,%rcx,4)
	addq	$1, %rax
	movq	%rax, %rcx
	addq	$10240, %rcx            # imm = 0x2800
	movl	-204(%rbp), %edx        # 4-byte Reload
	imull	(%rsi,%rcx,4), %edx
	movq	-40(%rbp), %rcx         # 8-byte Reload
	shlq	$10, %rcx
	addq	%rax, %rcx
	addl	(%rdi,%rcx,4), %edx
	movl	%edx, (%rdi,%rcx,4)
	addq	$1, %rax
	movq	%rax, %rcx
	addq	$10240, %rcx            # imm = 0x2800
	movl	-204(%rbp), %edx        # 4-byte Reload
	imull	(%rsi,%rcx,4), %edx
	movq	-40(%rbp), %rcx         # 8-byte Reload
	shlq	$10, %rcx
	addq	%rax, %rcx
	addl	(%rdi,%rcx,4), %edx
	movl	%edx, (%rdi,%rcx,4)
	addq	$1, %rax
	movq	%rax, %rcx
	addq	$10240, %rcx            # imm = 0x2800
	movl	-204(%rbp), %edx        # 4-byte Reload
	imull	(%rsi,%rcx,4), %edx
	movq	-40(%rbp), %rcx         # 8-byte Reload
	shlq	$10, %rcx
	addq	%rax, %rcx
	addl	(%rdi,%rcx,4), %edx
	movl	%edx, (%rdi,%rcx,4)
	addq	$1, %rax
	cmpq	$256, %rax              # imm = 0x100
	movq	%rax, -216(%rbp)        # 8-byte Spill
	jne	.LBB0_24
# %bb.25:                               # %for.inc17.10
                                        #   in Loop: Header=BB0_1 Depth=1
	xorl	%eax, %eax
	movl	%eax, %ecx
	movq	-40(%rbp), %rdx         # 8-byte Reload
	shlq	$10, %rdx
	movq	-8(%rbp), %rsi          # 8-byte Reload
	movl	44(%rsi,%rdx,4), %eax
	movl	%eax, -220(%rbp)        # 4-byte Spill
	movq	%rcx, -232(%rbp)        # 8-byte Spill
.LBB0_26:                               # %for.body6.11
                                        #   Parent Loop BB0_1 Depth=1
                                        # =>  This Inner Loop Header: Depth=2
	movq	-232(%rbp), %rax        # 8-byte Reload
	movq	%rax, %rcx
	addq	$11264, %rcx            # imm = 0x2C00
	movl	-220(%rbp), %edx        # 4-byte Reload
	movq	-16(%rbp), %rsi         # 8-byte Reload
	imull	(%rsi,%rcx,4), %edx
	movq	-40(%rbp), %rcx         # 8-byte Reload
	shlq	$10, %rcx
	addq	%rax, %rcx
	movq	-24(%rbp), %rdi         # 8-byte Reload
	addl	(%rdi,%rcx,4), %edx
	movl	%edx, (%rdi,%rcx,4)
	addq	$1, %rax
	movq	%rax, %rcx
	addq	$11264, %rcx            # imm = 0x2C00
	movl	-220(%rbp), %edx        # 4-byte Reload
	imull	(%rsi,%rcx,4), %edx
	movq	-40(%rbp), %rcx         # 8-byte Reload
	shlq	$10, %rcx
	addq	%rax, %rcx
	addl	(%rdi,%rcx,4), %edx
	movl	%edx, (%rdi,%rcx,4)
	addq	$1, %rax
	movq	%rax, %rcx
	addq	$11264, %rcx            # imm = 0x2C00
	movl	-220(%rbp), %edx        # 4-byte Reload
	imull	(%rsi,%rcx,4), %edx
	movq	-40(%rbp), %rcx         # 8-byte Reload
	shlq	$10, %rcx
	addq	%rax, %rcx
	addl	(%rdi,%rcx,4), %edx
	movl	%edx, (%rdi,%rcx,4)
	addq	$1, %rax
	movq	%rax, %rcx
	addq	$11264, %rcx            # imm = 0x2C00
	movl	-220(%rbp), %edx        # 4-byte Reload
	imull	(%rsi,%rcx,4), %edx
	movq	-40(%rbp), %rcx         # 8-byte Reload
	shlq	$10, %rcx
	addq	%rax, %rcx
	addl	(%rdi,%rcx,4), %edx
	movl	%edx, (%rdi,%rcx,4)
	addq	$1, %rax
	cmpq	$256, %rax              # imm = 0x100
	movq	%rax, -232(%rbp)        # 8-byte Spill
	jne	.LBB0_26
# %bb.27:                               # %for.inc17.11
                                        #   in Loop: Header=BB0_1 Depth=1
	xorl	%eax, %eax
	movl	%eax, %ecx
	movq	-40(%rbp), %rdx         # 8-byte Reload
	shlq	$10, %rdx
	movq	-8(%rbp), %rsi          # 8-byte Reload
	movl	48(%rsi,%rdx,4), %eax
	movl	%eax, -236(%rbp)        # 4-byte Spill
	movq	%rcx, -248(%rbp)        # 8-byte Spill
.LBB0_28:                               # %for.body6.12
                                        #   Parent Loop BB0_1 Depth=1
                                        # =>  This Inner Loop Header: Depth=2
	movq	-248(%rbp), %rax        # 8-byte Reload
	movq	%rax, %rcx
	addq	$12288, %rcx            # imm = 0x3000
	movl	-236(%rbp), %edx        # 4-byte Reload
	movq	-16(%rbp), %rsi         # 8-byte Reload
	imull	(%rsi,%rcx,4), %edx
	movq	-40(%rbp), %rcx         # 8-byte Reload
	shlq	$10, %rcx
	addq	%rax, %rcx
	movq	-24(%rbp), %rdi         # 8-byte Reload
	addl	(%rdi,%rcx,4), %edx
	movl	%edx, (%rdi,%rcx,4)
	addq	$1, %rax
	movq	%rax, %rcx
	addq	$12288, %rcx            # imm = 0x3000
	movl	-236(%rbp), %edx        # 4-byte Reload
	imull	(%rsi,%rcx,4), %edx
	movq	-40(%rbp), %rcx         # 8-byte Reload
	shlq	$10, %rcx
	addq	%rax, %rcx
	addl	(%rdi,%rcx,4), %edx
	movl	%edx, (%rdi,%rcx,4)
	addq	$1, %rax
	movq	%rax, %rcx
	addq	$12288, %rcx            # imm = 0x3000
	movl	-236(%rbp), %edx        # 4-byte Reload
	imull	(%rsi,%rcx,4), %edx
	movq	-40(%rbp), %rcx         # 8-byte Reload
	shlq	$10, %rcx
	addq	%rax, %rcx
	addl	(%rdi,%rcx,4), %edx
	movl	%edx, (%rdi,%rcx,4)
	addq	$1, %rax
	movq	%rax, %rcx
	addq	$12288, %rcx            # imm = 0x3000
	movl	-236(%rbp), %edx        # 4-byte Reload
	imull	(%rsi,%rcx,4), %edx
	movq	-40(%rbp), %rcx         # 8-byte Reload
	shlq	$10, %rcx
	addq	%rax, %rcx
	addl	(%rdi,%rcx,4), %edx
	movl	%edx, (%rdi,%rcx,4)
	addq	$1, %rax
	cmpq	$256, %rax              # imm = 0x100
	movq	%rax, -248(%rbp)        # 8-byte Spill
	jne	.LBB0_28
# %bb.29:                               # %for.inc17.12
                                        #   in Loop: Header=BB0_1 Depth=1
	xorl	%eax, %eax
	movl	%eax, %ecx
	movq	-40(%rbp), %rdx         # 8-byte Reload
	shlq	$10, %rdx
	movq	-8(%rbp), %rsi          # 8-byte Reload
	movl	52(%rsi,%rdx,4), %eax
	movl	%eax, -252(%rbp)        # 4-byte Spill
	movq	%rcx, -264(%rbp)        # 8-byte Spill
.LBB0_30:                               # %for.body6.13
                                        #   Parent Loop BB0_1 Depth=1
                                        # =>  This Inner Loop Header: Depth=2
	movq	-264(%rbp), %rax        # 8-byte Reload
	movq	%rax, %rcx
	addq	$13312, %rcx            # imm = 0x3400
	movl	-252(%rbp), %edx        # 4-byte Reload
	movq	-16(%rbp), %rsi         # 8-byte Reload
	imull	(%rsi,%rcx,4), %edx
	movq	-40(%rbp), %rcx         # 8-byte Reload
	shlq	$10, %rcx
	addq	%rax, %rcx
	movq	-24(%rbp), %rdi         # 8-byte Reload
	addl	(%rdi,%rcx,4), %edx
	movl	%edx, (%rdi,%rcx,4)
	addq	$1, %rax
	movq	%rax, %rcx
	addq	$13312, %rcx            # imm = 0x3400
	movl	-252(%rbp), %edx        # 4-byte Reload
	imull	(%rsi,%rcx,4), %edx
	movq	-40(%rbp), %rcx         # 8-byte Reload
	shlq	$10, %rcx
	addq	%rax, %rcx
	addl	(%rdi,%rcx,4), %edx
	movl	%edx, (%rdi,%rcx,4)
	addq	$1, %rax
	movq	%rax, %rcx
	addq	$13312, %rcx            # imm = 0x3400
	movl	-252(%rbp), %edx        # 4-byte Reload
	imull	(%rsi,%rcx,4), %edx
	movq	-40(%rbp), %rcx         # 8-byte Reload
	shlq	$10, %rcx
	addq	%rax, %rcx
	addl	(%rdi,%rcx,4), %edx
	movl	%edx, (%rdi,%rcx,4)
	addq	$1, %rax
	movq	%rax, %rcx
	addq	$13312, %rcx            # imm = 0x3400
	movl	-252(%rbp), %edx        # 4-byte Reload
	imull	(%rsi,%rcx,4), %edx
	movq	-40(%rbp), %rcx         # 8-byte Reload
	shlq	$10, %rcx
	addq	%rax, %rcx
	addl	(%rdi,%rcx,4), %edx
	movl	%edx, (%rdi,%rcx,4)
	addq	$1, %rax
	cmpq	$256, %rax              # imm = 0x100
	movq	%rax, -264(%rbp)        # 8-byte Spill
	jne	.LBB0_30
# %bb.31:                               # %for.inc17.13
                                        #   in Loop: Header=BB0_1 Depth=1
	xorl	%eax, %eax
	movl	%eax, %ecx
	movq	-40(%rbp), %rdx         # 8-byte Reload
	shlq	$10, %rdx
	movq	-8(%rbp), %rsi          # 8-byte Reload
	movl	56(%rsi,%rdx,4), %eax
	movl	%eax, -268(%rbp)        # 4-byte Spill
	movq	%rcx, -280(%rbp)        # 8-byte Spill
.LBB0_32:                               # %for.body6.14
                                        #   Parent Loop BB0_1 Depth=1
                                        # =>  This Inner Loop Header: Depth=2
	movq	-280(%rbp), %rax        # 8-byte Reload
	movq	%rax, %rcx
	addq	$14336, %rcx            # imm = 0x3800
	movl	-268(%rbp), %edx        # 4-byte Reload
	movq	-16(%rbp), %rsi         # 8-byte Reload
	imull	(%rsi,%rcx,4), %edx
	movq	-40(%rbp), %rcx         # 8-byte Reload
	shlq	$10, %rcx
	addq	%rax, %rcx
	movq	-24(%rbp), %rdi         # 8-byte Reload
	addl	(%rdi,%rcx,4), %edx
	movl	%edx, (%rdi,%rcx,4)
	addq	$1, %rax
	movq	%rax, %rcx
	addq	$14336, %rcx            # imm = 0x3800
	movl	-268(%rbp), %edx        # 4-byte Reload
	imull	(%rsi,%rcx,4), %edx
	movq	-40(%rbp), %rcx         # 8-byte Reload
	shlq	$10, %rcx
	addq	%rax, %rcx
	addl	(%rdi,%rcx,4), %edx
	movl	%edx, (%rdi,%rcx,4)
	addq	$1, %rax
	movq	%rax, %rcx
	addq	$14336, %rcx            # imm = 0x3800
	movl	-268(%rbp), %edx        # 4-byte Reload
	imull	(%rsi,%rcx,4), %edx
	movq	-40(%rbp), %rcx         # 8-byte Reload
	shlq	$10, %rcx
	addq	%rax, %rcx
	addl	(%rdi,%rcx,4), %edx
	movl	%edx, (%rdi,%rcx,4)
	addq	$1, %rax
	movq	%rax, %rcx
	addq	$14336, %rcx            # imm = 0x3800
	movl	-268(%rbp), %edx        # 4-byte Reload
	imull	(%rsi,%rcx,4), %edx
	movq	-40(%rbp), %rcx         # 8-byte Reload
	shlq	$10, %rcx
	addq	%rax, %rcx
	addl	(%rdi,%rcx,4), %edx
	movl	%edx, (%rdi,%rcx,4)
	addq	$1, %rax
	cmpq	$256, %rax              # imm = 0x100
	movq	%rax, -280(%rbp)        # 8-byte Spill
	jne	.LBB0_32
# %bb.33:                               # %for.inc17.14
                                        #   in Loop: Header=BB0_1 Depth=1
	xorl	%eax, %eax
	movl	%eax, %ecx
	movq	-40(%rbp), %rdx         # 8-byte Reload
	shlq	$10, %rdx
	movq	-8(%rbp), %rsi          # 8-byte Reload
	movl	60(%rsi,%rdx,4), %eax
	movl	%eax, -284(%rbp)        # 4-byte Spill
	movq	%rcx, -296(%rbp)        # 8-byte Spill
.LBB0_34:                               # %for.body6.15
                                        #   Parent Loop BB0_1 Depth=1
                                        # =>  This Inner Loop Header: Depth=2
	movq	-296(%rbp), %rax        # 8-byte Reload
	movq	%rax, %rcx
	addq	$15360, %rcx            # imm = 0x3C00
	movl	-284(%rbp), %edx        # 4-byte Reload
	movq	-16(%rbp), %rsi         # 8-byte Reload
	imull	(%rsi,%rcx,4), %edx
	movq	-40(%rbp), %rcx         # 8-byte Reload
	shlq	$10, %rcx
	addq	%rax, %rcx
	movq	-24(%rbp), %rdi         # 8-byte Reload
	addl	(%rdi,%rcx,4), %edx
	movl	%edx, (%rdi,%rcx,4)
	addq	$1, %rax
	movq	%rax, %rcx
	addq	$15360, %rcx            # imm = 0x3C00
	movl	-284(%rbp), %edx        # 4-byte Reload
	imull	(%rsi,%rcx,4), %edx
	movq	-40(%rbp), %rcx         # 8-byte Reload
	shlq	$10, %rcx
	addq	%rax, %rcx
	addl	(%rdi,%rcx,4), %edx
	movl	%edx, (%rdi,%rcx,4)
	addq	$1, %rax
	movq	%rax, %rcx
	addq	$15360, %rcx            # imm = 0x3C00
	movl	-284(%rbp), %edx        # 4-byte Reload
	imull	(%rsi,%rcx,4), %edx
	movq	-40(%rbp), %rcx         # 8-byte Reload
	shlq	$10, %rcx
	addq	%rax, %rcx
	addl	(%rdi,%rcx,4), %edx
	movl	%edx, (%rdi,%rcx,4)
	addq	$1, %rax
	movq	%rax, %rcx
	addq	$15360, %rcx            # imm = 0x3C00
	movl	-284(%rbp), %edx        # 4-byte Reload
	imull	(%rsi,%rcx,4), %edx
	movq	-40(%rbp), %rcx         # 8-byte Reload
	shlq	$10, %rcx
	addq	%rax, %rcx
	addl	(%rdi,%rcx,4), %edx
	movl	%edx, (%rdi,%rcx,4)
	addq	$1, %rax
	cmpq	$256, %rax              # imm = 0x100
	movq	%rax, -296(%rbp)        # 8-byte Spill
	jne	.LBB0_34
# %bb.35:                               # %for.inc17.15
                                        #   in Loop: Header=BB0_1 Depth=1
	xorl	%eax, %eax
	movl	%eax, %ecx
	movq	-40(%rbp), %rdx         # 8-byte Reload
	shlq	$10, %rdx
	movq	-8(%rbp), %rsi          # 8-byte Reload
	movl	64(%rsi,%rdx,4), %eax
	movl	%eax, -300(%rbp)        # 4-byte Spill
	movq	%rcx, -312(%rbp)        # 8-byte Spill
.LBB0_36:                               # %for.body6.16
                                        #   Parent Loop BB0_1 Depth=1
                                        # =>  This Inner Loop Header: Depth=2
	movq	-312(%rbp), %rax        # 8-byte Reload
	movq	%rax, %rcx
	addq	$16384, %rcx            # imm = 0x4000
	movl	-300(%rbp), %edx        # 4-byte Reload
	movq	-16(%rbp), %rsi         # 8-byte Reload
	imull	(%rsi,%rcx,4), %edx
	movq	-40(%rbp), %rcx         # 8-byte Reload
	shlq	$10, %rcx
	addq	%rax, %rcx
	movq	-24(%rbp), %rdi         # 8-byte Reload
	addl	(%rdi,%rcx,4), %edx
	movl	%edx, (%rdi,%rcx,4)
	addq	$1, %rax
	movq	%rax, %rcx
	addq	$16384, %rcx            # imm = 0x4000
	movl	-300(%rbp), %edx        # 4-byte Reload
	imull	(%rsi,%rcx,4), %edx
	movq	-40(%rbp), %rcx         # 8-byte Reload
	shlq	$10, %rcx
	addq	%rax, %rcx
	addl	(%rdi,%rcx,4), %edx
	movl	%edx, (%rdi,%rcx,4)
	addq	$1, %rax
	movq	%rax, %rcx
	addq	$16384, %rcx            # imm = 0x4000
	movl	-300(%rbp), %edx        # 4-byte Reload
	imull	(%rsi,%rcx,4), %edx
	movq	-40(%rbp), %rcx         # 8-byte Reload
	shlq	$10, %rcx
	addq	%rax, %rcx
	addl	(%rdi,%rcx,4), %edx
	movl	%edx, (%rdi,%rcx,4)
	addq	$1, %rax
	movq	%rax, %rcx
	addq	$16384, %rcx            # imm = 0x4000
	movl	-300(%rbp), %edx        # 4-byte Reload
	imull	(%rsi,%rcx,4), %edx
	movq	-40(%rbp), %rcx         # 8-byte Reload
	shlq	$10, %rcx
	addq	%rax, %rcx
	addl	(%rdi,%rcx,4), %edx
	movl	%edx, (%rdi,%rcx,4)
	addq	$1, %rax
	cmpq	$256, %rax              # imm = 0x100
	movq	%rax, -312(%rbp)        # 8-byte Spill
	jne	.LBB0_36
# %bb.37:                               # %for.inc17.16
                                        #   in Loop: Header=BB0_1 Depth=1
	xorl	%eax, %eax
	movl	%eax, %ecx
	movq	-40(%rbp), %rdx         # 8-byte Reload
	shlq	$10, %rdx
	movq	-8(%rbp), %rsi          # 8-byte Reload
	movl	68(%rsi,%rdx,4), %eax
	movl	%eax, -316(%rbp)        # 4-byte Spill
	movq	%rcx, -328(%rbp)        # 8-byte Spill
.LBB0_38:                               # %for.body6.17
                                        #   Parent Loop BB0_1 Depth=1
                                        # =>  This Inner Loop Header: Depth=2
	movq	-328(%rbp), %rax        # 8-byte Reload
	movq	%rax, %rcx
	addq	$17408, %rcx            # imm = 0x4400
	movl	-316(%rbp), %edx        # 4-byte Reload
	movq	-16(%rbp), %rsi         # 8-byte Reload
	imull	(%rsi,%rcx,4), %edx
	movq	-40(%rbp), %rcx         # 8-byte Reload
	shlq	$10, %rcx
	addq	%rax, %rcx
	movq	-24(%rbp), %rdi         # 8-byte Reload
	addl	(%rdi,%rcx,4), %edx
	movl	%edx, (%rdi,%rcx,4)
	addq	$1, %rax
	movq	%rax, %rcx
	addq	$17408, %rcx            # imm = 0x4400
	movl	-316(%rbp), %edx        # 4-byte Reload
	imull	(%rsi,%rcx,4), %edx
	movq	-40(%rbp), %rcx         # 8-byte Reload
	shlq	$10, %rcx
	addq	%rax, %rcx
	addl	(%rdi,%rcx,4), %edx
	movl	%edx, (%rdi,%rcx,4)
	addq	$1, %rax
	movq	%rax, %rcx
	addq	$17408, %rcx            # imm = 0x4400
	movl	-316(%rbp), %edx        # 4-byte Reload
	imull	(%rsi,%rcx,4), %edx
	movq	-40(%rbp), %rcx         # 8-byte Reload
	shlq	$10, %rcx
	addq	%rax, %rcx
	addl	(%rdi,%rcx,4), %edx
	movl	%edx, (%rdi,%rcx,4)
	addq	$1, %rax
	movq	%rax, %rcx
	addq	$17408, %rcx            # imm = 0x4400
	movl	-316(%rbp), %edx        # 4-byte Reload
	imull	(%rsi,%rcx,4), %edx
	movq	-40(%rbp), %rcx         # 8-byte Reload
	shlq	$10, %rcx
	addq	%rax, %rcx
	addl	(%rdi,%rcx,4), %edx
	movl	%edx, (%rdi,%rcx,4)
	addq	$1, %rax
	cmpq	$256, %rax              # imm = 0x100
	movq	%rax, -328(%rbp)        # 8-byte Spill
	jne	.LBB0_38
# %bb.39:                               # %for.inc17.17
                                        #   in Loop: Header=BB0_1 Depth=1
	xorl	%eax, %eax
	movl	%eax, %ecx
	movq	-40(%rbp), %rdx         # 8-byte Reload
	shlq	$10, %rdx
	movq	-8(%rbp), %rsi          # 8-byte Reload
	movl	72(%rsi,%rdx,4), %eax
	movl	%eax, -332(%rbp)        # 4-byte Spill
	movq	%rcx, -344(%rbp)        # 8-byte Spill
.LBB0_40:                               # %for.body6.18
                                        #   Parent Loop BB0_1 Depth=1
                                        # =>  This Inner Loop Header: Depth=2
	movq	-344(%rbp), %rax        # 8-byte Reload
	movq	%rax, %rcx
	addq	$18432, %rcx            # imm = 0x4800
	movl	-332(%rbp), %edx        # 4-byte Reload
	movq	-16(%rbp), %rsi         # 8-byte Reload
	imull	(%rsi,%rcx,4), %edx
	movq	-40(%rbp), %rcx         # 8-byte Reload
	shlq	$10, %rcx
	addq	%rax, %rcx
	movq	-24(%rbp), %rdi         # 8-byte Reload
	addl	(%rdi,%rcx,4), %edx
	movl	%edx, (%rdi,%rcx,4)
	addq	$1, %rax
	movq	%rax, %rcx
	addq	$18432, %rcx            # imm = 0x4800
	movl	-332(%rbp), %edx        # 4-byte Reload
	imull	(%rsi,%rcx,4), %edx
	movq	-40(%rbp), %rcx         # 8-byte Reload
	shlq	$10, %rcx
	addq	%rax, %rcx
	addl	(%rdi,%rcx,4), %edx
	movl	%edx, (%rdi,%rcx,4)
	addq	$1, %rax
	movq	%rax, %rcx
	addq	$18432, %rcx            # imm = 0x4800
	movl	-332(%rbp), %edx        # 4-byte Reload
	imull	(%rsi,%rcx,4), %edx
	movq	-40(%rbp), %rcx         # 8-byte Reload
	shlq	$10, %rcx
	addq	%rax, %rcx
	addl	(%rdi,%rcx,4), %edx
	movl	%edx, (%rdi,%rcx,4)
	addq	$1, %rax
	movq	%rax, %rcx
	addq	$18432, %rcx            # imm = 0x4800
	movl	-332(%rbp), %edx        # 4-byte Reload
	imull	(%rsi,%rcx,4), %edx
	movq	-40(%rbp), %rcx         # 8-byte Reload
	shlq	$10, %rcx
	addq	%rax, %rcx
	addl	(%rdi,%rcx,4), %edx
	movl	%edx, (%rdi,%rcx,4)
	addq	$1, %rax
	cmpq	$256, %rax              # imm = 0x100
	movq	%rax, -344(%rbp)        # 8-byte Spill
	jne	.LBB0_40
# %bb.41:                               # %for.inc17.18
                                        #   in Loop: Header=BB0_1 Depth=1
	xorl	%eax, %eax
	movl	%eax, %ecx
	movq	-40(%rbp), %rdx         # 8-byte Reload
	shlq	$10, %rdx
	movq	-8(%rbp), %rsi          # 8-byte Reload
	movl	76(%rsi,%rdx,4), %eax
	movl	%eax, -348(%rbp)        # 4-byte Spill
	movq	%rcx, -360(%rbp)        # 8-byte Spill
.LBB0_42:                               # %for.body6.19
                                        #   Parent Loop BB0_1 Depth=1
                                        # =>  This Inner Loop Header: Depth=2
	movq	-360(%rbp), %rax        # 8-byte Reload
	movq	%rax, %rcx
	addq	$19456, %rcx            # imm = 0x4C00
	movl	-348(%rbp), %edx        # 4-byte Reload
	movq	-16(%rbp), %rsi         # 8-byte Reload
	imull	(%rsi,%rcx,4), %edx
	movq	-40(%rbp), %rcx         # 8-byte Reload
	shlq	$10, %rcx
	addq	%rax, %rcx
	movq	-24(%rbp), %rdi         # 8-byte Reload
	addl	(%rdi,%rcx,4), %edx
	movl	%edx, (%rdi,%rcx,4)
	addq	$1, %rax
	movq	%rax, %rcx
	addq	$19456, %rcx            # imm = 0x4C00
	movl	-348(%rbp), %edx        # 4-byte Reload
	imull	(%rsi,%rcx,4), %edx
	movq	-40(%rbp), %rcx         # 8-byte Reload
	shlq	$10, %rcx
	addq	%rax, %rcx
	addl	(%rdi,%rcx,4), %edx
	movl	%edx, (%rdi,%rcx,4)
	addq	$1, %rax
	movq	%rax, %rcx
	addq	$19456, %rcx            # imm = 0x4C00
	movl	-348(%rbp), %edx        # 4-byte Reload
	imull	(%rsi,%rcx,4), %edx
	movq	-40(%rbp), %rcx         # 8-byte Reload
	shlq	$10, %rcx
	addq	%rax, %rcx
	addl	(%rdi,%rcx,4), %edx
	movl	%edx, (%rdi,%rcx,4)
	addq	$1, %rax
	movq	%rax, %rcx
	addq	$19456, %rcx            # imm = 0x4C00
	movl	-348(%rbp), %edx        # 4-byte Reload
	imull	(%rsi,%rcx,4), %edx
	movq	-40(%rbp), %rcx         # 8-byte Reload
	shlq	$10, %rcx
	addq	%rax, %rcx
	addl	(%rdi,%rcx,4), %edx
	movl	%edx, (%rdi,%rcx,4)
	addq	$1, %rax
	cmpq	$256, %rax              # imm = 0x100
	movq	%rax, -360(%rbp)        # 8-byte Spill
	jne	.LBB0_42
# %bb.43:                               # %for.inc17.19
                                        #   in Loop: Header=BB0_1 Depth=1
	xorl	%eax, %eax
	movl	%eax, %ecx
	movq	-40(%rbp), %rdx         # 8-byte Reload
	shlq	$10, %rdx
	movq	-8(%rbp), %rsi          # 8-byte Reload
	movl	80(%rsi,%rdx,4), %eax
	movl	%eax, -364(%rbp)        # 4-byte Spill
	movq	%rcx, -376(%rbp)        # 8-byte Spill
.LBB0_44:                               # %for.body6.20
                                        #   Parent Loop BB0_1 Depth=1
                                        # =>  This Inner Loop Header: Depth=2
	movq	-376(%rbp), %rax        # 8-byte Reload
	movq	%rax, %rcx
	addq	$20480, %rcx            # imm = 0x5000
	movl	-364(%rbp), %edx        # 4-byte Reload
	movq	-16(%rbp), %rsi         # 8-byte Reload
	imull	(%rsi,%rcx,4), %edx
	movq	-40(%rbp), %rcx         # 8-byte Reload
	shlq	$10, %rcx
	addq	%rax, %rcx
	movq	-24(%rbp), %rdi         # 8-byte Reload
	addl	(%rdi,%rcx,4), %edx
	movl	%edx, (%rdi,%rcx,4)
	addq	$1, %rax
	movq	%rax, %rcx
	addq	$20480, %rcx            # imm = 0x5000
	movl	-364(%rbp), %edx        # 4-byte Reload
	imull	(%rsi,%rcx,4), %edx
	movq	-40(%rbp), %rcx         # 8-byte Reload
	shlq	$10, %rcx
	addq	%rax, %rcx
	addl	(%rdi,%rcx,4), %edx
	movl	%edx, (%rdi,%rcx,4)
	addq	$1, %rax
	movq	%rax, %rcx
	addq	$20480, %rcx            # imm = 0x5000
	movl	-364(%rbp), %edx        # 4-byte Reload
	imull	(%rsi,%rcx,4), %edx
	movq	-40(%rbp), %rcx         # 8-byte Reload
	shlq	$10, %rcx
	addq	%rax, %rcx
	addl	(%rdi,%rcx,4), %edx
	movl	%edx, (%rdi,%rcx,4)
	addq	$1, %rax
	movq	%rax, %rcx
	addq	$20480, %rcx            # imm = 0x5000
	movl	-364(%rbp), %edx        # 4-byte Reload
	imull	(%rsi,%rcx,4), %edx
	movq	-40(%rbp), %rcx         # 8-byte Reload
	shlq	$10, %rcx
	addq	%rax, %rcx
	addl	(%rdi,%rcx,4), %edx
	movl	%edx, (%rdi,%rcx,4)
	addq	$1, %rax
	cmpq	$256, %rax              # imm = 0x100
	movq	%rax, -376(%rbp)        # 8-byte Spill
	jne	.LBB0_44
# %bb.45:                               # %for.inc17.20
                                        #   in Loop: Header=BB0_1 Depth=1
	xorl	%eax, %eax
	movl	%eax, %ecx
	movq	-40(%rbp), %rdx         # 8-byte Reload
	shlq	$10, %rdx
	movq	-8(%rbp), %rsi          # 8-byte Reload
	movl	84(%rsi,%rdx,4), %eax
	movl	%eax, -380(%rbp)        # 4-byte Spill
	movq	%rcx, -392(%rbp)        # 8-byte Spill
.LBB0_46:                               # %for.body6.21
                                        #   Parent Loop BB0_1 Depth=1
                                        # =>  This Inner Loop Header: Depth=2
	movq	-392(%rbp), %rax        # 8-byte Reload
	movq	%rax, %rcx
	addq	$21504, %rcx            # imm = 0x5400
	movl	-380(%rbp), %edx        # 4-byte Reload
	movq	-16(%rbp), %rsi         # 8-byte Reload
	imull	(%rsi,%rcx,4), %edx
	movq	-40(%rbp), %rcx         # 8-byte Reload
	shlq	$10, %rcx
	addq	%rax, %rcx
	movq	-24(%rbp), %rdi         # 8-byte Reload
	addl	(%rdi,%rcx,4), %edx
	movl	%edx, (%rdi,%rcx,4)
	addq	$1, %rax
	movq	%rax, %rcx
	addq	$21504, %rcx            # imm = 0x5400
	movl	-380(%rbp), %edx        # 4-byte Reload
	imull	(%rsi,%rcx,4), %edx
	movq	-40(%rbp), %rcx         # 8-byte Reload
	shlq	$10, %rcx
	addq	%rax, %rcx
	addl	(%rdi,%rcx,4), %edx
	movl	%edx, (%rdi,%rcx,4)
	addq	$1, %rax
	movq	%rax, %rcx
	addq	$21504, %rcx            # imm = 0x5400
	movl	-380(%rbp), %edx        # 4-byte Reload
	imull	(%rsi,%rcx,4), %edx
	movq	-40(%rbp), %rcx         # 8-byte Reload
	shlq	$10, %rcx
	addq	%rax, %rcx
	addl	(%rdi,%rcx,4), %edx
	movl	%edx, (%rdi,%rcx,4)
	addq	$1, %rax
	movq	%rax, %rcx
	addq	$21504, %rcx            # imm = 0x5400
	movl	-380(%rbp), %edx        # 4-byte Reload
	imull	(%rsi,%rcx,4), %edx
	movq	-40(%rbp), %rcx         # 8-byte Reload
	shlq	$10, %rcx
	addq	%rax, %rcx
	addl	(%rdi,%rcx,4), %edx
	movl	%edx, (%rdi,%rcx,4)
	addq	$1, %rax
	cmpq	$256, %rax              # imm = 0x100
	movq	%rax, -392(%rbp)        # 8-byte Spill
	jne	.LBB0_46
# %bb.47:                               # %for.inc17.21
                                        #   in Loop: Header=BB0_1 Depth=1
	xorl	%eax, %eax
	movl	%eax, %ecx
	movq	-40(%rbp), %rdx         # 8-byte Reload
	shlq	$10, %rdx
	movq	-8(%rbp), %rsi          # 8-byte Reload
	movl	88(%rsi,%rdx,4), %eax
	movl	%eax, -396(%rbp)        # 4-byte Spill
	movq	%rcx, -408(%rbp)        # 8-byte Spill
.LBB0_48:                               # %for.body6.22
                                        #   Parent Loop BB0_1 Depth=1
                                        # =>  This Inner Loop Header: Depth=2
	movq	-408(%rbp), %rax        # 8-byte Reload
	movq	%rax, %rcx
	addq	$22528, %rcx            # imm = 0x5800
	movl	-396(%rbp), %edx        # 4-byte Reload
	movq	-16(%rbp), %rsi         # 8-byte Reload
	imull	(%rsi,%rcx,4), %edx
	movq	-40(%rbp), %rcx         # 8-byte Reload
	shlq	$10, %rcx
	addq	%rax, %rcx
	movq	-24(%rbp), %rdi         # 8-byte Reload
	addl	(%rdi,%rcx,4), %edx
	movl	%edx, (%rdi,%rcx,4)
	addq	$1, %rax
	movq	%rax, %rcx
	addq	$22528, %rcx            # imm = 0x5800
	movl	-396(%rbp), %edx        # 4-byte Reload
	imull	(%rsi,%rcx,4), %edx
	movq	-40(%rbp), %rcx         # 8-byte Reload
	shlq	$10, %rcx
	addq	%rax, %rcx
	addl	(%rdi,%rcx,4), %edx
	movl	%edx, (%rdi,%rcx,4)
	addq	$1, %rax
	movq	%rax, %rcx
	addq	$22528, %rcx            # imm = 0x5800
	movl	-396(%rbp), %edx        # 4-byte Reload
	imull	(%rsi,%rcx,4), %edx
	movq	-40(%rbp), %rcx         # 8-byte Reload
	shlq	$10, %rcx
	addq	%rax, %rcx
	addl	(%rdi,%rcx,4), %edx
	movl	%edx, (%rdi,%rcx,4)
	addq	$1, %rax
	movq	%rax, %rcx
	addq	$22528, %rcx            # imm = 0x5800
	movl	-396(%rbp), %edx        # 4-byte Reload
	imull	(%rsi,%rcx,4), %edx
	movq	-40(%rbp), %rcx         # 8-byte Reload
	shlq	$10, %rcx
	addq	%rax, %rcx
	addl	(%rdi,%rcx,4), %edx
	movl	%edx, (%rdi,%rcx,4)
	addq	$1, %rax
	cmpq	$256, %rax              # imm = 0x100
	movq	%rax, -408(%rbp)        # 8-byte Spill
	jne	.LBB0_48
# %bb.49:                               # %for.inc17.22
                                        #   in Loop: Header=BB0_1 Depth=1
	xorl	%eax, %eax
	movl	%eax, %ecx
	movq	-40(%rbp), %rdx         # 8-byte Reload
	shlq	$10, %rdx
	movq	-8(%rbp), %rsi          # 8-byte Reload
	movl	92(%rsi,%rdx,4), %eax
	movl	%eax, -412(%rbp)        # 4-byte Spill
	movq	%rcx, -424(%rbp)        # 8-byte Spill
.LBB0_50:                               # %for.body6.23
                                        #   Parent Loop BB0_1 Depth=1
                                        # =>  This Inner Loop Header: Depth=2
	movq	-424(%rbp), %rax        # 8-byte Reload
	movq	%rax, %rcx
	addq	$23552, %rcx            # imm = 0x5C00
	movl	-412(%rbp), %edx        # 4-byte Reload
	movq	-16(%rbp), %rsi         # 8-byte Reload
	imull	(%rsi,%rcx,4), %edx
	movq	-40(%rbp), %rcx         # 8-byte Reload
	shlq	$10, %rcx
	addq	%rax, %rcx
	movq	-24(%rbp), %rdi         # 8-byte Reload
	addl	(%rdi,%rcx,4), %edx
	movl	%edx, (%rdi,%rcx,4)
	addq	$1, %rax
	movq	%rax, %rcx
	addq	$23552, %rcx            # imm = 0x5C00
	movl	-412(%rbp), %edx        # 4-byte Reload
	imull	(%rsi,%rcx,4), %edx
	movq	-40(%rbp), %rcx         # 8-byte Reload
	shlq	$10, %rcx
	addq	%rax, %rcx
	addl	(%rdi,%rcx,4), %edx
	movl	%edx, (%rdi,%rcx,4)
	addq	$1, %rax
	movq	%rax, %rcx
	addq	$23552, %rcx            # imm = 0x5C00
	movl	-412(%rbp), %edx        # 4-byte Reload
	imull	(%rsi,%rcx,4), %edx
	movq	-40(%rbp), %rcx         # 8-byte Reload
	shlq	$10, %rcx
	addq	%rax, %rcx
	addl	(%rdi,%rcx,4), %edx
	movl	%edx, (%rdi,%rcx,4)
	addq	$1, %rax
	movq	%rax, %rcx
	addq	$23552, %rcx            # imm = 0x5C00
	movl	-412(%rbp), %edx        # 4-byte Reload
	imull	(%rsi,%rcx,4), %edx
	movq	-40(%rbp), %rcx         # 8-byte Reload
	shlq	$10, %rcx
	addq	%rax, %rcx
	addl	(%rdi,%rcx,4), %edx
	movl	%edx, (%rdi,%rcx,4)
	addq	$1, %rax
	cmpq	$256, %rax              # imm = 0x100
	movq	%rax, -424(%rbp)        # 8-byte Spill
	jne	.LBB0_50
# %bb.51:                               # %for.inc17.23
                                        #   in Loop: Header=BB0_1 Depth=1
	xorl	%eax, %eax
	movl	%eax, %ecx
	movq	-40(%rbp), %rdx         # 8-byte Reload
	shlq	$10, %rdx
	movq	-8(%rbp), %rsi          # 8-byte Reload
	movl	96(%rsi,%rdx,4), %eax
	movl	%eax, -428(%rbp)        # 4-byte Spill
	movq	%rcx, -440(%rbp)        # 8-byte Spill
.LBB0_52:                               # %for.body6.24
                                        #   Parent Loop BB0_1 Depth=1
                                        # =>  This Inner Loop Header: Depth=2
	movq	-440(%rbp), %rax        # 8-byte Reload
	movq	%rax, %rcx
	addq	$24576, %rcx            # imm = 0x6000
	movl	-428(%rbp), %edx        # 4-byte Reload
	movq	-16(%rbp), %rsi         # 8-byte Reload
	imull	(%rsi,%rcx,4), %edx
	movq	-40(%rbp), %rcx         # 8-byte Reload
	shlq	$10, %rcx
	addq	%rax, %rcx
	movq	-24(%rbp), %rdi         # 8-byte Reload
	addl	(%rdi,%rcx,4), %edx
	movl	%edx, (%rdi,%rcx,4)
	addq	$1, %rax
	movq	%rax, %rcx
	addq	$24576, %rcx            # imm = 0x6000
	movl	-428(%rbp), %edx        # 4-byte Reload
	imull	(%rsi,%rcx,4), %edx
	movq	-40(%rbp), %rcx         # 8-byte Reload
	shlq	$10, %rcx
	addq	%rax, %rcx
	addl	(%rdi,%rcx,4), %edx
	movl	%edx, (%rdi,%rcx,4)
	addq	$1, %rax
	movq	%rax, %rcx
	addq	$24576, %rcx            # imm = 0x6000
	movl	-428(%rbp), %edx        # 4-byte Reload
	imull	(%rsi,%rcx,4), %edx
	movq	-40(%rbp), %rcx         # 8-byte Reload
	shlq	$10, %rcx
	addq	%rax, %rcx
	addl	(%rdi,%rcx,4), %edx
	movl	%edx, (%rdi,%rcx,4)
	addq	$1, %rax
	movq	%rax, %rcx
	addq	$24576, %rcx            # imm = 0x6000
	movl	-428(%rbp), %edx        # 4-byte Reload
	imull	(%rsi,%rcx,4), %edx
	movq	-40(%rbp), %rcx         # 8-byte Reload
	shlq	$10, %rcx
	addq	%rax, %rcx
	addl	(%rdi,%rcx,4), %edx
	movl	%edx, (%rdi,%rcx,4)
	addq	$1, %rax
	cmpq	$256, %rax              # imm = 0x100
	movq	%rax, -440(%rbp)        # 8-byte Spill
	jne	.LBB0_52
# %bb.53:                               # %for.inc17.24
                                        #   in Loop: Header=BB0_1 Depth=1
	xorl	%eax, %eax
	movl	%eax, %ecx
	movq	-40(%rbp), %rdx         # 8-byte Reload
	shlq	$10, %rdx
	movq	-8(%rbp), %rsi          # 8-byte Reload
	movl	100(%rsi,%rdx,4), %eax
	movl	%eax, -444(%rbp)        # 4-byte Spill
	movq	%rcx, -456(%rbp)        # 8-byte Spill
.LBB0_54:                               # %for.body6.25
                                        #   Parent Loop BB0_1 Depth=1
                                        # =>  This Inner Loop Header: Depth=2
	movq	-456(%rbp), %rax        # 8-byte Reload
	movq	%rax, %rcx
	addq	$25600, %rcx            # imm = 0x6400
	movl	-444(%rbp), %edx        # 4-byte Reload
	movq	-16(%rbp), %rsi         # 8-byte Reload
	imull	(%rsi,%rcx,4), %edx
	movq	-40(%rbp), %rcx         # 8-byte Reload
	shlq	$10, %rcx
	addq	%rax, %rcx
	movq	-24(%rbp), %rdi         # 8-byte Reload
	addl	(%rdi,%rcx,4), %edx
	movl	%edx, (%rdi,%rcx,4)
	addq	$1, %rax
	movq	%rax, %rcx
	addq	$25600, %rcx            # imm = 0x6400
	movl	-444(%rbp), %edx        # 4-byte Reload
	imull	(%rsi,%rcx,4), %edx
	movq	-40(%rbp), %rcx         # 8-byte Reload
	shlq	$10, %rcx
	addq	%rax, %rcx
	addl	(%rdi,%rcx,4), %edx
	movl	%edx, (%rdi,%rcx,4)
	addq	$1, %rax
	movq	%rax, %rcx
	addq	$25600, %rcx            # imm = 0x6400
	movl	-444(%rbp), %edx        # 4-byte Reload
	imull	(%rsi,%rcx,4), %edx
	movq	-40(%rbp), %rcx         # 8-byte Reload
	shlq	$10, %rcx
	addq	%rax, %rcx
	addl	(%rdi,%rcx,4), %edx
	movl	%edx, (%rdi,%rcx,4)
	addq	$1, %rax
	movq	%rax, %rcx
	addq	$25600, %rcx            # imm = 0x6400
	movl	-444(%rbp), %edx        # 4-byte Reload
	imull	(%rsi,%rcx,4), %edx
	movq	-40(%rbp), %rcx         # 8-byte Reload
	shlq	$10, %rcx
	addq	%rax, %rcx
	addl	(%rdi,%rcx,4), %edx
	movl	%edx, (%rdi,%rcx,4)
	addq	$1, %rax
	cmpq	$256, %rax              # imm = 0x100
	movq	%rax, -456(%rbp)        # 8-byte Spill
	jne	.LBB0_54
# %bb.55:                               # %for.inc17.25
                                        #   in Loop: Header=BB0_1 Depth=1
	xorl	%eax, %eax
	movl	%eax, %ecx
	movq	-40(%rbp), %rdx         # 8-byte Reload
	shlq	$10, %rdx
	movq	-8(%rbp), %rsi          # 8-byte Reload
	movl	104(%rsi,%rdx,4), %eax
	movl	%eax, -460(%rbp)        # 4-byte Spill
	movq	%rcx, -472(%rbp)        # 8-byte Spill
.LBB0_56:                               # %for.body6.26
                                        #   Parent Loop BB0_1 Depth=1
                                        # =>  This Inner Loop Header: Depth=2
	movq	-472(%rbp), %rax        # 8-byte Reload
	movq	%rax, %rcx
	addq	$26624, %rcx            # imm = 0x6800
	movl	-460(%rbp), %edx        # 4-byte Reload
	movq	-16(%rbp), %rsi         # 8-byte Reload
	imull	(%rsi,%rcx,4), %edx
	movq	-40(%rbp), %rcx         # 8-byte Reload
	shlq	$10, %rcx
	addq	%rax, %rcx
	movq	-24(%rbp), %rdi         # 8-byte Reload
	addl	(%rdi,%rcx,4), %edx
	movl	%edx, (%rdi,%rcx,4)
	addq	$1, %rax
	movq	%rax, %rcx
	addq	$26624, %rcx            # imm = 0x6800
	movl	-460(%rbp), %edx        # 4-byte Reload
	imull	(%rsi,%rcx,4), %edx
	movq	-40(%rbp), %rcx         # 8-byte Reload
	shlq	$10, %rcx
	addq	%rax, %rcx
	addl	(%rdi,%rcx,4), %edx
	movl	%edx, (%rdi,%rcx,4)
	addq	$1, %rax
	movq	%rax, %rcx
	addq	$26624, %rcx            # imm = 0x6800
	movl	-460(%rbp), %edx        # 4-byte Reload
	imull	(%rsi,%rcx,4), %edx
	movq	-40(%rbp), %rcx         # 8-byte Reload
	shlq	$10, %rcx
	addq	%rax, %rcx
	addl	(%rdi,%rcx,4), %edx
	movl	%edx, (%rdi,%rcx,4)
	addq	$1, %rax
	movq	%rax, %rcx
	addq	$26624, %rcx            # imm = 0x6800
	movl	-460(%rbp), %edx        # 4-byte Reload
	imull	(%rsi,%rcx,4), %edx
	movq	-40(%rbp), %rcx         # 8-byte Reload
	shlq	$10, %rcx
	addq	%rax, %rcx
	addl	(%rdi,%rcx,4), %edx
	movl	%edx, (%rdi,%rcx,4)
	addq	$1, %rax
	cmpq	$256, %rax              # imm = 0x100
	movq	%rax, -472(%rbp)        # 8-byte Spill
	jne	.LBB0_56
# %bb.57:                               # %for.inc17.26
                                        #   in Loop: Header=BB0_1 Depth=1
	xorl	%eax, %eax
	movl	%eax, %ecx
	movq	-40(%rbp), %rdx         # 8-byte Reload
	shlq	$10, %rdx
	movq	-8(%rbp), %rsi          # 8-byte Reload
	movl	108(%rsi,%rdx,4), %eax
	movl	%eax, -476(%rbp)        # 4-byte Spill
	movq	%rcx, -488(%rbp)        # 8-byte Spill
.LBB0_58:                               # %for.body6.27
                                        #   Parent Loop BB0_1 Depth=1
                                        # =>  This Inner Loop Header: Depth=2
	movq	-488(%rbp), %rax        # 8-byte Reload
	movq	%rax, %rcx
	addq	$27648, %rcx            # imm = 0x6C00
	movl	-476(%rbp), %edx        # 4-byte Reload
	movq	-16(%rbp), %rsi         # 8-byte Reload
	imull	(%rsi,%rcx,4), %edx
	movq	-40(%rbp), %rcx         # 8-byte Reload
	shlq	$10, %rcx
	addq	%rax, %rcx
	movq	-24(%rbp), %rdi         # 8-byte Reload
	addl	(%rdi,%rcx,4), %edx
	movl	%edx, (%rdi,%rcx,4)
	addq	$1, %rax
	movq	%rax, %rcx
	addq	$27648, %rcx            # imm = 0x6C00
	movl	-476(%rbp), %edx        # 4-byte Reload
	imull	(%rsi,%rcx,4), %edx
	movq	-40(%rbp), %rcx         # 8-byte Reload
	shlq	$10, %rcx
	addq	%rax, %rcx
	addl	(%rdi,%rcx,4), %edx
	movl	%edx, (%rdi,%rcx,4)
	addq	$1, %rax
	movq	%rax, %rcx
	addq	$27648, %rcx            # imm = 0x6C00
	movl	-476(%rbp), %edx        # 4-byte Reload
	imull	(%rsi,%rcx,4), %edx
	movq	-40(%rbp), %rcx         # 8-byte Reload
	shlq	$10, %rcx
	addq	%rax, %rcx
	addl	(%rdi,%rcx,4), %edx
	movl	%edx, (%rdi,%rcx,4)
	addq	$1, %rax
	movq	%rax, %rcx
	addq	$27648, %rcx            # imm = 0x6C00
	movl	-476(%rbp), %edx        # 4-byte Reload
	imull	(%rsi,%rcx,4), %edx
	movq	-40(%rbp), %rcx         # 8-byte Reload
	shlq	$10, %rcx
	addq	%rax, %rcx
	addl	(%rdi,%rcx,4), %edx
	movl	%edx, (%rdi,%rcx,4)
	addq	$1, %rax
	cmpq	$256, %rax              # imm = 0x100
	movq	%rax, -488(%rbp)        # 8-byte Spill
	jne	.LBB0_58
# %bb.59:                               # %for.inc17.27
                                        #   in Loop: Header=BB0_1 Depth=1
	xorl	%eax, %eax
	movl	%eax, %ecx
	movq	-40(%rbp), %rdx         # 8-byte Reload
	shlq	$10, %rdx
	movq	-8(%rbp), %rsi          # 8-byte Reload
	movl	112(%rsi,%rdx,4), %eax
	movl	%eax, -492(%rbp)        # 4-byte Spill
	movq	%rcx, -504(%rbp)        # 8-byte Spill
.LBB0_60:                               # %for.body6.28
                                        #   Parent Loop BB0_1 Depth=1
                                        # =>  This Inner Loop Header: Depth=2
	movq	-504(%rbp), %rax        # 8-byte Reload
	movq	%rax, %rcx
	addq	$28672, %rcx            # imm = 0x7000
	movl	-492(%rbp), %edx        # 4-byte Reload
	movq	-16(%rbp), %rsi         # 8-byte Reload
	imull	(%rsi,%rcx,4), %edx
	movq	-40(%rbp), %rcx         # 8-byte Reload
	shlq	$10, %rcx
	addq	%rax, %rcx
	movq	-24(%rbp), %rdi         # 8-byte Reload
	addl	(%rdi,%rcx,4), %edx
	movl	%edx, (%rdi,%rcx,4)
	addq	$1, %rax
	movq	%rax, %rcx
	addq	$28672, %rcx            # imm = 0x7000
	movl	-492(%rbp), %edx        # 4-byte Reload
	imull	(%rsi,%rcx,4), %edx
	movq	-40(%rbp), %rcx         # 8-byte Reload
	shlq	$10, %rcx
	addq	%rax, %rcx
	addl	(%rdi,%rcx,4), %edx
	movl	%edx, (%rdi,%rcx,4)
	addq	$1, %rax
	movq	%rax, %rcx
	addq	$28672, %rcx            # imm = 0x7000
	movl	-492(%rbp), %edx        # 4-byte Reload
	imull	(%rsi,%rcx,4), %edx
	movq	-40(%rbp), %rcx         # 8-byte Reload
	shlq	$10, %rcx
	addq	%rax, %rcx
	addl	(%rdi,%rcx,4), %edx
	movl	%edx, (%rdi,%rcx,4)
	addq	$1, %rax
	movq	%rax, %rcx
	addq	$28672, %rcx            # imm = 0x7000
	movl	-492(%rbp), %edx        # 4-byte Reload
	imull	(%rsi,%rcx,4), %edx
	movq	-40(%rbp), %rcx         # 8-byte Reload
	shlq	$10, %rcx
	addq	%rax, %rcx
	addl	(%rdi,%rcx,4), %edx
	movl	%edx, (%rdi,%rcx,4)
	addq	$1, %rax
	cmpq	$256, %rax              # imm = 0x100
	movq	%rax, -504(%rbp)        # 8-byte Spill
	jne	.LBB0_60
# %bb.61:                               # %for.inc17.28
                                        #   in Loop: Header=BB0_1 Depth=1
	xorl	%eax, %eax
	movl	%eax, %ecx
	movq	-40(%rbp), %rdx         # 8-byte Reload
	shlq	$10, %rdx
	movq	-8(%rbp), %rsi          # 8-byte Reload
	movl	116(%rsi,%rdx,4), %eax
	movl	%eax, -508(%rbp)        # 4-byte Spill
	movq	%rcx, -520(%rbp)        # 8-byte Spill
.LBB0_62:                               # %for.body6.29
                                        #   Parent Loop BB0_1 Depth=1
                                        # =>  This Inner Loop Header: Depth=2
	movq	-520(%rbp), %rax        # 8-byte Reload
	movq	%rax, %rcx
	addq	$29696, %rcx            # imm = 0x7400
	movl	-508(%rbp), %edx        # 4-byte Reload
	movq	-16(%rbp), %rsi         # 8-byte Reload
	imull	(%rsi,%rcx,4), %edx
	movq	-40(%rbp), %rcx         # 8-byte Reload
	shlq	$10, %rcx
	addq	%rax, %rcx
	movq	-24(%rbp), %rdi         # 8-byte Reload
	addl	(%rdi,%rcx,4), %edx
	movl	%edx, (%rdi,%rcx,4)
	addq	$1, %rax
	movq	%rax, %rcx
	addq	$29696, %rcx            # imm = 0x7400
	movl	-508(%rbp), %edx        # 4-byte Reload
	imull	(%rsi,%rcx,4), %edx
	movq	-40(%rbp), %rcx         # 8-byte Reload
	shlq	$10, %rcx
	addq	%rax, %rcx
	addl	(%rdi,%rcx,4), %edx
	movl	%edx, (%rdi,%rcx,4)
	addq	$1, %rax
	movq	%rax, %rcx
	addq	$29696, %rcx            # imm = 0x7400
	movl	-508(%rbp), %edx        # 4-byte Reload
	imull	(%rsi,%rcx,4), %edx
	movq	-40(%rbp), %rcx         # 8-byte Reload
	shlq	$10, %rcx
	addq	%rax, %rcx
	addl	(%rdi,%rcx,4), %edx
	movl	%edx, (%rdi,%rcx,4)
	addq	$1, %rax
	movq	%rax, %rcx
	addq	$29696, %rcx            # imm = 0x7400
	movl	-508(%rbp), %edx        # 4-byte Reload
	imull	(%rsi,%rcx,4), %edx
	movq	-40(%rbp), %rcx         # 8-byte Reload
	shlq	$10, %rcx
	addq	%rax, %rcx
	addl	(%rdi,%rcx,4), %edx
	movl	%edx, (%rdi,%rcx,4)
	addq	$1, %rax
	cmpq	$256, %rax              # imm = 0x100
	movq	%rax, -520(%rbp)        # 8-byte Spill
	jne	.LBB0_62
# %bb.63:                               # %for.inc17.29
                                        #   in Loop: Header=BB0_1 Depth=1
	xorl	%eax, %eax
	movl	%eax, %ecx
	movq	-40(%rbp), %rdx         # 8-byte Reload
	shlq	$10, %rdx
	movq	-8(%rbp), %rsi          # 8-byte Reload
	movl	120(%rsi,%rdx,4), %eax
	movl	%eax, -524(%rbp)        # 4-byte Spill
	movq	%rcx, -536(%rbp)        # 8-byte Spill
.LBB0_64:                               # %for.body6.30
                                        #   Parent Loop BB0_1 Depth=1
                                        # =>  This Inner Loop Header: Depth=2
	movq	-536(%rbp), %rax        # 8-byte Reload
	movq	%rax, %rcx
	addq	$30720, %rcx            # imm = 0x7800
	movl	-524(%rbp), %edx        # 4-byte Reload
	movq	-16(%rbp), %rsi         # 8-byte Reload
	imull	(%rsi,%rcx,4), %edx
	movq	-40(%rbp), %rcx         # 8-byte Reload
	shlq	$10, %rcx
	addq	%rax, %rcx
	movq	-24(%rbp), %rdi         # 8-byte Reload
	addl	(%rdi,%rcx,4), %edx
	movl	%edx, (%rdi,%rcx,4)
	addq	$1, %rax
	movq	%rax, %rcx
	addq	$30720, %rcx            # imm = 0x7800
	movl	-524(%rbp), %edx        # 4-byte Reload
	imull	(%rsi,%rcx,4), %edx
	movq	-40(%rbp), %rcx         # 8-byte Reload
	shlq	$10, %rcx
	addq	%rax, %rcx
	addl	(%rdi,%rcx,4), %edx
	movl	%edx, (%rdi,%rcx,4)
	addq	$1, %rax
	movq	%rax, %rcx
	addq	$30720, %rcx            # imm = 0x7800
	movl	-524(%rbp), %edx        # 4-byte Reload
	imull	(%rsi,%rcx,4), %edx
	movq	-40(%rbp), %rcx         # 8-byte Reload
	shlq	$10, %rcx
	addq	%rax, %rcx
	addl	(%rdi,%rcx,4), %edx
	movl	%edx, (%rdi,%rcx,4)
	addq	$1, %rax
	movq	%rax, %rcx
	addq	$30720, %rcx            # imm = 0x7800
	movl	-524(%rbp), %edx        # 4-byte Reload
	imull	(%rsi,%rcx,4), %edx
	movq	-40(%rbp), %rcx         # 8-byte Reload
	shlq	$10, %rcx
	addq	%rax, %rcx
	addl	(%rdi,%rcx,4), %edx
	movl	%edx, (%rdi,%rcx,4)
	addq	$1, %rax
	cmpq	$256, %rax              # imm = 0x100
	movq	%rax, -536(%rbp)        # 8-byte Spill
	jne	.LBB0_64
# %bb.65:                               # %for.inc17.30
                                        #   in Loop: Header=BB0_1 Depth=1
	xorl	%eax, %eax
	movl	%eax, %ecx
	movq	-40(%rbp), %rdx         # 8-byte Reload
	shlq	$10, %rdx
	movq	-8(%rbp), %rsi          # 8-byte Reload
	movl	124(%rsi,%rdx,4), %eax
	movl	%eax, -540(%rbp)        # 4-byte Spill
	movq	%rcx, -552(%rbp)        # 8-byte Spill
.LBB0_66:                               # %for.body6.31
                                        #   Parent Loop BB0_1 Depth=1
                                        # =>  This Inner Loop Header: Depth=2
	movq	-552(%rbp), %rax        # 8-byte Reload
	movq	%rax, %rcx
	addq	$31744, %rcx            # imm = 0x7C00
	movl	-540(%rbp), %edx        # 4-byte Reload
	movq	-16(%rbp), %rsi         # 8-byte Reload
	imull	(%rsi,%rcx,4), %edx
	movq	-40(%rbp), %rcx         # 8-byte Reload
	shlq	$10, %rcx
	addq	%rax, %rcx
	movq	-24(%rbp), %rdi         # 8-byte Reload
	addl	(%rdi,%rcx,4), %edx
	movl	%edx, (%rdi,%rcx,4)
	addq	$1, %rax
	movq	%rax, %rcx
	addq	$31744, %rcx            # imm = 0x7C00
	movl	-540(%rbp), %edx        # 4-byte Reload
	imull	(%rsi,%rcx,4), %edx
	movq	-40(%rbp), %rcx         # 8-byte Reload
	shlq	$10, %rcx
	addq	%rax, %rcx
	addl	(%rdi,%rcx,4), %edx
	movl	%edx, (%rdi,%rcx,4)
	addq	$1, %rax
	movq	%rax, %rcx
	addq	$31744, %rcx            # imm = 0x7C00
	movl	-540(%rbp), %edx        # 4-byte Reload
	imull	(%rsi,%rcx,4), %edx
	movq	-40(%rbp), %rcx         # 8-byte Reload
	shlq	$10, %rcx
	addq	%rax, %rcx
	addl	(%rdi,%rcx,4), %edx
	movl	%edx, (%rdi,%rcx,4)
	addq	$1, %rax
	movq	%rax, %rcx
	addq	$31744, %rcx            # imm = 0x7C00
	movl	-540(%rbp), %edx        # 4-byte Reload
	imull	(%rsi,%rcx,4), %edx
	movq	-40(%rbp), %rcx         # 8-byte Reload
	shlq	$10, %rcx
	addq	%rax, %rcx
	addl	(%rdi,%rcx,4), %edx
	movl	%edx, (%rdi,%rcx,4)
	addq	$1, %rax
	cmpq	$256, %rax              # imm = 0x100
	movq	%rax, -552(%rbp)        # 8-byte Spill
	jne	.LBB0_66
# %bb.67:                               # %for.inc17.31
                                        #   in Loop: Header=BB0_1 Depth=1
	xorl	%eax, %eax
	movl	%eax, %ecx
	movq	-40(%rbp), %rdx         # 8-byte Reload
	shlq	$10, %rdx
	movq	-8(%rbp), %rsi          # 8-byte Reload
	movl	128(%rsi,%rdx,4), %eax
	movl	%eax, -556(%rbp)        # 4-byte Spill
	movq	%rcx, -568(%rbp)        # 8-byte Spill
.LBB0_68:                               # %for.body6.32
                                        #   Parent Loop BB0_1 Depth=1
                                        # =>  This Inner Loop Header: Depth=2
	movq	-568(%rbp), %rax        # 8-byte Reload
	movq	%rax, %rcx
	addq	$32768, %rcx            # imm = 0x8000
	movl	-556(%rbp), %edx        # 4-byte Reload
	movq	-16(%rbp), %rsi         # 8-byte Reload
	imull	(%rsi,%rcx,4), %edx
	movq	-40(%rbp), %rcx         # 8-byte Reload
	shlq	$10, %rcx
	addq	%rax, %rcx
	movq	-24(%rbp), %rdi         # 8-byte Reload
	addl	(%rdi,%rcx,4), %edx
	movl	%edx, (%rdi,%rcx,4)
	addq	$1, %rax
	movq	%rax, %rcx
	addq	$32768, %rcx            # imm = 0x8000
	movl	-556(%rbp), %edx        # 4-byte Reload
	imull	(%rsi,%rcx,4), %edx
	movq	-40(%rbp), %rcx         # 8-byte Reload
	shlq	$10, %rcx
	addq	%rax, %rcx
	addl	(%rdi,%rcx,4), %edx
	movl	%edx, (%rdi,%rcx,4)
	addq	$1, %rax
	movq	%rax, %rcx
	addq	$32768, %rcx            # imm = 0x8000
	movl	-556(%rbp), %edx        # 4-byte Reload
	imull	(%rsi,%rcx,4), %edx
	movq	-40(%rbp), %rcx         # 8-byte Reload
	shlq	$10, %rcx
	addq	%rax, %rcx
	addl	(%rdi,%rcx,4), %edx
	movl	%edx, (%rdi,%rcx,4)
	addq	$1, %rax
	movq	%rax, %rcx
	addq	$32768, %rcx            # imm = 0x8000
	movl	-556(%rbp), %edx        # 4-byte Reload
	imull	(%rsi,%rcx,4), %edx
	movq	-40(%rbp), %rcx         # 8-byte Reload
	shlq	$10, %rcx
	addq	%rax, %rcx
	addl	(%rdi,%rcx,4), %edx
	movl	%edx, (%rdi,%rcx,4)
	addq	$1, %rax
	cmpq	$256, %rax              # imm = 0x100
	movq	%rax, -568(%rbp)        # 8-byte Spill
	jne	.LBB0_68
# %bb.69:                               # %for.inc17.32
                                        #   in Loop: Header=BB0_1 Depth=1
	xorl	%eax, %eax
	movl	%eax, %ecx
	movq	-40(%rbp), %rdx         # 8-byte Reload
	shlq	$10, %rdx
	movq	-8(%rbp), %rsi          # 8-byte Reload
	movl	132(%rsi,%rdx,4), %eax
	movl	%eax, -572(%rbp)        # 4-byte Spill
	movq	%rcx, -584(%rbp)        # 8-byte Spill
.LBB0_70:                               # %for.body6.33
                                        #   Parent Loop BB0_1 Depth=1
                                        # =>  This Inner Loop Header: Depth=2
	movq	-584(%rbp), %rax        # 8-byte Reload
	movq	%rax, %rcx
	addq	$33792, %rcx            # imm = 0x8400
	movl	-572(%rbp), %edx        # 4-byte Reload
	movq	-16(%rbp), %rsi         # 8-byte Reload
	imull	(%rsi,%rcx,4), %edx
	movq	-40(%rbp), %rcx         # 8-byte Reload
	shlq	$10, %rcx
	addq	%rax, %rcx
	movq	-24(%rbp), %rdi         # 8-byte Reload
	addl	(%rdi,%rcx,4), %edx
	movl	%edx, (%rdi,%rcx,4)
	addq	$1, %rax
	movq	%rax, %rcx
	addq	$33792, %rcx            # imm = 0x8400
	movl	-572(%rbp), %edx        # 4-byte Reload
	imull	(%rsi,%rcx,4), %edx
	movq	-40(%rbp), %rcx         # 8-byte Reload
	shlq	$10, %rcx
	addq	%rax, %rcx
	addl	(%rdi,%rcx,4), %edx
	movl	%edx, (%rdi,%rcx,4)
	addq	$1, %rax
	movq	%rax, %rcx
	addq	$33792, %rcx            # imm = 0x8400
	movl	-572(%rbp), %edx        # 4-byte Reload
	imull	(%rsi,%rcx,4), %edx
	movq	-40(%rbp), %rcx         # 8-byte Reload
	shlq	$10, %rcx
	addq	%rax, %rcx
	addl	(%rdi,%rcx,4), %edx
	movl	%edx, (%rdi,%rcx,4)
	addq	$1, %rax
	movq	%rax, %rcx
	addq	$33792, %rcx            # imm = 0x8400
	movl	-572(%rbp), %edx        # 4-byte Reload
	imull	(%rsi,%rcx,4), %edx
	movq	-40(%rbp), %rcx         # 8-byte Reload
	shlq	$10, %rcx
	addq	%rax, %rcx
	addl	(%rdi,%rcx,4), %edx
	movl	%edx, (%rdi,%rcx,4)
	addq	$1, %rax
	cmpq	$256, %rax              # imm = 0x100
	movq	%rax, -584(%rbp)        # 8-byte Spill
	jne	.LBB0_70
# %bb.71:                               # %for.inc17.33
                                        #   in Loop: Header=BB0_1 Depth=1
	xorl	%eax, %eax
	movl	%eax, %ecx
	movq	-40(%rbp), %rdx         # 8-byte Reload
	shlq	$10, %rdx
	movq	-8(%rbp), %rsi          # 8-byte Reload
	movl	136(%rsi,%rdx,4), %eax
	movl	%eax, -588(%rbp)        # 4-byte Spill
	movq	%rcx, -600(%rbp)        # 8-byte Spill
.LBB0_72:                               # %for.body6.34
                                        #   Parent Loop BB0_1 Depth=1
                                        # =>  This Inner Loop Header: Depth=2
	movq	-600(%rbp), %rax        # 8-byte Reload
	movq	%rax, %rcx
	addq	$34816, %rcx            # imm = 0x8800
	movl	-588(%rbp), %edx        # 4-byte Reload
	movq	-16(%rbp), %rsi         # 8-byte Reload
	imull	(%rsi,%rcx,4), %edx
	movq	-40(%rbp), %rcx         # 8-byte Reload
	shlq	$10, %rcx
	addq	%rax, %rcx
	movq	-24(%rbp), %rdi         # 8-byte Reload
	addl	(%rdi,%rcx,4), %edx
	movl	%edx, (%rdi,%rcx,4)
	addq	$1, %rax
	movq	%rax, %rcx
	addq	$34816, %rcx            # imm = 0x8800
	movl	-588(%rbp), %edx        # 4-byte Reload
	imull	(%rsi,%rcx,4), %edx
	movq	-40(%rbp), %rcx         # 8-byte Reload
	shlq	$10, %rcx
	addq	%rax, %rcx
	addl	(%rdi,%rcx,4), %edx
	movl	%edx, (%rdi,%rcx,4)
	addq	$1, %rax
	movq	%rax, %rcx
	addq	$34816, %rcx            # imm = 0x8800
	movl	-588(%rbp), %edx        # 4-byte Reload
	imull	(%rsi,%rcx,4), %edx
	movq	-40(%rbp), %rcx         # 8-byte Reload
	shlq	$10, %rcx
	addq	%rax, %rcx
	addl	(%rdi,%rcx,4), %edx
	movl	%edx, (%rdi,%rcx,4)
	addq	$1, %rax
	movq	%rax, %rcx
	addq	$34816, %rcx            # imm = 0x8800
	movl	-588(%rbp), %edx        # 4-byte Reload
	imull	(%rsi,%rcx,4), %edx
	movq	-40(%rbp), %rcx         # 8-byte Reload
	shlq	$10, %rcx
	addq	%rax, %rcx
	addl	(%rdi,%rcx,4), %edx
	movl	%edx, (%rdi,%rcx,4)
	addq	$1, %rax
	cmpq	$256, %rax              # imm = 0x100
	movq	%rax, -600(%rbp)        # 8-byte Spill
	jne	.LBB0_72
# %bb.73:                               # %for.inc17.34
                                        #   in Loop: Header=BB0_1 Depth=1
	xorl	%eax, %eax
	movl	%eax, %ecx
	movq	-40(%rbp), %rdx         # 8-byte Reload
	shlq	$10, %rdx
	movq	-8(%rbp), %rsi          # 8-byte Reload
	movl	140(%rsi,%rdx,4), %eax
	movl	%eax, -604(%rbp)        # 4-byte Spill
	movq	%rcx, -616(%rbp)        # 8-byte Spill
.LBB0_74:                               # %for.body6.35
                                        #   Parent Loop BB0_1 Depth=1
                                        # =>  This Inner Loop Header: Depth=2
	movq	-616(%rbp), %rax        # 8-byte Reload
	movq	%rax, %rcx
	addq	$35840, %rcx            # imm = 0x8C00
	movl	-604(%rbp), %edx        # 4-byte Reload
	movq	-16(%rbp), %rsi         # 8-byte Reload
	imull	(%rsi,%rcx,4), %edx
	movq	-40(%rbp), %rcx         # 8-byte Reload
	shlq	$10, %rcx
	addq	%rax, %rcx
	movq	-24(%rbp), %rdi         # 8-byte Reload
	addl	(%rdi,%rcx,4), %edx
	movl	%edx, (%rdi,%rcx,4)
	addq	$1, %rax
	movq	%rax, %rcx
	addq	$35840, %rcx            # imm = 0x8C00
	movl	-604(%rbp), %edx        # 4-byte Reload
	imull	(%rsi,%rcx,4), %edx
	movq	-40(%rbp), %rcx         # 8-byte Reload
	shlq	$10, %rcx
	addq	%rax, %rcx
	addl	(%rdi,%rcx,4), %edx
	movl	%edx, (%rdi,%rcx,4)
	addq	$1, %rax
	movq	%rax, %rcx
	addq	$35840, %rcx            # imm = 0x8C00
	movl	-604(%rbp), %edx        # 4-byte Reload
	imull	(%rsi,%rcx,4), %edx
	movq	-40(%rbp), %rcx         # 8-byte Reload
	shlq	$10, %rcx
	addq	%rax, %rcx
	addl	(%rdi,%rcx,4), %edx
	movl	%edx, (%rdi,%rcx,4)
	addq	$1, %rax
	movq	%rax, %rcx
	addq	$35840, %rcx            # imm = 0x8C00
	movl	-604(%rbp), %edx        # 4-byte Reload
	imull	(%rsi,%rcx,4), %edx
	movq	-40(%rbp), %rcx         # 8-byte Reload
	shlq	$10, %rcx
	addq	%rax, %rcx
	addl	(%rdi,%rcx,4), %edx
	movl	%edx, (%rdi,%rcx,4)
	addq	$1, %rax
	cmpq	$256, %rax              # imm = 0x100
	movq	%rax, -616(%rbp)        # 8-byte Spill
	jne	.LBB0_74
# %bb.75:                               # %for.inc17.35
                                        #   in Loop: Header=BB0_1 Depth=1
	xorl	%eax, %eax
	movl	%eax, %ecx
	movq	-40(%rbp), %rdx         # 8-byte Reload
	shlq	$10, %rdx
	movq	-8(%rbp), %rsi          # 8-byte Reload
	movl	144(%rsi,%rdx,4), %eax
	movl	%eax, -620(%rbp)        # 4-byte Spill
	movq	%rcx, -632(%rbp)        # 8-byte Spill
.LBB0_76:                               # %for.body6.36
                                        #   Parent Loop BB0_1 Depth=1
                                        # =>  This Inner Loop Header: Depth=2
	movq	-632(%rbp), %rax        # 8-byte Reload
	movq	%rax, %rcx
	addq	$36864, %rcx            # imm = 0x9000
	movl	-620(%rbp), %edx        # 4-byte Reload
	movq	-16(%rbp), %rsi         # 8-byte Reload
	imull	(%rsi,%rcx,4), %edx
	movq	-40(%rbp), %rcx         # 8-byte Reload
	shlq	$10, %rcx
	addq	%rax, %rcx
	movq	-24(%rbp), %rdi         # 8-byte Reload
	addl	(%rdi,%rcx,4), %edx
	movl	%edx, (%rdi,%rcx,4)
	addq	$1, %rax
	movq	%rax, %rcx
	addq	$36864, %rcx            # imm = 0x9000
	movl	-620(%rbp), %edx        # 4-byte Reload
	imull	(%rsi,%rcx,4), %edx
	movq	-40(%rbp), %rcx         # 8-byte Reload
	shlq	$10, %rcx
	addq	%rax, %rcx
	addl	(%rdi,%rcx,4), %edx
	movl	%edx, (%rdi,%rcx,4)
	addq	$1, %rax
	movq	%rax, %rcx
	addq	$36864, %rcx            # imm = 0x9000
	movl	-620(%rbp), %edx        # 4-byte Reload
	imull	(%rsi,%rcx,4), %edx
	movq	-40(%rbp), %rcx         # 8-byte Reload
	shlq	$10, %rcx
	addq	%rax, %rcx
	addl	(%rdi,%rcx,4), %edx
	movl	%edx, (%rdi,%rcx,4)
	addq	$1, %rax
	movq	%rax, %rcx
	addq	$36864, %rcx            # imm = 0x9000
	movl	-620(%rbp), %edx        # 4-byte Reload
	imull	(%rsi,%rcx,4), %edx
	movq	-40(%rbp), %rcx         # 8-byte Reload
	shlq	$10, %rcx
	addq	%rax, %rcx
	addl	(%rdi,%rcx,4), %edx
	movl	%edx, (%rdi,%rcx,4)
	addq	$1, %rax
	cmpq	$256, %rax              # imm = 0x100
	movq	%rax, -632(%rbp)        # 8-byte Spill
	jne	.LBB0_76
# %bb.77:                               # %for.inc17.36
                                        #   in Loop: Header=BB0_1 Depth=1
	xorl	%eax, %eax
	movl	%eax, %ecx
	movq	-40(%rbp), %rdx         # 8-byte Reload
	shlq	$10, %rdx
	movq	-8(%rbp), %rsi          # 8-byte Reload
	movl	148(%rsi,%rdx,4), %eax
	movl	%eax, -636(%rbp)        # 4-byte Spill
	movq	%rcx, -648(%rbp)        # 8-byte Spill
.LBB0_78:                               # %for.body6.37
                                        #   Parent Loop BB0_1 Depth=1
                                        # =>  This Inner Loop Header: Depth=2
	movq	-648(%rbp), %rax        # 8-byte Reload
	movq	%rax, %rcx
	addq	$37888, %rcx            # imm = 0x9400
	movl	-636(%rbp), %edx        # 4-byte Reload
	movq	-16(%rbp), %rsi         # 8-byte Reload
	imull	(%rsi,%rcx,4), %edx
	movq	-40(%rbp), %rcx         # 8-byte Reload
	shlq	$10, %rcx
	addq	%rax, %rcx
	movq	-24(%rbp), %rdi         # 8-byte Reload
	addl	(%rdi,%rcx,4), %edx
	movl	%edx, (%rdi,%rcx,4)
	addq	$1, %rax
	movq	%rax, %rcx
	addq	$37888, %rcx            # imm = 0x9400
	movl	-636(%rbp), %edx        # 4-byte Reload
	imull	(%rsi,%rcx,4), %edx
	movq	-40(%rbp), %rcx         # 8-byte Reload
	shlq	$10, %rcx
	addq	%rax, %rcx
	addl	(%rdi,%rcx,4), %edx
	movl	%edx, (%rdi,%rcx,4)
	addq	$1, %rax
	movq	%rax, %rcx
	addq	$37888, %rcx            # imm = 0x9400
	movl	-636(%rbp), %edx        # 4-byte Reload
	imull	(%rsi,%rcx,4), %edx
	movq	-40(%rbp), %rcx         # 8-byte Reload
	shlq	$10, %rcx
	addq	%rax, %rcx
	addl	(%rdi,%rcx,4), %edx
	movl	%edx, (%rdi,%rcx,4)
	addq	$1, %rax
	movq	%rax, %rcx
	addq	$37888, %rcx            # imm = 0x9400
	movl	-636(%rbp), %edx        # 4-byte Reload
	imull	(%rsi,%rcx,4), %edx
	movq	-40(%rbp), %rcx         # 8-byte Reload
	shlq	$10, %rcx
	addq	%rax, %rcx
	addl	(%rdi,%rcx,4), %edx
	movl	%edx, (%rdi,%rcx,4)
	addq	$1, %rax
	cmpq	$256, %rax              # imm = 0x100
	movq	%rax, -648(%rbp)        # 8-byte Spill
	jne	.LBB0_78
# %bb.79:                               # %for.inc17.37
                                        #   in Loop: Header=BB0_1 Depth=1
	xorl	%eax, %eax
	movl	%eax, %ecx
	movq	-40(%rbp), %rdx         # 8-byte Reload
	shlq	$10, %rdx
	movq	-8(%rbp), %rsi          # 8-byte Reload
	movl	152(%rsi,%rdx,4), %eax
	movl	%eax, -652(%rbp)        # 4-byte Spill
	movq	%rcx, -664(%rbp)        # 8-byte Spill
.LBB0_80:                               # %for.body6.38
                                        #   Parent Loop BB0_1 Depth=1
                                        # =>  This Inner Loop Header: Depth=2
	movq	-664(%rbp), %rax        # 8-byte Reload
	movq	%rax, %rcx
	addq	$38912, %rcx            # imm = 0x9800
	movl	-652(%rbp), %edx        # 4-byte Reload
	movq	-16(%rbp), %rsi         # 8-byte Reload
	imull	(%rsi,%rcx,4), %edx
	movq	-40(%rbp), %rcx         # 8-byte Reload
	shlq	$10, %rcx
	addq	%rax, %rcx
	movq	-24(%rbp), %rdi         # 8-byte Reload
	addl	(%rdi,%rcx,4), %edx
	movl	%edx, (%rdi,%rcx,4)
	addq	$1, %rax
	movq	%rax, %rcx
	addq	$38912, %rcx            # imm = 0x9800
	movl	-652(%rbp), %edx        # 4-byte Reload
	imull	(%rsi,%rcx,4), %edx
	movq	-40(%rbp), %rcx         # 8-byte Reload
	shlq	$10, %rcx
	addq	%rax, %rcx
	addl	(%rdi,%rcx,4), %edx
	movl	%edx, (%rdi,%rcx,4)
	addq	$1, %rax
	movq	%rax, %rcx
	addq	$38912, %rcx            # imm = 0x9800
	movl	-652(%rbp), %edx        # 4-byte Reload
	imull	(%rsi,%rcx,4), %edx
	movq	-40(%rbp), %rcx         # 8-byte Reload
	shlq	$10, %rcx
	addq	%rax, %rcx
	addl	(%rdi,%rcx,4), %edx
	movl	%edx, (%rdi,%rcx,4)
	addq	$1, %rax
	movq	%rax, %rcx
	addq	$38912, %rcx            # imm = 0x9800
	movl	-652(%rbp), %edx        # 4-byte Reload
	imull	(%rsi,%rcx,4), %edx
	movq	-40(%rbp), %rcx         # 8-byte Reload
	shlq	$10, %rcx
	addq	%rax, %rcx
	addl	(%rdi,%rcx,4), %edx
	movl	%edx, (%rdi,%rcx,4)
	addq	$1, %rax
	cmpq	$256, %rax              # imm = 0x100
	movq	%rax, -664(%rbp)        # 8-byte Spill
	jne	.LBB0_80
# %bb.81:                               # %for.inc17.38
                                        #   in Loop: Header=BB0_1 Depth=1
	xorl	%eax, %eax
	movl	%eax, %ecx
	movq	-40(%rbp), %rdx         # 8-byte Reload
	shlq	$10, %rdx
	movq	-8(%rbp), %rsi          # 8-byte Reload
	movl	156(%rsi,%rdx,4), %eax
	movl	%eax, -668(%rbp)        # 4-byte Spill
	movq	%rcx, -680(%rbp)        # 8-byte Spill
.LBB0_82:                               # %for.body6.39
                                        #   Parent Loop BB0_1 Depth=1
                                        # =>  This Inner Loop Header: Depth=2
	movq	-680(%rbp), %rax        # 8-byte Reload
	movq	%rax, %rcx
	addq	$39936, %rcx            # imm = 0x9C00
	movl	-668(%rbp), %edx        # 4-byte Reload
	movq	-16(%rbp), %rsi         # 8-byte Reload
	imull	(%rsi,%rcx,4), %edx
	movq	-40(%rbp), %rcx         # 8-byte Reload
	shlq	$10, %rcx
	addq	%rax, %rcx
	movq	-24(%rbp), %rdi         # 8-byte Reload
	addl	(%rdi,%rcx,4), %edx
	movl	%edx, (%rdi,%rcx,4)
	addq	$1, %rax
	movq	%rax, %rcx
	addq	$39936, %rcx            # imm = 0x9C00
	movl	-668(%rbp), %edx        # 4-byte Reload
	imull	(%rsi,%rcx,4), %edx
	movq	-40(%rbp), %rcx         # 8-byte Reload
	shlq	$10, %rcx
	addq	%rax, %rcx
	addl	(%rdi,%rcx,4), %edx
	movl	%edx, (%rdi,%rcx,4)
	addq	$1, %rax
	movq	%rax, %rcx
	addq	$39936, %rcx            # imm = 0x9C00
	movl	-668(%rbp), %edx        # 4-byte Reload
	imull	(%rsi,%rcx,4), %edx
	movq	-40(%rbp), %rcx         # 8-byte Reload
	shlq	$10, %rcx
	addq	%rax, %rcx
	addl	(%rdi,%rcx,4), %edx
	movl	%edx, (%rdi,%rcx,4)
	addq	$1, %rax
	movq	%rax, %rcx
	addq	$39936, %rcx            # imm = 0x9C00
	movl	-668(%rbp), %edx        # 4-byte Reload
	imull	(%rsi,%rcx,4), %edx
	movq	-40(%rbp), %rcx         # 8-byte Reload
	shlq	$10, %rcx
	addq	%rax, %rcx
	addl	(%rdi,%rcx,4), %edx
	movl	%edx, (%rdi,%rcx,4)
	addq	$1, %rax
	cmpq	$256, %rax              # imm = 0x100
	movq	%rax, -680(%rbp)        # 8-byte Spill
	jne	.LBB0_82
# %bb.83:                               # %for.inc17.39
                                        #   in Loop: Header=BB0_1 Depth=1
	xorl	%eax, %eax
	movl	%eax, %ecx
	movq	-40(%rbp), %rdx         # 8-byte Reload
	shlq	$10, %rdx
	movq	-8(%rbp), %rsi          # 8-byte Reload
	movl	160(%rsi,%rdx,4), %eax
	movl	%eax, -684(%rbp)        # 4-byte Spill
	movq	%rcx, -696(%rbp)        # 8-byte Spill
.LBB0_84:                               # %for.body6.40
                                        #   Parent Loop BB0_1 Depth=1
                                        # =>  This Inner Loop Header: Depth=2
	movq	-696(%rbp), %rax        # 8-byte Reload
	movq	%rax, %rcx
	addq	$40960, %rcx            # imm = 0xA000
	movl	-684(%rbp), %edx        # 4-byte Reload
	movq	-16(%rbp), %rsi         # 8-byte Reload
	imull	(%rsi,%rcx,4), %edx
	movq	-40(%rbp), %rcx         # 8-byte Reload
	shlq	$10, %rcx
	addq	%rax, %rcx
	movq	-24(%rbp), %rdi         # 8-byte Reload
	addl	(%rdi,%rcx,4), %edx
	movl	%edx, (%rdi,%rcx,4)
	addq	$1, %rax
	movq	%rax, %rcx
	addq	$40960, %rcx            # imm = 0xA000
	movl	-684(%rbp), %edx        # 4-byte Reload
	imull	(%rsi,%rcx,4), %edx
	movq	-40(%rbp), %rcx         # 8-byte Reload
	shlq	$10, %rcx
	addq	%rax, %rcx
	addl	(%rdi,%rcx,4), %edx
	movl	%edx, (%rdi,%rcx,4)
	addq	$1, %rax
	movq	%rax, %rcx
	addq	$40960, %rcx            # imm = 0xA000
	movl	-684(%rbp), %edx        # 4-byte Reload
	imull	(%rsi,%rcx,4), %edx
	movq	-40(%rbp), %rcx         # 8-byte Reload
	shlq	$10, %rcx
	addq	%rax, %rcx
	addl	(%rdi,%rcx,4), %edx
	movl	%edx, (%rdi,%rcx,4)
	addq	$1, %rax
	movq	%rax, %rcx
	addq	$40960, %rcx            # imm = 0xA000
	movl	-684(%rbp), %edx        # 4-byte Reload
	imull	(%rsi,%rcx,4), %edx
	movq	-40(%rbp), %rcx         # 8-byte Reload
	shlq	$10, %rcx
	addq	%rax, %rcx
	addl	(%rdi,%rcx,4), %edx
	movl	%edx, (%rdi,%rcx,4)
	addq	$1, %rax
	cmpq	$256, %rax              # imm = 0x100
	movq	%rax, -696(%rbp)        # 8-byte Spill
	jne	.LBB0_84
# %bb.85:                               # %for.inc17.40
                                        #   in Loop: Header=BB0_1 Depth=1
	xorl	%eax, %eax
	movl	%eax, %ecx
	movq	-40(%rbp), %rdx         # 8-byte Reload
	shlq	$10, %rdx
	movq	-8(%rbp), %rsi          # 8-byte Reload
	movl	164(%rsi,%rdx,4), %eax
	movl	%eax, -700(%rbp)        # 4-byte Spill
	movq	%rcx, -712(%rbp)        # 8-byte Spill
.LBB0_86:                               # %for.body6.41
                                        #   Parent Loop BB0_1 Depth=1
                                        # =>  This Inner Loop Header: Depth=2
	movq	-712(%rbp), %rax        # 8-byte Reload
	movq	%rax, %rcx
	addq	$41984, %rcx            # imm = 0xA400
	movl	-700(%rbp), %edx        # 4-byte Reload
	movq	-16(%rbp), %rsi         # 8-byte Reload
	imull	(%rsi,%rcx,4), %edx
	movq	-40(%rbp), %rcx         # 8-byte Reload
	shlq	$10, %rcx
	addq	%rax, %rcx
	movq	-24(%rbp), %rdi         # 8-byte Reload
	addl	(%rdi,%rcx,4), %edx
	movl	%edx, (%rdi,%rcx,4)
	addq	$1, %rax
	movq	%rax, %rcx
	addq	$41984, %rcx            # imm = 0xA400
	movl	-700(%rbp), %edx        # 4-byte Reload
	imull	(%rsi,%rcx,4), %edx
	movq	-40(%rbp), %rcx         # 8-byte Reload
	shlq	$10, %rcx
	addq	%rax, %rcx
	addl	(%rdi,%rcx,4), %edx
	movl	%edx, (%rdi,%rcx,4)
	addq	$1, %rax
	movq	%rax, %rcx
	addq	$41984, %rcx            # imm = 0xA400
	movl	-700(%rbp), %edx        # 4-byte Reload
	imull	(%rsi,%rcx,4), %edx
	movq	-40(%rbp), %rcx         # 8-byte Reload
	shlq	$10, %rcx
	addq	%rax, %rcx
	addl	(%rdi,%rcx,4), %edx
	movl	%edx, (%rdi,%rcx,4)
	addq	$1, %rax
	movq	%rax, %rcx
	addq	$41984, %rcx            # imm = 0xA400
	movl	-700(%rbp), %edx        # 4-byte Reload
	imull	(%rsi,%rcx,4), %edx
	movq	-40(%rbp), %rcx         # 8-byte Reload
	shlq	$10, %rcx
	addq	%rax, %rcx
	addl	(%rdi,%rcx,4), %edx
	movl	%edx, (%rdi,%rcx,4)
	addq	$1, %rax
	cmpq	$256, %rax              # imm = 0x100
	movq	%rax, -712(%rbp)        # 8-byte Spill
	jne	.LBB0_86
# %bb.87:                               # %for.inc17.41
                                        #   in Loop: Header=BB0_1 Depth=1
	xorl	%eax, %eax
	movl	%eax, %ecx
	movq	-40(%rbp), %rdx         # 8-byte Reload
	shlq	$10, %rdx
	movq	-8(%rbp), %rsi          # 8-byte Reload
	movl	168(%rsi,%rdx,4), %eax
	movl	%eax, -716(%rbp)        # 4-byte Spill
	movq	%rcx, -728(%rbp)        # 8-byte Spill
.LBB0_88:                               # %for.body6.42
                                        #   Parent Loop BB0_1 Depth=1
                                        # =>  This Inner Loop Header: Depth=2
	movq	-728(%rbp), %rax        # 8-byte Reload
	movq	%rax, %rcx
	addq	$43008, %rcx            # imm = 0xA800
	movl	-716(%rbp), %edx        # 4-byte Reload
	movq	-16(%rbp), %rsi         # 8-byte Reload
	imull	(%rsi,%rcx,4), %edx
	movq	-40(%rbp), %rcx         # 8-byte Reload
	shlq	$10, %rcx
	addq	%rax, %rcx
	movq	-24(%rbp), %rdi         # 8-byte Reload
	addl	(%rdi,%rcx,4), %edx
	movl	%edx, (%rdi,%rcx,4)
	addq	$1, %rax
	movq	%rax, %rcx
	addq	$43008, %rcx            # imm = 0xA800
	movl	-716(%rbp), %edx        # 4-byte Reload
	imull	(%rsi,%rcx,4), %edx
	movq	-40(%rbp), %rcx         # 8-byte Reload
	shlq	$10, %rcx
	addq	%rax, %rcx
	addl	(%rdi,%rcx,4), %edx
	movl	%edx, (%rdi,%rcx,4)
	addq	$1, %rax
	movq	%rax, %rcx
	addq	$43008, %rcx            # imm = 0xA800
	movl	-716(%rbp), %edx        # 4-byte Reload
	imull	(%rsi,%rcx,4), %edx
	movq	-40(%rbp), %rcx         # 8-byte Reload
	shlq	$10, %rcx
	addq	%rax, %rcx
	addl	(%rdi,%rcx,4), %edx
	movl	%edx, (%rdi,%rcx,4)
	addq	$1, %rax
	movq	%rax, %rcx
	addq	$43008, %rcx            # imm = 0xA800
	movl	-716(%rbp), %edx        # 4-byte Reload
	imull	(%rsi,%rcx,4), %edx
	movq	-40(%rbp), %rcx         # 8-byte Reload
	shlq	$10, %rcx
	addq	%rax, %rcx
	addl	(%rdi,%rcx,4), %edx
	movl	%edx, (%rdi,%rcx,4)
	addq	$1, %rax
	cmpq	$256, %rax              # imm = 0x100
	movq	%rax, -728(%rbp)        # 8-byte Spill
	jne	.LBB0_88
# %bb.89:                               # %for.inc17.42
                                        #   in Loop: Header=BB0_1 Depth=1
	xorl	%eax, %eax
	movl	%eax, %ecx
	movq	-40(%rbp), %rdx         # 8-byte Reload
	shlq	$10, %rdx
	movq	-8(%rbp), %rsi          # 8-byte Reload
	movl	172(%rsi,%rdx,4), %eax
	movl	%eax, -732(%rbp)        # 4-byte Spill
	movq	%rcx, -744(%rbp)        # 8-byte Spill
.LBB0_90:                               # %for.body6.43
                                        #   Parent Loop BB0_1 Depth=1
                                        # =>  This Inner Loop Header: Depth=2
	movq	-744(%rbp), %rax        # 8-byte Reload
	movq	%rax, %rcx
	addq	$44032, %rcx            # imm = 0xAC00
	movl	-732(%rbp), %edx        # 4-byte Reload
	movq	-16(%rbp), %rsi         # 8-byte Reload
	imull	(%rsi,%rcx,4), %edx
	movq	-40(%rbp), %rcx         # 8-byte Reload
	shlq	$10, %rcx
	addq	%rax, %rcx
	movq	-24(%rbp), %rdi         # 8-byte Reload
	addl	(%rdi,%rcx,4), %edx
	movl	%edx, (%rdi,%rcx,4)
	addq	$1, %rax
	movq	%rax, %rcx
	addq	$44032, %rcx            # imm = 0xAC00
	movl	-732(%rbp), %edx        # 4-byte Reload
	imull	(%rsi,%rcx,4), %edx
	movq	-40(%rbp), %rcx         # 8-byte Reload
	shlq	$10, %rcx
	addq	%rax, %rcx
	addl	(%rdi,%rcx,4), %edx
	movl	%edx, (%rdi,%rcx,4)
	addq	$1, %rax
	movq	%rax, %rcx
	addq	$44032, %rcx            # imm = 0xAC00
	movl	-732(%rbp), %edx        # 4-byte Reload
	imull	(%rsi,%rcx,4), %edx
	movq	-40(%rbp), %rcx         # 8-byte Reload
	shlq	$10, %rcx
	addq	%rax, %rcx
	addl	(%rdi,%rcx,4), %edx
	movl	%edx, (%rdi,%rcx,4)
	addq	$1, %rax
	movq	%rax, %rcx
	addq	$44032, %rcx            # imm = 0xAC00
	movl	-732(%rbp), %edx        # 4-byte Reload
	imull	(%rsi,%rcx,4), %edx
	movq	-40(%rbp), %rcx         # 8-byte Reload
	shlq	$10, %rcx
	addq	%rax, %rcx
	addl	(%rdi,%rcx,4), %edx
	movl	%edx, (%rdi,%rcx,4)
	addq	$1, %rax
	cmpq	$256, %rax              # imm = 0x100
	movq	%rax, -744(%rbp)        # 8-byte Spill
	jne	.LBB0_90
# %bb.91:                               # %for.inc17.43
                                        #   in Loop: Header=BB0_1 Depth=1
	xorl	%eax, %eax
	movl	%eax, %ecx
	movq	-40(%rbp), %rdx         # 8-byte Reload
	shlq	$10, %rdx
	movq	-8(%rbp), %rsi          # 8-byte Reload
	movl	176(%rsi,%rdx,4), %eax
	movl	%eax, -748(%rbp)        # 4-byte Spill
	movq	%rcx, -760(%rbp)        # 8-byte Spill
.LBB0_92:                               # %for.body6.44
                                        #   Parent Loop BB0_1 Depth=1
                                        # =>  This Inner Loop Header: Depth=2
	movq	-760(%rbp), %rax        # 8-byte Reload
	movq	%rax, %rcx
	addq	$45056, %rcx            # imm = 0xB000
	movl	-748(%rbp), %edx        # 4-byte Reload
	movq	-16(%rbp), %rsi         # 8-byte Reload
	imull	(%rsi,%rcx,4), %edx
	movq	-40(%rbp), %rcx         # 8-byte Reload
	shlq	$10, %rcx
	addq	%rax, %rcx
	movq	-24(%rbp), %rdi         # 8-byte Reload
	addl	(%rdi,%rcx,4), %edx
	movl	%edx, (%rdi,%rcx,4)
	addq	$1, %rax
	movq	%rax, %rcx
	addq	$45056, %rcx            # imm = 0xB000
	movl	-748(%rbp), %edx        # 4-byte Reload
	imull	(%rsi,%rcx,4), %edx
	movq	-40(%rbp), %rcx         # 8-byte Reload
	shlq	$10, %rcx
	addq	%rax, %rcx
	addl	(%rdi,%rcx,4), %edx
	movl	%edx, (%rdi,%rcx,4)
	addq	$1, %rax
	movq	%rax, %rcx
	addq	$45056, %rcx            # imm = 0xB000
	movl	-748(%rbp), %edx        # 4-byte Reload
	imull	(%rsi,%rcx,4), %edx
	movq	-40(%rbp), %rcx         # 8-byte Reload
	shlq	$10, %rcx
	addq	%rax, %rcx
	addl	(%rdi,%rcx,4), %edx
	movl	%edx, (%rdi,%rcx,4)
	addq	$1, %rax
	movq	%rax, %rcx
	addq	$45056, %rcx            # imm = 0xB000
	movl	-748(%rbp), %edx        # 4-byte Reload
	imull	(%rsi,%rcx,4), %edx
	movq	-40(%rbp), %rcx         # 8-byte Reload
	shlq	$10, %rcx
	addq	%rax, %rcx
	addl	(%rdi,%rcx,4), %edx
	movl	%edx, (%rdi,%rcx,4)
	addq	$1, %rax
	cmpq	$256, %rax              # imm = 0x100
	movq	%rax, -760(%rbp)        # 8-byte Spill
	jne	.LBB0_92
# %bb.93:                               # %for.inc17.44
                                        #   in Loop: Header=BB0_1 Depth=1
	xorl	%eax, %eax
	movl	%eax, %ecx
	movq	-40(%rbp), %rdx         # 8-byte Reload
	shlq	$10, %rdx
	movq	-8(%rbp), %rsi          # 8-byte Reload
	movl	180(%rsi,%rdx,4), %eax
	movl	%eax, -764(%rbp)        # 4-byte Spill
	movq	%rcx, -776(%rbp)        # 8-byte Spill
.LBB0_94:                               # %for.body6.45
                                        #   Parent Loop BB0_1 Depth=1
                                        # =>  This Inner Loop Header: Depth=2
	movq	-776(%rbp), %rax        # 8-byte Reload
	movq	%rax, %rcx
	addq	$46080, %rcx            # imm = 0xB400
	movl	-764(%rbp), %edx        # 4-byte Reload
	movq	-16(%rbp), %rsi         # 8-byte Reload
	imull	(%rsi,%rcx,4), %edx
	movq	-40(%rbp), %rcx         # 8-byte Reload
	shlq	$10, %rcx
	addq	%rax, %rcx
	movq	-24(%rbp), %rdi         # 8-byte Reload
	addl	(%rdi,%rcx,4), %edx
	movl	%edx, (%rdi,%rcx,4)
	addq	$1, %rax
	movq	%rax, %rcx
	addq	$46080, %rcx            # imm = 0xB400
	movl	-764(%rbp), %edx        # 4-byte Reload
	imull	(%rsi,%rcx,4), %edx
	movq	-40(%rbp), %rcx         # 8-byte Reload
	shlq	$10, %rcx
	addq	%rax, %rcx
	addl	(%rdi,%rcx,4), %edx
	movl	%edx, (%rdi,%rcx,4)
	addq	$1, %rax
	movq	%rax, %rcx
	addq	$46080, %rcx            # imm = 0xB400
	movl	-764(%rbp), %edx        # 4-byte Reload
	imull	(%rsi,%rcx,4), %edx
	movq	-40(%rbp), %rcx         # 8-byte Reload
	shlq	$10, %rcx
	addq	%rax, %rcx
	addl	(%rdi,%rcx,4), %edx
	movl	%edx, (%rdi,%rcx,4)
	addq	$1, %rax
	movq	%rax, %rcx
	addq	$46080, %rcx            # imm = 0xB400
	movl	-764(%rbp), %edx        # 4-byte Reload
	imull	(%rsi,%rcx,4), %edx
	movq	-40(%rbp), %rcx         # 8-byte Reload
	shlq	$10, %rcx
	addq	%rax, %rcx
	addl	(%rdi,%rcx,4), %edx
	movl	%edx, (%rdi,%rcx,4)
	addq	$1, %rax
	cmpq	$256, %rax              # imm = 0x100
	movq	%rax, -776(%rbp)        # 8-byte Spill
	jne	.LBB0_94
# %bb.95:                               # %for.inc17.45
                                        #   in Loop: Header=BB0_1 Depth=1
	xorl	%eax, %eax
	movl	%eax, %ecx
	movq	-40(%rbp), %rdx         # 8-byte Reload
	shlq	$10, %rdx
	movq	-8(%rbp), %rsi          # 8-byte Reload
	movl	184(%rsi,%rdx,4), %eax
	movl	%eax, -780(%rbp)        # 4-byte Spill
	movq	%rcx, -792(%rbp)        # 8-byte Spill
.LBB0_96:                               # %for.body6.46
                                        #   Parent Loop BB0_1 Depth=1
                                        # =>  This Inner Loop Header: Depth=2
	movq	-792(%rbp), %rax        # 8-byte Reload
	movq	%rax, %rcx
	addq	$47104, %rcx            # imm = 0xB800
	movl	-780(%rbp), %edx        # 4-byte Reload
	movq	-16(%rbp), %rsi         # 8-byte Reload
	imull	(%rsi,%rcx,4), %edx
	movq	-40(%rbp), %rcx         # 8-byte Reload
	shlq	$10, %rcx
	addq	%rax, %rcx
	movq	-24(%rbp), %rdi         # 8-byte Reload
	addl	(%rdi,%rcx,4), %edx
	movl	%edx, (%rdi,%rcx,4)
	addq	$1, %rax
	movq	%rax, %rcx
	addq	$47104, %rcx            # imm = 0xB800
	movl	-780(%rbp), %edx        # 4-byte Reload
	imull	(%rsi,%rcx,4), %edx
	movq	-40(%rbp), %rcx         # 8-byte Reload
	shlq	$10, %rcx
	addq	%rax, %rcx
	addl	(%rdi,%rcx,4), %edx
	movl	%edx, (%rdi,%rcx,4)
	addq	$1, %rax
	movq	%rax, %rcx
	addq	$47104, %rcx            # imm = 0xB800
	movl	-780(%rbp), %edx        # 4-byte Reload
	imull	(%rsi,%rcx,4), %edx
	movq	-40(%rbp), %rcx         # 8-byte Reload
	shlq	$10, %rcx
	addq	%rax, %rcx
	addl	(%rdi,%rcx,4), %edx
	movl	%edx, (%rdi,%rcx,4)
	addq	$1, %rax
	movq	%rax, %rcx
	addq	$47104, %rcx            # imm = 0xB800
	movl	-780(%rbp), %edx        # 4-byte Reload
	imull	(%rsi,%rcx,4), %edx
	movq	-40(%rbp), %rcx         # 8-byte Reload
	shlq	$10, %rcx
	addq	%rax, %rcx
	addl	(%rdi,%rcx,4), %edx
	movl	%edx, (%rdi,%rcx,4)
	addq	$1, %rax
	cmpq	$256, %rax              # imm = 0x100
	movq	%rax, -792(%rbp)        # 8-byte Spill
	jne	.LBB0_96
# %bb.97:                               # %for.inc17.46
                                        #   in Loop: Header=BB0_1 Depth=1
	xorl	%eax, %eax
	movl	%eax, %ecx
	movq	-40(%rbp), %rdx         # 8-byte Reload
	shlq	$10, %rdx
	movq	-8(%rbp), %rsi          # 8-byte Reload
	movl	188(%rsi,%rdx,4), %eax
	movl	%eax, -796(%rbp)        # 4-byte Spill
	movq	%rcx, -808(%rbp)        # 8-byte Spill
.LBB0_98:                               # %for.body6.47
                                        #   Parent Loop BB0_1 Depth=1
                                        # =>  This Inner Loop Header: Depth=2
	movq	-808(%rbp), %rax        # 8-byte Reload
	movq	%rax, %rcx
	addq	$48128, %rcx            # imm = 0xBC00
	movl	-796(%rbp), %edx        # 4-byte Reload
	movq	-16(%rbp), %rsi         # 8-byte Reload
	imull	(%rsi,%rcx,4), %edx
	movq	-40(%rbp), %rcx         # 8-byte Reload
	shlq	$10, %rcx
	addq	%rax, %rcx
	movq	-24(%rbp), %rdi         # 8-byte Reload
	addl	(%rdi,%rcx,4), %edx
	movl	%edx, (%rdi,%rcx,4)
	addq	$1, %rax
	movq	%rax, %rcx
	addq	$48128, %rcx            # imm = 0xBC00
	movl	-796(%rbp), %edx        # 4-byte Reload
	imull	(%rsi,%rcx,4), %edx
	movq	-40(%rbp), %rcx         # 8-byte Reload
	shlq	$10, %rcx
	addq	%rax, %rcx
	addl	(%rdi,%rcx,4), %edx
	movl	%edx, (%rdi,%rcx,4)
	addq	$1, %rax
	movq	%rax, %rcx
	addq	$48128, %rcx            # imm = 0xBC00
	movl	-796(%rbp), %edx        # 4-byte Reload
	imull	(%rsi,%rcx,4), %edx
	movq	-40(%rbp), %rcx         # 8-byte Reload
	shlq	$10, %rcx
	addq	%rax, %rcx
	addl	(%rdi,%rcx,4), %edx
	movl	%edx, (%rdi,%rcx,4)
	addq	$1, %rax
	movq	%rax, %rcx
	addq	$48128, %rcx            # imm = 0xBC00
	movl	-796(%rbp), %edx        # 4-byte Reload
	imull	(%rsi,%rcx,4), %edx
	movq	-40(%rbp), %rcx         # 8-byte Reload
	shlq	$10, %rcx
	addq	%rax, %rcx
	addl	(%rdi,%rcx,4), %edx
	movl	%edx, (%rdi,%rcx,4)
	addq	$1, %rax
	cmpq	$256, %rax              # imm = 0x100
	movq	%rax, -808(%rbp)        # 8-byte Spill
	jne	.LBB0_98
# %bb.99:                               # %for.inc17.47
                                        #   in Loop: Header=BB0_1 Depth=1
	xorl	%eax, %eax
	movl	%eax, %ecx
	movq	-40(%rbp), %rdx         # 8-byte Reload
	shlq	$10, %rdx
	movq	-8(%rbp), %rsi          # 8-byte Reload
	movl	192(%rsi,%rdx,4), %eax
	movl	%eax, -812(%rbp)        # 4-byte Spill
	movq	%rcx, -824(%rbp)        # 8-byte Spill
.LBB0_100:                              # %for.body6.48
                                        #   Parent Loop BB0_1 Depth=1
                                        # =>  This Inner Loop Header: Depth=2
	movq	-824(%rbp), %rax        # 8-byte Reload
	movq	%rax, %rcx
	addq	$49152, %rcx            # imm = 0xC000
	movl	-812(%rbp), %edx        # 4-byte Reload
	movq	-16(%rbp), %rsi         # 8-byte Reload
	imull	(%rsi,%rcx,4), %edx
	movq	-40(%rbp), %rcx         # 8-byte Reload
	shlq	$10, %rcx
	addq	%rax, %rcx
	movq	-24(%rbp), %rdi         # 8-byte Reload
	addl	(%rdi,%rcx,4), %edx
	movl	%edx, (%rdi,%rcx,4)
	addq	$1, %rax
	movq	%rax, %rcx
	addq	$49152, %rcx            # imm = 0xC000
	movl	-812(%rbp), %edx        # 4-byte Reload
	imull	(%rsi,%rcx,4), %edx
	movq	-40(%rbp), %rcx         # 8-byte Reload
	shlq	$10, %rcx
	addq	%rax, %rcx
	addl	(%rdi,%rcx,4), %edx
	movl	%edx, (%rdi,%rcx,4)
	addq	$1, %rax
	movq	%rax, %rcx
	addq	$49152, %rcx            # imm = 0xC000
	movl	-812(%rbp), %edx        # 4-byte Reload
	imull	(%rsi,%rcx,4), %edx
	movq	-40(%rbp), %rcx         # 8-byte Reload
	shlq	$10, %rcx
	addq	%rax, %rcx
	addl	(%rdi,%rcx,4), %edx
	movl	%edx, (%rdi,%rcx,4)
	addq	$1, %rax
	movq	%rax, %rcx
	addq	$49152, %rcx            # imm = 0xC000
	movl	-812(%rbp), %edx        # 4-byte Reload
	imull	(%rsi,%rcx,4), %edx
	movq	-40(%rbp), %rcx         # 8-byte Reload
	shlq	$10, %rcx
	addq	%rax, %rcx
	addl	(%rdi,%rcx,4), %edx
	movl	%edx, (%rdi,%rcx,4)
	addq	$1, %rax
	cmpq	$256, %rax              # imm = 0x100
	movq	%rax, -824(%rbp)        # 8-byte Spill
	jne	.LBB0_100
# %bb.101:                              # %for.inc17.48
                                        #   in Loop: Header=BB0_1 Depth=1
	xorl	%eax, %eax
	movl	%eax, %ecx
	movq	-40(%rbp), %rdx         # 8-byte Reload
	shlq	$10, %rdx
	movq	-8(%rbp), %rsi          # 8-byte Reload
	movl	196(%rsi,%rdx,4), %eax
	movl	%eax, -828(%rbp)        # 4-byte Spill
	movq	%rcx, -840(%rbp)        # 8-byte Spill
.LBB0_102:                              # %for.body6.49
                                        #   Parent Loop BB0_1 Depth=1
                                        # =>  This Inner Loop Header: Depth=2
	movq	-840(%rbp), %rax        # 8-byte Reload
	movq	%rax, %rcx
	addq	$50176, %rcx            # imm = 0xC400
	movl	-828(%rbp), %edx        # 4-byte Reload
	movq	-16(%rbp), %rsi         # 8-byte Reload
	imull	(%rsi,%rcx,4), %edx
	movq	-40(%rbp), %rcx         # 8-byte Reload
	shlq	$10, %rcx
	addq	%rax, %rcx
	movq	-24(%rbp), %rdi         # 8-byte Reload
	addl	(%rdi,%rcx,4), %edx
	movl	%edx, (%rdi,%rcx,4)
	addq	$1, %rax
	movq	%rax, %rcx
	addq	$50176, %rcx            # imm = 0xC400
	movl	-828(%rbp), %edx        # 4-byte Reload
	imull	(%rsi,%rcx,4), %edx
	movq	-40(%rbp), %rcx         # 8-byte Reload
	shlq	$10, %rcx
	addq	%rax, %rcx
	addl	(%rdi,%rcx,4), %edx
	movl	%edx, (%rdi,%rcx,4)
	addq	$1, %rax
	movq	%rax, %rcx
	addq	$50176, %rcx            # imm = 0xC400
	movl	-828(%rbp), %edx        # 4-byte Reload
	imull	(%rsi,%rcx,4), %edx
	movq	-40(%rbp), %rcx         # 8-byte Reload
	shlq	$10, %rcx
	addq	%rax, %rcx
	addl	(%rdi,%rcx,4), %edx
	movl	%edx, (%rdi,%rcx,4)
	addq	$1, %rax
	movq	%rax, %rcx
	addq	$50176, %rcx            # imm = 0xC400
	movl	-828(%rbp), %edx        # 4-byte Reload
	imull	(%rsi,%rcx,4), %edx
	movq	-40(%rbp), %rcx         # 8-byte Reload
	shlq	$10, %rcx
	addq	%rax, %rcx
	addl	(%rdi,%rcx,4), %edx
	movl	%edx, (%rdi,%rcx,4)
	addq	$1, %rax
	cmpq	$256, %rax              # imm = 0x100
	movq	%rax, -840(%rbp)        # 8-byte Spill
	jne	.LBB0_102
# %bb.103:                              # %for.inc17.49
                                        #   in Loop: Header=BB0_1 Depth=1
	xorl	%eax, %eax
	movl	%eax, %ecx
	movq	-40(%rbp), %rdx         # 8-byte Reload
	shlq	$10, %rdx
	movq	-8(%rbp), %rsi          # 8-byte Reload
	movl	200(%rsi,%rdx,4), %eax
	movl	%eax, -844(%rbp)        # 4-byte Spill
	movq	%rcx, -856(%rbp)        # 8-byte Spill
.LBB0_104:                              # %for.body6.50
                                        #   Parent Loop BB0_1 Depth=1
                                        # =>  This Inner Loop Header: Depth=2
	movq	-856(%rbp), %rax        # 8-byte Reload
	movq	%rax, %rcx
	addq	$51200, %rcx            # imm = 0xC800
	movl	-844(%rbp), %edx        # 4-byte Reload
	movq	-16(%rbp), %rsi         # 8-byte Reload
	imull	(%rsi,%rcx,4), %edx
	movq	-40(%rbp), %rcx         # 8-byte Reload
	shlq	$10, %rcx
	addq	%rax, %rcx
	movq	-24(%rbp), %rdi         # 8-byte Reload
	addl	(%rdi,%rcx,4), %edx
	movl	%edx, (%rdi,%rcx,4)
	addq	$1, %rax
	movq	%rax, %rcx
	addq	$51200, %rcx            # imm = 0xC800
	movl	-844(%rbp), %edx        # 4-byte Reload
	imull	(%rsi,%rcx,4), %edx
	movq	-40(%rbp), %rcx         # 8-byte Reload
	shlq	$10, %rcx
	addq	%rax, %rcx
	addl	(%rdi,%rcx,4), %edx
	movl	%edx, (%rdi,%rcx,4)
	addq	$1, %rax
	movq	%rax, %rcx
	addq	$51200, %rcx            # imm = 0xC800
	movl	-844(%rbp), %edx        # 4-byte Reload
	imull	(%rsi,%rcx,4), %edx
	movq	-40(%rbp), %rcx         # 8-byte Reload
	shlq	$10, %rcx
	addq	%rax, %rcx
	addl	(%rdi,%rcx,4), %edx
	movl	%edx, (%rdi,%rcx,4)
	addq	$1, %rax
	movq	%rax, %rcx
	addq	$51200, %rcx            # imm = 0xC800
	movl	-844(%rbp), %edx        # 4-byte Reload
	imull	(%rsi,%rcx,4), %edx
	movq	-40(%rbp), %rcx         # 8-byte Reload
	shlq	$10, %rcx
	addq	%rax, %rcx
	addl	(%rdi,%rcx,4), %edx
	movl	%edx, (%rdi,%rcx,4)
	addq	$1, %rax
	cmpq	$256, %rax              # imm = 0x100
	movq	%rax, -856(%rbp)        # 8-byte Spill
	jne	.LBB0_104
# %bb.105:                              # %for.inc17.50
                                        #   in Loop: Header=BB0_1 Depth=1
	xorl	%eax, %eax
	movl	%eax, %ecx
	movq	-40(%rbp), %rdx         # 8-byte Reload
	shlq	$10, %rdx
	movq	-8(%rbp), %rsi          # 8-byte Reload
	movl	204(%rsi,%rdx,4), %eax
	movl	%eax, -860(%rbp)        # 4-byte Spill
	movq	%rcx, -872(%rbp)        # 8-byte Spill
.LBB0_106:                              # %for.body6.51
                                        #   Parent Loop BB0_1 Depth=1
                                        # =>  This Inner Loop Header: Depth=2
	movq	-872(%rbp), %rax        # 8-byte Reload
	movq	%rax, %rcx
	addq	$52224, %rcx            # imm = 0xCC00
	movl	-860(%rbp), %edx        # 4-byte Reload
	movq	-16(%rbp), %rsi         # 8-byte Reload
	imull	(%rsi,%rcx,4), %edx
	movq	-40(%rbp), %rcx         # 8-byte Reload
	shlq	$10, %rcx
	addq	%rax, %rcx
	movq	-24(%rbp), %rdi         # 8-byte Reload
	addl	(%rdi,%rcx,4), %edx
	movl	%edx, (%rdi,%rcx,4)
	addq	$1, %rax
	movq	%rax, %rcx
	addq	$52224, %rcx            # imm = 0xCC00
	movl	-860(%rbp), %edx        # 4-byte Reload
	imull	(%rsi,%rcx,4), %edx
	movq	-40(%rbp), %rcx         # 8-byte Reload
	shlq	$10, %rcx
	addq	%rax, %rcx
	addl	(%rdi,%rcx,4), %edx
	movl	%edx, (%rdi,%rcx,4)
	addq	$1, %rax
	movq	%rax, %rcx
	addq	$52224, %rcx            # imm = 0xCC00
	movl	-860(%rbp), %edx        # 4-byte Reload
	imull	(%rsi,%rcx,4), %edx
	movq	-40(%rbp), %rcx         # 8-byte Reload
	shlq	$10, %rcx
	addq	%rax, %rcx
	addl	(%rdi,%rcx,4), %edx
	movl	%edx, (%rdi,%rcx,4)
	addq	$1, %rax
	movq	%rax, %rcx
	addq	$52224, %rcx            # imm = 0xCC00
	movl	-860(%rbp), %edx        # 4-byte Reload
	imull	(%rsi,%rcx,4), %edx
	movq	-40(%rbp), %rcx         # 8-byte Reload
	shlq	$10, %rcx
	addq	%rax, %rcx
	addl	(%rdi,%rcx,4), %edx
	movl	%edx, (%rdi,%rcx,4)
	addq	$1, %rax
	cmpq	$256, %rax              # imm = 0x100
	movq	%rax, -872(%rbp)        # 8-byte Spill
	jne	.LBB0_106
# %bb.107:                              # %for.inc17.51
                                        #   in Loop: Header=BB0_1 Depth=1
	xorl	%eax, %eax
	movl	%eax, %ecx
	movq	-40(%rbp), %rdx         # 8-byte Reload
	shlq	$10, %rdx
	movq	-8(%rbp), %rsi          # 8-byte Reload
	movl	208(%rsi,%rdx,4), %eax
	movl	%eax, -876(%rbp)        # 4-byte Spill
	movq	%rcx, -888(%rbp)        # 8-byte Spill
.LBB0_108:                              # %for.body6.52
                                        #   Parent Loop BB0_1 Depth=1
                                        # =>  This Inner Loop Header: Depth=2
	movq	-888(%rbp), %rax        # 8-byte Reload
	movq	%rax, %rcx
	addq	$53248, %rcx            # imm = 0xD000
	movl	-876(%rbp), %edx        # 4-byte Reload
	movq	-16(%rbp), %rsi         # 8-byte Reload
	imull	(%rsi,%rcx,4), %edx
	movq	-40(%rbp), %rcx         # 8-byte Reload
	shlq	$10, %rcx
	addq	%rax, %rcx
	movq	-24(%rbp), %rdi         # 8-byte Reload
	addl	(%rdi,%rcx,4), %edx
	movl	%edx, (%rdi,%rcx,4)
	addq	$1, %rax
	movq	%rax, %rcx
	addq	$53248, %rcx            # imm = 0xD000
	movl	-876(%rbp), %edx        # 4-byte Reload
	imull	(%rsi,%rcx,4), %edx
	movq	-40(%rbp), %rcx         # 8-byte Reload
	shlq	$10, %rcx
	addq	%rax, %rcx
	addl	(%rdi,%rcx,4), %edx
	movl	%edx, (%rdi,%rcx,4)
	addq	$1, %rax
	movq	%rax, %rcx
	addq	$53248, %rcx            # imm = 0xD000
	movl	-876(%rbp), %edx        # 4-byte Reload
	imull	(%rsi,%rcx,4), %edx
	movq	-40(%rbp), %rcx         # 8-byte Reload
	shlq	$10, %rcx
	addq	%rax, %rcx
	addl	(%rdi,%rcx,4), %edx
	movl	%edx, (%rdi,%rcx,4)
	addq	$1, %rax
	movq	%rax, %rcx
	addq	$53248, %rcx            # imm = 0xD000
	movl	-876(%rbp), %edx        # 4-byte Reload
	imull	(%rsi,%rcx,4), %edx
	movq	-40(%rbp), %rcx         # 8-byte Reload
	shlq	$10, %rcx
	addq	%rax, %rcx
	addl	(%rdi,%rcx,4), %edx
	movl	%edx, (%rdi,%rcx,4)
	addq	$1, %rax
	cmpq	$256, %rax              # imm = 0x100
	movq	%rax, -888(%rbp)        # 8-byte Spill
	jne	.LBB0_108
# %bb.109:                              # %for.inc17.52
                                        #   in Loop: Header=BB0_1 Depth=1
	xorl	%eax, %eax
	movl	%eax, %ecx
	movq	-40(%rbp), %rdx         # 8-byte Reload
	shlq	$10, %rdx
	movq	-8(%rbp), %rsi          # 8-byte Reload
	movl	212(%rsi,%rdx,4), %eax
	movl	%eax, -892(%rbp)        # 4-byte Spill
	movq	%rcx, -904(%rbp)        # 8-byte Spill
.LBB0_110:                              # %for.body6.53
                                        #   Parent Loop BB0_1 Depth=1
                                        # =>  This Inner Loop Header: Depth=2
	movq	-904(%rbp), %rax        # 8-byte Reload
	movq	%rax, %rcx
	addq	$54272, %rcx            # imm = 0xD400
	movl	-892(%rbp), %edx        # 4-byte Reload
	movq	-16(%rbp), %rsi         # 8-byte Reload
	imull	(%rsi,%rcx,4), %edx
	movq	-40(%rbp), %rcx         # 8-byte Reload
	shlq	$10, %rcx
	addq	%rax, %rcx
	movq	-24(%rbp), %rdi         # 8-byte Reload
	addl	(%rdi,%rcx,4), %edx
	movl	%edx, (%rdi,%rcx,4)
	addq	$1, %rax
	movq	%rax, %rcx
	addq	$54272, %rcx            # imm = 0xD400
	movl	-892(%rbp), %edx        # 4-byte Reload
	imull	(%rsi,%rcx,4), %edx
	movq	-40(%rbp), %rcx         # 8-byte Reload
	shlq	$10, %rcx
	addq	%rax, %rcx
	addl	(%rdi,%rcx,4), %edx
	movl	%edx, (%rdi,%rcx,4)
	addq	$1, %rax
	movq	%rax, %rcx
	addq	$54272, %rcx            # imm = 0xD400
	movl	-892(%rbp), %edx        # 4-byte Reload
	imull	(%rsi,%rcx,4), %edx
	movq	-40(%rbp), %rcx         # 8-byte Reload
	shlq	$10, %rcx
	addq	%rax, %rcx
	addl	(%rdi,%rcx,4), %edx
	movl	%edx, (%rdi,%rcx,4)
	addq	$1, %rax
	movq	%rax, %rcx
	addq	$54272, %rcx            # imm = 0xD400
	movl	-892(%rbp), %edx        # 4-byte Reload
	imull	(%rsi,%rcx,4), %edx
	movq	-40(%rbp), %rcx         # 8-byte Reload
	shlq	$10, %rcx
	addq	%rax, %rcx
	addl	(%rdi,%rcx,4), %edx
	movl	%edx, (%rdi,%rcx,4)
	addq	$1, %rax
	cmpq	$256, %rax              # imm = 0x100
	movq	%rax, -904(%rbp)        # 8-byte Spill
	jne	.LBB0_110
# %bb.111:                              # %for.inc17.53
                                        #   in Loop: Header=BB0_1 Depth=1
	xorl	%eax, %eax
	movl	%eax, %ecx
	movq	-40(%rbp), %rdx         # 8-byte Reload
	shlq	$10, %rdx
	movq	-8(%rbp), %rsi          # 8-byte Reload
	movl	216(%rsi,%rdx,4), %eax
	movl	%eax, -908(%rbp)        # 4-byte Spill
	movq	%rcx, -920(%rbp)        # 8-byte Spill
.LBB0_112:                              # %for.body6.54
                                        #   Parent Loop BB0_1 Depth=1
                                        # =>  This Inner Loop Header: Depth=2
	movq	-920(%rbp), %rax        # 8-byte Reload
	movq	%rax, %rcx
	addq	$55296, %rcx            # imm = 0xD800
	movl	-908(%rbp), %edx        # 4-byte Reload
	movq	-16(%rbp), %rsi         # 8-byte Reload
	imull	(%rsi,%rcx,4), %edx
	movq	-40(%rbp), %rcx         # 8-byte Reload
	shlq	$10, %rcx
	addq	%rax, %rcx
	movq	-24(%rbp), %rdi         # 8-byte Reload
	addl	(%rdi,%rcx,4), %edx
	movl	%edx, (%rdi,%rcx,4)
	addq	$1, %rax
	movq	%rax, %rcx
	addq	$55296, %rcx            # imm = 0xD800
	movl	-908(%rbp), %edx        # 4-byte Reload
	imull	(%rsi,%rcx,4), %edx
	movq	-40(%rbp), %rcx         # 8-byte Reload
	shlq	$10, %rcx
	addq	%rax, %rcx
	addl	(%rdi,%rcx,4), %edx
	movl	%edx, (%rdi,%rcx,4)
	addq	$1, %rax
	movq	%rax, %rcx
	addq	$55296, %rcx            # imm = 0xD800
	movl	-908(%rbp), %edx        # 4-byte Reload
	imull	(%rsi,%rcx,4), %edx
	movq	-40(%rbp), %rcx         # 8-byte Reload
	shlq	$10, %rcx
	addq	%rax, %rcx
	addl	(%rdi,%rcx,4), %edx
	movl	%edx, (%rdi,%rcx,4)
	addq	$1, %rax
	movq	%rax, %rcx
	addq	$55296, %rcx            # imm = 0xD800
	movl	-908(%rbp), %edx        # 4-byte Reload
	imull	(%rsi,%rcx,4), %edx
	movq	-40(%rbp), %rcx         # 8-byte Reload
	shlq	$10, %rcx
	addq	%rax, %rcx
	addl	(%rdi,%rcx,4), %edx
	movl	%edx, (%rdi,%rcx,4)
	addq	$1, %rax
	cmpq	$256, %rax              # imm = 0x100
	movq	%rax, -920(%rbp)        # 8-byte Spill
	jne	.LBB0_112
# %bb.113:                              # %for.inc17.54
                                        #   in Loop: Header=BB0_1 Depth=1
	xorl	%eax, %eax
	movl	%eax, %ecx
	movq	-40(%rbp), %rdx         # 8-byte Reload
	shlq	$10, %rdx
	movq	-8(%rbp), %rsi          # 8-byte Reload
	movl	220(%rsi,%rdx,4), %eax
	movl	%eax, -924(%rbp)        # 4-byte Spill
	movq	%rcx, -936(%rbp)        # 8-byte Spill
.LBB0_114:                              # %for.body6.55
                                        #   Parent Loop BB0_1 Depth=1
                                        # =>  This Inner Loop Header: Depth=2
	movq	-936(%rbp), %rax        # 8-byte Reload
	movq	%rax, %rcx
	addq	$56320, %rcx            # imm = 0xDC00
	movl	-924(%rbp), %edx        # 4-byte Reload
	movq	-16(%rbp), %rsi         # 8-byte Reload
	imull	(%rsi,%rcx,4), %edx
	movq	-40(%rbp), %rcx         # 8-byte Reload
	shlq	$10, %rcx
	addq	%rax, %rcx
	movq	-24(%rbp), %rdi         # 8-byte Reload
	addl	(%rdi,%rcx,4), %edx
	movl	%edx, (%rdi,%rcx,4)
	addq	$1, %rax
	movq	%rax, %rcx
	addq	$56320, %rcx            # imm = 0xDC00
	movl	-924(%rbp), %edx        # 4-byte Reload
	imull	(%rsi,%rcx,4), %edx
	movq	-40(%rbp), %rcx         # 8-byte Reload
	shlq	$10, %rcx
	addq	%rax, %rcx
	addl	(%rdi,%rcx,4), %edx
	movl	%edx, (%rdi,%rcx,4)
	addq	$1, %rax
	movq	%rax, %rcx
	addq	$56320, %rcx            # imm = 0xDC00
	movl	-924(%rbp), %edx        # 4-byte Reload
	imull	(%rsi,%rcx,4), %edx
	movq	-40(%rbp), %rcx         # 8-byte Reload
	shlq	$10, %rcx
	addq	%rax, %rcx
	addl	(%rdi,%rcx,4), %edx
	movl	%edx, (%rdi,%rcx,4)
	addq	$1, %rax
	movq	%rax, %rcx
	addq	$56320, %rcx            # imm = 0xDC00
	movl	-924(%rbp), %edx        # 4-byte Reload
	imull	(%rsi,%rcx,4), %edx
	movq	-40(%rbp), %rcx         # 8-byte Reload
	shlq	$10, %rcx
	addq	%rax, %rcx
	addl	(%rdi,%rcx,4), %edx
	movl	%edx, (%rdi,%rcx,4)
	addq	$1, %rax
	cmpq	$256, %rax              # imm = 0x100
	movq	%rax, -936(%rbp)        # 8-byte Spill
	jne	.LBB0_114
# %bb.115:                              # %for.inc17.55
                                        #   in Loop: Header=BB0_1 Depth=1
	xorl	%eax, %eax
	movl	%eax, %ecx
	movq	-40(%rbp), %rdx         # 8-byte Reload
	shlq	$10, %rdx
	movq	-8(%rbp), %rsi          # 8-byte Reload
	movl	224(%rsi,%rdx,4), %eax
	movl	%eax, -940(%rbp)        # 4-byte Spill
	movq	%rcx, -952(%rbp)        # 8-byte Spill
.LBB0_116:                              # %for.body6.56
                                        #   Parent Loop BB0_1 Depth=1
                                        # =>  This Inner Loop Header: Depth=2
	movq	-952(%rbp), %rax        # 8-byte Reload
	movq	%rax, %rcx
	addq	$57344, %rcx            # imm = 0xE000
	movl	-940(%rbp), %edx        # 4-byte Reload
	movq	-16(%rbp), %rsi         # 8-byte Reload
	imull	(%rsi,%rcx,4), %edx
	movq	-40(%rbp), %rcx         # 8-byte Reload
	shlq	$10, %rcx
	addq	%rax, %rcx
	movq	-24(%rbp), %rdi         # 8-byte Reload
	addl	(%rdi,%rcx,4), %edx
	movl	%edx, (%rdi,%rcx,4)
	addq	$1, %rax
	movq	%rax, %rcx
	addq	$57344, %rcx            # imm = 0xE000
	movl	-940(%rbp), %edx        # 4-byte Reload
	imull	(%rsi,%rcx,4), %edx
	movq	-40(%rbp), %rcx         # 8-byte Reload
	shlq	$10, %rcx
	addq	%rax, %rcx
	addl	(%rdi,%rcx,4), %edx
	movl	%edx, (%rdi,%rcx,4)
	addq	$1, %rax
	movq	%rax, %rcx
	addq	$57344, %rcx            # imm = 0xE000
	movl	-940(%rbp), %edx        # 4-byte Reload
	imull	(%rsi,%rcx,4), %edx
	movq	-40(%rbp), %rcx         # 8-byte Reload
	shlq	$10, %rcx
	addq	%rax, %rcx
	addl	(%rdi,%rcx,4), %edx
	movl	%edx, (%rdi,%rcx,4)
	addq	$1, %rax
	movq	%rax, %rcx
	addq	$57344, %rcx            # imm = 0xE000
	movl	-940(%rbp), %edx        # 4-byte Reload
	imull	(%rsi,%rcx,4), %edx
	movq	-40(%rbp), %rcx         # 8-byte Reload
	shlq	$10, %rcx
	addq	%rax, %rcx
	addl	(%rdi,%rcx,4), %edx
	movl	%edx, (%rdi,%rcx,4)
	addq	$1, %rax
	cmpq	$256, %rax              # imm = 0x100
	movq	%rax, -952(%rbp)        # 8-byte Spill
	jne	.LBB0_116
# %bb.117:                              # %for.inc17.56
                                        #   in Loop: Header=BB0_1 Depth=1
	xorl	%eax, %eax
	movl	%eax, %ecx
	movq	-40(%rbp), %rdx         # 8-byte Reload
	shlq	$10, %rdx
	movq	-8(%rbp), %rsi          # 8-byte Reload
	movl	228(%rsi,%rdx,4), %eax
	movl	%eax, -956(%rbp)        # 4-byte Spill
	movq	%rcx, -968(%rbp)        # 8-byte Spill
.LBB0_118:                              # %for.body6.57
                                        #   Parent Loop BB0_1 Depth=1
                                        # =>  This Inner Loop Header: Depth=2
	movq	-968(%rbp), %rax        # 8-byte Reload
	movq	%rax, %rcx
	addq	$58368, %rcx            # imm = 0xE400
	movl	-956(%rbp), %edx        # 4-byte Reload
	movq	-16(%rbp), %rsi         # 8-byte Reload
	imull	(%rsi,%rcx,4), %edx
	movq	-40(%rbp), %rcx         # 8-byte Reload
	shlq	$10, %rcx
	addq	%rax, %rcx
	movq	-24(%rbp), %rdi         # 8-byte Reload
	addl	(%rdi,%rcx,4), %edx
	movl	%edx, (%rdi,%rcx,4)
	addq	$1, %rax
	movq	%rax, %rcx
	addq	$58368, %rcx            # imm = 0xE400
	movl	-956(%rbp), %edx        # 4-byte Reload
	imull	(%rsi,%rcx,4), %edx
	movq	-40(%rbp), %rcx         # 8-byte Reload
	shlq	$10, %rcx
	addq	%rax, %rcx
	addl	(%rdi,%rcx,4), %edx
	movl	%edx, (%rdi,%rcx,4)
	addq	$1, %rax
	movq	%rax, %rcx
	addq	$58368, %rcx            # imm = 0xE400
	movl	-956(%rbp), %edx        # 4-byte Reload
	imull	(%rsi,%rcx,4), %edx
	movq	-40(%rbp), %rcx         # 8-byte Reload
	shlq	$10, %rcx
	addq	%rax, %rcx
	addl	(%rdi,%rcx,4), %edx
	movl	%edx, (%rdi,%rcx,4)
	addq	$1, %rax
	movq	%rax, %rcx
	addq	$58368, %rcx            # imm = 0xE400
	movl	-956(%rbp), %edx        # 4-byte Reload
	imull	(%rsi,%rcx,4), %edx
	movq	-40(%rbp), %rcx         # 8-byte Reload
	shlq	$10, %rcx
	addq	%rax, %rcx
	addl	(%rdi,%rcx,4), %edx
	movl	%edx, (%rdi,%rcx,4)
	addq	$1, %rax
	cmpq	$256, %rax              # imm = 0x100
	movq	%rax, -968(%rbp)        # 8-byte Spill
	jne	.LBB0_118
# %bb.119:                              # %for.inc17.57
                                        #   in Loop: Header=BB0_1 Depth=1
	xorl	%eax, %eax
	movl	%eax, %ecx
	movq	-40(%rbp), %rdx         # 8-byte Reload
	shlq	$10, %rdx
	movq	-8(%rbp), %rsi          # 8-byte Reload
	movl	232(%rsi,%rdx,4), %eax
	movl	%eax, -972(%rbp)        # 4-byte Spill
	movq	%rcx, -984(%rbp)        # 8-byte Spill
.LBB0_120:                              # %for.body6.58
                                        #   Parent Loop BB0_1 Depth=1
                                        # =>  This Inner Loop Header: Depth=2
	movq	-984(%rbp), %rax        # 8-byte Reload
	movq	%rax, %rcx
	addq	$59392, %rcx            # imm = 0xE800
	movl	-972(%rbp), %edx        # 4-byte Reload
	movq	-16(%rbp), %rsi         # 8-byte Reload
	imull	(%rsi,%rcx,4), %edx
	movq	-40(%rbp), %rcx         # 8-byte Reload
	shlq	$10, %rcx
	addq	%rax, %rcx
	movq	-24(%rbp), %rdi         # 8-byte Reload
	addl	(%rdi,%rcx,4), %edx
	movl	%edx, (%rdi,%rcx,4)
	addq	$1, %rax
	movq	%rax, %rcx
	addq	$59392, %rcx            # imm = 0xE800
	movl	-972(%rbp), %edx        # 4-byte Reload
	imull	(%rsi,%rcx,4), %edx
	movq	-40(%rbp), %rcx         # 8-byte Reload
	shlq	$10, %rcx
	addq	%rax, %rcx
	addl	(%rdi,%rcx,4), %edx
	movl	%edx, (%rdi,%rcx,4)
	addq	$1, %rax
	movq	%rax, %rcx
	addq	$59392, %rcx            # imm = 0xE800
	movl	-972(%rbp), %edx        # 4-byte Reload
	imull	(%rsi,%rcx,4), %edx
	movq	-40(%rbp), %rcx         # 8-byte Reload
	shlq	$10, %rcx
	addq	%rax, %rcx
	addl	(%rdi,%rcx,4), %edx
	movl	%edx, (%rdi,%rcx,4)
	addq	$1, %rax
	movq	%rax, %rcx
	addq	$59392, %rcx            # imm = 0xE800
	movl	-972(%rbp), %edx        # 4-byte Reload
	imull	(%rsi,%rcx,4), %edx
	movq	-40(%rbp), %rcx         # 8-byte Reload
	shlq	$10, %rcx
	addq	%rax, %rcx
	addl	(%rdi,%rcx,4), %edx
	movl	%edx, (%rdi,%rcx,4)
	addq	$1, %rax
	cmpq	$256, %rax              # imm = 0x100
	movq	%rax, -984(%rbp)        # 8-byte Spill
	jne	.LBB0_120
# %bb.121:                              # %for.inc17.58
                                        #   in Loop: Header=BB0_1 Depth=1
	xorl	%eax, %eax
	movl	%eax, %ecx
	movq	-40(%rbp), %rdx         # 8-byte Reload
	shlq	$10, %rdx
	movq	-8(%rbp), %rsi          # 8-byte Reload
	movl	236(%rsi,%rdx,4), %eax
	movl	%eax, -988(%rbp)        # 4-byte Spill
	movq	%rcx, -1000(%rbp)       # 8-byte Spill
.LBB0_122:                              # %for.body6.59
                                        #   Parent Loop BB0_1 Depth=1
                                        # =>  This Inner Loop Header: Depth=2
	movq	-1000(%rbp), %rax       # 8-byte Reload
	movq	%rax, %rcx
	addq	$60416, %rcx            # imm = 0xEC00
	movl	-988(%rbp), %edx        # 4-byte Reload
	movq	-16(%rbp), %rsi         # 8-byte Reload
	imull	(%rsi,%rcx,4), %edx
	movq	-40(%rbp), %rcx         # 8-byte Reload
	shlq	$10, %rcx
	addq	%rax, %rcx
	movq	-24(%rbp), %rdi         # 8-byte Reload
	addl	(%rdi,%rcx,4), %edx
	movl	%edx, (%rdi,%rcx,4)
	addq	$1, %rax
	movq	%rax, %rcx
	addq	$60416, %rcx            # imm = 0xEC00
	movl	-988(%rbp), %edx        # 4-byte Reload
	imull	(%rsi,%rcx,4), %edx
	movq	-40(%rbp), %rcx         # 8-byte Reload
	shlq	$10, %rcx
	addq	%rax, %rcx
	addl	(%rdi,%rcx,4), %edx
	movl	%edx, (%rdi,%rcx,4)
	addq	$1, %rax
	movq	%rax, %rcx
	addq	$60416, %rcx            # imm = 0xEC00
	movl	-988(%rbp), %edx        # 4-byte Reload
	imull	(%rsi,%rcx,4), %edx
	movq	-40(%rbp), %rcx         # 8-byte Reload
	shlq	$10, %rcx
	addq	%rax, %rcx
	addl	(%rdi,%rcx,4), %edx
	movl	%edx, (%rdi,%rcx,4)
	addq	$1, %rax
	movq	%rax, %rcx
	addq	$60416, %rcx            # imm = 0xEC00
	movl	-988(%rbp), %edx        # 4-byte Reload
	imull	(%rsi,%rcx,4), %edx
	movq	-40(%rbp), %rcx         # 8-byte Reload
	shlq	$10, %rcx
	addq	%rax, %rcx
	addl	(%rdi,%rcx,4), %edx
	movl	%edx, (%rdi,%rcx,4)
	addq	$1, %rax
	cmpq	$256, %rax              # imm = 0x100
	movq	%rax, -1000(%rbp)       # 8-byte Spill
	jne	.LBB0_122
# %bb.123:                              # %for.inc17.59
                                        #   in Loop: Header=BB0_1 Depth=1
	xorl	%eax, %eax
	movl	%eax, %ecx
	movq	-40(%rbp), %rdx         # 8-byte Reload
	shlq	$10, %rdx
	movq	-8(%rbp), %rsi          # 8-byte Reload
	movl	240(%rsi,%rdx,4), %eax
	movl	%eax, -1004(%rbp)       # 4-byte Spill
	movq	%rcx, -1016(%rbp)       # 8-byte Spill
.LBB0_124:                              # %for.body6.60
                                        #   Parent Loop BB0_1 Depth=1
                                        # =>  This Inner Loop Header: Depth=2
	movq	-1016(%rbp), %rax       # 8-byte Reload
	movq	%rax, %rcx
	addq	$61440, %rcx            # imm = 0xF000
	movl	-1004(%rbp), %edx       # 4-byte Reload
	movq	-16(%rbp), %rsi         # 8-byte Reload
	imull	(%rsi,%rcx,4), %edx
	movq	-40(%rbp), %rcx         # 8-byte Reload
	shlq	$10, %rcx
	addq	%rax, %rcx
	movq	-24(%rbp), %rdi         # 8-byte Reload
	addl	(%rdi,%rcx,4), %edx
	movl	%edx, (%rdi,%rcx,4)
	addq	$1, %rax
	movq	%rax, %rcx
	addq	$61440, %rcx            # imm = 0xF000
	movl	-1004(%rbp), %edx       # 4-byte Reload
	imull	(%rsi,%rcx,4), %edx
	movq	-40(%rbp), %rcx         # 8-byte Reload
	shlq	$10, %rcx
	addq	%rax, %rcx
	addl	(%rdi,%rcx,4), %edx
	movl	%edx, (%rdi,%rcx,4)
	addq	$1, %rax
	movq	%rax, %rcx
	addq	$61440, %rcx            # imm = 0xF000
	movl	-1004(%rbp), %edx       # 4-byte Reload
	imull	(%rsi,%rcx,4), %edx
	movq	-40(%rbp), %rcx         # 8-byte Reload
	shlq	$10, %rcx
	addq	%rax, %rcx
	addl	(%rdi,%rcx,4), %edx
	movl	%edx, (%rdi,%rcx,4)
	addq	$1, %rax
	movq	%rax, %rcx
	addq	$61440, %rcx            # imm = 0xF000
	movl	-1004(%rbp), %edx       # 4-byte Reload
	imull	(%rsi,%rcx,4), %edx
	movq	-40(%rbp), %rcx         # 8-byte Reload
	shlq	$10, %rcx
	addq	%rax, %rcx
	addl	(%rdi,%rcx,4), %edx
	movl	%edx, (%rdi,%rcx,4)
	addq	$1, %rax
	cmpq	$256, %rax              # imm = 0x100
	movq	%rax, -1016(%rbp)       # 8-byte Spill
	jne	.LBB0_124
# %bb.125:                              # %for.inc17.60
                                        #   in Loop: Header=BB0_1 Depth=1
	xorl	%eax, %eax
	movl	%eax, %ecx
	movq	-40(%rbp), %rdx         # 8-byte Reload
	shlq	$10, %rdx
	movq	-8(%rbp), %rsi          # 8-byte Reload
	movl	244(%rsi,%rdx,4), %eax
	movl	%eax, -1020(%rbp)       # 4-byte Spill
	movq	%rcx, -1032(%rbp)       # 8-byte Spill
.LBB0_126:                              # %for.body6.61
                                        #   Parent Loop BB0_1 Depth=1
                                        # =>  This Inner Loop Header: Depth=2
	movq	-1032(%rbp), %rax       # 8-byte Reload
	movq	%rax, %rcx
	addq	$62464, %rcx            # imm = 0xF400
	movl	-1020(%rbp), %edx       # 4-byte Reload
	movq	-16(%rbp), %rsi         # 8-byte Reload
	imull	(%rsi,%rcx,4), %edx
	movq	-40(%rbp), %rcx         # 8-byte Reload
	shlq	$10, %rcx
	addq	%rax, %rcx
	movq	-24(%rbp), %rdi         # 8-byte Reload
	addl	(%rdi,%rcx,4), %edx
	movl	%edx, (%rdi,%rcx,4)
	addq	$1, %rax
	movq	%rax, %rcx
	addq	$62464, %rcx            # imm = 0xF400
	movl	-1020(%rbp), %edx       # 4-byte Reload
	imull	(%rsi,%rcx,4), %edx
	movq	-40(%rbp), %rcx         # 8-byte Reload
	shlq	$10, %rcx
	addq	%rax, %rcx
	addl	(%rdi,%rcx,4), %edx
	movl	%edx, (%rdi,%rcx,4)
	addq	$1, %rax
	movq	%rax, %rcx
	addq	$62464, %rcx            # imm = 0xF400
	movl	-1020(%rbp), %edx       # 4-byte Reload
	imull	(%rsi,%rcx,4), %edx
	movq	-40(%rbp), %rcx         # 8-byte Reload
	shlq	$10, %rcx
	addq	%rax, %rcx
	addl	(%rdi,%rcx,4), %edx
	movl	%edx, (%rdi,%rcx,4)
	addq	$1, %rax
	movq	%rax, %rcx
	addq	$62464, %rcx            # imm = 0xF400
	movl	-1020(%rbp), %edx       # 4-byte Reload
	imull	(%rsi,%rcx,4), %edx
	movq	-40(%rbp), %rcx         # 8-byte Reload
	shlq	$10, %rcx
	addq	%rax, %rcx
	addl	(%rdi,%rcx,4), %edx
	movl	%edx, (%rdi,%rcx,4)
	addq	$1, %rax
	cmpq	$256, %rax              # imm = 0x100
	movq	%rax, -1032(%rbp)       # 8-byte Spill
	jne	.LBB0_126
# %bb.127:                              # %for.inc17.61
                                        #   in Loop: Header=BB0_1 Depth=1
	xorl	%eax, %eax
	movl	%eax, %ecx
	movq	-40(%rbp), %rdx         # 8-byte Reload
	shlq	$10, %rdx
	movq	-8(%rbp), %rsi          # 8-byte Reload
	movl	248(%rsi,%rdx,4), %eax
	movl	%eax, -1036(%rbp)       # 4-byte Spill
	movq	%rcx, -1048(%rbp)       # 8-byte Spill
.LBB0_128:                              # %for.body6.62
                                        #   Parent Loop BB0_1 Depth=1
                                        # =>  This Inner Loop Header: Depth=2
	movq	-1048(%rbp), %rax       # 8-byte Reload
	movq	%rax, %rcx
	addq	$63488, %rcx            # imm = 0xF800
	movl	-1036(%rbp), %edx       # 4-byte Reload
	movq	-16(%rbp), %rsi         # 8-byte Reload
	imull	(%rsi,%rcx,4), %edx
	movq	-40(%rbp), %rcx         # 8-byte Reload
	shlq	$10, %rcx
	addq	%rax, %rcx
	movq	-24(%rbp), %rdi         # 8-byte Reload
	addl	(%rdi,%rcx,4), %edx
	movl	%edx, (%rdi,%rcx,4)
	addq	$1, %rax
	movq	%rax, %rcx
	addq	$63488, %rcx            # imm = 0xF800
	movl	-1036(%rbp), %edx       # 4-byte Reload
	imull	(%rsi,%rcx,4), %edx
	movq	-40(%rbp), %rcx         # 8-byte Reload
	shlq	$10, %rcx
	addq	%rax, %rcx
	addl	(%rdi,%rcx,4), %edx
	movl	%edx, (%rdi,%rcx,4)
	addq	$1, %rax
	movq	%rax, %rcx
	addq	$63488, %rcx            # imm = 0xF800
	movl	-1036(%rbp), %edx       # 4-byte Reload
	imull	(%rsi,%rcx,4), %edx
	movq	-40(%rbp), %rcx         # 8-byte Reload
	shlq	$10, %rcx
	addq	%rax, %rcx
	addl	(%rdi,%rcx,4), %edx
	movl	%edx, (%rdi,%rcx,4)
	addq	$1, %rax
	movq	%rax, %rcx
	addq	$63488, %rcx            # imm = 0xF800
	movl	-1036(%rbp), %edx       # 4-byte Reload
	imull	(%rsi,%rcx,4), %edx
	movq	-40(%rbp), %rcx         # 8-byte Reload
	shlq	$10, %rcx
	addq	%rax, %rcx
	addl	(%rdi,%rcx,4), %edx
	movl	%edx, (%rdi,%rcx,4)
	addq	$1, %rax
	cmpq	$256, %rax              # imm = 0x100
	movq	%rax, -1048(%rbp)       # 8-byte Spill
	jne	.LBB0_128
# %bb.129:                              # %for.inc17.62
                                        #   in Loop: Header=BB0_1 Depth=1
	xorl	%eax, %eax
	movl	%eax, %ecx
	movq	-40(%rbp), %rdx         # 8-byte Reload
	shlq	$10, %rdx
	movq	-8(%rbp), %rsi          # 8-byte Reload
	movl	252(%rsi,%rdx,4), %eax
	movl	%eax, -1052(%rbp)       # 4-byte Spill
	movq	%rcx, -1064(%rbp)       # 8-byte Spill
.LBB0_130:                              # %for.body6.63
                                        #   Parent Loop BB0_1 Depth=1
                                        # =>  This Inner Loop Header: Depth=2
	movq	-1064(%rbp), %rax       # 8-byte Reload
	movq	%rax, %rcx
	addq	$64512, %rcx            # imm = 0xFC00
	movl	-1052(%rbp), %edx       # 4-byte Reload
	movq	-16(%rbp), %rsi         # 8-byte Reload
	imull	(%rsi,%rcx,4), %edx
	movq	-40(%rbp), %rcx         # 8-byte Reload
	shlq	$10, %rcx
	addq	%rax, %rcx
	movq	-24(%rbp), %rdi         # 8-byte Reload
	addl	(%rdi,%rcx,4), %edx
	movl	%edx, (%rdi,%rcx,4)
	addq	$1, %rax
	movq	%rax, %rcx
	addq	$64512, %rcx            # imm = 0xFC00
	movl	-1052(%rbp), %edx       # 4-byte Reload
	imull	(%rsi,%rcx,4), %edx
	movq	-40(%rbp), %rcx         # 8-byte Reload
	shlq	$10, %rcx
	addq	%rax, %rcx
	addl	(%rdi,%rcx,4), %edx
	movl	%edx, (%rdi,%rcx,4)
	addq	$1, %rax
	movq	%rax, %rcx
	addq	$64512, %rcx            # imm = 0xFC00
	movl	-1052(%rbp), %edx       # 4-byte Reload
	imull	(%rsi,%rcx,4), %edx
	movq	-40(%rbp), %rcx         # 8-byte Reload
	shlq	$10, %rcx
	addq	%rax, %rcx
	addl	(%rdi,%rcx,4), %edx
	movl	%edx, (%rdi,%rcx,4)
	addq	$1, %rax
	movq	%rax, %rcx
	addq	$64512, %rcx            # imm = 0xFC00
	movl	-1052(%rbp), %edx       # 4-byte Reload
	imull	(%rsi,%rcx,4), %edx
	movq	-40(%rbp), %rcx         # 8-byte Reload
	shlq	$10, %rcx
	addq	%rax, %rcx
	addl	(%rdi,%rcx,4), %edx
	movl	%edx, (%rdi,%rcx,4)
	addq	$1, %rax
	cmpq	$256, %rax              # imm = 0x100
	movq	%rax, -1064(%rbp)       # 8-byte Spill
	jne	.LBB0_130
# %bb.131:                              # %for.inc17.63
                                        #   in Loop: Header=BB0_1 Depth=1
	xorl	%eax, %eax
	movl	%eax, %ecx
	movq	-40(%rbp), %rdx         # 8-byte Reload
	shlq	$10, %rdx
	movq	-8(%rbp), %rsi          # 8-byte Reload
	movl	256(%rsi,%rdx,4), %eax
	movl	%eax, -1068(%rbp)       # 4-byte Spill
	movq	%rcx, -1080(%rbp)       # 8-byte Spill
.LBB0_132:                              # %for.body6.64
                                        #   Parent Loop BB0_1 Depth=1
                                        # =>  This Inner Loop Header: Depth=2
	movq	-1080(%rbp), %rax       # 8-byte Reload
	movq	%rax, %rcx
	addq	$65536, %rcx            # imm = 0x10000
	movl	-1068(%rbp), %edx       # 4-byte Reload
	movq	-16(%rbp), %rsi         # 8-byte Reload
	imull	(%rsi,%rcx,4), %edx
	movq	-40(%rbp), %rcx         # 8-byte Reload
	shlq	$10, %rcx
	addq	%rax, %rcx
	movq	-24(%rbp), %rdi         # 8-byte Reload
	addl	(%rdi,%rcx,4), %edx
	movl	%edx, (%rdi,%rcx,4)
	addq	$1, %rax
	movq	%rax, %rcx
	addq	$65536, %rcx            # imm = 0x10000
	movl	-1068(%rbp), %edx       # 4-byte Reload
	imull	(%rsi,%rcx,4), %edx
	movq	-40(%rbp), %rcx         # 8-byte Reload
	shlq	$10, %rcx
	addq	%rax, %rcx
	addl	(%rdi,%rcx,4), %edx
	movl	%edx, (%rdi,%rcx,4)
	addq	$1, %rax
	movq	%rax, %rcx
	addq	$65536, %rcx            # imm = 0x10000
	movl	-1068(%rbp), %edx       # 4-byte Reload
	imull	(%rsi,%rcx,4), %edx
	movq	-40(%rbp), %rcx         # 8-byte Reload
	shlq	$10, %rcx
	addq	%rax, %rcx
	addl	(%rdi,%rcx,4), %edx
	movl	%edx, (%rdi,%rcx,4)
	addq	$1, %rax
	movq	%rax, %rcx
	addq	$65536, %rcx            # imm = 0x10000
	movl	-1068(%rbp), %edx       # 4-byte Reload
	imull	(%rsi,%rcx,4), %edx
	movq	-40(%rbp), %rcx         # 8-byte Reload
	shlq	$10, %rcx
	addq	%rax, %rcx
	addl	(%rdi,%rcx,4), %edx
	movl	%edx, (%rdi,%rcx,4)
	addq	$1, %rax
	cmpq	$256, %rax              # imm = 0x100
	movq	%rax, -1080(%rbp)       # 8-byte Spill
	jne	.LBB0_132
# %bb.133:                              # %for.inc17.64
                                        #   in Loop: Header=BB0_1 Depth=1
	xorl	%eax, %eax
	movl	%eax, %ecx
	movq	-40(%rbp), %rdx         # 8-byte Reload
	shlq	$10, %rdx
	movq	-8(%rbp), %rsi          # 8-byte Reload
	movl	260(%rsi,%rdx,4), %eax
	movl	%eax, -1084(%rbp)       # 4-byte Spill
	movq	%rcx, -1096(%rbp)       # 8-byte Spill
.LBB0_134:                              # %for.body6.65
                                        #   Parent Loop BB0_1 Depth=1
                                        # =>  This Inner Loop Header: Depth=2
	movq	-1096(%rbp), %rax       # 8-byte Reload
	movq	%rax, %rcx
	addq	$66560, %rcx            # imm = 0x10400
	movl	-1084(%rbp), %edx       # 4-byte Reload
	movq	-16(%rbp), %rsi         # 8-byte Reload
	imull	(%rsi,%rcx,4), %edx
	movq	-40(%rbp), %rcx         # 8-byte Reload
	shlq	$10, %rcx
	addq	%rax, %rcx
	movq	-24(%rbp), %rdi         # 8-byte Reload
	addl	(%rdi,%rcx,4), %edx
	movl	%edx, (%rdi,%rcx,4)
	addq	$1, %rax
	movq	%rax, %rcx
	addq	$66560, %rcx            # imm = 0x10400
	movl	-1084(%rbp), %edx       # 4-byte Reload
	imull	(%rsi,%rcx,4), %edx
	movq	-40(%rbp), %rcx         # 8-byte Reload
	shlq	$10, %rcx
	addq	%rax, %rcx
	addl	(%rdi,%rcx,4), %edx
	movl	%edx, (%rdi,%rcx,4)
	addq	$1, %rax
	movq	%rax, %rcx
	addq	$66560, %rcx            # imm = 0x10400
	movl	-1084(%rbp), %edx       # 4-byte Reload
	imull	(%rsi,%rcx,4), %edx
	movq	-40(%rbp), %rcx         # 8-byte Reload
	shlq	$10, %rcx
	addq	%rax, %rcx
	addl	(%rdi,%rcx,4), %edx
	movl	%edx, (%rdi,%rcx,4)
	addq	$1, %rax
	movq	%rax, %rcx
	addq	$66560, %rcx            # imm = 0x10400
	movl	-1084(%rbp), %edx       # 4-byte Reload
	imull	(%rsi,%rcx,4), %edx
	movq	-40(%rbp), %rcx         # 8-byte Reload
	shlq	$10, %rcx
	addq	%rax, %rcx
	addl	(%rdi,%rcx,4), %edx
	movl	%edx, (%rdi,%rcx,4)
	addq	$1, %rax
	cmpq	$256, %rax              # imm = 0x100
	movq	%rax, -1096(%rbp)       # 8-byte Spill
	jne	.LBB0_134
# %bb.135:                              # %for.inc17.65
                                        #   in Loop: Header=BB0_1 Depth=1
	xorl	%eax, %eax
	movl	%eax, %ecx
	movq	-40(%rbp), %rdx         # 8-byte Reload
	shlq	$10, %rdx
	movq	-8(%rbp), %rsi          # 8-byte Reload
	movl	264(%rsi,%rdx,4), %eax
	movl	%eax, -1100(%rbp)       # 4-byte Spill
	movq	%rcx, -1112(%rbp)       # 8-byte Spill
.LBB0_136:                              # %for.body6.66
                                        #   Parent Loop BB0_1 Depth=1
                                        # =>  This Inner Loop Header: Depth=2
	movq	-1112(%rbp), %rax       # 8-byte Reload
	movq	%rax, %rcx
	addq	$67584, %rcx            # imm = 0x10800
	movl	-1100(%rbp), %edx       # 4-byte Reload
	movq	-16(%rbp), %rsi         # 8-byte Reload
	imull	(%rsi,%rcx,4), %edx
	movq	-40(%rbp), %rcx         # 8-byte Reload
	shlq	$10, %rcx
	addq	%rax, %rcx
	movq	-24(%rbp), %rdi         # 8-byte Reload
	addl	(%rdi,%rcx,4), %edx
	movl	%edx, (%rdi,%rcx,4)
	addq	$1, %rax
	movq	%rax, %rcx
	addq	$67584, %rcx            # imm = 0x10800
	movl	-1100(%rbp), %edx       # 4-byte Reload
	imull	(%rsi,%rcx,4), %edx
	movq	-40(%rbp), %rcx         # 8-byte Reload
	shlq	$10, %rcx
	addq	%rax, %rcx
	addl	(%rdi,%rcx,4), %edx
	movl	%edx, (%rdi,%rcx,4)
	addq	$1, %rax
	movq	%rax, %rcx
	addq	$67584, %rcx            # imm = 0x10800
	movl	-1100(%rbp), %edx       # 4-byte Reload
	imull	(%rsi,%rcx,4), %edx
	movq	-40(%rbp), %rcx         # 8-byte Reload
	shlq	$10, %rcx
	addq	%rax, %rcx
	addl	(%rdi,%rcx,4), %edx
	movl	%edx, (%rdi,%rcx,4)
	addq	$1, %rax
	movq	%rax, %rcx
	addq	$67584, %rcx            # imm = 0x10800
	movl	-1100(%rbp), %edx       # 4-byte Reload
	imull	(%rsi,%rcx,4), %edx
	movq	-40(%rbp), %rcx         # 8-byte Reload
	shlq	$10, %rcx
	addq	%rax, %rcx
	addl	(%rdi,%rcx,4), %edx
	movl	%edx, (%rdi,%rcx,4)
	addq	$1, %rax
	cmpq	$256, %rax              # imm = 0x100
	movq	%rax, -1112(%rbp)       # 8-byte Spill
	jne	.LBB0_136
# %bb.137:                              # %for.inc17.66
                                        #   in Loop: Header=BB0_1 Depth=1
	xorl	%eax, %eax
	movl	%eax, %ecx
	movq	-40(%rbp), %rdx         # 8-byte Reload
	shlq	$10, %rdx
	movq	-8(%rbp), %rsi          # 8-byte Reload
	movl	268(%rsi,%rdx,4), %eax
	movl	%eax, -1116(%rbp)       # 4-byte Spill
	movq	%rcx, -1128(%rbp)       # 8-byte Spill
.LBB0_138:                              # %for.body6.67
                                        #   Parent Loop BB0_1 Depth=1
                                        # =>  This Inner Loop Header: Depth=2
	movq	-1128(%rbp), %rax       # 8-byte Reload
	movq	%rax, %rcx
	addq	$68608, %rcx            # imm = 0x10C00
	movl	-1116(%rbp), %edx       # 4-byte Reload
	movq	-16(%rbp), %rsi         # 8-byte Reload
	imull	(%rsi,%rcx,4), %edx
	movq	-40(%rbp), %rcx         # 8-byte Reload
	shlq	$10, %rcx
	addq	%rax, %rcx
	movq	-24(%rbp), %rdi         # 8-byte Reload
	addl	(%rdi,%rcx,4), %edx
	movl	%edx, (%rdi,%rcx,4)
	addq	$1, %rax
	movq	%rax, %rcx
	addq	$68608, %rcx            # imm = 0x10C00
	movl	-1116(%rbp), %edx       # 4-byte Reload
	imull	(%rsi,%rcx,4), %edx
	movq	-40(%rbp), %rcx         # 8-byte Reload
	shlq	$10, %rcx
	addq	%rax, %rcx
	addl	(%rdi,%rcx,4), %edx
	movl	%edx, (%rdi,%rcx,4)
	addq	$1, %rax
	movq	%rax, %rcx
	addq	$68608, %rcx            # imm = 0x10C00
	movl	-1116(%rbp), %edx       # 4-byte Reload
	imull	(%rsi,%rcx,4), %edx
	movq	-40(%rbp), %rcx         # 8-byte Reload
	shlq	$10, %rcx
	addq	%rax, %rcx
	addl	(%rdi,%rcx,4), %edx
	movl	%edx, (%rdi,%rcx,4)
	addq	$1, %rax
	movq	%rax, %rcx
	addq	$68608, %rcx            # imm = 0x10C00
	movl	-1116(%rbp), %edx       # 4-byte Reload
	imull	(%rsi,%rcx,4), %edx
	movq	-40(%rbp), %rcx         # 8-byte Reload
	shlq	$10, %rcx
	addq	%rax, %rcx
	addl	(%rdi,%rcx,4), %edx
	movl	%edx, (%rdi,%rcx,4)
	addq	$1, %rax
	cmpq	$256, %rax              # imm = 0x100
	movq	%rax, -1128(%rbp)       # 8-byte Spill
	jne	.LBB0_138
# %bb.139:                              # %for.inc17.67
                                        #   in Loop: Header=BB0_1 Depth=1
	xorl	%eax, %eax
	movl	%eax, %ecx
	movq	-40(%rbp), %rdx         # 8-byte Reload
	shlq	$10, %rdx
	movq	-8(%rbp), %rsi          # 8-byte Reload
	movl	272(%rsi,%rdx,4), %eax
	movl	%eax, -1132(%rbp)       # 4-byte Spill
	movq	%rcx, -1144(%rbp)       # 8-byte Spill
.LBB0_140:                              # %for.body6.68
                                        #   Parent Loop BB0_1 Depth=1
                                        # =>  This Inner Loop Header: Depth=2
	movq	-1144(%rbp), %rax       # 8-byte Reload
	movq	%rax, %rcx
	addq	$69632, %rcx            # imm = 0x11000
	movl	-1132(%rbp), %edx       # 4-byte Reload
	movq	-16(%rbp), %rsi         # 8-byte Reload
	imull	(%rsi,%rcx,4), %edx
	movq	-40(%rbp), %rcx         # 8-byte Reload
	shlq	$10, %rcx
	addq	%rax, %rcx
	movq	-24(%rbp), %rdi         # 8-byte Reload
	addl	(%rdi,%rcx,4), %edx
	movl	%edx, (%rdi,%rcx,4)
	addq	$1, %rax
	movq	%rax, %rcx
	addq	$69632, %rcx            # imm = 0x11000
	movl	-1132(%rbp), %edx       # 4-byte Reload
	imull	(%rsi,%rcx,4), %edx
	movq	-40(%rbp), %rcx         # 8-byte Reload
	shlq	$10, %rcx
	addq	%rax, %rcx
	addl	(%rdi,%rcx,4), %edx
	movl	%edx, (%rdi,%rcx,4)
	addq	$1, %rax
	movq	%rax, %rcx
	addq	$69632, %rcx            # imm = 0x11000
	movl	-1132(%rbp), %edx       # 4-byte Reload
	imull	(%rsi,%rcx,4), %edx
	movq	-40(%rbp), %rcx         # 8-byte Reload
	shlq	$10, %rcx
	addq	%rax, %rcx
	addl	(%rdi,%rcx,4), %edx
	movl	%edx, (%rdi,%rcx,4)
	addq	$1, %rax
	movq	%rax, %rcx
	addq	$69632, %rcx            # imm = 0x11000
	movl	-1132(%rbp), %edx       # 4-byte Reload
	imull	(%rsi,%rcx,4), %edx
	movq	-40(%rbp), %rcx         # 8-byte Reload
	shlq	$10, %rcx
	addq	%rax, %rcx
	addl	(%rdi,%rcx,4), %edx
	movl	%edx, (%rdi,%rcx,4)
	addq	$1, %rax
	cmpq	$256, %rax              # imm = 0x100
	movq	%rax, -1144(%rbp)       # 8-byte Spill
	jne	.LBB0_140
# %bb.141:                              # %for.inc17.68
                                        #   in Loop: Header=BB0_1 Depth=1
	xorl	%eax, %eax
	movl	%eax, %ecx
	movq	-40(%rbp), %rdx         # 8-byte Reload
	shlq	$10, %rdx
	movq	-8(%rbp), %rsi          # 8-byte Reload
	movl	276(%rsi,%rdx,4), %eax
	movl	%eax, -1148(%rbp)       # 4-byte Spill
	movq	%rcx, -1160(%rbp)       # 8-byte Spill
.LBB0_142:                              # %for.body6.69
                                        #   Parent Loop BB0_1 Depth=1
                                        # =>  This Inner Loop Header: Depth=2
	movq	-1160(%rbp), %rax       # 8-byte Reload
	movq	%rax, %rcx
	addq	$70656, %rcx            # imm = 0x11400
	movl	-1148(%rbp), %edx       # 4-byte Reload
	movq	-16(%rbp), %rsi         # 8-byte Reload
	imull	(%rsi,%rcx,4), %edx
	movq	-40(%rbp), %rcx         # 8-byte Reload
	shlq	$10, %rcx
	addq	%rax, %rcx
	movq	-24(%rbp), %rdi         # 8-byte Reload
	addl	(%rdi,%rcx,4), %edx
	movl	%edx, (%rdi,%rcx,4)
	addq	$1, %rax
	movq	%rax, %rcx
	addq	$70656, %rcx            # imm = 0x11400
	movl	-1148(%rbp), %edx       # 4-byte Reload
	imull	(%rsi,%rcx,4), %edx
	movq	-40(%rbp), %rcx         # 8-byte Reload
	shlq	$10, %rcx
	addq	%rax, %rcx
	addl	(%rdi,%rcx,4), %edx
	movl	%edx, (%rdi,%rcx,4)
	addq	$1, %rax
	movq	%rax, %rcx
	addq	$70656, %rcx            # imm = 0x11400
	movl	-1148(%rbp), %edx       # 4-byte Reload
	imull	(%rsi,%rcx,4), %edx
	movq	-40(%rbp), %rcx         # 8-byte Reload
	shlq	$10, %rcx
	addq	%rax, %rcx
	addl	(%rdi,%rcx,4), %edx
	movl	%edx, (%rdi,%rcx,4)
	addq	$1, %rax
	movq	%rax, %rcx
	addq	$70656, %rcx            # imm = 0x11400
	movl	-1148(%rbp), %edx       # 4-byte Reload
	imull	(%rsi,%rcx,4), %edx
	movq	-40(%rbp), %rcx         # 8-byte Reload
	shlq	$10, %rcx
	addq	%rax, %rcx
	addl	(%rdi,%rcx,4), %edx
	movl	%edx, (%rdi,%rcx,4)
	addq	$1, %rax
	cmpq	$256, %rax              # imm = 0x100
	movq	%rax, -1160(%rbp)       # 8-byte Spill
	jne	.LBB0_142
# %bb.143:                              # %for.inc17.69
                                        #   in Loop: Header=BB0_1 Depth=1
	xorl	%eax, %eax
	movl	%eax, %ecx
	movq	-40(%rbp), %rdx         # 8-byte Reload
	shlq	$10, %rdx
	movq	-8(%rbp), %rsi          # 8-byte Reload
	movl	280(%rsi,%rdx,4), %eax
	movl	%eax, -1164(%rbp)       # 4-byte Spill
	movq	%rcx, -1176(%rbp)       # 8-byte Spill
.LBB0_144:                              # %for.body6.70
                                        #   Parent Loop BB0_1 Depth=1
                                        # =>  This Inner Loop Header: Depth=2
	movq	-1176(%rbp), %rax       # 8-byte Reload
	movq	%rax, %rcx
	addq	$71680, %rcx            # imm = 0x11800
	movl	-1164(%rbp), %edx       # 4-byte Reload
	movq	-16(%rbp), %rsi         # 8-byte Reload
	imull	(%rsi,%rcx,4), %edx
	movq	-40(%rbp), %rcx         # 8-byte Reload
	shlq	$10, %rcx
	addq	%rax, %rcx
	movq	-24(%rbp), %rdi         # 8-byte Reload
	addl	(%rdi,%rcx,4), %edx
	movl	%edx, (%rdi,%rcx,4)
	addq	$1, %rax
	movq	%rax, %rcx
	addq	$71680, %rcx            # imm = 0x11800
	movl	-1164(%rbp), %edx       # 4-byte Reload
	imull	(%rsi,%rcx,4), %edx
	movq	-40(%rbp), %rcx         # 8-byte Reload
	shlq	$10, %rcx
	addq	%rax, %rcx
	addl	(%rdi,%rcx,4), %edx
	movl	%edx, (%rdi,%rcx,4)
	addq	$1, %rax
	movq	%rax, %rcx
	addq	$71680, %rcx            # imm = 0x11800
	movl	-1164(%rbp), %edx       # 4-byte Reload
	imull	(%rsi,%rcx,4), %edx
	movq	-40(%rbp), %rcx         # 8-byte Reload
	shlq	$10, %rcx
	addq	%rax, %rcx
	addl	(%rdi,%rcx,4), %edx
	movl	%edx, (%rdi,%rcx,4)
	addq	$1, %rax
	movq	%rax, %rcx
	addq	$71680, %rcx            # imm = 0x11800
	movl	-1164(%rbp), %edx       # 4-byte Reload
	imull	(%rsi,%rcx,4), %edx
	movq	-40(%rbp), %rcx         # 8-byte Reload
	shlq	$10, %rcx
	addq	%rax, %rcx
	addl	(%rdi,%rcx,4), %edx
	movl	%edx, (%rdi,%rcx,4)
	addq	$1, %rax
	cmpq	$256, %rax              # imm = 0x100
	movq	%rax, -1176(%rbp)       # 8-byte Spill
	jne	.LBB0_144
# %bb.145:                              # %for.inc17.70
                                        #   in Loop: Header=BB0_1 Depth=1
	xorl	%eax, %eax
	movl	%eax, %ecx
	movq	-40(%rbp), %rdx         # 8-byte Reload
	shlq	$10, %rdx
	movq	-8(%rbp), %rsi          # 8-byte Reload
	movl	284(%rsi,%rdx,4), %eax
	movl	%eax, -1180(%rbp)       # 4-byte Spill
	movq	%rcx, -1192(%rbp)       # 8-byte Spill
.LBB0_146:                              # %for.body6.71
                                        #   Parent Loop BB0_1 Depth=1
                                        # =>  This Inner Loop Header: Depth=2
	movq	-1192(%rbp), %rax       # 8-byte Reload
	movq	%rax, %rcx
	addq	$72704, %rcx            # imm = 0x11C00
	movl	-1180(%rbp), %edx       # 4-byte Reload
	movq	-16(%rbp), %rsi         # 8-byte Reload
	imull	(%rsi,%rcx,4), %edx
	movq	-40(%rbp), %rcx         # 8-byte Reload
	shlq	$10, %rcx
	addq	%rax, %rcx
	movq	-24(%rbp), %rdi         # 8-byte Reload
	addl	(%rdi,%rcx,4), %edx
	movl	%edx, (%rdi,%rcx,4)
	addq	$1, %rax
	movq	%rax, %rcx
	addq	$72704, %rcx            # imm = 0x11C00
	movl	-1180(%rbp), %edx       # 4-byte Reload
	imull	(%rsi,%rcx,4), %edx
	movq	-40(%rbp), %rcx         # 8-byte Reload
	shlq	$10, %rcx
	addq	%rax, %rcx
	addl	(%rdi,%rcx,4), %edx
	movl	%edx, (%rdi,%rcx,4)
	addq	$1, %rax
	movq	%rax, %rcx
	addq	$72704, %rcx            # imm = 0x11C00
	movl	-1180(%rbp), %edx       # 4-byte Reload
	imull	(%rsi,%rcx,4), %edx
	movq	-40(%rbp), %rcx         # 8-byte Reload
	shlq	$10, %rcx
	addq	%rax, %rcx
	addl	(%rdi,%rcx,4), %edx
	movl	%edx, (%rdi,%rcx,4)
	addq	$1, %rax
	movq	%rax, %rcx
	addq	$72704, %rcx            # imm = 0x11C00
	movl	-1180(%rbp), %edx       # 4-byte Reload
	imull	(%rsi,%rcx,4), %edx
	movq	-40(%rbp), %rcx         # 8-byte Reload
	shlq	$10, %rcx
	addq	%rax, %rcx
	addl	(%rdi,%rcx,4), %edx
	movl	%edx, (%rdi,%rcx,4)
	addq	$1, %rax
	cmpq	$256, %rax              # imm = 0x100
	movq	%rax, -1192(%rbp)       # 8-byte Spill
	jne	.LBB0_146
# %bb.147:                              # %for.inc17.71
                                        #   in Loop: Header=BB0_1 Depth=1
	xorl	%eax, %eax
	movl	%eax, %ecx
	movq	-40(%rbp), %rdx         # 8-byte Reload
	shlq	$10, %rdx
	movq	-8(%rbp), %rsi          # 8-byte Reload
	movl	288(%rsi,%rdx,4), %eax
	movl	%eax, -1196(%rbp)       # 4-byte Spill
	movq	%rcx, -1208(%rbp)       # 8-byte Spill
.LBB0_148:                              # %for.body6.72
                                        #   Parent Loop BB0_1 Depth=1
                                        # =>  This Inner Loop Header: Depth=2
	movq	-1208(%rbp), %rax       # 8-byte Reload
	movq	%rax, %rcx
	addq	$73728, %rcx            # imm = 0x12000
	movl	-1196(%rbp), %edx       # 4-byte Reload
	movq	-16(%rbp), %rsi         # 8-byte Reload
	imull	(%rsi,%rcx,4), %edx
	movq	-40(%rbp), %rcx         # 8-byte Reload
	shlq	$10, %rcx
	addq	%rax, %rcx
	movq	-24(%rbp), %rdi         # 8-byte Reload
	addl	(%rdi,%rcx,4), %edx
	movl	%edx, (%rdi,%rcx,4)
	addq	$1, %rax
	movq	%rax, %rcx
	addq	$73728, %rcx            # imm = 0x12000
	movl	-1196(%rbp), %edx       # 4-byte Reload
	imull	(%rsi,%rcx,4), %edx
	movq	-40(%rbp), %rcx         # 8-byte Reload
	shlq	$10, %rcx
	addq	%rax, %rcx
	addl	(%rdi,%rcx,4), %edx
	movl	%edx, (%rdi,%rcx,4)
	addq	$1, %rax
	movq	%rax, %rcx
	addq	$73728, %rcx            # imm = 0x12000
	movl	-1196(%rbp), %edx       # 4-byte Reload
	imull	(%rsi,%rcx,4), %edx
	movq	-40(%rbp), %rcx         # 8-byte Reload
	shlq	$10, %rcx
	addq	%rax, %rcx
	addl	(%rdi,%rcx,4), %edx
	movl	%edx, (%rdi,%rcx,4)
	addq	$1, %rax
	movq	%rax, %rcx
	addq	$73728, %rcx            # imm = 0x12000
	movl	-1196(%rbp), %edx       # 4-byte Reload
	imull	(%rsi,%rcx,4), %edx
	movq	-40(%rbp), %rcx         # 8-byte Reload
	shlq	$10, %rcx
	addq	%rax, %rcx
	addl	(%rdi,%rcx,4), %edx
	movl	%edx, (%rdi,%rcx,4)
	addq	$1, %rax
	cmpq	$256, %rax              # imm = 0x100
	movq	%rax, -1208(%rbp)       # 8-byte Spill
	jne	.LBB0_148
# %bb.149:                              # %for.inc17.72
                                        #   in Loop: Header=BB0_1 Depth=1
	xorl	%eax, %eax
	movl	%eax, %ecx
	movq	-40(%rbp), %rdx         # 8-byte Reload
	shlq	$10, %rdx
	movq	-8(%rbp), %rsi          # 8-byte Reload
	movl	292(%rsi,%rdx,4), %eax
	movl	%eax, -1212(%rbp)       # 4-byte Spill
	movq	%rcx, -1224(%rbp)       # 8-byte Spill
.LBB0_150:                              # %for.body6.73
                                        #   Parent Loop BB0_1 Depth=1
                                        # =>  This Inner Loop Header: Depth=2
	movq	-1224(%rbp), %rax       # 8-byte Reload
	movq	%rax, %rcx
	addq	$74752, %rcx            # imm = 0x12400
	movl	-1212(%rbp), %edx       # 4-byte Reload
	movq	-16(%rbp), %rsi         # 8-byte Reload
	imull	(%rsi,%rcx,4), %edx
	movq	-40(%rbp), %rcx         # 8-byte Reload
	shlq	$10, %rcx
	addq	%rax, %rcx
	movq	-24(%rbp), %rdi         # 8-byte Reload
	addl	(%rdi,%rcx,4), %edx
	movl	%edx, (%rdi,%rcx,4)
	addq	$1, %rax
	movq	%rax, %rcx
	addq	$74752, %rcx            # imm = 0x12400
	movl	-1212(%rbp), %edx       # 4-byte Reload
	imull	(%rsi,%rcx,4), %edx
	movq	-40(%rbp), %rcx         # 8-byte Reload
	shlq	$10, %rcx
	addq	%rax, %rcx
	addl	(%rdi,%rcx,4), %edx
	movl	%edx, (%rdi,%rcx,4)
	addq	$1, %rax
	movq	%rax, %rcx
	addq	$74752, %rcx            # imm = 0x12400
	movl	-1212(%rbp), %edx       # 4-byte Reload
	imull	(%rsi,%rcx,4), %edx
	movq	-40(%rbp), %rcx         # 8-byte Reload
	shlq	$10, %rcx
	addq	%rax, %rcx
	addl	(%rdi,%rcx,4), %edx
	movl	%edx, (%rdi,%rcx,4)
	addq	$1, %rax
	movq	%rax, %rcx
	addq	$74752, %rcx            # imm = 0x12400
	movl	-1212(%rbp), %edx       # 4-byte Reload
	imull	(%rsi,%rcx,4), %edx
	movq	-40(%rbp), %rcx         # 8-byte Reload
	shlq	$10, %rcx
	addq	%rax, %rcx
	addl	(%rdi,%rcx,4), %edx
	movl	%edx, (%rdi,%rcx,4)
	addq	$1, %rax
	cmpq	$256, %rax              # imm = 0x100
	movq	%rax, -1224(%rbp)       # 8-byte Spill
	jne	.LBB0_150
# %bb.151:                              # %for.inc17.73
                                        #   in Loop: Header=BB0_1 Depth=1
	xorl	%eax, %eax
	movl	%eax, %ecx
	movq	-40(%rbp), %rdx         # 8-byte Reload
	shlq	$10, %rdx
	movq	-8(%rbp), %rsi          # 8-byte Reload
	movl	296(%rsi,%rdx,4), %eax
	movl	%eax, -1228(%rbp)       # 4-byte Spill
	movq	%rcx, -1240(%rbp)       # 8-byte Spill
.LBB0_152:                              # %for.body6.74
                                        #   Parent Loop BB0_1 Depth=1
                                        # =>  This Inner Loop Header: Depth=2
	movq	-1240(%rbp), %rax       # 8-byte Reload
	movq	%rax, %rcx
	addq	$75776, %rcx            # imm = 0x12800
	movl	-1228(%rbp), %edx       # 4-byte Reload
	movq	-16(%rbp), %rsi         # 8-byte Reload
	imull	(%rsi,%rcx,4), %edx
	movq	-40(%rbp), %rcx         # 8-byte Reload
	shlq	$10, %rcx
	addq	%rax, %rcx
	movq	-24(%rbp), %rdi         # 8-byte Reload
	addl	(%rdi,%rcx,4), %edx
	movl	%edx, (%rdi,%rcx,4)
	addq	$1, %rax
	movq	%rax, %rcx
	addq	$75776, %rcx            # imm = 0x12800
	movl	-1228(%rbp), %edx       # 4-byte Reload
	imull	(%rsi,%rcx,4), %edx
	movq	-40(%rbp), %rcx         # 8-byte Reload
	shlq	$10, %rcx
	addq	%rax, %rcx
	addl	(%rdi,%rcx,4), %edx
	movl	%edx, (%rdi,%rcx,4)
	addq	$1, %rax
	movq	%rax, %rcx
	addq	$75776, %rcx            # imm = 0x12800
	movl	-1228(%rbp), %edx       # 4-byte Reload
	imull	(%rsi,%rcx,4), %edx
	movq	-40(%rbp), %rcx         # 8-byte Reload
	shlq	$10, %rcx
	addq	%rax, %rcx
	addl	(%rdi,%rcx,4), %edx
	movl	%edx, (%rdi,%rcx,4)
	addq	$1, %rax
	movq	%rax, %rcx
	addq	$75776, %rcx            # imm = 0x12800
	movl	-1228(%rbp), %edx       # 4-byte Reload
	imull	(%rsi,%rcx,4), %edx
	movq	-40(%rbp), %rcx         # 8-byte Reload
	shlq	$10, %rcx
	addq	%rax, %rcx
	addl	(%rdi,%rcx,4), %edx
	movl	%edx, (%rdi,%rcx,4)
	addq	$1, %rax
	cmpq	$256, %rax              # imm = 0x100
	movq	%rax, -1240(%rbp)       # 8-byte Spill
	jne	.LBB0_152
# %bb.153:                              # %for.inc17.74
                                        #   in Loop: Header=BB0_1 Depth=1
	xorl	%eax, %eax
	movl	%eax, %ecx
	movq	-40(%rbp), %rdx         # 8-byte Reload
	shlq	$10, %rdx
	movq	-8(%rbp), %rsi          # 8-byte Reload
	movl	300(%rsi,%rdx,4), %eax
	movl	%eax, -1244(%rbp)       # 4-byte Spill
	movq	%rcx, -1256(%rbp)       # 8-byte Spill
.LBB0_154:                              # %for.body6.75
                                        #   Parent Loop BB0_1 Depth=1
                                        # =>  This Inner Loop Header: Depth=2
	movq	-1256(%rbp), %rax       # 8-byte Reload
	movq	%rax, %rcx
	addq	$76800, %rcx            # imm = 0x12C00
	movl	-1244(%rbp), %edx       # 4-byte Reload
	movq	-16(%rbp), %rsi         # 8-byte Reload
	imull	(%rsi,%rcx,4), %edx
	movq	-40(%rbp), %rcx         # 8-byte Reload
	shlq	$10, %rcx
	addq	%rax, %rcx
	movq	-24(%rbp), %rdi         # 8-byte Reload
	addl	(%rdi,%rcx,4), %edx
	movl	%edx, (%rdi,%rcx,4)
	addq	$1, %rax
	movq	%rax, %rcx
	addq	$76800, %rcx            # imm = 0x12C00
	movl	-1244(%rbp), %edx       # 4-byte Reload
	imull	(%rsi,%rcx,4), %edx
	movq	-40(%rbp), %rcx         # 8-byte Reload
	shlq	$10, %rcx
	addq	%rax, %rcx
	addl	(%rdi,%rcx,4), %edx
	movl	%edx, (%rdi,%rcx,4)
	addq	$1, %rax
	movq	%rax, %rcx
	addq	$76800, %rcx            # imm = 0x12C00
	movl	-1244(%rbp), %edx       # 4-byte Reload
	imull	(%rsi,%rcx,4), %edx
	movq	-40(%rbp), %rcx         # 8-byte Reload
	shlq	$10, %rcx
	addq	%rax, %rcx
	addl	(%rdi,%rcx,4), %edx
	movl	%edx, (%rdi,%rcx,4)
	addq	$1, %rax
	movq	%rax, %rcx
	addq	$76800, %rcx            # imm = 0x12C00
	movl	-1244(%rbp), %edx       # 4-byte Reload
	imull	(%rsi,%rcx,4), %edx
	movq	-40(%rbp), %rcx         # 8-byte Reload
	shlq	$10, %rcx
	addq	%rax, %rcx
	addl	(%rdi,%rcx,4), %edx
	movl	%edx, (%rdi,%rcx,4)
	addq	$1, %rax
	cmpq	$256, %rax              # imm = 0x100
	movq	%rax, -1256(%rbp)       # 8-byte Spill
	jne	.LBB0_154
# %bb.155:                              # %for.inc17.75
                                        #   in Loop: Header=BB0_1 Depth=1
	xorl	%eax, %eax
	movl	%eax, %ecx
	movq	-40(%rbp), %rdx         # 8-byte Reload
	shlq	$10, %rdx
	movq	-8(%rbp), %rsi          # 8-byte Reload
	movl	304(%rsi,%rdx,4), %eax
	movl	%eax, -1260(%rbp)       # 4-byte Spill
	movq	%rcx, -1272(%rbp)       # 8-byte Spill
.LBB0_156:                              # %for.body6.76
                                        #   Parent Loop BB0_1 Depth=1
                                        # =>  This Inner Loop Header: Depth=2
	movq	-1272(%rbp), %rax       # 8-byte Reload
	movq	%rax, %rcx
	addq	$77824, %rcx            # imm = 0x13000
	movl	-1260(%rbp), %edx       # 4-byte Reload
	movq	-16(%rbp), %rsi         # 8-byte Reload
	imull	(%rsi,%rcx,4), %edx
	movq	-40(%rbp), %rcx         # 8-byte Reload
	shlq	$10, %rcx
	addq	%rax, %rcx
	movq	-24(%rbp), %rdi         # 8-byte Reload
	addl	(%rdi,%rcx,4), %edx
	movl	%edx, (%rdi,%rcx,4)
	addq	$1, %rax
	movq	%rax, %rcx
	addq	$77824, %rcx            # imm = 0x13000
	movl	-1260(%rbp), %edx       # 4-byte Reload
	imull	(%rsi,%rcx,4), %edx
	movq	-40(%rbp), %rcx         # 8-byte Reload
	shlq	$10, %rcx
	addq	%rax, %rcx
	addl	(%rdi,%rcx,4), %edx
	movl	%edx, (%rdi,%rcx,4)
	addq	$1, %rax
	movq	%rax, %rcx
	addq	$77824, %rcx            # imm = 0x13000
	movl	-1260(%rbp), %edx       # 4-byte Reload
	imull	(%rsi,%rcx,4), %edx
	movq	-40(%rbp), %rcx         # 8-byte Reload
	shlq	$10, %rcx
	addq	%rax, %rcx
	addl	(%rdi,%rcx,4), %edx
	movl	%edx, (%rdi,%rcx,4)
	addq	$1, %rax
	movq	%rax, %rcx
	addq	$77824, %rcx            # imm = 0x13000
	movl	-1260(%rbp), %edx       # 4-byte Reload
	imull	(%rsi,%rcx,4), %edx
	movq	-40(%rbp), %rcx         # 8-byte Reload
	shlq	$10, %rcx
	addq	%rax, %rcx
	addl	(%rdi,%rcx,4), %edx
	movl	%edx, (%rdi,%rcx,4)
	addq	$1, %rax
	cmpq	$256, %rax              # imm = 0x100
	movq	%rax, -1272(%rbp)       # 8-byte Spill
	jne	.LBB0_156
# %bb.157:                              # %for.inc17.76
                                        #   in Loop: Header=BB0_1 Depth=1
	xorl	%eax, %eax
	movl	%eax, %ecx
	movq	-40(%rbp), %rdx         # 8-byte Reload
	shlq	$10, %rdx
	movq	-8(%rbp), %rsi          # 8-byte Reload
	movl	308(%rsi,%rdx,4), %eax
	movl	%eax, -1276(%rbp)       # 4-byte Spill
	movq	%rcx, -1288(%rbp)       # 8-byte Spill
.LBB0_158:                              # %for.body6.77
                                        #   Parent Loop BB0_1 Depth=1
                                        # =>  This Inner Loop Header: Depth=2
	movq	-1288(%rbp), %rax       # 8-byte Reload
	movq	%rax, %rcx
	addq	$78848, %rcx            # imm = 0x13400
	movl	-1276(%rbp), %edx       # 4-byte Reload
	movq	-16(%rbp), %rsi         # 8-byte Reload
	imull	(%rsi,%rcx,4), %edx
	movq	-40(%rbp), %rcx         # 8-byte Reload
	shlq	$10, %rcx
	addq	%rax, %rcx
	movq	-24(%rbp), %rdi         # 8-byte Reload
	addl	(%rdi,%rcx,4), %edx
	movl	%edx, (%rdi,%rcx,4)
	addq	$1, %rax
	movq	%rax, %rcx
	addq	$78848, %rcx            # imm = 0x13400
	movl	-1276(%rbp), %edx       # 4-byte Reload
	imull	(%rsi,%rcx,4), %edx
	movq	-40(%rbp), %rcx         # 8-byte Reload
	shlq	$10, %rcx
	addq	%rax, %rcx
	addl	(%rdi,%rcx,4), %edx
	movl	%edx, (%rdi,%rcx,4)
	addq	$1, %rax
	movq	%rax, %rcx
	addq	$78848, %rcx            # imm = 0x13400
	movl	-1276(%rbp), %edx       # 4-byte Reload
	imull	(%rsi,%rcx,4), %edx
	movq	-40(%rbp), %rcx         # 8-byte Reload
	shlq	$10, %rcx
	addq	%rax, %rcx
	addl	(%rdi,%rcx,4), %edx
	movl	%edx, (%rdi,%rcx,4)
	addq	$1, %rax
	movq	%rax, %rcx
	addq	$78848, %rcx            # imm = 0x13400
	movl	-1276(%rbp), %edx       # 4-byte Reload
	imull	(%rsi,%rcx,4), %edx
	movq	-40(%rbp), %rcx         # 8-byte Reload
	shlq	$10, %rcx
	addq	%rax, %rcx
	addl	(%rdi,%rcx,4), %edx
	movl	%edx, (%rdi,%rcx,4)
	addq	$1, %rax
	cmpq	$256, %rax              # imm = 0x100
	movq	%rax, -1288(%rbp)       # 8-byte Spill
	jne	.LBB0_158
# %bb.159:                              # %for.inc17.77
                                        #   in Loop: Header=BB0_1 Depth=1
	xorl	%eax, %eax
	movl	%eax, %ecx
	movq	-40(%rbp), %rdx         # 8-byte Reload
	shlq	$10, %rdx
	movq	-8(%rbp), %rsi          # 8-byte Reload
	movl	312(%rsi,%rdx,4), %eax
	movl	%eax, -1292(%rbp)       # 4-byte Spill
	movq	%rcx, -1304(%rbp)       # 8-byte Spill
.LBB0_160:                              # %for.body6.78
                                        #   Parent Loop BB0_1 Depth=1
                                        # =>  This Inner Loop Header: Depth=2
	movq	-1304(%rbp), %rax       # 8-byte Reload
	movq	%rax, %rcx
	addq	$79872, %rcx            # imm = 0x13800
	movl	-1292(%rbp), %edx       # 4-byte Reload
	movq	-16(%rbp), %rsi         # 8-byte Reload
	imull	(%rsi,%rcx,4), %edx
	movq	-40(%rbp), %rcx         # 8-byte Reload
	shlq	$10, %rcx
	addq	%rax, %rcx
	movq	-24(%rbp), %rdi         # 8-byte Reload
	addl	(%rdi,%rcx,4), %edx
	movl	%edx, (%rdi,%rcx,4)
	addq	$1, %rax
	movq	%rax, %rcx
	addq	$79872, %rcx            # imm = 0x13800
	movl	-1292(%rbp), %edx       # 4-byte Reload
	imull	(%rsi,%rcx,4), %edx
	movq	-40(%rbp), %rcx         # 8-byte Reload
	shlq	$10, %rcx
	addq	%rax, %rcx
	addl	(%rdi,%rcx,4), %edx
	movl	%edx, (%rdi,%rcx,4)
	addq	$1, %rax
	movq	%rax, %rcx
	addq	$79872, %rcx            # imm = 0x13800
	movl	-1292(%rbp), %edx       # 4-byte Reload
	imull	(%rsi,%rcx,4), %edx
	movq	-40(%rbp), %rcx         # 8-byte Reload
	shlq	$10, %rcx
	addq	%rax, %rcx
	addl	(%rdi,%rcx,4), %edx
	movl	%edx, (%rdi,%rcx,4)
	addq	$1, %rax
	movq	%rax, %rcx
	addq	$79872, %rcx            # imm = 0x13800
	movl	-1292(%rbp), %edx       # 4-byte Reload
	imull	(%rsi,%rcx,4), %edx
	movq	-40(%rbp), %rcx         # 8-byte Reload
	shlq	$10, %rcx
	addq	%rax, %rcx
	addl	(%rdi,%rcx,4), %edx
	movl	%edx, (%rdi,%rcx,4)
	addq	$1, %rax
	cmpq	$256, %rax              # imm = 0x100
	movq	%rax, -1304(%rbp)       # 8-byte Spill
	jne	.LBB0_160
# %bb.161:                              # %for.inc17.78
                                        #   in Loop: Header=BB0_1 Depth=1
	xorl	%eax, %eax
	movl	%eax, %ecx
	movq	-40(%rbp), %rdx         # 8-byte Reload
	shlq	$10, %rdx
	movq	-8(%rbp), %rsi          # 8-byte Reload
	movl	316(%rsi,%rdx,4), %eax
	movl	%eax, -1308(%rbp)       # 4-byte Spill
	movq	%rcx, -1320(%rbp)       # 8-byte Spill
.LBB0_162:                              # %for.body6.79
                                        #   Parent Loop BB0_1 Depth=1
                                        # =>  This Inner Loop Header: Depth=2
	movq	-1320(%rbp), %rax       # 8-byte Reload
	movq	%rax, %rcx
	addq	$80896, %rcx            # imm = 0x13C00
	movl	-1308(%rbp), %edx       # 4-byte Reload
	movq	-16(%rbp), %rsi         # 8-byte Reload
	imull	(%rsi,%rcx,4), %edx
	movq	-40(%rbp), %rcx         # 8-byte Reload
	shlq	$10, %rcx
	addq	%rax, %rcx
	movq	-24(%rbp), %rdi         # 8-byte Reload
	addl	(%rdi,%rcx,4), %edx
	movl	%edx, (%rdi,%rcx,4)
	addq	$1, %rax
	movq	%rax, %rcx
	addq	$80896, %rcx            # imm = 0x13C00
	movl	-1308(%rbp), %edx       # 4-byte Reload
	imull	(%rsi,%rcx,4), %edx
	movq	-40(%rbp), %rcx         # 8-byte Reload
	shlq	$10, %rcx
	addq	%rax, %rcx
	addl	(%rdi,%rcx,4), %edx
	movl	%edx, (%rdi,%rcx,4)
	addq	$1, %rax
	movq	%rax, %rcx
	addq	$80896, %rcx            # imm = 0x13C00
	movl	-1308(%rbp), %edx       # 4-byte Reload
	imull	(%rsi,%rcx,4), %edx
	movq	-40(%rbp), %rcx         # 8-byte Reload
	shlq	$10, %rcx
	addq	%rax, %rcx
	addl	(%rdi,%rcx,4), %edx
	movl	%edx, (%rdi,%rcx,4)
	addq	$1, %rax
	movq	%rax, %rcx
	addq	$80896, %rcx            # imm = 0x13C00
	movl	-1308(%rbp), %edx       # 4-byte Reload
	imull	(%rsi,%rcx,4), %edx
	movq	-40(%rbp), %rcx         # 8-byte Reload
	shlq	$10, %rcx
	addq	%rax, %rcx
	addl	(%rdi,%rcx,4), %edx
	movl	%edx, (%rdi,%rcx,4)
	addq	$1, %rax
	cmpq	$256, %rax              # imm = 0x100
	movq	%rax, -1320(%rbp)       # 8-byte Spill
	jne	.LBB0_162
# %bb.163:                              # %for.inc17.79
                                        #   in Loop: Header=BB0_1 Depth=1
	xorl	%eax, %eax
	movl	%eax, %ecx
	movq	-40(%rbp), %rdx         # 8-byte Reload
	shlq	$10, %rdx
	movq	-8(%rbp), %rsi          # 8-byte Reload
	movl	320(%rsi,%rdx,4), %eax
	movl	%eax, -1324(%rbp)       # 4-byte Spill
	movq	%rcx, -1336(%rbp)       # 8-byte Spill
.LBB0_164:                              # %for.body6.80
                                        #   Parent Loop BB0_1 Depth=1
                                        # =>  This Inner Loop Header: Depth=2
	movq	-1336(%rbp), %rax       # 8-byte Reload
	movq	%rax, %rcx
	addq	$81920, %rcx            # imm = 0x14000
	movl	-1324(%rbp), %edx       # 4-byte Reload
	movq	-16(%rbp), %rsi         # 8-byte Reload
	imull	(%rsi,%rcx,4), %edx
	movq	-40(%rbp), %rcx         # 8-byte Reload
	shlq	$10, %rcx
	addq	%rax, %rcx
	movq	-24(%rbp), %rdi         # 8-byte Reload
	addl	(%rdi,%rcx,4), %edx
	movl	%edx, (%rdi,%rcx,4)
	addq	$1, %rax
	movq	%rax, %rcx
	addq	$81920, %rcx            # imm = 0x14000
	movl	-1324(%rbp), %edx       # 4-byte Reload
	imull	(%rsi,%rcx,4), %edx
	movq	-40(%rbp), %rcx         # 8-byte Reload
	shlq	$10, %rcx
	addq	%rax, %rcx
	addl	(%rdi,%rcx,4), %edx
	movl	%edx, (%rdi,%rcx,4)
	addq	$1, %rax
	movq	%rax, %rcx
	addq	$81920, %rcx            # imm = 0x14000
	movl	-1324(%rbp), %edx       # 4-byte Reload
	imull	(%rsi,%rcx,4), %edx
	movq	-40(%rbp), %rcx         # 8-byte Reload
	shlq	$10, %rcx
	addq	%rax, %rcx
	addl	(%rdi,%rcx,4), %edx
	movl	%edx, (%rdi,%rcx,4)
	addq	$1, %rax
	movq	%rax, %rcx
	addq	$81920, %rcx            # imm = 0x14000
	movl	-1324(%rbp), %edx       # 4-byte Reload
	imull	(%rsi,%rcx,4), %edx
	movq	-40(%rbp), %rcx         # 8-byte Reload
	shlq	$10, %rcx
	addq	%rax, %rcx
	addl	(%rdi,%rcx,4), %edx
	movl	%edx, (%rdi,%rcx,4)
	addq	$1, %rax
	cmpq	$256, %rax              # imm = 0x100
	movq	%rax, -1336(%rbp)       # 8-byte Spill
	jne	.LBB0_164
# %bb.165:                              # %for.inc17.80
                                        #   in Loop: Header=BB0_1 Depth=1
	xorl	%eax, %eax
	movl	%eax, %ecx
	movq	-40(%rbp), %rdx         # 8-byte Reload
	shlq	$10, %rdx
	movq	-8(%rbp), %rsi          # 8-byte Reload
	movl	324(%rsi,%rdx,4), %eax
	movl	%eax, -1340(%rbp)       # 4-byte Spill
	movq	%rcx, -1352(%rbp)       # 8-byte Spill
.LBB0_166:                              # %for.body6.81
                                        #   Parent Loop BB0_1 Depth=1
                                        # =>  This Inner Loop Header: Depth=2
	movq	-1352(%rbp), %rax       # 8-byte Reload
	movq	%rax, %rcx
	addq	$82944, %rcx            # imm = 0x14400
	movl	-1340(%rbp), %edx       # 4-byte Reload
	movq	-16(%rbp), %rsi         # 8-byte Reload
	imull	(%rsi,%rcx,4), %edx
	movq	-40(%rbp), %rcx         # 8-byte Reload
	shlq	$10, %rcx
	addq	%rax, %rcx
	movq	-24(%rbp), %rdi         # 8-byte Reload
	addl	(%rdi,%rcx,4), %edx
	movl	%edx, (%rdi,%rcx,4)
	addq	$1, %rax
	movq	%rax, %rcx
	addq	$82944, %rcx            # imm = 0x14400
	movl	-1340(%rbp), %edx       # 4-byte Reload
	imull	(%rsi,%rcx,4), %edx
	movq	-40(%rbp), %rcx         # 8-byte Reload
	shlq	$10, %rcx
	addq	%rax, %rcx
	addl	(%rdi,%rcx,4), %edx
	movl	%edx, (%rdi,%rcx,4)
	addq	$1, %rax
	movq	%rax, %rcx
	addq	$82944, %rcx            # imm = 0x14400
	movl	-1340(%rbp), %edx       # 4-byte Reload
	imull	(%rsi,%rcx,4), %edx
	movq	-40(%rbp), %rcx         # 8-byte Reload
	shlq	$10, %rcx
	addq	%rax, %rcx
	addl	(%rdi,%rcx,4), %edx
	movl	%edx, (%rdi,%rcx,4)
	addq	$1, %rax
	movq	%rax, %rcx
	addq	$82944, %rcx            # imm = 0x14400
	movl	-1340(%rbp), %edx       # 4-byte Reload
	imull	(%rsi,%rcx,4), %edx
	movq	-40(%rbp), %rcx         # 8-byte Reload
	shlq	$10, %rcx
	addq	%rax, %rcx
	addl	(%rdi,%rcx,4), %edx
	movl	%edx, (%rdi,%rcx,4)
	addq	$1, %rax
	cmpq	$256, %rax              # imm = 0x100
	movq	%rax, -1352(%rbp)       # 8-byte Spill
	jne	.LBB0_166
# %bb.167:                              # %for.inc17.81
                                        #   in Loop: Header=BB0_1 Depth=1
	xorl	%eax, %eax
	movl	%eax, %ecx
	movq	-40(%rbp), %rdx         # 8-byte Reload
	shlq	$10, %rdx
	movq	-8(%rbp), %rsi          # 8-byte Reload
	movl	328(%rsi,%rdx,4), %eax
	movl	%eax, -1356(%rbp)       # 4-byte Spill
	movq	%rcx, -1368(%rbp)       # 8-byte Spill
.LBB0_168:                              # %for.body6.82
                                        #   Parent Loop BB0_1 Depth=1
                                        # =>  This Inner Loop Header: Depth=2
	movq	-1368(%rbp), %rax       # 8-byte Reload
	movq	%rax, %rcx
	addq	$83968, %rcx            # imm = 0x14800
	movl	-1356(%rbp), %edx       # 4-byte Reload
	movq	-16(%rbp), %rsi         # 8-byte Reload
	imull	(%rsi,%rcx,4), %edx
	movq	-40(%rbp), %rcx         # 8-byte Reload
	shlq	$10, %rcx
	addq	%rax, %rcx
	movq	-24(%rbp), %rdi         # 8-byte Reload
	addl	(%rdi,%rcx,4), %edx
	movl	%edx, (%rdi,%rcx,4)
	addq	$1, %rax
	movq	%rax, %rcx
	addq	$83968, %rcx            # imm = 0x14800
	movl	-1356(%rbp), %edx       # 4-byte Reload
	imull	(%rsi,%rcx,4), %edx
	movq	-40(%rbp), %rcx         # 8-byte Reload
	shlq	$10, %rcx
	addq	%rax, %rcx
	addl	(%rdi,%rcx,4), %edx
	movl	%edx, (%rdi,%rcx,4)
	addq	$1, %rax
	movq	%rax, %rcx
	addq	$83968, %rcx            # imm = 0x14800
	movl	-1356(%rbp), %edx       # 4-byte Reload
	imull	(%rsi,%rcx,4), %edx
	movq	-40(%rbp), %rcx         # 8-byte Reload
	shlq	$10, %rcx
	addq	%rax, %rcx
	addl	(%rdi,%rcx,4), %edx
	movl	%edx, (%rdi,%rcx,4)
	addq	$1, %rax
	movq	%rax, %rcx
	addq	$83968, %rcx            # imm = 0x14800
	movl	-1356(%rbp), %edx       # 4-byte Reload
	imull	(%rsi,%rcx,4), %edx
	movq	-40(%rbp), %rcx         # 8-byte Reload
	shlq	$10, %rcx
	addq	%rax, %rcx
	addl	(%rdi,%rcx,4), %edx
	movl	%edx, (%rdi,%rcx,4)
	addq	$1, %rax
	cmpq	$256, %rax              # imm = 0x100
	movq	%rax, -1368(%rbp)       # 8-byte Spill
	jne	.LBB0_168
# %bb.169:                              # %for.inc17.82
                                        #   in Loop: Header=BB0_1 Depth=1
	xorl	%eax, %eax
	movl	%eax, %ecx
	movq	-40(%rbp), %rdx         # 8-byte Reload
	shlq	$10, %rdx
	movq	-8(%rbp), %rsi          # 8-byte Reload
	movl	332(%rsi,%rdx,4), %eax
	movl	%eax, -1372(%rbp)       # 4-byte Spill
	movq	%rcx, -1384(%rbp)       # 8-byte Spill
.LBB0_170:                              # %for.body6.83
                                        #   Parent Loop BB0_1 Depth=1
                                        # =>  This Inner Loop Header: Depth=2
	movq	-1384(%rbp), %rax       # 8-byte Reload
	movq	%rax, %rcx
	addq	$84992, %rcx            # imm = 0x14C00
	movl	-1372(%rbp), %edx       # 4-byte Reload
	movq	-16(%rbp), %rsi         # 8-byte Reload
	imull	(%rsi,%rcx,4), %edx
	movq	-40(%rbp), %rcx         # 8-byte Reload
	shlq	$10, %rcx
	addq	%rax, %rcx
	movq	-24(%rbp), %rdi         # 8-byte Reload
	addl	(%rdi,%rcx,4), %edx
	movl	%edx, (%rdi,%rcx,4)
	addq	$1, %rax
	movq	%rax, %rcx
	addq	$84992, %rcx            # imm = 0x14C00
	movl	-1372(%rbp), %edx       # 4-byte Reload
	imull	(%rsi,%rcx,4), %edx
	movq	-40(%rbp), %rcx         # 8-byte Reload
	shlq	$10, %rcx
	addq	%rax, %rcx
	addl	(%rdi,%rcx,4), %edx
	movl	%edx, (%rdi,%rcx,4)
	addq	$1, %rax
	movq	%rax, %rcx
	addq	$84992, %rcx            # imm = 0x14C00
	movl	-1372(%rbp), %edx       # 4-byte Reload
	imull	(%rsi,%rcx,4), %edx
	movq	-40(%rbp), %rcx         # 8-byte Reload
	shlq	$10, %rcx
	addq	%rax, %rcx
	addl	(%rdi,%rcx,4), %edx
	movl	%edx, (%rdi,%rcx,4)
	addq	$1, %rax
	movq	%rax, %rcx
	addq	$84992, %rcx            # imm = 0x14C00
	movl	-1372(%rbp), %edx       # 4-byte Reload
	imull	(%rsi,%rcx,4), %edx
	movq	-40(%rbp), %rcx         # 8-byte Reload
	shlq	$10, %rcx
	addq	%rax, %rcx
	addl	(%rdi,%rcx,4), %edx
	movl	%edx, (%rdi,%rcx,4)
	addq	$1, %rax
	cmpq	$256, %rax              # imm = 0x100
	movq	%rax, -1384(%rbp)       # 8-byte Spill
	jne	.LBB0_170
# %bb.171:                              # %for.inc17.83
                                        #   in Loop: Header=BB0_1 Depth=1
	xorl	%eax, %eax
	movl	%eax, %ecx
	movq	-40(%rbp), %rdx         # 8-byte Reload
	shlq	$10, %rdx
	movq	-8(%rbp), %rsi          # 8-byte Reload
	movl	336(%rsi,%rdx,4), %eax
	movl	%eax, -1388(%rbp)       # 4-byte Spill
	movq	%rcx, -1400(%rbp)       # 8-byte Spill
.LBB0_172:                              # %for.body6.84
                                        #   Parent Loop BB0_1 Depth=1
                                        # =>  This Inner Loop Header: Depth=2
	movq	-1400(%rbp), %rax       # 8-byte Reload
	movq	%rax, %rcx
	addq	$86016, %rcx            # imm = 0x15000
	movl	-1388(%rbp), %edx       # 4-byte Reload
	movq	-16(%rbp), %rsi         # 8-byte Reload
	imull	(%rsi,%rcx,4), %edx
	movq	-40(%rbp), %rcx         # 8-byte Reload
	shlq	$10, %rcx
	addq	%rax, %rcx
	movq	-24(%rbp), %rdi         # 8-byte Reload
	addl	(%rdi,%rcx,4), %edx
	movl	%edx, (%rdi,%rcx,4)
	addq	$1, %rax
	movq	%rax, %rcx
	addq	$86016, %rcx            # imm = 0x15000
	movl	-1388(%rbp), %edx       # 4-byte Reload
	imull	(%rsi,%rcx,4), %edx
	movq	-40(%rbp), %rcx         # 8-byte Reload
	shlq	$10, %rcx
	addq	%rax, %rcx
	addl	(%rdi,%rcx,4), %edx
	movl	%edx, (%rdi,%rcx,4)
	addq	$1, %rax
	movq	%rax, %rcx
	addq	$86016, %rcx            # imm = 0x15000
	movl	-1388(%rbp), %edx       # 4-byte Reload
	imull	(%rsi,%rcx,4), %edx
	movq	-40(%rbp), %rcx         # 8-byte Reload
	shlq	$10, %rcx
	addq	%rax, %rcx
	addl	(%rdi,%rcx,4), %edx
	movl	%edx, (%rdi,%rcx,4)
	addq	$1, %rax
	movq	%rax, %rcx
	addq	$86016, %rcx            # imm = 0x15000
	movl	-1388(%rbp), %edx       # 4-byte Reload
	imull	(%rsi,%rcx,4), %edx
	movq	-40(%rbp), %rcx         # 8-byte Reload
	shlq	$10, %rcx
	addq	%rax, %rcx
	addl	(%rdi,%rcx,4), %edx
	movl	%edx, (%rdi,%rcx,4)
	addq	$1, %rax
	cmpq	$256, %rax              # imm = 0x100
	movq	%rax, -1400(%rbp)       # 8-byte Spill
	jne	.LBB0_172
# %bb.173:                              # %for.inc17.84
                                        #   in Loop: Header=BB0_1 Depth=1
	xorl	%eax, %eax
	movl	%eax, %ecx
	movq	-40(%rbp), %rdx         # 8-byte Reload
	shlq	$10, %rdx
	movq	-8(%rbp), %rsi          # 8-byte Reload
	movl	340(%rsi,%rdx,4), %eax
	movl	%eax, -1404(%rbp)       # 4-byte Spill
	movq	%rcx, -1416(%rbp)       # 8-byte Spill
.LBB0_174:                              # %for.body6.85
                                        #   Parent Loop BB0_1 Depth=1
                                        # =>  This Inner Loop Header: Depth=2
	movq	-1416(%rbp), %rax       # 8-byte Reload
	movq	%rax, %rcx
	addq	$87040, %rcx            # imm = 0x15400
	movl	-1404(%rbp), %edx       # 4-byte Reload
	movq	-16(%rbp), %rsi         # 8-byte Reload
	imull	(%rsi,%rcx,4), %edx
	movq	-40(%rbp), %rcx         # 8-byte Reload
	shlq	$10, %rcx
	addq	%rax, %rcx
	movq	-24(%rbp), %rdi         # 8-byte Reload
	addl	(%rdi,%rcx,4), %edx
	movl	%edx, (%rdi,%rcx,4)
	addq	$1, %rax
	movq	%rax, %rcx
	addq	$87040, %rcx            # imm = 0x15400
	movl	-1404(%rbp), %edx       # 4-byte Reload
	imull	(%rsi,%rcx,4), %edx
	movq	-40(%rbp), %rcx         # 8-byte Reload
	shlq	$10, %rcx
	addq	%rax, %rcx
	addl	(%rdi,%rcx,4), %edx
	movl	%edx, (%rdi,%rcx,4)
	addq	$1, %rax
	movq	%rax, %rcx
	addq	$87040, %rcx            # imm = 0x15400
	movl	-1404(%rbp), %edx       # 4-byte Reload
	imull	(%rsi,%rcx,4), %edx
	movq	-40(%rbp), %rcx         # 8-byte Reload
	shlq	$10, %rcx
	addq	%rax, %rcx
	addl	(%rdi,%rcx,4), %edx
	movl	%edx, (%rdi,%rcx,4)
	addq	$1, %rax
	movq	%rax, %rcx
	addq	$87040, %rcx            # imm = 0x15400
	movl	-1404(%rbp), %edx       # 4-byte Reload
	imull	(%rsi,%rcx,4), %edx
	movq	-40(%rbp), %rcx         # 8-byte Reload
	shlq	$10, %rcx
	addq	%rax, %rcx
	addl	(%rdi,%rcx,4), %edx
	movl	%edx, (%rdi,%rcx,4)
	addq	$1, %rax
	cmpq	$256, %rax              # imm = 0x100
	movq	%rax, -1416(%rbp)       # 8-byte Spill
	jne	.LBB0_174
# %bb.175:                              # %for.inc17.85
                                        #   in Loop: Header=BB0_1 Depth=1
	xorl	%eax, %eax
	movl	%eax, %ecx
	movq	-40(%rbp), %rdx         # 8-byte Reload
	shlq	$10, %rdx
	movq	-8(%rbp), %rsi          # 8-byte Reload
	movl	344(%rsi,%rdx,4), %eax
	movl	%eax, -1420(%rbp)       # 4-byte Spill
	movq	%rcx, -1432(%rbp)       # 8-byte Spill
.LBB0_176:                              # %for.body6.86
                                        #   Parent Loop BB0_1 Depth=1
                                        # =>  This Inner Loop Header: Depth=2
	movq	-1432(%rbp), %rax       # 8-byte Reload
	movq	%rax, %rcx
	addq	$88064, %rcx            # imm = 0x15800
	movl	-1420(%rbp), %edx       # 4-byte Reload
	movq	-16(%rbp), %rsi         # 8-byte Reload
	imull	(%rsi,%rcx,4), %edx
	movq	-40(%rbp), %rcx         # 8-byte Reload
	shlq	$10, %rcx
	addq	%rax, %rcx
	movq	-24(%rbp), %rdi         # 8-byte Reload
	addl	(%rdi,%rcx,4), %edx
	movl	%edx, (%rdi,%rcx,4)
	addq	$1, %rax
	movq	%rax, %rcx
	addq	$88064, %rcx            # imm = 0x15800
	movl	-1420(%rbp), %edx       # 4-byte Reload
	imull	(%rsi,%rcx,4), %edx
	movq	-40(%rbp), %rcx         # 8-byte Reload
	shlq	$10, %rcx
	addq	%rax, %rcx
	addl	(%rdi,%rcx,4), %edx
	movl	%edx, (%rdi,%rcx,4)
	addq	$1, %rax
	movq	%rax, %rcx
	addq	$88064, %rcx            # imm = 0x15800
	movl	-1420(%rbp), %edx       # 4-byte Reload
	imull	(%rsi,%rcx,4), %edx
	movq	-40(%rbp), %rcx         # 8-byte Reload
	shlq	$10, %rcx
	addq	%rax, %rcx
	addl	(%rdi,%rcx,4), %edx
	movl	%edx, (%rdi,%rcx,4)
	addq	$1, %rax
	movq	%rax, %rcx
	addq	$88064, %rcx            # imm = 0x15800
	movl	-1420(%rbp), %edx       # 4-byte Reload
	imull	(%rsi,%rcx,4), %edx
	movq	-40(%rbp), %rcx         # 8-byte Reload
	shlq	$10, %rcx
	addq	%rax, %rcx
	addl	(%rdi,%rcx,4), %edx
	movl	%edx, (%rdi,%rcx,4)
	addq	$1, %rax
	cmpq	$256, %rax              # imm = 0x100
	movq	%rax, -1432(%rbp)       # 8-byte Spill
	jne	.LBB0_176
# %bb.177:                              # %for.inc17.86
                                        #   in Loop: Header=BB0_1 Depth=1
	xorl	%eax, %eax
	movl	%eax, %ecx
	movq	-40(%rbp), %rdx         # 8-byte Reload
	shlq	$10, %rdx
	movq	-8(%rbp), %rsi          # 8-byte Reload
	movl	348(%rsi,%rdx,4), %eax
	movl	%eax, -1436(%rbp)       # 4-byte Spill
	movq	%rcx, -1448(%rbp)       # 8-byte Spill
.LBB0_178:                              # %for.body6.87
                                        #   Parent Loop BB0_1 Depth=1
                                        # =>  This Inner Loop Header: Depth=2
	movq	-1448(%rbp), %rax       # 8-byte Reload
	movq	%rax, %rcx
	addq	$89088, %rcx            # imm = 0x15C00
	movl	-1436(%rbp), %edx       # 4-byte Reload
	movq	-16(%rbp), %rsi         # 8-byte Reload
	imull	(%rsi,%rcx,4), %edx
	movq	-40(%rbp), %rcx         # 8-byte Reload
	shlq	$10, %rcx
	addq	%rax, %rcx
	movq	-24(%rbp), %rdi         # 8-byte Reload
	addl	(%rdi,%rcx,4), %edx
	movl	%edx, (%rdi,%rcx,4)
	addq	$1, %rax
	movq	%rax, %rcx
	addq	$89088, %rcx            # imm = 0x15C00
	movl	-1436(%rbp), %edx       # 4-byte Reload
	imull	(%rsi,%rcx,4), %edx
	movq	-40(%rbp), %rcx         # 8-byte Reload
	shlq	$10, %rcx
	addq	%rax, %rcx
	addl	(%rdi,%rcx,4), %edx
	movl	%edx, (%rdi,%rcx,4)
	addq	$1, %rax
	movq	%rax, %rcx
	addq	$89088, %rcx            # imm = 0x15C00
	movl	-1436(%rbp), %edx       # 4-byte Reload
	imull	(%rsi,%rcx,4), %edx
	movq	-40(%rbp), %rcx         # 8-byte Reload
	shlq	$10, %rcx
	addq	%rax, %rcx
	addl	(%rdi,%rcx,4), %edx
	movl	%edx, (%rdi,%rcx,4)
	addq	$1, %rax
	movq	%rax, %rcx
	addq	$89088, %rcx            # imm = 0x15C00
	movl	-1436(%rbp), %edx       # 4-byte Reload
	imull	(%rsi,%rcx,4), %edx
	movq	-40(%rbp), %rcx         # 8-byte Reload
	shlq	$10, %rcx
	addq	%rax, %rcx
	addl	(%rdi,%rcx,4), %edx
	movl	%edx, (%rdi,%rcx,4)
	addq	$1, %rax
	cmpq	$256, %rax              # imm = 0x100
	movq	%rax, -1448(%rbp)       # 8-byte Spill
	jne	.LBB0_178
# %bb.179:                              # %for.inc17.87
                                        #   in Loop: Header=BB0_1 Depth=1
	xorl	%eax, %eax
	movl	%eax, %ecx
	movq	-40(%rbp), %rdx         # 8-byte Reload
	shlq	$10, %rdx
	movq	-8(%rbp), %rsi          # 8-byte Reload
	movl	352(%rsi,%rdx,4), %eax
	movl	%eax, -1452(%rbp)       # 4-byte Spill
	movq	%rcx, -1464(%rbp)       # 8-byte Spill
.LBB0_180:                              # %for.body6.88
                                        #   Parent Loop BB0_1 Depth=1
                                        # =>  This Inner Loop Header: Depth=2
	movq	-1464(%rbp), %rax       # 8-byte Reload
	movq	%rax, %rcx
	addq	$90112, %rcx            # imm = 0x16000
	movl	-1452(%rbp), %edx       # 4-byte Reload
	movq	-16(%rbp), %rsi         # 8-byte Reload
	imull	(%rsi,%rcx,4), %edx
	movq	-40(%rbp), %rcx         # 8-byte Reload
	shlq	$10, %rcx
	addq	%rax, %rcx
	movq	-24(%rbp), %rdi         # 8-byte Reload
	addl	(%rdi,%rcx,4), %edx
	movl	%edx, (%rdi,%rcx,4)
	addq	$1, %rax
	movq	%rax, %rcx
	addq	$90112, %rcx            # imm = 0x16000
	movl	-1452(%rbp), %edx       # 4-byte Reload
	imull	(%rsi,%rcx,4), %edx
	movq	-40(%rbp), %rcx         # 8-byte Reload
	shlq	$10, %rcx
	addq	%rax, %rcx
	addl	(%rdi,%rcx,4), %edx
	movl	%edx, (%rdi,%rcx,4)
	addq	$1, %rax
	movq	%rax, %rcx
	addq	$90112, %rcx            # imm = 0x16000
	movl	-1452(%rbp), %edx       # 4-byte Reload
	imull	(%rsi,%rcx,4), %edx
	movq	-40(%rbp), %rcx         # 8-byte Reload
	shlq	$10, %rcx
	addq	%rax, %rcx
	addl	(%rdi,%rcx,4), %edx
	movl	%edx, (%rdi,%rcx,4)
	addq	$1, %rax
	movq	%rax, %rcx
	addq	$90112, %rcx            # imm = 0x16000
	movl	-1452(%rbp), %edx       # 4-byte Reload
	imull	(%rsi,%rcx,4), %edx
	movq	-40(%rbp), %rcx         # 8-byte Reload
	shlq	$10, %rcx
	addq	%rax, %rcx
	addl	(%rdi,%rcx,4), %edx
	movl	%edx, (%rdi,%rcx,4)
	addq	$1, %rax
	cmpq	$256, %rax              # imm = 0x100
	movq	%rax, -1464(%rbp)       # 8-byte Spill
	jne	.LBB0_180
# %bb.181:                              # %for.inc17.88
                                        #   in Loop: Header=BB0_1 Depth=1
	xorl	%eax, %eax
	movl	%eax, %ecx
	movq	-40(%rbp), %rdx         # 8-byte Reload
	shlq	$10, %rdx
	movq	-8(%rbp), %rsi          # 8-byte Reload
	movl	356(%rsi,%rdx,4), %eax
	movl	%eax, -1468(%rbp)       # 4-byte Spill
	movq	%rcx, -1480(%rbp)       # 8-byte Spill
.LBB0_182:                              # %for.body6.89
                                        #   Parent Loop BB0_1 Depth=1
                                        # =>  This Inner Loop Header: Depth=2
	movq	-1480(%rbp), %rax       # 8-byte Reload
	movq	%rax, %rcx
	addq	$91136, %rcx            # imm = 0x16400
	movl	-1468(%rbp), %edx       # 4-byte Reload
	movq	-16(%rbp), %rsi         # 8-byte Reload
	imull	(%rsi,%rcx,4), %edx
	movq	-40(%rbp), %rcx         # 8-byte Reload
	shlq	$10, %rcx
	addq	%rax, %rcx
	movq	-24(%rbp), %rdi         # 8-byte Reload
	addl	(%rdi,%rcx,4), %edx
	movl	%edx, (%rdi,%rcx,4)
	addq	$1, %rax
	movq	%rax, %rcx
	addq	$91136, %rcx            # imm = 0x16400
	movl	-1468(%rbp), %edx       # 4-byte Reload
	imull	(%rsi,%rcx,4), %edx
	movq	-40(%rbp), %rcx         # 8-byte Reload
	shlq	$10, %rcx
	addq	%rax, %rcx
	addl	(%rdi,%rcx,4), %edx
	movl	%edx, (%rdi,%rcx,4)
	addq	$1, %rax
	movq	%rax, %rcx
	addq	$91136, %rcx            # imm = 0x16400
	movl	-1468(%rbp), %edx       # 4-byte Reload
	imull	(%rsi,%rcx,4), %edx
	movq	-40(%rbp), %rcx         # 8-byte Reload
	shlq	$10, %rcx
	addq	%rax, %rcx
	addl	(%rdi,%rcx,4), %edx
	movl	%edx, (%rdi,%rcx,4)
	addq	$1, %rax
	movq	%rax, %rcx
	addq	$91136, %rcx            # imm = 0x16400
	movl	-1468(%rbp), %edx       # 4-byte Reload
	imull	(%rsi,%rcx,4), %edx
	movq	-40(%rbp), %rcx         # 8-byte Reload
	shlq	$10, %rcx
	addq	%rax, %rcx
	addl	(%rdi,%rcx,4), %edx
	movl	%edx, (%rdi,%rcx,4)
	addq	$1, %rax
	cmpq	$256, %rax              # imm = 0x100
	movq	%rax, -1480(%rbp)       # 8-byte Spill
	jne	.LBB0_182
# %bb.183:                              # %for.inc17.89
                                        #   in Loop: Header=BB0_1 Depth=1
	xorl	%eax, %eax
	movl	%eax, %ecx
	movq	-40(%rbp), %rdx         # 8-byte Reload
	shlq	$10, %rdx
	movq	-8(%rbp), %rsi          # 8-byte Reload
	movl	360(%rsi,%rdx,4), %eax
	movl	%eax, -1484(%rbp)       # 4-byte Spill
	movq	%rcx, -1496(%rbp)       # 8-byte Spill
.LBB0_184:                              # %for.body6.90
                                        #   Parent Loop BB0_1 Depth=1
                                        # =>  This Inner Loop Header: Depth=2
	movq	-1496(%rbp), %rax       # 8-byte Reload
	movq	%rax, %rcx
	addq	$92160, %rcx            # imm = 0x16800
	movl	-1484(%rbp), %edx       # 4-byte Reload
	movq	-16(%rbp), %rsi         # 8-byte Reload
	imull	(%rsi,%rcx,4), %edx
	movq	-40(%rbp), %rcx         # 8-byte Reload
	shlq	$10, %rcx
	addq	%rax, %rcx
	movq	-24(%rbp), %rdi         # 8-byte Reload
	addl	(%rdi,%rcx,4), %edx
	movl	%edx, (%rdi,%rcx,4)
	addq	$1, %rax
	movq	%rax, %rcx
	addq	$92160, %rcx            # imm = 0x16800
	movl	-1484(%rbp), %edx       # 4-byte Reload
	imull	(%rsi,%rcx,4), %edx
	movq	-40(%rbp), %rcx         # 8-byte Reload
	shlq	$10, %rcx
	addq	%rax, %rcx
	addl	(%rdi,%rcx,4), %edx
	movl	%edx, (%rdi,%rcx,4)
	addq	$1, %rax
	movq	%rax, %rcx
	addq	$92160, %rcx            # imm = 0x16800
	movl	-1484(%rbp), %edx       # 4-byte Reload
	imull	(%rsi,%rcx,4), %edx
	movq	-40(%rbp), %rcx         # 8-byte Reload
	shlq	$10, %rcx
	addq	%rax, %rcx
	addl	(%rdi,%rcx,4), %edx
	movl	%edx, (%rdi,%rcx,4)
	addq	$1, %rax
	movq	%rax, %rcx
	addq	$92160, %rcx            # imm = 0x16800
	movl	-1484(%rbp), %edx       # 4-byte Reload
	imull	(%rsi,%rcx,4), %edx
	movq	-40(%rbp), %rcx         # 8-byte Reload
	shlq	$10, %rcx
	addq	%rax, %rcx
	addl	(%rdi,%rcx,4), %edx
	movl	%edx, (%rdi,%rcx,4)
	addq	$1, %rax
	cmpq	$256, %rax              # imm = 0x100
	movq	%rax, -1496(%rbp)       # 8-byte Spill
	jne	.LBB0_184
# %bb.185:                              # %for.inc17.90
                                        #   in Loop: Header=BB0_1 Depth=1
	xorl	%eax, %eax
	movl	%eax, %ecx
	movq	-40(%rbp), %rdx         # 8-byte Reload
	shlq	$10, %rdx
	movq	-8(%rbp), %rsi          # 8-byte Reload
	movl	364(%rsi,%rdx,4), %eax
	movl	%eax, -1500(%rbp)       # 4-byte Spill
	movq	%rcx, -1512(%rbp)       # 8-byte Spill
.LBB0_186:                              # %for.body6.91
                                        #   Parent Loop BB0_1 Depth=1
                                        # =>  This Inner Loop Header: Depth=2
	movq	-1512(%rbp), %rax       # 8-byte Reload
	movq	%rax, %rcx
	addq	$93184, %rcx            # imm = 0x16C00
	movl	-1500(%rbp), %edx       # 4-byte Reload
	movq	-16(%rbp), %rsi         # 8-byte Reload
	imull	(%rsi,%rcx,4), %edx
	movq	-40(%rbp), %rcx         # 8-byte Reload
	shlq	$10, %rcx
	addq	%rax, %rcx
	movq	-24(%rbp), %rdi         # 8-byte Reload
	addl	(%rdi,%rcx,4), %edx
	movl	%edx, (%rdi,%rcx,4)
	addq	$1, %rax
	movq	%rax, %rcx
	addq	$93184, %rcx            # imm = 0x16C00
	movl	-1500(%rbp), %edx       # 4-byte Reload
	imull	(%rsi,%rcx,4), %edx
	movq	-40(%rbp), %rcx         # 8-byte Reload
	shlq	$10, %rcx
	addq	%rax, %rcx
	addl	(%rdi,%rcx,4), %edx
	movl	%edx, (%rdi,%rcx,4)
	addq	$1, %rax
	movq	%rax, %rcx
	addq	$93184, %rcx            # imm = 0x16C00
	movl	-1500(%rbp), %edx       # 4-byte Reload
	imull	(%rsi,%rcx,4), %edx
	movq	-40(%rbp), %rcx         # 8-byte Reload
	shlq	$10, %rcx
	addq	%rax, %rcx
	addl	(%rdi,%rcx,4), %edx
	movl	%edx, (%rdi,%rcx,4)
	addq	$1, %rax
	movq	%rax, %rcx
	addq	$93184, %rcx            # imm = 0x16C00
	movl	-1500(%rbp), %edx       # 4-byte Reload
	imull	(%rsi,%rcx,4), %edx
	movq	-40(%rbp), %rcx         # 8-byte Reload
	shlq	$10, %rcx
	addq	%rax, %rcx
	addl	(%rdi,%rcx,4), %edx
	movl	%edx, (%rdi,%rcx,4)
	addq	$1, %rax
	cmpq	$256, %rax              # imm = 0x100
	movq	%rax, -1512(%rbp)       # 8-byte Spill
	jne	.LBB0_186
# %bb.187:                              # %for.inc17.91
                                        #   in Loop: Header=BB0_1 Depth=1
	xorl	%eax, %eax
	movl	%eax, %ecx
	movq	-40(%rbp), %rdx         # 8-byte Reload
	shlq	$10, %rdx
	movq	-8(%rbp), %rsi          # 8-byte Reload
	movl	368(%rsi,%rdx,4), %eax
	movl	%eax, -1516(%rbp)       # 4-byte Spill
	movq	%rcx, -1528(%rbp)       # 8-byte Spill
.LBB0_188:                              # %for.body6.92
                                        #   Parent Loop BB0_1 Depth=1
                                        # =>  This Inner Loop Header: Depth=2
	movq	-1528(%rbp), %rax       # 8-byte Reload
	movq	%rax, %rcx
	addq	$94208, %rcx            # imm = 0x17000
	movl	-1516(%rbp), %edx       # 4-byte Reload
	movq	-16(%rbp), %rsi         # 8-byte Reload
	imull	(%rsi,%rcx,4), %edx
	movq	-40(%rbp), %rcx         # 8-byte Reload
	shlq	$10, %rcx
	addq	%rax, %rcx
	movq	-24(%rbp), %rdi         # 8-byte Reload
	addl	(%rdi,%rcx,4), %edx
	movl	%edx, (%rdi,%rcx,4)
	addq	$1, %rax
	movq	%rax, %rcx
	addq	$94208, %rcx            # imm = 0x17000
	movl	-1516(%rbp), %edx       # 4-byte Reload
	imull	(%rsi,%rcx,4), %edx
	movq	-40(%rbp), %rcx         # 8-byte Reload
	shlq	$10, %rcx
	addq	%rax, %rcx
	addl	(%rdi,%rcx,4), %edx
	movl	%edx, (%rdi,%rcx,4)
	addq	$1, %rax
	movq	%rax, %rcx
	addq	$94208, %rcx            # imm = 0x17000
	movl	-1516(%rbp), %edx       # 4-byte Reload
	imull	(%rsi,%rcx,4), %edx
	movq	-40(%rbp), %rcx         # 8-byte Reload
	shlq	$10, %rcx
	addq	%rax, %rcx
	addl	(%rdi,%rcx,4), %edx
	movl	%edx, (%rdi,%rcx,4)
	addq	$1, %rax
	movq	%rax, %rcx
	addq	$94208, %rcx            # imm = 0x17000
	movl	-1516(%rbp), %edx       # 4-byte Reload
	imull	(%rsi,%rcx,4), %edx
	movq	-40(%rbp), %rcx         # 8-byte Reload
	shlq	$10, %rcx
	addq	%rax, %rcx
	addl	(%rdi,%rcx,4), %edx
	movl	%edx, (%rdi,%rcx,4)
	addq	$1, %rax
	cmpq	$256, %rax              # imm = 0x100
	movq	%rax, -1528(%rbp)       # 8-byte Spill
	jne	.LBB0_188
# %bb.189:                              # %for.inc17.92
                                        #   in Loop: Header=BB0_1 Depth=1
	xorl	%eax, %eax
	movl	%eax, %ecx
	movq	-40(%rbp), %rdx         # 8-byte Reload
	shlq	$10, %rdx
	movq	-8(%rbp), %rsi          # 8-byte Reload
	movl	372(%rsi,%rdx,4), %eax
	movl	%eax, -1532(%rbp)       # 4-byte Spill
	movq	%rcx, -1544(%rbp)       # 8-byte Spill
.LBB0_190:                              # %for.body6.93
                                        #   Parent Loop BB0_1 Depth=1
                                        # =>  This Inner Loop Header: Depth=2
	movq	-1544(%rbp), %rax       # 8-byte Reload
	movq	%rax, %rcx
	addq	$95232, %rcx            # imm = 0x17400
	movl	-1532(%rbp), %edx       # 4-byte Reload
	movq	-16(%rbp), %rsi         # 8-byte Reload
	imull	(%rsi,%rcx,4), %edx
	movq	-40(%rbp), %rcx         # 8-byte Reload
	shlq	$10, %rcx
	addq	%rax, %rcx
	movq	-24(%rbp), %rdi         # 8-byte Reload
	addl	(%rdi,%rcx,4), %edx
	movl	%edx, (%rdi,%rcx,4)
	addq	$1, %rax
	movq	%rax, %rcx
	addq	$95232, %rcx            # imm = 0x17400
	movl	-1532(%rbp), %edx       # 4-byte Reload
	imull	(%rsi,%rcx,4), %edx
	movq	-40(%rbp), %rcx         # 8-byte Reload
	shlq	$10, %rcx
	addq	%rax, %rcx
	addl	(%rdi,%rcx,4), %edx
	movl	%edx, (%rdi,%rcx,4)
	addq	$1, %rax
	movq	%rax, %rcx
	addq	$95232, %rcx            # imm = 0x17400
	movl	-1532(%rbp), %edx       # 4-byte Reload
	imull	(%rsi,%rcx,4), %edx
	movq	-40(%rbp), %rcx         # 8-byte Reload
	shlq	$10, %rcx
	addq	%rax, %rcx
	addl	(%rdi,%rcx,4), %edx
	movl	%edx, (%rdi,%rcx,4)
	addq	$1, %rax
	movq	%rax, %rcx
	addq	$95232, %rcx            # imm = 0x17400
	movl	-1532(%rbp), %edx       # 4-byte Reload
	imull	(%rsi,%rcx,4), %edx
	movq	-40(%rbp), %rcx         # 8-byte Reload
	shlq	$10, %rcx
	addq	%rax, %rcx
	addl	(%rdi,%rcx,4), %edx
	movl	%edx, (%rdi,%rcx,4)
	addq	$1, %rax
	cmpq	$256, %rax              # imm = 0x100
	movq	%rax, -1544(%rbp)       # 8-byte Spill
	jne	.LBB0_190
# %bb.191:                              # %for.inc17.93
                                        #   in Loop: Header=BB0_1 Depth=1
	xorl	%eax, %eax
	movl	%eax, %ecx
	movq	-40(%rbp), %rdx         # 8-byte Reload
	shlq	$10, %rdx
	movq	-8(%rbp), %rsi          # 8-byte Reload
	movl	376(%rsi,%rdx,4), %eax
	movl	%eax, -1548(%rbp)       # 4-byte Spill
	movq	%rcx, -1560(%rbp)       # 8-byte Spill
.LBB0_192:                              # %for.body6.94
                                        #   Parent Loop BB0_1 Depth=1
                                        # =>  This Inner Loop Header: Depth=2
	movq	-1560(%rbp), %rax       # 8-byte Reload
	movq	%rax, %rcx
	addq	$96256, %rcx            # imm = 0x17800
	movl	-1548(%rbp), %edx       # 4-byte Reload
	movq	-16(%rbp), %rsi         # 8-byte Reload
	imull	(%rsi,%rcx,4), %edx
	movq	-40(%rbp), %rcx         # 8-byte Reload
	shlq	$10, %rcx
	addq	%rax, %rcx
	movq	-24(%rbp), %rdi         # 8-byte Reload
	addl	(%rdi,%rcx,4), %edx
	movl	%edx, (%rdi,%rcx,4)
	addq	$1, %rax
	movq	%rax, %rcx
	addq	$96256, %rcx            # imm = 0x17800
	movl	-1548(%rbp), %edx       # 4-byte Reload
	imull	(%rsi,%rcx,4), %edx
	movq	-40(%rbp), %rcx         # 8-byte Reload
	shlq	$10, %rcx
	addq	%rax, %rcx
	addl	(%rdi,%rcx,4), %edx
	movl	%edx, (%rdi,%rcx,4)
	addq	$1, %rax
	movq	%rax, %rcx
	addq	$96256, %rcx            # imm = 0x17800
	movl	-1548(%rbp), %edx       # 4-byte Reload
	imull	(%rsi,%rcx,4), %edx
	movq	-40(%rbp), %rcx         # 8-byte Reload
	shlq	$10, %rcx
	addq	%rax, %rcx
	addl	(%rdi,%rcx,4), %edx
	movl	%edx, (%rdi,%rcx,4)
	addq	$1, %rax
	movq	%rax, %rcx
	addq	$96256, %rcx            # imm = 0x17800
	movl	-1548(%rbp), %edx       # 4-byte Reload
	imull	(%rsi,%rcx,4), %edx
	movq	-40(%rbp), %rcx         # 8-byte Reload
	shlq	$10, %rcx
	addq	%rax, %rcx
	addl	(%rdi,%rcx,4), %edx
	movl	%edx, (%rdi,%rcx,4)
	addq	$1, %rax
	cmpq	$256, %rax              # imm = 0x100
	movq	%rax, -1560(%rbp)       # 8-byte Spill
	jne	.LBB0_192
# %bb.193:                              # %for.inc17.94
                                        #   in Loop: Header=BB0_1 Depth=1
	xorl	%eax, %eax
	movl	%eax, %ecx
	movq	-40(%rbp), %rdx         # 8-byte Reload
	shlq	$10, %rdx
	movq	-8(%rbp), %rsi          # 8-byte Reload
	movl	380(%rsi,%rdx,4), %eax
	movl	%eax, -1564(%rbp)       # 4-byte Spill
	movq	%rcx, -1576(%rbp)       # 8-byte Spill
.LBB0_194:                              # %for.body6.95
                                        #   Parent Loop BB0_1 Depth=1
                                        # =>  This Inner Loop Header: Depth=2
	movq	-1576(%rbp), %rax       # 8-byte Reload
	movq	%rax, %rcx
	addq	$97280, %rcx            # imm = 0x17C00
	movl	-1564(%rbp), %edx       # 4-byte Reload
	movq	-16(%rbp), %rsi         # 8-byte Reload
	imull	(%rsi,%rcx,4), %edx
	movq	-40(%rbp), %rcx         # 8-byte Reload
	shlq	$10, %rcx
	addq	%rax, %rcx
	movq	-24(%rbp), %rdi         # 8-byte Reload
	addl	(%rdi,%rcx,4), %edx
	movl	%edx, (%rdi,%rcx,4)
	addq	$1, %rax
	movq	%rax, %rcx
	addq	$97280, %rcx            # imm = 0x17C00
	movl	-1564(%rbp), %edx       # 4-byte Reload
	imull	(%rsi,%rcx,4), %edx
	movq	-40(%rbp), %rcx         # 8-byte Reload
	shlq	$10, %rcx
	addq	%rax, %rcx
	addl	(%rdi,%rcx,4), %edx
	movl	%edx, (%rdi,%rcx,4)
	addq	$1, %rax
	movq	%rax, %rcx
	addq	$97280, %rcx            # imm = 0x17C00
	movl	-1564(%rbp), %edx       # 4-byte Reload
	imull	(%rsi,%rcx,4), %edx
	movq	-40(%rbp), %rcx         # 8-byte Reload
	shlq	$10, %rcx
	addq	%rax, %rcx
	addl	(%rdi,%rcx,4), %edx
	movl	%edx, (%rdi,%rcx,4)
	addq	$1, %rax
	movq	%rax, %rcx
	addq	$97280, %rcx            # imm = 0x17C00
	movl	-1564(%rbp), %edx       # 4-byte Reload
	imull	(%rsi,%rcx,4), %edx
	movq	-40(%rbp), %rcx         # 8-byte Reload
	shlq	$10, %rcx
	addq	%rax, %rcx
	addl	(%rdi,%rcx,4), %edx
	movl	%edx, (%rdi,%rcx,4)
	addq	$1, %rax
	cmpq	$256, %rax              # imm = 0x100
	movq	%rax, -1576(%rbp)       # 8-byte Spill
	jne	.LBB0_194
# %bb.195:                              # %for.inc17.95
                                        #   in Loop: Header=BB0_1 Depth=1
	xorl	%eax, %eax
	movl	%eax, %ecx
	movq	-40(%rbp), %rdx         # 8-byte Reload
	shlq	$10, %rdx
	movq	-8(%rbp), %rsi          # 8-byte Reload
	movl	384(%rsi,%rdx,4), %eax
	movl	%eax, -1580(%rbp)       # 4-byte Spill
	movq	%rcx, -1592(%rbp)       # 8-byte Spill
.LBB0_196:                              # %for.body6.96
                                        #   Parent Loop BB0_1 Depth=1
                                        # =>  This Inner Loop Header: Depth=2
	movq	-1592(%rbp), %rax       # 8-byte Reload
	movq	%rax, %rcx
	addq	$98304, %rcx            # imm = 0x18000
	movl	-1580(%rbp), %edx       # 4-byte Reload
	movq	-16(%rbp), %rsi         # 8-byte Reload
	imull	(%rsi,%rcx,4), %edx
	movq	-40(%rbp), %rcx         # 8-byte Reload
	shlq	$10, %rcx
	addq	%rax, %rcx
	movq	-24(%rbp), %rdi         # 8-byte Reload
	addl	(%rdi,%rcx,4), %edx
	movl	%edx, (%rdi,%rcx,4)
	addq	$1, %rax
	movq	%rax, %rcx
	addq	$98304, %rcx            # imm = 0x18000
	movl	-1580(%rbp), %edx       # 4-byte Reload
	imull	(%rsi,%rcx,4), %edx
	movq	-40(%rbp), %rcx         # 8-byte Reload
	shlq	$10, %rcx
	addq	%rax, %rcx
	addl	(%rdi,%rcx,4), %edx
	movl	%edx, (%rdi,%rcx,4)
	addq	$1, %rax
	movq	%rax, %rcx
	addq	$98304, %rcx            # imm = 0x18000
	movl	-1580(%rbp), %edx       # 4-byte Reload
	imull	(%rsi,%rcx,4), %edx
	movq	-40(%rbp), %rcx         # 8-byte Reload
	shlq	$10, %rcx
	addq	%rax, %rcx
	addl	(%rdi,%rcx,4), %edx
	movl	%edx, (%rdi,%rcx,4)
	addq	$1, %rax
	movq	%rax, %rcx
	addq	$98304, %rcx            # imm = 0x18000
	movl	-1580(%rbp), %edx       # 4-byte Reload
	imull	(%rsi,%rcx,4), %edx
	movq	-40(%rbp), %rcx         # 8-byte Reload
	shlq	$10, %rcx
	addq	%rax, %rcx
	addl	(%rdi,%rcx,4), %edx
	movl	%edx, (%rdi,%rcx,4)
	addq	$1, %rax
	cmpq	$256, %rax              # imm = 0x100
	movq	%rax, -1592(%rbp)       # 8-byte Spill
	jne	.LBB0_196
# %bb.197:                              # %for.inc17.96
                                        #   in Loop: Header=BB0_1 Depth=1
	xorl	%eax, %eax
	movl	%eax, %ecx
	movq	-40(%rbp), %rdx         # 8-byte Reload
	shlq	$10, %rdx
	movq	-8(%rbp), %rsi          # 8-byte Reload
	movl	388(%rsi,%rdx,4), %eax
	movl	%eax, -1596(%rbp)       # 4-byte Spill
	movq	%rcx, -1608(%rbp)       # 8-byte Spill
.LBB0_198:                              # %for.body6.97
                                        #   Parent Loop BB0_1 Depth=1
                                        # =>  This Inner Loop Header: Depth=2
	movq	-1608(%rbp), %rax       # 8-byte Reload
	movq	%rax, %rcx
	addq	$99328, %rcx            # imm = 0x18400
	movl	-1596(%rbp), %edx       # 4-byte Reload
	movq	-16(%rbp), %rsi         # 8-byte Reload
	imull	(%rsi,%rcx,4), %edx
	movq	-40(%rbp), %rcx         # 8-byte Reload
	shlq	$10, %rcx
	addq	%rax, %rcx
	movq	-24(%rbp), %rdi         # 8-byte Reload
	addl	(%rdi,%rcx,4), %edx
	movl	%edx, (%rdi,%rcx,4)
	addq	$1, %rax
	movq	%rax, %rcx
	addq	$99328, %rcx            # imm = 0x18400
	movl	-1596(%rbp), %edx       # 4-byte Reload
	imull	(%rsi,%rcx,4), %edx
	movq	-40(%rbp), %rcx         # 8-byte Reload
	shlq	$10, %rcx
	addq	%rax, %rcx
	addl	(%rdi,%rcx,4), %edx
	movl	%edx, (%rdi,%rcx,4)
	addq	$1, %rax
	movq	%rax, %rcx
	addq	$99328, %rcx            # imm = 0x18400
	movl	-1596(%rbp), %edx       # 4-byte Reload
	imull	(%rsi,%rcx,4), %edx
	movq	-40(%rbp), %rcx         # 8-byte Reload
	shlq	$10, %rcx
	addq	%rax, %rcx
	addl	(%rdi,%rcx,4), %edx
	movl	%edx, (%rdi,%rcx,4)
	addq	$1, %rax
	movq	%rax, %rcx
	addq	$99328, %rcx            # imm = 0x18400
	movl	-1596(%rbp), %edx       # 4-byte Reload
	imull	(%rsi,%rcx,4), %edx
	movq	-40(%rbp), %rcx         # 8-byte Reload
	shlq	$10, %rcx
	addq	%rax, %rcx
	addl	(%rdi,%rcx,4), %edx
	movl	%edx, (%rdi,%rcx,4)
	addq	$1, %rax
	cmpq	$256, %rax              # imm = 0x100
	movq	%rax, -1608(%rbp)       # 8-byte Spill
	jne	.LBB0_198
# %bb.199:                              # %for.inc17.97
                                        #   in Loop: Header=BB0_1 Depth=1
	xorl	%eax, %eax
	movl	%eax, %ecx
	movq	-40(%rbp), %rdx         # 8-byte Reload
	shlq	$10, %rdx
	movq	-8(%rbp), %rsi          # 8-byte Reload
	movl	392(%rsi,%rdx,4), %eax
	movl	%eax, -1612(%rbp)       # 4-byte Spill
	movq	%rcx, -1624(%rbp)       # 8-byte Spill
.LBB0_200:                              # %for.body6.98
                                        #   Parent Loop BB0_1 Depth=1
                                        # =>  This Inner Loop Header: Depth=2
	movq	-1624(%rbp), %rax       # 8-byte Reload
	movq	%rax, %rcx
	addq	$100352, %rcx           # imm = 0x18800
	movl	-1612(%rbp), %edx       # 4-byte Reload
	movq	-16(%rbp), %rsi         # 8-byte Reload
	imull	(%rsi,%rcx,4), %edx
	movq	-40(%rbp), %rcx         # 8-byte Reload
	shlq	$10, %rcx
	addq	%rax, %rcx
	movq	-24(%rbp), %rdi         # 8-byte Reload
	addl	(%rdi,%rcx,4), %edx
	movl	%edx, (%rdi,%rcx,4)
	addq	$1, %rax
	movq	%rax, %rcx
	addq	$100352, %rcx           # imm = 0x18800
	movl	-1612(%rbp), %edx       # 4-byte Reload
	imull	(%rsi,%rcx,4), %edx
	movq	-40(%rbp), %rcx         # 8-byte Reload
	shlq	$10, %rcx
	addq	%rax, %rcx
	addl	(%rdi,%rcx,4), %edx
	movl	%edx, (%rdi,%rcx,4)
	addq	$1, %rax
	movq	%rax, %rcx
	addq	$100352, %rcx           # imm = 0x18800
	movl	-1612(%rbp), %edx       # 4-byte Reload
	imull	(%rsi,%rcx,4), %edx
	movq	-40(%rbp), %rcx         # 8-byte Reload
	shlq	$10, %rcx
	addq	%rax, %rcx
	addl	(%rdi,%rcx,4), %edx
	movl	%edx, (%rdi,%rcx,4)
	addq	$1, %rax
	movq	%rax, %rcx
	addq	$100352, %rcx           # imm = 0x18800
	movl	-1612(%rbp), %edx       # 4-byte Reload
	imull	(%rsi,%rcx,4), %edx
	movq	-40(%rbp), %rcx         # 8-byte Reload
	shlq	$10, %rcx
	addq	%rax, %rcx
	addl	(%rdi,%rcx,4), %edx
	movl	%edx, (%rdi,%rcx,4)
	addq	$1, %rax
	cmpq	$256, %rax              # imm = 0x100
	movq	%rax, -1624(%rbp)       # 8-byte Spill
	jne	.LBB0_200
# %bb.201:                              # %for.inc17.98
                                        #   in Loop: Header=BB0_1 Depth=1
	xorl	%eax, %eax
	movl	%eax, %ecx
	movq	-40(%rbp), %rdx         # 8-byte Reload
	shlq	$10, %rdx
	movq	-8(%rbp), %rsi          # 8-byte Reload
	movl	396(%rsi,%rdx,4), %eax
	movl	%eax, -1628(%rbp)       # 4-byte Spill
	movq	%rcx, -1640(%rbp)       # 8-byte Spill
.LBB0_202:                              # %for.body6.99
                                        #   Parent Loop BB0_1 Depth=1
                                        # =>  This Inner Loop Header: Depth=2
	movq	-1640(%rbp), %rax       # 8-byte Reload
	movq	%rax, %rcx
	addq	$101376, %rcx           # imm = 0x18C00
	movl	-1628(%rbp), %edx       # 4-byte Reload
	movq	-16(%rbp), %rsi         # 8-byte Reload
	imull	(%rsi,%rcx,4), %edx
	movq	-40(%rbp), %rcx         # 8-byte Reload
	shlq	$10, %rcx
	addq	%rax, %rcx
	movq	-24(%rbp), %rdi         # 8-byte Reload
	addl	(%rdi,%rcx,4), %edx
	movl	%edx, (%rdi,%rcx,4)
	addq	$1, %rax
	movq	%rax, %rcx
	addq	$101376, %rcx           # imm = 0x18C00
	movl	-1628(%rbp), %edx       # 4-byte Reload
	imull	(%rsi,%rcx,4), %edx
	movq	-40(%rbp), %rcx         # 8-byte Reload
	shlq	$10, %rcx
	addq	%rax, %rcx
	addl	(%rdi,%rcx,4), %edx
	movl	%edx, (%rdi,%rcx,4)
	addq	$1, %rax
	movq	%rax, %rcx
	addq	$101376, %rcx           # imm = 0x18C00
	movl	-1628(%rbp), %edx       # 4-byte Reload
	imull	(%rsi,%rcx,4), %edx
	movq	-40(%rbp), %rcx         # 8-byte Reload
	shlq	$10, %rcx
	addq	%rax, %rcx
	addl	(%rdi,%rcx,4), %edx
	movl	%edx, (%rdi,%rcx,4)
	addq	$1, %rax
	movq	%rax, %rcx
	addq	$101376, %rcx           # imm = 0x18C00
	movl	-1628(%rbp), %edx       # 4-byte Reload
	imull	(%rsi,%rcx,4), %edx
	movq	-40(%rbp), %rcx         # 8-byte Reload
	shlq	$10, %rcx
	addq	%rax, %rcx
	addl	(%rdi,%rcx,4), %edx
	movl	%edx, (%rdi,%rcx,4)
	addq	$1, %rax
	cmpq	$256, %rax              # imm = 0x100
	movq	%rax, -1640(%rbp)       # 8-byte Spill
	jne	.LBB0_202
# %bb.203:                              # %for.inc17.99
                                        #   in Loop: Header=BB0_1 Depth=1
	xorl	%eax, %eax
	movl	%eax, %ecx
	movq	-40(%rbp), %rdx         # 8-byte Reload
	shlq	$10, %rdx
	movq	-8(%rbp), %rsi          # 8-byte Reload
	movl	400(%rsi,%rdx,4), %eax
	movl	%eax, -1644(%rbp)       # 4-byte Spill
	movq	%rcx, -1656(%rbp)       # 8-byte Spill
.LBB0_204:                              # %for.body6.100
                                        #   Parent Loop BB0_1 Depth=1
                                        # =>  This Inner Loop Header: Depth=2
	movq	-1656(%rbp), %rax       # 8-byte Reload
	movq	%rax, %rcx
	addq	$102400, %rcx           # imm = 0x19000
	movl	-1644(%rbp), %edx       # 4-byte Reload
	movq	-16(%rbp), %rsi         # 8-byte Reload
	imull	(%rsi,%rcx,4), %edx
	movq	-40(%rbp), %rcx         # 8-byte Reload
	shlq	$10, %rcx
	addq	%rax, %rcx
	movq	-24(%rbp), %rdi         # 8-byte Reload
	addl	(%rdi,%rcx,4), %edx
	movl	%edx, (%rdi,%rcx,4)
	addq	$1, %rax
	movq	%rax, %rcx
	addq	$102400, %rcx           # imm = 0x19000
	movl	-1644(%rbp), %edx       # 4-byte Reload
	imull	(%rsi,%rcx,4), %edx
	movq	-40(%rbp), %rcx         # 8-byte Reload
	shlq	$10, %rcx
	addq	%rax, %rcx
	addl	(%rdi,%rcx,4), %edx
	movl	%edx, (%rdi,%rcx,4)
	addq	$1, %rax
	movq	%rax, %rcx
	addq	$102400, %rcx           # imm = 0x19000
	movl	-1644(%rbp), %edx       # 4-byte Reload
	imull	(%rsi,%rcx,4), %edx
	movq	-40(%rbp), %rcx         # 8-byte Reload
	shlq	$10, %rcx
	addq	%rax, %rcx
	addl	(%rdi,%rcx,4), %edx
	movl	%edx, (%rdi,%rcx,4)
	addq	$1, %rax
	movq	%rax, %rcx
	addq	$102400, %rcx           # imm = 0x19000
	movl	-1644(%rbp), %edx       # 4-byte Reload
	imull	(%rsi,%rcx,4), %edx
	movq	-40(%rbp), %rcx         # 8-byte Reload
	shlq	$10, %rcx
	addq	%rax, %rcx
	addl	(%rdi,%rcx,4), %edx
	movl	%edx, (%rdi,%rcx,4)
	addq	$1, %rax
	cmpq	$256, %rax              # imm = 0x100
	movq	%rax, -1656(%rbp)       # 8-byte Spill
	jne	.LBB0_204
# %bb.205:                              # %for.inc17.100
                                        #   in Loop: Header=BB0_1 Depth=1
	xorl	%eax, %eax
	movl	%eax, %ecx
	movq	-40(%rbp), %rdx         # 8-byte Reload
	shlq	$10, %rdx
	movq	-8(%rbp), %rsi          # 8-byte Reload
	movl	404(%rsi,%rdx,4), %eax
	movl	%eax, -1660(%rbp)       # 4-byte Spill
	movq	%rcx, -1672(%rbp)       # 8-byte Spill
.LBB0_206:                              # %for.body6.101
                                        #   Parent Loop BB0_1 Depth=1
                                        # =>  This Inner Loop Header: Depth=2
	movq	-1672(%rbp), %rax       # 8-byte Reload
	movq	%rax, %rcx
	addq	$103424, %rcx           # imm = 0x19400
	movl	-1660(%rbp), %edx       # 4-byte Reload
	movq	-16(%rbp), %rsi         # 8-byte Reload
	imull	(%rsi,%rcx,4), %edx
	movq	-40(%rbp), %rcx         # 8-byte Reload
	shlq	$10, %rcx
	addq	%rax, %rcx
	movq	-24(%rbp), %rdi         # 8-byte Reload
	addl	(%rdi,%rcx,4), %edx
	movl	%edx, (%rdi,%rcx,4)
	addq	$1, %rax
	movq	%rax, %rcx
	addq	$103424, %rcx           # imm = 0x19400
	movl	-1660(%rbp), %edx       # 4-byte Reload
	imull	(%rsi,%rcx,4), %edx
	movq	-40(%rbp), %rcx         # 8-byte Reload
	shlq	$10, %rcx
	addq	%rax, %rcx
	addl	(%rdi,%rcx,4), %edx
	movl	%edx, (%rdi,%rcx,4)
	addq	$1, %rax
	movq	%rax, %rcx
	addq	$103424, %rcx           # imm = 0x19400
	movl	-1660(%rbp), %edx       # 4-byte Reload
	imull	(%rsi,%rcx,4), %edx
	movq	-40(%rbp), %rcx         # 8-byte Reload
	shlq	$10, %rcx
	addq	%rax, %rcx
	addl	(%rdi,%rcx,4), %edx
	movl	%edx, (%rdi,%rcx,4)
	addq	$1, %rax
	movq	%rax, %rcx
	addq	$103424, %rcx           # imm = 0x19400
	movl	-1660(%rbp), %edx       # 4-byte Reload
	imull	(%rsi,%rcx,4), %edx
	movq	-40(%rbp), %rcx         # 8-byte Reload
	shlq	$10, %rcx
	addq	%rax, %rcx
	addl	(%rdi,%rcx,4), %edx
	movl	%edx, (%rdi,%rcx,4)
	addq	$1, %rax
	cmpq	$256, %rax              # imm = 0x100
	movq	%rax, -1672(%rbp)       # 8-byte Spill
	jne	.LBB0_206
# %bb.207:                              # %for.inc17.101
                                        #   in Loop: Header=BB0_1 Depth=1
	xorl	%eax, %eax
	movl	%eax, %ecx
	movq	-40(%rbp), %rdx         # 8-byte Reload
	shlq	$10, %rdx
	movq	-8(%rbp), %rsi          # 8-byte Reload
	movl	408(%rsi,%rdx,4), %eax
	movl	%eax, -1676(%rbp)       # 4-byte Spill
	movq	%rcx, -1688(%rbp)       # 8-byte Spill
.LBB0_208:                              # %for.body6.102
                                        #   Parent Loop BB0_1 Depth=1
                                        # =>  This Inner Loop Header: Depth=2
	movq	-1688(%rbp), %rax       # 8-byte Reload
	movq	%rax, %rcx
	addq	$104448, %rcx           # imm = 0x19800
	movl	-1676(%rbp), %edx       # 4-byte Reload
	movq	-16(%rbp), %rsi         # 8-byte Reload
	imull	(%rsi,%rcx,4), %edx
	movq	-40(%rbp), %rcx         # 8-byte Reload
	shlq	$10, %rcx
	addq	%rax, %rcx
	movq	-24(%rbp), %rdi         # 8-byte Reload
	addl	(%rdi,%rcx,4), %edx
	movl	%edx, (%rdi,%rcx,4)
	addq	$1, %rax
	movq	%rax, %rcx
	addq	$104448, %rcx           # imm = 0x19800
	movl	-1676(%rbp), %edx       # 4-byte Reload
	imull	(%rsi,%rcx,4), %edx
	movq	-40(%rbp), %rcx         # 8-byte Reload
	shlq	$10, %rcx
	addq	%rax, %rcx
	addl	(%rdi,%rcx,4), %edx
	movl	%edx, (%rdi,%rcx,4)
	addq	$1, %rax
	movq	%rax, %rcx
	addq	$104448, %rcx           # imm = 0x19800
	movl	-1676(%rbp), %edx       # 4-byte Reload
	imull	(%rsi,%rcx,4), %edx
	movq	-40(%rbp), %rcx         # 8-byte Reload
	shlq	$10, %rcx
	addq	%rax, %rcx
	addl	(%rdi,%rcx,4), %edx
	movl	%edx, (%rdi,%rcx,4)
	addq	$1, %rax
	movq	%rax, %rcx
	addq	$104448, %rcx           # imm = 0x19800
	movl	-1676(%rbp), %edx       # 4-byte Reload
	imull	(%rsi,%rcx,4), %edx
	movq	-40(%rbp), %rcx         # 8-byte Reload
	shlq	$10, %rcx
	addq	%rax, %rcx
	addl	(%rdi,%rcx,4), %edx
	movl	%edx, (%rdi,%rcx,4)
	addq	$1, %rax
	cmpq	$256, %rax              # imm = 0x100
	movq	%rax, -1688(%rbp)       # 8-byte Spill
	jne	.LBB0_208
# %bb.209:                              # %for.inc17.102
                                        #   in Loop: Header=BB0_1 Depth=1
	xorl	%eax, %eax
	movl	%eax, %ecx
	movq	-40(%rbp), %rdx         # 8-byte Reload
	shlq	$10, %rdx
	movq	-8(%rbp), %rsi          # 8-byte Reload
	movl	412(%rsi,%rdx,4), %eax
	movl	%eax, -1692(%rbp)       # 4-byte Spill
	movq	%rcx, -1704(%rbp)       # 8-byte Spill
.LBB0_210:                              # %for.body6.103
                                        #   Parent Loop BB0_1 Depth=1
                                        # =>  This Inner Loop Header: Depth=2
	movq	-1704(%rbp), %rax       # 8-byte Reload
	movq	%rax, %rcx
	addq	$105472, %rcx           # imm = 0x19C00
	movl	-1692(%rbp), %edx       # 4-byte Reload
	movq	-16(%rbp), %rsi         # 8-byte Reload
	imull	(%rsi,%rcx,4), %edx
	movq	-40(%rbp), %rcx         # 8-byte Reload
	shlq	$10, %rcx
	addq	%rax, %rcx
	movq	-24(%rbp), %rdi         # 8-byte Reload
	addl	(%rdi,%rcx,4), %edx
	movl	%edx, (%rdi,%rcx,4)
	addq	$1, %rax
	movq	%rax, %rcx
	addq	$105472, %rcx           # imm = 0x19C00
	movl	-1692(%rbp), %edx       # 4-byte Reload
	imull	(%rsi,%rcx,4), %edx
	movq	-40(%rbp), %rcx         # 8-byte Reload
	shlq	$10, %rcx
	addq	%rax, %rcx
	addl	(%rdi,%rcx,4), %edx
	movl	%edx, (%rdi,%rcx,4)
	addq	$1, %rax
	movq	%rax, %rcx
	addq	$105472, %rcx           # imm = 0x19C00
	movl	-1692(%rbp), %edx       # 4-byte Reload
	imull	(%rsi,%rcx,4), %edx
	movq	-40(%rbp), %rcx         # 8-byte Reload
	shlq	$10, %rcx
	addq	%rax, %rcx
	addl	(%rdi,%rcx,4), %edx
	movl	%edx, (%rdi,%rcx,4)
	addq	$1, %rax
	movq	%rax, %rcx
	addq	$105472, %rcx           # imm = 0x19C00
	movl	-1692(%rbp), %edx       # 4-byte Reload
	imull	(%rsi,%rcx,4), %edx
	movq	-40(%rbp), %rcx         # 8-byte Reload
	shlq	$10, %rcx
	addq	%rax, %rcx
	addl	(%rdi,%rcx,4), %edx
	movl	%edx, (%rdi,%rcx,4)
	addq	$1, %rax
	cmpq	$256, %rax              # imm = 0x100
	movq	%rax, -1704(%rbp)       # 8-byte Spill
	jne	.LBB0_210
# %bb.211:                              # %for.inc17.103
                                        #   in Loop: Header=BB0_1 Depth=1
	xorl	%eax, %eax
	movl	%eax, %ecx
	movq	-40(%rbp), %rdx         # 8-byte Reload
	shlq	$10, %rdx
	movq	-8(%rbp), %rsi          # 8-byte Reload
	movl	416(%rsi,%rdx,4), %eax
	movl	%eax, -1708(%rbp)       # 4-byte Spill
	movq	%rcx, -1720(%rbp)       # 8-byte Spill
.LBB0_212:                              # %for.body6.104
                                        #   Parent Loop BB0_1 Depth=1
                                        # =>  This Inner Loop Header: Depth=2
	movq	-1720(%rbp), %rax       # 8-byte Reload
	movq	%rax, %rcx
	addq	$106496, %rcx           # imm = 0x1A000
	movl	-1708(%rbp), %edx       # 4-byte Reload
	movq	-16(%rbp), %rsi         # 8-byte Reload
	imull	(%rsi,%rcx,4), %edx
	movq	-40(%rbp), %rcx         # 8-byte Reload
	shlq	$10, %rcx
	addq	%rax, %rcx
	movq	-24(%rbp), %rdi         # 8-byte Reload
	addl	(%rdi,%rcx,4), %edx
	movl	%edx, (%rdi,%rcx,4)
	addq	$1, %rax
	movq	%rax, %rcx
	addq	$106496, %rcx           # imm = 0x1A000
	movl	-1708(%rbp), %edx       # 4-byte Reload
	imull	(%rsi,%rcx,4), %edx
	movq	-40(%rbp), %rcx         # 8-byte Reload
	shlq	$10, %rcx
	addq	%rax, %rcx
	addl	(%rdi,%rcx,4), %edx
	movl	%edx, (%rdi,%rcx,4)
	addq	$1, %rax
	movq	%rax, %rcx
	addq	$106496, %rcx           # imm = 0x1A000
	movl	-1708(%rbp), %edx       # 4-byte Reload
	imull	(%rsi,%rcx,4), %edx
	movq	-40(%rbp), %rcx         # 8-byte Reload
	shlq	$10, %rcx
	addq	%rax, %rcx
	addl	(%rdi,%rcx,4), %edx
	movl	%edx, (%rdi,%rcx,4)
	addq	$1, %rax
	movq	%rax, %rcx
	addq	$106496, %rcx           # imm = 0x1A000
	movl	-1708(%rbp), %edx       # 4-byte Reload
	imull	(%rsi,%rcx,4), %edx
	movq	-40(%rbp), %rcx         # 8-byte Reload
	shlq	$10, %rcx
	addq	%rax, %rcx
	addl	(%rdi,%rcx,4), %edx
	movl	%edx, (%rdi,%rcx,4)
	addq	$1, %rax
	cmpq	$256, %rax              # imm = 0x100
	movq	%rax, -1720(%rbp)       # 8-byte Spill
	jne	.LBB0_212
# %bb.213:                              # %for.inc17.104
                                        #   in Loop: Header=BB0_1 Depth=1
	xorl	%eax, %eax
	movl	%eax, %ecx
	movq	-40(%rbp), %rdx         # 8-byte Reload
	shlq	$10, %rdx
	movq	-8(%rbp), %rsi          # 8-byte Reload
	movl	420(%rsi,%rdx,4), %eax
	movl	%eax, -1724(%rbp)       # 4-byte Spill
	movq	%rcx, -1736(%rbp)       # 8-byte Spill
.LBB0_214:                              # %for.body6.105
                                        #   Parent Loop BB0_1 Depth=1
                                        # =>  This Inner Loop Header: Depth=2
	movq	-1736(%rbp), %rax       # 8-byte Reload
	movq	%rax, %rcx
	addq	$107520, %rcx           # imm = 0x1A400
	movl	-1724(%rbp), %edx       # 4-byte Reload
	movq	-16(%rbp), %rsi         # 8-byte Reload
	imull	(%rsi,%rcx,4), %edx
	movq	-40(%rbp), %rcx         # 8-byte Reload
	shlq	$10, %rcx
	addq	%rax, %rcx
	movq	-24(%rbp), %rdi         # 8-byte Reload
	addl	(%rdi,%rcx,4), %edx
	movl	%edx, (%rdi,%rcx,4)
	addq	$1, %rax
	movq	%rax, %rcx
	addq	$107520, %rcx           # imm = 0x1A400
	movl	-1724(%rbp), %edx       # 4-byte Reload
	imull	(%rsi,%rcx,4), %edx
	movq	-40(%rbp), %rcx         # 8-byte Reload
	shlq	$10, %rcx
	addq	%rax, %rcx
	addl	(%rdi,%rcx,4), %edx
	movl	%edx, (%rdi,%rcx,4)
	addq	$1, %rax
	movq	%rax, %rcx
	addq	$107520, %rcx           # imm = 0x1A400
	movl	-1724(%rbp), %edx       # 4-byte Reload
	imull	(%rsi,%rcx,4), %edx
	movq	-40(%rbp), %rcx         # 8-byte Reload
	shlq	$10, %rcx
	addq	%rax, %rcx
	addl	(%rdi,%rcx,4), %edx
	movl	%edx, (%rdi,%rcx,4)
	addq	$1, %rax
	movq	%rax, %rcx
	addq	$107520, %rcx           # imm = 0x1A400
	movl	-1724(%rbp), %edx       # 4-byte Reload
	imull	(%rsi,%rcx,4), %edx
	movq	-40(%rbp), %rcx         # 8-byte Reload
	shlq	$10, %rcx
	addq	%rax, %rcx
	addl	(%rdi,%rcx,4), %edx
	movl	%edx, (%rdi,%rcx,4)
	addq	$1, %rax
	cmpq	$256, %rax              # imm = 0x100
	movq	%rax, -1736(%rbp)       # 8-byte Spill
	jne	.LBB0_214
# %bb.215:                              # %for.inc17.105
                                        #   in Loop: Header=BB0_1 Depth=1
	xorl	%eax, %eax
	movl	%eax, %ecx
	movq	-40(%rbp), %rdx         # 8-byte Reload
	shlq	$10, %rdx
	movq	-8(%rbp), %rsi          # 8-byte Reload
	movl	424(%rsi,%rdx,4), %eax
	movl	%eax, -1740(%rbp)       # 4-byte Spill
	movq	%rcx, -1752(%rbp)       # 8-byte Spill
.LBB0_216:                              # %for.body6.106
                                        #   Parent Loop BB0_1 Depth=1
                                        # =>  This Inner Loop Header: Depth=2
	movq	-1752(%rbp), %rax       # 8-byte Reload
	movq	%rax, %rcx
	addq	$108544, %rcx           # imm = 0x1A800
	movl	-1740(%rbp), %edx       # 4-byte Reload
	movq	-16(%rbp), %rsi         # 8-byte Reload
	imull	(%rsi,%rcx,4), %edx
	movq	-40(%rbp), %rcx         # 8-byte Reload
	shlq	$10, %rcx
	addq	%rax, %rcx
	movq	-24(%rbp), %rdi         # 8-byte Reload
	addl	(%rdi,%rcx,4), %edx
	movl	%edx, (%rdi,%rcx,4)
	addq	$1, %rax
	movq	%rax, %rcx
	addq	$108544, %rcx           # imm = 0x1A800
	movl	-1740(%rbp), %edx       # 4-byte Reload
	imull	(%rsi,%rcx,4), %edx
	movq	-40(%rbp), %rcx         # 8-byte Reload
	shlq	$10, %rcx
	addq	%rax, %rcx
	addl	(%rdi,%rcx,4), %edx
	movl	%edx, (%rdi,%rcx,4)
	addq	$1, %rax
	movq	%rax, %rcx
	addq	$108544, %rcx           # imm = 0x1A800
	movl	-1740(%rbp), %edx       # 4-byte Reload
	imull	(%rsi,%rcx,4), %edx
	movq	-40(%rbp), %rcx         # 8-byte Reload
	shlq	$10, %rcx
	addq	%rax, %rcx
	addl	(%rdi,%rcx,4), %edx
	movl	%edx, (%rdi,%rcx,4)
	addq	$1, %rax
	movq	%rax, %rcx
	addq	$108544, %rcx           # imm = 0x1A800
	movl	-1740(%rbp), %edx       # 4-byte Reload
	imull	(%rsi,%rcx,4), %edx
	movq	-40(%rbp), %rcx         # 8-byte Reload
	shlq	$10, %rcx
	addq	%rax, %rcx
	addl	(%rdi,%rcx,4), %edx
	movl	%edx, (%rdi,%rcx,4)
	addq	$1, %rax
	cmpq	$256, %rax              # imm = 0x100
	movq	%rax, -1752(%rbp)       # 8-byte Spill
	jne	.LBB0_216
# %bb.217:                              # %for.inc17.106
                                        #   in Loop: Header=BB0_1 Depth=1
	xorl	%eax, %eax
	movl	%eax, %ecx
	movq	-40(%rbp), %rdx         # 8-byte Reload
	shlq	$10, %rdx
	movq	-8(%rbp), %rsi          # 8-byte Reload
	movl	428(%rsi,%rdx,4), %eax
	movl	%eax, -1756(%rbp)       # 4-byte Spill
	movq	%rcx, -1768(%rbp)       # 8-byte Spill
.LBB0_218:                              # %for.body6.107
                                        #   Parent Loop BB0_1 Depth=1
                                        # =>  This Inner Loop Header: Depth=2
	movq	-1768(%rbp), %rax       # 8-byte Reload
	movq	%rax, %rcx
	addq	$109568, %rcx           # imm = 0x1AC00
	movl	-1756(%rbp), %edx       # 4-byte Reload
	movq	-16(%rbp), %rsi         # 8-byte Reload
	imull	(%rsi,%rcx,4), %edx
	movq	-40(%rbp), %rcx         # 8-byte Reload
	shlq	$10, %rcx
	addq	%rax, %rcx
	movq	-24(%rbp), %rdi         # 8-byte Reload
	addl	(%rdi,%rcx,4), %edx
	movl	%edx, (%rdi,%rcx,4)
	addq	$1, %rax
	movq	%rax, %rcx
	addq	$109568, %rcx           # imm = 0x1AC00
	movl	-1756(%rbp), %edx       # 4-byte Reload
	imull	(%rsi,%rcx,4), %edx
	movq	-40(%rbp), %rcx         # 8-byte Reload
	shlq	$10, %rcx
	addq	%rax, %rcx
	addl	(%rdi,%rcx,4), %edx
	movl	%edx, (%rdi,%rcx,4)
	addq	$1, %rax
	movq	%rax, %rcx
	addq	$109568, %rcx           # imm = 0x1AC00
	movl	-1756(%rbp), %edx       # 4-byte Reload
	imull	(%rsi,%rcx,4), %edx
	movq	-40(%rbp), %rcx         # 8-byte Reload
	shlq	$10, %rcx
	addq	%rax, %rcx
	addl	(%rdi,%rcx,4), %edx
	movl	%edx, (%rdi,%rcx,4)
	addq	$1, %rax
	movq	%rax, %rcx
	addq	$109568, %rcx           # imm = 0x1AC00
	movl	-1756(%rbp), %edx       # 4-byte Reload
	imull	(%rsi,%rcx,4), %edx
	movq	-40(%rbp), %rcx         # 8-byte Reload
	shlq	$10, %rcx
	addq	%rax, %rcx
	addl	(%rdi,%rcx,4), %edx
	movl	%edx, (%rdi,%rcx,4)
	addq	$1, %rax
	cmpq	$256, %rax              # imm = 0x100
	movq	%rax, -1768(%rbp)       # 8-byte Spill
	jne	.LBB0_218
# %bb.219:                              # %for.inc17.107
                                        #   in Loop: Header=BB0_1 Depth=1
	xorl	%eax, %eax
	movl	%eax, %ecx
	movq	-40(%rbp), %rdx         # 8-byte Reload
	shlq	$10, %rdx
	movq	-8(%rbp), %rsi          # 8-byte Reload
	movl	432(%rsi,%rdx,4), %eax
	movl	%eax, -1772(%rbp)       # 4-byte Spill
	movq	%rcx, -1784(%rbp)       # 8-byte Spill
.LBB0_220:                              # %for.body6.108
                                        #   Parent Loop BB0_1 Depth=1
                                        # =>  This Inner Loop Header: Depth=2
	movq	-1784(%rbp), %rax       # 8-byte Reload
	movq	%rax, %rcx
	addq	$110592, %rcx           # imm = 0x1B000
	movl	-1772(%rbp), %edx       # 4-byte Reload
	movq	-16(%rbp), %rsi         # 8-byte Reload
	imull	(%rsi,%rcx,4), %edx
	movq	-40(%rbp), %rcx         # 8-byte Reload
	shlq	$10, %rcx
	addq	%rax, %rcx
	movq	-24(%rbp), %rdi         # 8-byte Reload
	addl	(%rdi,%rcx,4), %edx
	movl	%edx, (%rdi,%rcx,4)
	addq	$1, %rax
	movq	%rax, %rcx
	addq	$110592, %rcx           # imm = 0x1B000
	movl	-1772(%rbp), %edx       # 4-byte Reload
	imull	(%rsi,%rcx,4), %edx
	movq	-40(%rbp), %rcx         # 8-byte Reload
	shlq	$10, %rcx
	addq	%rax, %rcx
	addl	(%rdi,%rcx,4), %edx
	movl	%edx, (%rdi,%rcx,4)
	addq	$1, %rax
	movq	%rax, %rcx
	addq	$110592, %rcx           # imm = 0x1B000
	movl	-1772(%rbp), %edx       # 4-byte Reload
	imull	(%rsi,%rcx,4), %edx
	movq	-40(%rbp), %rcx         # 8-byte Reload
	shlq	$10, %rcx
	addq	%rax, %rcx
	addl	(%rdi,%rcx,4), %edx
	movl	%edx, (%rdi,%rcx,4)
	addq	$1, %rax
	movq	%rax, %rcx
	addq	$110592, %rcx           # imm = 0x1B000
	movl	-1772(%rbp), %edx       # 4-byte Reload
	imull	(%rsi,%rcx,4), %edx
	movq	-40(%rbp), %rcx         # 8-byte Reload
	shlq	$10, %rcx
	addq	%rax, %rcx
	addl	(%rdi,%rcx,4), %edx
	movl	%edx, (%rdi,%rcx,4)
	addq	$1, %rax
	cmpq	$256, %rax              # imm = 0x100
	movq	%rax, -1784(%rbp)       # 8-byte Spill
	jne	.LBB0_220
# %bb.221:                              # %for.inc17.108
                                        #   in Loop: Header=BB0_1 Depth=1
	xorl	%eax, %eax
	movl	%eax, %ecx
	movq	-40(%rbp), %rdx         # 8-byte Reload
	shlq	$10, %rdx
	movq	-8(%rbp), %rsi          # 8-byte Reload
	movl	436(%rsi,%rdx,4), %eax
	movl	%eax, -1788(%rbp)       # 4-byte Spill
	movq	%rcx, -1800(%rbp)       # 8-byte Spill
.LBB0_222:                              # %for.body6.109
                                        #   Parent Loop BB0_1 Depth=1
                                        # =>  This Inner Loop Header: Depth=2
	movq	-1800(%rbp), %rax       # 8-byte Reload
	movq	%rax, %rcx
	addq	$111616, %rcx           # imm = 0x1B400
	movl	-1788(%rbp), %edx       # 4-byte Reload
	movq	-16(%rbp), %rsi         # 8-byte Reload
	imull	(%rsi,%rcx,4), %edx
	movq	-40(%rbp), %rcx         # 8-byte Reload
	shlq	$10, %rcx
	addq	%rax, %rcx
	movq	-24(%rbp), %rdi         # 8-byte Reload
	addl	(%rdi,%rcx,4), %edx
	movl	%edx, (%rdi,%rcx,4)
	addq	$1, %rax
	movq	%rax, %rcx
	addq	$111616, %rcx           # imm = 0x1B400
	movl	-1788(%rbp), %edx       # 4-byte Reload
	imull	(%rsi,%rcx,4), %edx
	movq	-40(%rbp), %rcx         # 8-byte Reload
	shlq	$10, %rcx
	addq	%rax, %rcx
	addl	(%rdi,%rcx,4), %edx
	movl	%edx, (%rdi,%rcx,4)
	addq	$1, %rax
	movq	%rax, %rcx
	addq	$111616, %rcx           # imm = 0x1B400
	movl	-1788(%rbp), %edx       # 4-byte Reload
	imull	(%rsi,%rcx,4), %edx
	movq	-40(%rbp), %rcx         # 8-byte Reload
	shlq	$10, %rcx
	addq	%rax, %rcx
	addl	(%rdi,%rcx,4), %edx
	movl	%edx, (%rdi,%rcx,4)
	addq	$1, %rax
	movq	%rax, %rcx
	addq	$111616, %rcx           # imm = 0x1B400
	movl	-1788(%rbp), %edx       # 4-byte Reload
	imull	(%rsi,%rcx,4), %edx
	movq	-40(%rbp), %rcx         # 8-byte Reload
	shlq	$10, %rcx
	addq	%rax, %rcx
	addl	(%rdi,%rcx,4), %edx
	movl	%edx, (%rdi,%rcx,4)
	addq	$1, %rax
	cmpq	$256, %rax              # imm = 0x100
	movq	%rax, -1800(%rbp)       # 8-byte Spill
	jne	.LBB0_222
# %bb.223:                              # %for.inc17.109
                                        #   in Loop: Header=BB0_1 Depth=1
	xorl	%eax, %eax
	movl	%eax, %ecx
	movq	-40(%rbp), %rdx         # 8-byte Reload
	shlq	$10, %rdx
	movq	-8(%rbp), %rsi          # 8-byte Reload
	movl	440(%rsi,%rdx,4), %eax
	movl	%eax, -1804(%rbp)       # 4-byte Spill
	movq	%rcx, -1816(%rbp)       # 8-byte Spill
.LBB0_224:                              # %for.body6.110
                                        #   Parent Loop BB0_1 Depth=1
                                        # =>  This Inner Loop Header: Depth=2
	movq	-1816(%rbp), %rax       # 8-byte Reload
	movq	%rax, %rcx
	addq	$112640, %rcx           # imm = 0x1B800
	movl	-1804(%rbp), %edx       # 4-byte Reload
	movq	-16(%rbp), %rsi         # 8-byte Reload
	imull	(%rsi,%rcx,4), %edx
	movq	-40(%rbp), %rcx         # 8-byte Reload
	shlq	$10, %rcx
	addq	%rax, %rcx
	movq	-24(%rbp), %rdi         # 8-byte Reload
	addl	(%rdi,%rcx,4), %edx
	movl	%edx, (%rdi,%rcx,4)
	addq	$1, %rax
	movq	%rax, %rcx
	addq	$112640, %rcx           # imm = 0x1B800
	movl	-1804(%rbp), %edx       # 4-byte Reload
	imull	(%rsi,%rcx,4), %edx
	movq	-40(%rbp), %rcx         # 8-byte Reload
	shlq	$10, %rcx
	addq	%rax, %rcx
	addl	(%rdi,%rcx,4), %edx
	movl	%edx, (%rdi,%rcx,4)
	addq	$1, %rax
	movq	%rax, %rcx
	addq	$112640, %rcx           # imm = 0x1B800
	movl	-1804(%rbp), %edx       # 4-byte Reload
	imull	(%rsi,%rcx,4), %edx
	movq	-40(%rbp), %rcx         # 8-byte Reload
	shlq	$10, %rcx
	addq	%rax, %rcx
	addl	(%rdi,%rcx,4), %edx
	movl	%edx, (%rdi,%rcx,4)
	addq	$1, %rax
	movq	%rax, %rcx
	addq	$112640, %rcx           # imm = 0x1B800
	movl	-1804(%rbp), %edx       # 4-byte Reload
	imull	(%rsi,%rcx,4), %edx
	movq	-40(%rbp), %rcx         # 8-byte Reload
	shlq	$10, %rcx
	addq	%rax, %rcx
	addl	(%rdi,%rcx,4), %edx
	movl	%edx, (%rdi,%rcx,4)
	addq	$1, %rax
	cmpq	$256, %rax              # imm = 0x100
	movq	%rax, -1816(%rbp)       # 8-byte Spill
	jne	.LBB0_224
# %bb.225:                              # %for.inc17.110
                                        #   in Loop: Header=BB0_1 Depth=1
	xorl	%eax, %eax
	movl	%eax, %ecx
	movq	-40(%rbp), %rdx         # 8-byte Reload
	shlq	$10, %rdx
	movq	-8(%rbp), %rsi          # 8-byte Reload
	movl	444(%rsi,%rdx,4), %eax
	movl	%eax, -1820(%rbp)       # 4-byte Spill
	movq	%rcx, -1832(%rbp)       # 8-byte Spill
.LBB0_226:                              # %for.body6.111
                                        #   Parent Loop BB0_1 Depth=1
                                        # =>  This Inner Loop Header: Depth=2
	movq	-1832(%rbp), %rax       # 8-byte Reload
	movq	%rax, %rcx
	addq	$113664, %rcx           # imm = 0x1BC00
	movl	-1820(%rbp), %edx       # 4-byte Reload
	movq	-16(%rbp), %rsi         # 8-byte Reload
	imull	(%rsi,%rcx,4), %edx
	movq	-40(%rbp), %rcx         # 8-byte Reload
	shlq	$10, %rcx
	addq	%rax, %rcx
	movq	-24(%rbp), %rdi         # 8-byte Reload
	addl	(%rdi,%rcx,4), %edx
	movl	%edx, (%rdi,%rcx,4)
	addq	$1, %rax
	movq	%rax, %rcx
	addq	$113664, %rcx           # imm = 0x1BC00
	movl	-1820(%rbp), %edx       # 4-byte Reload
	imull	(%rsi,%rcx,4), %edx
	movq	-40(%rbp), %rcx         # 8-byte Reload
	shlq	$10, %rcx
	addq	%rax, %rcx
	addl	(%rdi,%rcx,4), %edx
	movl	%edx, (%rdi,%rcx,4)
	addq	$1, %rax
	movq	%rax, %rcx
	addq	$113664, %rcx           # imm = 0x1BC00
	movl	-1820(%rbp), %edx       # 4-byte Reload
	imull	(%rsi,%rcx,4), %edx
	movq	-40(%rbp), %rcx         # 8-byte Reload
	shlq	$10, %rcx
	addq	%rax, %rcx
	addl	(%rdi,%rcx,4), %edx
	movl	%edx, (%rdi,%rcx,4)
	addq	$1, %rax
	movq	%rax, %rcx
	addq	$113664, %rcx           # imm = 0x1BC00
	movl	-1820(%rbp), %edx       # 4-byte Reload
	imull	(%rsi,%rcx,4), %edx
	movq	-40(%rbp), %rcx         # 8-byte Reload
	shlq	$10, %rcx
	addq	%rax, %rcx
	addl	(%rdi,%rcx,4), %edx
	movl	%edx, (%rdi,%rcx,4)
	addq	$1, %rax
	cmpq	$256, %rax              # imm = 0x100
	movq	%rax, -1832(%rbp)       # 8-byte Spill
	jne	.LBB0_226
# %bb.227:                              # %for.inc17.111
                                        #   in Loop: Header=BB0_1 Depth=1
	xorl	%eax, %eax
	movl	%eax, %ecx
	movq	-40(%rbp), %rdx         # 8-byte Reload
	shlq	$10, %rdx
	movq	-8(%rbp), %rsi          # 8-byte Reload
	movl	448(%rsi,%rdx,4), %eax
	movl	%eax, -1836(%rbp)       # 4-byte Spill
	movq	%rcx, -1848(%rbp)       # 8-byte Spill
.LBB0_228:                              # %for.body6.112
                                        #   Parent Loop BB0_1 Depth=1
                                        # =>  This Inner Loop Header: Depth=2
	movq	-1848(%rbp), %rax       # 8-byte Reload
	movq	%rax, %rcx
	addq	$114688, %rcx           # imm = 0x1C000
	movl	-1836(%rbp), %edx       # 4-byte Reload
	movq	-16(%rbp), %rsi         # 8-byte Reload
	imull	(%rsi,%rcx,4), %edx
	movq	-40(%rbp), %rcx         # 8-byte Reload
	shlq	$10, %rcx
	addq	%rax, %rcx
	movq	-24(%rbp), %rdi         # 8-byte Reload
	addl	(%rdi,%rcx,4), %edx
	movl	%edx, (%rdi,%rcx,4)
	addq	$1, %rax
	movq	%rax, %rcx
	addq	$114688, %rcx           # imm = 0x1C000
	movl	-1836(%rbp), %edx       # 4-byte Reload
	imull	(%rsi,%rcx,4), %edx
	movq	-40(%rbp), %rcx         # 8-byte Reload
	shlq	$10, %rcx
	addq	%rax, %rcx
	addl	(%rdi,%rcx,4), %edx
	movl	%edx, (%rdi,%rcx,4)
	addq	$1, %rax
	movq	%rax, %rcx
	addq	$114688, %rcx           # imm = 0x1C000
	movl	-1836(%rbp), %edx       # 4-byte Reload
	imull	(%rsi,%rcx,4), %edx
	movq	-40(%rbp), %rcx         # 8-byte Reload
	shlq	$10, %rcx
	addq	%rax, %rcx
	addl	(%rdi,%rcx,4), %edx
	movl	%edx, (%rdi,%rcx,4)
	addq	$1, %rax
	movq	%rax, %rcx
	addq	$114688, %rcx           # imm = 0x1C000
	movl	-1836(%rbp), %edx       # 4-byte Reload
	imull	(%rsi,%rcx,4), %edx
	movq	-40(%rbp), %rcx         # 8-byte Reload
	shlq	$10, %rcx
	addq	%rax, %rcx
	addl	(%rdi,%rcx,4), %edx
	movl	%edx, (%rdi,%rcx,4)
	addq	$1, %rax
	cmpq	$256, %rax              # imm = 0x100
	movq	%rax, -1848(%rbp)       # 8-byte Spill
	jne	.LBB0_228
# %bb.229:                              # %for.inc17.112
                                        #   in Loop: Header=BB0_1 Depth=1
	xorl	%eax, %eax
	movl	%eax, %ecx
	movq	-40(%rbp), %rdx         # 8-byte Reload
	shlq	$10, %rdx
	movq	-8(%rbp), %rsi          # 8-byte Reload
	movl	452(%rsi,%rdx,4), %eax
	movl	%eax, -1852(%rbp)       # 4-byte Spill
	movq	%rcx, -1864(%rbp)       # 8-byte Spill
.LBB0_230:                              # %for.body6.113
                                        #   Parent Loop BB0_1 Depth=1
                                        # =>  This Inner Loop Header: Depth=2
	movq	-1864(%rbp), %rax       # 8-byte Reload
	movq	%rax, %rcx
	addq	$115712, %rcx           # imm = 0x1C400
	movl	-1852(%rbp), %edx       # 4-byte Reload
	movq	-16(%rbp), %rsi         # 8-byte Reload
	imull	(%rsi,%rcx,4), %edx
	movq	-40(%rbp), %rcx         # 8-byte Reload
	shlq	$10, %rcx
	addq	%rax, %rcx
	movq	-24(%rbp), %rdi         # 8-byte Reload
	addl	(%rdi,%rcx,4), %edx
	movl	%edx, (%rdi,%rcx,4)
	addq	$1, %rax
	movq	%rax, %rcx
	addq	$115712, %rcx           # imm = 0x1C400
	movl	-1852(%rbp), %edx       # 4-byte Reload
	imull	(%rsi,%rcx,4), %edx
	movq	-40(%rbp), %rcx         # 8-byte Reload
	shlq	$10, %rcx
	addq	%rax, %rcx
	addl	(%rdi,%rcx,4), %edx
	movl	%edx, (%rdi,%rcx,4)
	addq	$1, %rax
	movq	%rax, %rcx
	addq	$115712, %rcx           # imm = 0x1C400
	movl	-1852(%rbp), %edx       # 4-byte Reload
	imull	(%rsi,%rcx,4), %edx
	movq	-40(%rbp), %rcx         # 8-byte Reload
	shlq	$10, %rcx
	addq	%rax, %rcx
	addl	(%rdi,%rcx,4), %edx
	movl	%edx, (%rdi,%rcx,4)
	addq	$1, %rax
	movq	%rax, %rcx
	addq	$115712, %rcx           # imm = 0x1C400
	movl	-1852(%rbp), %edx       # 4-byte Reload
	imull	(%rsi,%rcx,4), %edx
	movq	-40(%rbp), %rcx         # 8-byte Reload
	shlq	$10, %rcx
	addq	%rax, %rcx
	addl	(%rdi,%rcx,4), %edx
	movl	%edx, (%rdi,%rcx,4)
	addq	$1, %rax
	cmpq	$256, %rax              # imm = 0x100
	movq	%rax, -1864(%rbp)       # 8-byte Spill
	jne	.LBB0_230
# %bb.231:                              # %for.inc17.113
                                        #   in Loop: Header=BB0_1 Depth=1
	xorl	%eax, %eax
	movl	%eax, %ecx
	movq	-40(%rbp), %rdx         # 8-byte Reload
	shlq	$10, %rdx
	movq	-8(%rbp), %rsi          # 8-byte Reload
	movl	456(%rsi,%rdx,4), %eax
	movl	%eax, -1868(%rbp)       # 4-byte Spill
	movq	%rcx, -1880(%rbp)       # 8-byte Spill
.LBB0_232:                              # %for.body6.114
                                        #   Parent Loop BB0_1 Depth=1
                                        # =>  This Inner Loop Header: Depth=2
	movq	-1880(%rbp), %rax       # 8-byte Reload
	movq	%rax, %rcx
	addq	$116736, %rcx           # imm = 0x1C800
	movl	-1868(%rbp), %edx       # 4-byte Reload
	movq	-16(%rbp), %rsi         # 8-byte Reload
	imull	(%rsi,%rcx,4), %edx
	movq	-40(%rbp), %rcx         # 8-byte Reload
	shlq	$10, %rcx
	addq	%rax, %rcx
	movq	-24(%rbp), %rdi         # 8-byte Reload
	addl	(%rdi,%rcx,4), %edx
	movl	%edx, (%rdi,%rcx,4)
	addq	$1, %rax
	movq	%rax, %rcx
	addq	$116736, %rcx           # imm = 0x1C800
	movl	-1868(%rbp), %edx       # 4-byte Reload
	imull	(%rsi,%rcx,4), %edx
	movq	-40(%rbp), %rcx         # 8-byte Reload
	shlq	$10, %rcx
	addq	%rax, %rcx
	addl	(%rdi,%rcx,4), %edx
	movl	%edx, (%rdi,%rcx,4)
	addq	$1, %rax
	movq	%rax, %rcx
	addq	$116736, %rcx           # imm = 0x1C800
	movl	-1868(%rbp), %edx       # 4-byte Reload
	imull	(%rsi,%rcx,4), %edx
	movq	-40(%rbp), %rcx         # 8-byte Reload
	shlq	$10, %rcx
	addq	%rax, %rcx
	addl	(%rdi,%rcx,4), %edx
	movl	%edx, (%rdi,%rcx,4)
	addq	$1, %rax
	movq	%rax, %rcx
	addq	$116736, %rcx           # imm = 0x1C800
	movl	-1868(%rbp), %edx       # 4-byte Reload
	imull	(%rsi,%rcx,4), %edx
	movq	-40(%rbp), %rcx         # 8-byte Reload
	shlq	$10, %rcx
	addq	%rax, %rcx
	addl	(%rdi,%rcx,4), %edx
	movl	%edx, (%rdi,%rcx,4)
	addq	$1, %rax
	cmpq	$256, %rax              # imm = 0x100
	movq	%rax, -1880(%rbp)       # 8-byte Spill
	jne	.LBB0_232
# %bb.233:                              # %for.inc17.114
                                        #   in Loop: Header=BB0_1 Depth=1
	xorl	%eax, %eax
	movl	%eax, %ecx
	movq	-40(%rbp), %rdx         # 8-byte Reload
	shlq	$10, %rdx
	movq	-8(%rbp), %rsi          # 8-byte Reload
	movl	460(%rsi,%rdx,4), %eax
	movl	%eax, -1884(%rbp)       # 4-byte Spill
	movq	%rcx, -1896(%rbp)       # 8-byte Spill
.LBB0_234:                              # %for.body6.115
                                        #   Parent Loop BB0_1 Depth=1
                                        # =>  This Inner Loop Header: Depth=2
	movq	-1896(%rbp), %rax       # 8-byte Reload
	movq	%rax, %rcx
	addq	$117760, %rcx           # imm = 0x1CC00
	movl	-1884(%rbp), %edx       # 4-byte Reload
	movq	-16(%rbp), %rsi         # 8-byte Reload
	imull	(%rsi,%rcx,4), %edx
	movq	-40(%rbp), %rcx         # 8-byte Reload
	shlq	$10, %rcx
	addq	%rax, %rcx
	movq	-24(%rbp), %rdi         # 8-byte Reload
	addl	(%rdi,%rcx,4), %edx
	movl	%edx, (%rdi,%rcx,4)
	addq	$1, %rax
	movq	%rax, %rcx
	addq	$117760, %rcx           # imm = 0x1CC00
	movl	-1884(%rbp), %edx       # 4-byte Reload
	imull	(%rsi,%rcx,4), %edx
	movq	-40(%rbp), %rcx         # 8-byte Reload
	shlq	$10, %rcx
	addq	%rax, %rcx
	addl	(%rdi,%rcx,4), %edx
	movl	%edx, (%rdi,%rcx,4)
	addq	$1, %rax
	movq	%rax, %rcx
	addq	$117760, %rcx           # imm = 0x1CC00
	movl	-1884(%rbp), %edx       # 4-byte Reload
	imull	(%rsi,%rcx,4), %edx
	movq	-40(%rbp), %rcx         # 8-byte Reload
	shlq	$10, %rcx
	addq	%rax, %rcx
	addl	(%rdi,%rcx,4), %edx
	movl	%edx, (%rdi,%rcx,4)
	addq	$1, %rax
	movq	%rax, %rcx
	addq	$117760, %rcx           # imm = 0x1CC00
	movl	-1884(%rbp), %edx       # 4-byte Reload
	imull	(%rsi,%rcx,4), %edx
	movq	-40(%rbp), %rcx         # 8-byte Reload
	shlq	$10, %rcx
	addq	%rax, %rcx
	addl	(%rdi,%rcx,4), %edx
	movl	%edx, (%rdi,%rcx,4)
	addq	$1, %rax
	cmpq	$256, %rax              # imm = 0x100
	movq	%rax, -1896(%rbp)       # 8-byte Spill
	jne	.LBB0_234
# %bb.235:                              # %for.inc17.115
                                        #   in Loop: Header=BB0_1 Depth=1
	xorl	%eax, %eax
	movl	%eax, %ecx
	movq	-40(%rbp), %rdx         # 8-byte Reload
	shlq	$10, %rdx
	movq	-8(%rbp), %rsi          # 8-byte Reload
	movl	464(%rsi,%rdx,4), %eax
	movl	%eax, -1900(%rbp)       # 4-byte Spill
	movq	%rcx, -1912(%rbp)       # 8-byte Spill
.LBB0_236:                              # %for.body6.116
                                        #   Parent Loop BB0_1 Depth=1
                                        # =>  This Inner Loop Header: Depth=2
	movq	-1912(%rbp), %rax       # 8-byte Reload
	movq	%rax, %rcx
	addq	$118784, %rcx           # imm = 0x1D000
	movl	-1900(%rbp), %edx       # 4-byte Reload
	movq	-16(%rbp), %rsi         # 8-byte Reload
	imull	(%rsi,%rcx,4), %edx
	movq	-40(%rbp), %rcx         # 8-byte Reload
	shlq	$10, %rcx
	addq	%rax, %rcx
	movq	-24(%rbp), %rdi         # 8-byte Reload
	addl	(%rdi,%rcx,4), %edx
	movl	%edx, (%rdi,%rcx,4)
	addq	$1, %rax
	movq	%rax, %rcx
	addq	$118784, %rcx           # imm = 0x1D000
	movl	-1900(%rbp), %edx       # 4-byte Reload
	imull	(%rsi,%rcx,4), %edx
	movq	-40(%rbp), %rcx         # 8-byte Reload
	shlq	$10, %rcx
	addq	%rax, %rcx
	addl	(%rdi,%rcx,4), %edx
	movl	%edx, (%rdi,%rcx,4)
	addq	$1, %rax
	movq	%rax, %rcx
	addq	$118784, %rcx           # imm = 0x1D000
	movl	-1900(%rbp), %edx       # 4-byte Reload
	imull	(%rsi,%rcx,4), %edx
	movq	-40(%rbp), %rcx         # 8-byte Reload
	shlq	$10, %rcx
	addq	%rax, %rcx
	addl	(%rdi,%rcx,4), %edx
	movl	%edx, (%rdi,%rcx,4)
	addq	$1, %rax
	movq	%rax, %rcx
	addq	$118784, %rcx           # imm = 0x1D000
	movl	-1900(%rbp), %edx       # 4-byte Reload
	imull	(%rsi,%rcx,4), %edx
	movq	-40(%rbp), %rcx         # 8-byte Reload
	shlq	$10, %rcx
	addq	%rax, %rcx
	addl	(%rdi,%rcx,4), %edx
	movl	%edx, (%rdi,%rcx,4)
	addq	$1, %rax
	cmpq	$256, %rax              # imm = 0x100
	movq	%rax, -1912(%rbp)       # 8-byte Spill
	jne	.LBB0_236
# %bb.237:                              # %for.inc17.116
                                        #   in Loop: Header=BB0_1 Depth=1
	xorl	%eax, %eax
	movl	%eax, %ecx
	movq	-40(%rbp), %rdx         # 8-byte Reload
	shlq	$10, %rdx
	movq	-8(%rbp), %rsi          # 8-byte Reload
	movl	468(%rsi,%rdx,4), %eax
	movl	%eax, -1916(%rbp)       # 4-byte Spill
	movq	%rcx, -1928(%rbp)       # 8-byte Spill
.LBB0_238:                              # %for.body6.117
                                        #   Parent Loop BB0_1 Depth=1
                                        # =>  This Inner Loop Header: Depth=2
	movq	-1928(%rbp), %rax       # 8-byte Reload
	movq	%rax, %rcx
	addq	$119808, %rcx           # imm = 0x1D400
	movl	-1916(%rbp), %edx       # 4-byte Reload
	movq	-16(%rbp), %rsi         # 8-byte Reload
	imull	(%rsi,%rcx,4), %edx
	movq	-40(%rbp), %rcx         # 8-byte Reload
	shlq	$10, %rcx
	addq	%rax, %rcx
	movq	-24(%rbp), %rdi         # 8-byte Reload
	addl	(%rdi,%rcx,4), %edx
	movl	%edx, (%rdi,%rcx,4)
	addq	$1, %rax
