	.text
	.file	"fft.c"
	.section	.rodata.cst4,"aM",@progbits,4
	.p2align	2               # -- Begin function step1
.LCPI0_0:
	.long	1060439283              # float 0.707106769
	.text
	.globl	step1
	.p2align	4, 0x90
	.type	step1,@function
step1:                                  # @step1
	.cfi_startproc
# %bb.0:                                # %entry
	pushq	%rbp
	.cfi_def_cfa_offset 16
	.cfi_offset %rbp, -16
	movq	%rsp, %rbp
	.cfi_def_cfa_register %rbp
	pushq	%r15
	pushq	%r14
	pushq	%r12
	pushq	%rbx
	subq	$1224, %rsp             # imm = 0x4C8
	.cfi_offset %rbx, -48
	.cfi_offset %r12, -40
	.cfi_offset %r14, -32
	.cfi_offset %r15, -24
	movq	56(%rbp), %rax
	movq	48(%rbp), %r10
	xorl	%r11d, %r11d
	movl	%r11d, %ebx
	movq	%r9, -40(%rbp)          # 8-byte Spill
	movq	%r8, -48(%rbp)          # 8-byte Spill
	movq	%rcx, -56(%rbp)         # 8-byte Spill
	movq	%rdx, -64(%rbp)         # 8-byte Spill
	movq	%rsi, -72(%rbp)         # 8-byte Spill
	movq	%rdi, -80(%rbp)         # 8-byte Spill
	movq	%rax, -88(%rbp)         # 8-byte Spill
	movq	%r10, -96(%rbp)         # 8-byte Spill
	movq	%rbx, -104(%rbp)        # 8-byte Spill
	jmp	.LBB0_1
.LBB0_1:                                # %for.body
                                        # =>This Loop Header: Depth=1
                                        #     Child Loop BB0_2 Depth 2
                                        #     Child Loop BB0_4 Depth 2
                                        #     Child Loop BB0_6 Depth 2
                                        #     Child Loop BB0_10 Depth 2
                                        #     Child Loop BB0_12 Depth 2
                                        #     Child Loop BB0_14 Depth 2
                                        #     Child Loop BB0_17 Depth 2
                                        #     Child Loop BB0_19 Depth 2
                                        #     Child Loop BB0_21 Depth 2
                                        #     Child Loop BB0_24 Depth 2
                                        #     Child Loop BB0_26 Depth 2
                                        #     Child Loop BB0_28 Depth 2
                                        #     Child Loop BB0_31 Depth 2
                                        #     Child Loop BB0_33 Depth 2
                                        #     Child Loop BB0_35 Depth 2
                                        #     Child Loop BB0_38 Depth 2
                                        #     Child Loop BB0_40 Depth 2
                                        #     Child Loop BB0_42 Depth 2
                                        #     Child Loop BB0_45 Depth 2
                                        #     Child Loop BB0_47 Depth 2
                                        #     Child Loop BB0_49 Depth 2
                                        #     Child Loop BB0_52 Depth 2
                                        #     Child Loop BB0_54 Depth 2
                                        #     Child Loop BB0_56 Depth 2
                                        #     Child Loop BB0_59 Depth 2
                                        #     Child Loop BB0_61 Depth 2
                                        #     Child Loop BB0_63 Depth 2
                                        #     Child Loop BB0_66 Depth 2
                                        #     Child Loop BB0_68 Depth 2
                                        #     Child Loop BB0_70 Depth 2
                                        #     Child Loop BB0_73 Depth 2
                                        #     Child Loop BB0_75 Depth 2
                                        #     Child Loop BB0_77 Depth 2
                                        #     Child Loop BB0_80 Depth 2
                                        #     Child Loop BB0_82 Depth 2
                                        #     Child Loop BB0_84 Depth 2
                                        #     Child Loop BB0_87 Depth 2
                                        #     Child Loop BB0_89 Depth 2
                                        #     Child Loop BB0_91 Depth 2
                                        #     Child Loop BB0_94 Depth 2
                                        #     Child Loop BB0_96 Depth 2
                                        #     Child Loop BB0_98 Depth 2
                                        #     Child Loop BB0_101 Depth 2
                                        #     Child Loop BB0_103 Depth 2
                                        #     Child Loop BB0_105 Depth 2
                                        #     Child Loop BB0_108 Depth 2
                                        #     Child Loop BB0_110 Depth 2
                                        #     Child Loop BB0_112 Depth 2
                                        #     Child Loop BB0_115 Depth 2
                                        #     Child Loop BB0_117 Depth 2
                                        #     Child Loop BB0_119 Depth 2
                                        #     Child Loop BB0_122 Depth 2
                                        #     Child Loop BB0_124 Depth 2
                                        #     Child Loop BB0_126 Depth 2
                                        #     Child Loop BB0_129 Depth 2
                                        #     Child Loop BB0_131 Depth 2
                                        #     Child Loop BB0_133 Depth 2
                                        #     Child Loop BB0_136 Depth 2
                                        #     Child Loop BB0_138 Depth 2
                                        #     Child Loop BB0_140 Depth 2
                                        #     Child Loop BB0_143 Depth 2
                                        #     Child Loop BB0_145 Depth 2
                                        #     Child Loop BB0_147 Depth 2
                                        #     Child Loop BB0_150 Depth 2
                                        #     Child Loop BB0_152 Depth 2
                                        #     Child Loop BB0_154 Depth 2
                                        #     Child Loop BB0_157 Depth 2
                                        #     Child Loop BB0_159 Depth 2
                                        #     Child Loop BB0_161 Depth 2
                                        #     Child Loop BB0_164 Depth 2
                                        #     Child Loop BB0_166 Depth 2
                                        #     Child Loop BB0_168 Depth 2
                                        #     Child Loop BB0_171 Depth 2
                                        #     Child Loop BB0_173 Depth 2
                                        #     Child Loop BB0_175 Depth 2
                                        #     Child Loop BB0_178 Depth 2
                                        #     Child Loop BB0_180 Depth 2
                                        #     Child Loop BB0_182 Depth 2
                                        #     Child Loop BB0_185 Depth 2
                                        #     Child Loop BB0_187 Depth 2
                                        #     Child Loop BB0_189 Depth 2
                                        #     Child Loop BB0_192 Depth 2
                                        #     Child Loop BB0_194 Depth 2
                                        #     Child Loop BB0_196 Depth 2
                                        #     Child Loop BB0_199 Depth 2
                                        #     Child Loop BB0_201 Depth 2
                                        #     Child Loop BB0_203 Depth 2
                                        #     Child Loop BB0_206 Depth 2
                                        #     Child Loop BB0_208 Depth 2
                                        #     Child Loop BB0_210 Depth 2
                                        #     Child Loop BB0_213 Depth 2
                                        #     Child Loop BB0_215 Depth 2
                                        #     Child Loop BB0_217 Depth 2
                                        #     Child Loop BB0_220 Depth 2
                                        #     Child Loop BB0_222 Depth 2
                                        #     Child Loop BB0_224 Depth 2
	movq	-104(%rbp), %rax        # 8-byte Reload
	xorl	%ecx, %ecx
	movl	%ecx, %edx
	movq	%rax, -112(%rbp)        # 8-byte Spill
	movq	%rdx, -120(%rbp)        # 8-byte Spill
.LBB0_2:                                # %for.body3
                                        #   Parent Loop BB0_1 Depth=1
                                        # =>  This Inner Loop Header: Depth=2
	movq	-120(%rbp), %rax        # 8-byte Reload
	movq	%rax, %rcx
	shlq	$6, %rcx
	movq	-112(%rbp), %rdx        # 8-byte Reload
	addq	%rdx, %rcx
	movq	-80(%rbp), %rsi         # 8-byte Reload
	movl	(%rsi,%rcx,4), %edi
	movq	-48(%rbp), %rcx         # 8-byte Reload
	movl	%edi, (%rcx,%rax,4)
	movq	%rax, %r8
	shlq	$6, %r8
	addq	%rdx, %r8
	movq	-72(%rbp), %r9          # 8-byte Reload
	movl	(%r9,%r8,4), %edi
	movq	-40(%rbp), %r8          # 8-byte Reload
	movl	%edi, (%r8,%rax,4)
	movq	%rax, %r10
	addq	$1, %r10
	movq	%r10, %r11
	shlq	$6, %r11
	addq	%rdx, %r11
	movl	(%rsi,%r11,4), %edi
	movl	%edi, 4(%rcx,%rax,4)
	movq	%r10, %r11
	shlq	$6, %r11
	addq	%rdx, %r11
	movl	(%r9,%r11,4), %edi
	movl	%edi, 4(%r8,%rax,4)
	addq	$1, %r10
	movq	%r10, %r11
	shlq	$6, %r11
	addq	%rdx, %r11
	movl	(%rsi,%r11,4), %edi
	movl	%edi, 8(%rcx,%rax,4)
	movq	%r10, %r11
	shlq	$6, %r11
	addq	%rdx, %r11
	movl	(%r9,%r11,4), %edi
	movl	%edi, 8(%r8,%rax,4)
	addq	$1, %r10
	movq	%r10, %r11
	shlq	$6, %r11
	addq	%rdx, %r11
	movl	(%rsi,%r11,4), %edi
	movl	%edi, 12(%rcx,%rax,4)
	movq	%r10, %r11
	shlq	$6, %r11
	addq	%rdx, %r11
	movl	(%r9,%r11,4), %edi
	movl	%edi, 12(%r8,%rax,4)
	addq	$1, %r10
	cmpq	$8, %r10
	movq	%r10, -120(%rbp)        # 8-byte Spill
	jne	.LBB0_2
# %bb.3:                                # %for.end
                                        #   in Loop: Header=BB0_1 Depth=1
	xorl	%eax, %eax
	movss	.LCPI0_0(%rip), %xmm0   # xmm0 = mem[0],zero,zero,zero
	movq	-48(%rbp), %rcx         # 8-byte Reload
	movl	(%rcx), %edx
	movq	-40(%rbp), %rsi         # 8-byte Reload
	movl	(%rsi), %edi
	movl	%edx, %r8d
	addl	16(%rcx), %r8d
	movl	%r8d, (%rcx)
	movl	%edi, %r8d
	addl	16(%rsi), %r8d
	movl	%r8d, (%rsi)
	subl	16(%rcx), %edx
	movl	%edx, 16(%rcx)
	subl	16(%rsi), %edi
	movl	%edi, 16(%rsi)
	movl	4(%rcx), %edx
	movl	4(%rsi), %edi
	movl	%edx, %r8d
	addl	20(%rcx), %r8d
	movl	%r8d, 4(%rcx)
	movl	%edi, %r8d
	addl	20(%rsi), %r8d
	movl	%r8d, 4(%rsi)
	subl	20(%rcx), %edx
	movl	%edx, 20(%rcx)
	subl	20(%rsi), %edi
	movl	%edi, 20(%rsi)
	movl	8(%rcx), %edx
	movl	8(%rsi), %edi
	movl	%edx, %r8d
	addl	24(%rcx), %r8d
	movl	%r8d, 8(%rcx)
	movl	%edi, %r8d
	addl	24(%rsi), %r8d
	movl	%r8d, 8(%rsi)
	subl	24(%rcx), %edx
	movl	%edx, 24(%rcx)
	subl	24(%rsi), %edi
	movl	%edi, 24(%rsi)
	movl	12(%rcx), %edx
	movl	12(%rsi), %edi
	movl	%edx, %r8d
	addl	28(%rcx), %r8d
	movl	%r8d, 12(%rcx)
	movl	%edi, %r8d
	addl	28(%rsi), %r8d
	movl	%r8d, 12(%rsi)
	subl	28(%rcx), %edx
	movl	%edx, 28(%rcx)
	subl	28(%rsi), %edi
	movl	%edi, 28(%rsi)
	movl	20(%rcx), %edx
	movl	%edx, %edi
	addl	20(%rsi), %edi
	cvtsi2ss	%edi, %xmm1
	mulss	%xmm0, %xmm1
	cvttss2si	%xmm1, %edi
	movl	%edi, 20(%rcx)
	movl	20(%rsi), %edi
	subl	%edx, %edi
	cvtsi2ss	%edi, %xmm1
	mulss	%xmm0, %xmm1
	cvttss2si	%xmm1, %edx
	movl	%edx, 20(%rsi)
	movl	24(%rcx), %edx
	movl	24(%rsi), %edi
	movl	%edi, 24(%rcx)
	movl	%eax, %edi
	subl	%edx, %edi
	movl	%edi, 24(%rsi)
	movl	28(%rcx), %edx
	movl	28(%rsi), %edi
	subl	%edx, %edi
	cvtsi2ss	%edi, %xmm1
	mulss	%xmm0, %xmm1
	cvttss2si	%xmm1, %edi
	movl	%edi, 28(%rcx)
	addl	28(%rsi), %edx
	movl	%eax, %edi
	subl	%edx, %edi
	cvtsi2ss	%edi, %xmm1
	mulss	%xmm0, %xmm1
	cvttss2si	%xmm1, %edx
	movl	%edx, 28(%rsi)
	movl	(%rcx), %edx
	movl	(%rsi), %edi
	movl	%edx, %r8d
	addl	8(%rcx), %r8d
	movl	%r8d, (%rcx)
	movl	%edi, %r8d
	addl	8(%rsi), %r8d
	movl	%r8d, (%rsi)
	subl	8(%rcx), %edx
	movl	%edx, 8(%rcx)
	subl	8(%rsi), %edi
	movl	%edi, 8(%rsi)
	movl	4(%rcx), %edx
	movl	4(%rsi), %edi
	movl	%edx, %r8d
	addl	12(%rcx), %r8d
	movl	%r8d, 4(%rcx)
	movl	%edi, %r8d
	addl	12(%rsi), %r8d
	movl	%r8d, 4(%rsi)
	subl	12(%rcx), %edx
	movl	%edx, 12(%rcx)
	subl	12(%rsi), %edi
	movl	%edi, 12(%rsi)
	movl	12(%rcx), %edx
	movl	%edi, 12(%rcx)
	movl	%eax, %edi
	subl	%edx, %edi
	movl	%edi, 12(%rsi)
	movl	(%rcx), %edx
	movl	(%rsi), %edi
	movl	%edx, %r8d
	addl	4(%rcx), %r8d
	movl	%r8d, (%rcx)
	movl	%edi, %r8d
	addl	4(%rsi), %r8d
	movl	%r8d, (%rsi)
	subl	4(%rcx), %edx
	movl	%edx, 4(%rcx)
	subl	4(%rsi), %edi
	movl	%edi, 4(%rsi)
	movl	8(%rcx), %edx
	movl	8(%rsi), %edi
	movl	%edx, %r8d
	addl	12(%rcx), %r8d
	movl	%r8d, 8(%rcx)
	movl	%edi, %r8d
	addl	12(%rsi), %r8d
	movl	%r8d, 8(%rsi)
	subl	12(%rcx), %edx
	movl	%edx, 12(%rcx)
	subl	12(%rsi), %edi
	movl	%edi, 12(%rsi)
	movl	16(%rcx), %edx
	movl	16(%rsi), %edi
	movl	%edx, %r8d
	addl	24(%rcx), %r8d
	movl	%r8d, 16(%rcx)
	movl	%edi, %r8d
	addl	24(%rsi), %r8d
	movl	%r8d, 16(%rsi)
	subl	24(%rcx), %edx
	movl	%edx, 24(%rcx)
	subl	24(%rsi), %edi
	movl	%edi, 24(%rsi)
	movl	20(%rcx), %edx
	movl	20(%rsi), %edi
	movl	%edx, %r8d
	addl	28(%rcx), %r8d
	movl	%r8d, 20(%rcx)
	movl	%edi, %r8d
	addl	28(%rsi), %r8d
	movl	%r8d, 20(%rsi)
	subl	28(%rcx), %edx
	movl	%edx, 28(%rcx)
	subl	28(%rsi), %edi
	movl	%edi, 28(%rsi)
	movl	28(%rcx), %edx
	movl	%edi, 28(%rcx)
	subl	%edx, %eax
	movl	%eax, 28(%rsi)
	movl	16(%rcx), %eax
	movl	16(%rsi), %edx
	movl	%eax, %edi
	addl	20(%rcx), %edi
	movl	%edi, 16(%rcx)
	movl	%edx, %edi
	addl	20(%rsi), %edi
	movl	%edi, 16(%rsi)
	subl	20(%rcx), %eax
	movl	%eax, 20(%rcx)
	subl	20(%rsi), %edx
	movl	%edx, 20(%rsi)
	movl	24(%rcx), %eax
	movl	24(%rsi), %edx
	movl	%eax, %edi
	addl	28(%rcx), %edi
	movl	%edi, 24(%rcx)
	movl	%edx, %edi
	addl	28(%rsi), %edi
	movl	%edi, 24(%rsi)
	subl	28(%rcx), %eax
	movl	%eax, 28(%rcx)
	subl	28(%rsi), %edx
	movl	%edx, 28(%rsi)
	movl	$1, %r9d
	movq	%r9, -128(%rbp)         # 8-byte Spill
.LBB0_4:                                # %for.body278
                                        #   Parent Loop BB0_1 Depth=1
                                        # =>  This Inner Loop Header: Depth=2
	movq	-128(%rbp), %rax        # 8-byte Reload
	movq	-112(%rbp), %rcx        # 8-byte Reload
	imulq	$7, %rcx, %rdx
	addq	%rax, %rdx
	movq	-88(%rbp), %rsi         # 8-byte Reload
	cvttss2si	-4(%rsi,%rdx,4), %edi
	imulq	$7, %rcx, %rdx
	addq	%rax, %rdx
	movq	-96(%rbp), %r8          # 8-byte Reload
	cvttss2si	-4(%r8,%rdx,4), %r9d
	movq	-48(%rbp), %rdx         # 8-byte Reload
	movl	(%rdx,%rax,4), %r10d
	movl	%edi, %r11d
	imull	(%rdx,%rax,4), %r11d
	movl	%r9d, %ebx
	movq	-40(%rbp), %r14         # 8-byte Reload
	imull	(%r14,%rax,4), %ebx
	subl	%ebx, %r11d
	movl	%r11d, (%rdx,%rax,4)
	imull	%r9d, %r10d
	imull	(%r14,%rax,4), %edi
	addl	%edi, %r10d
	movl	%r10d, (%r14,%rax,4)
	movq	%rax, %r15
	addq	$1, %r15
	imulq	$7, %rcx, %r12
	addq	%r15, %r12
	cvttss2si	-4(%rsi,%r12,4), %edi
	imulq	$7, %rcx, %r12
	addq	%r15, %r12
	cvttss2si	-4(%r8,%r12,4), %r9d
	movl	4(%rdx,%rax,4), %r10d
	movl	%edi, %r11d
	imull	4(%rdx,%rax,4), %r11d
	movl	%r9d, %ebx
	imull	4(%r14,%rax,4), %ebx
	subl	%ebx, %r11d
	movl	%r11d, 4(%rdx,%rax,4)
	imull	%r9d, %r10d
	imull	4(%r14,%rax,4), %edi
	addl	%edi, %r10d
	movl	%r10d, 4(%r14,%rax,4)
	addq	$1, %r15
	imulq	$7, %rcx, %r12
	addq	%r15, %r12
	cvttss2si	-4(%rsi,%r12,4), %edi
	imulq	$7, %rcx, %r12
	addq	%r15, %r12
	cvttss2si	-4(%r8,%r12,4), %r9d
	movl	8(%rdx,%rax,4), %r10d
	movl	%edi, %r11d
	imull	8(%rdx,%rax,4), %r11d
	movl	%r9d, %ebx
	imull	8(%r14,%rax,4), %ebx
	subl	%ebx, %r11d
	movl	%r11d, 8(%rdx,%rax,4)
	imull	%r9d, %r10d
	imull	8(%r14,%rax,4), %edi
	addl	%edi, %r10d
	movl	%r10d, 8(%r14,%rax,4)
	addq	$1, %r15
	cmpq	$8, %r15
	movq	%r15, -136(%rbp)        # 8-byte Spill
	jne	.LBB0_9
# %bb.5:                                # %for.body316.preheader
                                        #   in Loop: Header=BB0_1 Depth=1
	xorl	%eax, %eax
	movl	%eax, %ecx
	movq	%rcx, -144(%rbp)        # 8-byte Spill
	jmp	.LBB0_6
.LBB0_6:                                # %for.body316
                                        #   Parent Loop BB0_1 Depth=1
                                        # =>  This Inner Loop Header: Depth=2
	movq	-144(%rbp), %rax        # 8-byte Reload
	movq	-48(%rbp), %rcx         # 8-byte Reload
	movl	(%rcx,%rax,4), %edx
	movq	-112(%rbp), %rsi        # 8-byte Reload
	shlq	$3, %rsi
	addq	%rax, %rsi
	movq	-64(%rbp), %rdi         # 8-byte Reload
	movl	%edx, (%rdi,%rsi,4)
	movq	-40(%rbp), %rsi         # 8-byte Reload
	movl	(%rsi,%rax,4), %edx
	movq	-112(%rbp), %r8         # 8-byte Reload
	shlq	$3, %r8
	addq	%rax, %r8
	movq	-56(%rbp), %r9          # 8-byte Reload
	movl	%edx, (%r9,%r8,4)
	movq	%rax, %r8
	addq	$1, %r8
	movl	4(%rcx,%rax,4), %edx
	movq	-112(%rbp), %r10        # 8-byte Reload
	shlq	$3, %r10
	addq	%r8, %r10
	movl	%edx, (%rdi,%r10,4)
	movl	4(%rsi,%rax,4), %edx
	movq	-112(%rbp), %r10        # 8-byte Reload
	shlq	$3, %r10
	addq	%r8, %r10
	movl	%edx, (%r9,%r10,4)
	addq	$1, %r8
	movl	8(%rcx,%rax,4), %edx
	movq	-112(%rbp), %r10        # 8-byte Reload
	shlq	$3, %r10
	addq	%r8, %r10
	movl	%edx, (%rdi,%r10,4)
	movl	8(%rsi,%rax,4), %edx
	movq	-112(%rbp), %r10        # 8-byte Reload
	shlq	$3, %r10
	addq	%r8, %r10
	movl	%edx, (%r9,%r10,4)
	addq	$1, %r8
	movl	12(%rcx,%rax,4), %edx
	movq	-112(%rbp), %r10        # 8-byte Reload
	shlq	$3, %r10
	addq	%r8, %r10
	movl	%edx, (%rdi,%r10,4)
	movl	12(%rsi,%rax,4), %edx
	movq	-112(%rbp), %rax        # 8-byte Reload
	shlq	$3, %rax
	addq	%r8, %rax
	movl	%edx, (%r9,%rax,4)
	addq	$1, %r8
	cmpq	$8, %r8
	movq	%r8, -144(%rbp)         # 8-byte Spill
	jne	.LBB0_6
# %bb.7:                                # %for.inc332
                                        #   in Loop: Header=BB0_1 Depth=1
	xorl	%eax, %eax
	movl	%eax, %ecx
	movq	-112(%rbp), %rdx        # 8-byte Reload
	addq	$1, %rdx
	movq	%rdx, -152(%rbp)        # 8-byte Spill
	movq	%rcx, -160(%rbp)        # 8-byte Spill
	jmp	.LBB0_10
.LBB0_8:                                # %for.end334
	addq	$1224, %rsp             # imm = 0x4C8
	popq	%rbx
	popq	%r12
	popq	%r14
	popq	%r15
	popq	%rbp
	.cfi_def_cfa %rsp, 8
	retq
.LBB0_9:                                # %for.body278.3
                                        #   in Loop: Header=BB0_4 Depth=2
	.cfi_def_cfa %rbp, 16
	movq	-112(%rbp), %rax        # 8-byte Reload
	imulq	$7, %rax, %rcx
	movq	-136(%rbp), %rdx        # 8-byte Reload
	addq	%rdx, %rcx
	movq	-88(%rbp), %rsi         # 8-byte Reload
	cvttss2si	-4(%rsi,%rcx,4), %edi
	imulq	$7, %rax, %rcx
	addq	%rdx, %rcx
	movq	-96(%rbp), %r8          # 8-byte Reload
	cvttss2si	-4(%r8,%rcx,4), %r9d
	movq	-48(%rbp), %rcx         # 8-byte Reload
	movl	(%rcx,%rdx,4), %r10d
	movl	%edi, %r11d
	imull	(%rcx,%rdx,4), %r11d
	movl	%r9d, %ebx
	movq	-40(%rbp), %r14         # 8-byte Reload
	imull	(%r14,%rdx,4), %ebx
	subl	%ebx, %r11d
	movl	%r11d, (%rcx,%rdx,4)
	imull	%r9d, %r10d
	imull	(%r14,%rdx,4), %edi
	addl	%edi, %r10d
	movl	%r10d, (%r14,%rdx,4)
	addq	$1, %rdx
	movq	%rdx, -128(%rbp)        # 8-byte Spill
	jmp	.LBB0_4
.LBB0_10:                               # %for.body3.1
                                        #   Parent Loop BB0_1 Depth=1
                                        # =>  This Inner Loop Header: Depth=2
	movq	-160(%rbp), %rax        # 8-byte Reload
	movq	%rax, %rcx
	shlq	$6, %rcx
	movq	-152(%rbp), %rdx        # 8-byte Reload
	addq	%rdx, %rcx
	movq	-80(%rbp), %rsi         # 8-byte Reload
	movl	(%rsi,%rcx,4), %edi
	movq	-48(%rbp), %rcx         # 8-byte Reload
	movl	%edi, (%rcx,%rax,4)
	movq	%rax, %r8
	shlq	$6, %r8
	addq	%rdx, %r8
	movq	-72(%rbp), %r9          # 8-byte Reload
	movl	(%r9,%r8,4), %edi
	movq	-40(%rbp), %r8          # 8-byte Reload
	movl	%edi, (%r8,%rax,4)
	movq	%rax, %r10
	addq	$1, %r10
	movq	%r10, %r11
	shlq	$6, %r11
	addq	%rdx, %r11
	movl	(%rsi,%r11,4), %edi
	movl	%edi, 4(%rcx,%rax,4)
	movq	%r10, %r11
	shlq	$6, %r11
	addq	%rdx, %r11
	movl	(%r9,%r11,4), %edi
	movl	%edi, 4(%r8,%rax,4)
	addq	$1, %r10
	movq	%r10, %r11
	shlq	$6, %r11
	addq	%rdx, %r11
	movl	(%rsi,%r11,4), %edi
	movl	%edi, 8(%rcx,%rax,4)
	movq	%r10, %r11
	shlq	$6, %r11
	addq	%rdx, %r11
	movl	(%r9,%r11,4), %edi
	movl	%edi, 8(%r8,%rax,4)
	addq	$1, %r10
	movq	%r10, %r11
	shlq	$6, %r11
	addq	%rdx, %r11
	movl	(%rsi,%r11,4), %edi
	movl	%edi, 12(%rcx,%rax,4)
	movq	%r10, %r11
	shlq	$6, %r11
	addq	%rdx, %r11
	movl	(%r9,%r11,4), %edi
	movl	%edi, 12(%r8,%rax,4)
	addq	$1, %r10
	cmpq	$8, %r10
	movq	%r10, -160(%rbp)        # 8-byte Spill
	jne	.LBB0_10
# %bb.11:                               # %for.end.1
                                        #   in Loop: Header=BB0_1 Depth=1
	xorl	%eax, %eax
	movss	.LCPI0_0(%rip), %xmm0   # xmm0 = mem[0],zero,zero,zero
	movq	-48(%rbp), %rcx         # 8-byte Reload
	movl	(%rcx), %edx
	movq	-40(%rbp), %rsi         # 8-byte Reload
	movl	(%rsi), %edi
	movl	%edx, %r8d
	addl	16(%rcx), %r8d
	movl	%r8d, (%rcx)
	movl	%edi, %r8d
	addl	16(%rsi), %r8d
	movl	%r8d, (%rsi)
	subl	16(%rcx), %edx
	movl	%edx, 16(%rcx)
	subl	16(%rsi), %edi
	movl	%edi, 16(%rsi)
	movl	4(%rcx), %edx
	movl	4(%rsi), %edi
	movl	%edx, %r8d
	addl	20(%rcx), %r8d
	movl	%r8d, 4(%rcx)
	movl	%edi, %r8d
	addl	20(%rsi), %r8d
	movl	%r8d, 4(%rsi)
	subl	20(%rcx), %edx
	movl	%edx, 20(%rcx)
	subl	20(%rsi), %edi
	movl	%edi, 20(%rsi)
	movl	8(%rcx), %edx
	movl	8(%rsi), %edi
	movl	%edx, %r8d
	addl	24(%rcx), %r8d
	movl	%r8d, 8(%rcx)
	movl	%edi, %r8d
	addl	24(%rsi), %r8d
	movl	%r8d, 8(%rsi)
	subl	24(%rcx), %edx
	movl	%edx, 24(%rcx)
	subl	24(%rsi), %edi
	movl	%edi, 24(%rsi)
	movl	12(%rcx), %edx
	movl	12(%rsi), %edi
	movl	%edx, %r8d
	addl	28(%rcx), %r8d
	movl	%r8d, 12(%rcx)
	movl	%edi, %r8d
	addl	28(%rsi), %r8d
	movl	%r8d, 12(%rsi)
	subl	28(%rcx), %edx
	movl	%edx, 28(%rcx)
	subl	28(%rsi), %edi
	movl	%edi, 28(%rsi)
	movl	20(%rcx), %edx
	movl	%edx, %edi
	addl	20(%rsi), %edi
	cvtsi2ss	%edi, %xmm1
	mulss	%xmm0, %xmm1
	cvttss2si	%xmm1, %edi
	movl	%edi, 20(%rcx)
	movl	20(%rsi), %edi
	subl	%edx, %edi
	cvtsi2ss	%edi, %xmm1
	mulss	%xmm0, %xmm1
	cvttss2si	%xmm1, %edx
	movl	%edx, 20(%rsi)
	movl	24(%rcx), %edx
	movl	24(%rsi), %edi
	movl	%edi, 24(%rcx)
	movl	%eax, %edi
	subl	%edx, %edi
	movl	%edi, 24(%rsi)
	movl	28(%rcx), %edx
	movl	28(%rsi), %edi
	subl	%edx, %edi
	cvtsi2ss	%edi, %xmm1
	mulss	%xmm0, %xmm1
	cvttss2si	%xmm1, %edi
	movl	%edi, 28(%rcx)
	addl	28(%rsi), %edx
	movl	%eax, %edi
	subl	%edx, %edi
	cvtsi2ss	%edi, %xmm1
	mulss	%xmm0, %xmm1
	cvttss2si	%xmm1, %edx
	movl	%edx, 28(%rsi)
	movl	(%rcx), %edx
	movl	(%rsi), %edi
	movl	%edx, %r8d
	addl	8(%rcx), %r8d
	movl	%r8d, (%rcx)
	movl	%edi, %r8d
	addl	8(%rsi), %r8d
	movl	%r8d, (%rsi)
	subl	8(%rcx), %edx
	movl	%edx, 8(%rcx)
	subl	8(%rsi), %edi
	movl	%edi, 8(%rsi)
	movl	4(%rcx), %edx
	movl	4(%rsi), %edi
	movl	%edx, %r8d
	addl	12(%rcx), %r8d
	movl	%r8d, 4(%rcx)
	movl	%edi, %r8d
	addl	12(%rsi), %r8d
	movl	%r8d, 4(%rsi)
	subl	12(%rcx), %edx
	movl	%edx, 12(%rcx)
	subl	12(%rsi), %edi
	movl	%edi, 12(%rsi)
	movl	12(%rcx), %edx
	movl	%edi, 12(%rcx)
	movl	%eax, %edi
	subl	%edx, %edi
	movl	%edi, 12(%rsi)
	movl	(%rcx), %edx
	movl	(%rsi), %edi
	movl	%edx, %r8d
	addl	4(%rcx), %r8d
	movl	%r8d, (%rcx)
	movl	%edi, %r8d
	addl	4(%rsi), %r8d
	movl	%r8d, (%rsi)
	subl	4(%rcx), %edx
	movl	%edx, 4(%rcx)
	subl	4(%rsi), %edi
	movl	%edi, 4(%rsi)
	movl	8(%rcx), %edx
	movl	8(%rsi), %edi
	movl	%edx, %r8d
	addl	12(%rcx), %r8d
	movl	%r8d, 8(%rcx)
	movl	%edi, %r8d
	addl	12(%rsi), %r8d
	movl	%r8d, 8(%rsi)
	subl	12(%rcx), %edx
	movl	%edx, 12(%rcx)
	subl	12(%rsi), %edi
	movl	%edi, 12(%rsi)
	movl	16(%rcx), %edx
	movl	16(%rsi), %edi
	movl	%edx, %r8d
	addl	24(%rcx), %r8d
	movl	%r8d, 16(%rcx)
	movl	%edi, %r8d
	addl	24(%rsi), %r8d
	movl	%r8d, 16(%rsi)
	subl	24(%rcx), %edx
	movl	%edx, 24(%rcx)
	subl	24(%rsi), %edi
	movl	%edi, 24(%rsi)
	movl	20(%rcx), %edx
	movl	20(%rsi), %edi
	movl	%edx, %r8d
	addl	28(%rcx), %r8d
	movl	%r8d, 20(%rcx)
	movl	%edi, %r8d
	addl	28(%rsi), %r8d
	movl	%r8d, 20(%rsi)
	subl	28(%rcx), %edx
	movl	%edx, 28(%rcx)
	subl	28(%rsi), %edi
	movl	%edi, 28(%rsi)
	movl	28(%rcx), %edx
	movl	%edi, 28(%rcx)
	subl	%edx, %eax
	movl	%eax, 28(%rsi)
	movl	16(%rcx), %eax
	movl	16(%rsi), %edx
	movl	%eax, %edi
	addl	20(%rcx), %edi
	movl	%edi, 16(%rcx)
	movl	%edx, %edi
	addl	20(%rsi), %edi
	movl	%edi, 16(%rsi)
	subl	20(%rcx), %eax
	movl	%eax, 20(%rcx)
	subl	20(%rsi), %edx
	movl	%edx, 20(%rsi)
	movl	24(%rcx), %eax
	movl	24(%rsi), %edx
	movl	%eax, %edi
	addl	28(%rcx), %edi
	movl	%edi, 24(%rcx)
	movl	%edx, %edi
	addl	28(%rsi), %edi
	movl	%edi, 24(%rsi)
	subl	28(%rcx), %eax
	movl	%eax, 28(%rcx)
	subl	28(%rsi), %edx
	movl	%edx, 28(%rsi)
	movl	$1, %r9d
	movq	%r9, -168(%rbp)         # 8-byte Spill
.LBB0_12:                               # %for.body278.1
                                        #   Parent Loop BB0_1 Depth=1
                                        # =>  This Inner Loop Header: Depth=2
	movq	-168(%rbp), %rax        # 8-byte Reload
	movq	-152(%rbp), %rcx        # 8-byte Reload
	imulq	$7, %rcx, %rdx
	addq	%rax, %rdx
	movq	-88(%rbp), %rsi         # 8-byte Reload
	cvttss2si	-4(%rsi,%rdx,4), %edi
	imulq	$7, %rcx, %rdx
	addq	%rax, %rdx
	movq	-96(%rbp), %r8          # 8-byte Reload
	cvttss2si	-4(%r8,%rdx,4), %r9d
	movq	-48(%rbp), %rdx         # 8-byte Reload
	movl	(%rdx,%rax,4), %r10d
	movl	%edi, %r11d
	imull	(%rdx,%rax,4), %r11d
	movl	%r9d, %ebx
	movq	-40(%rbp), %r14         # 8-byte Reload
	imull	(%r14,%rax,4), %ebx
	subl	%ebx, %r11d
	movl	%r11d, (%rdx,%rax,4)
	imull	%r9d, %r10d
	imull	(%r14,%rax,4), %edi
	addl	%edi, %r10d
	movl	%r10d, (%r14,%rax,4)
	movq	%rax, %r15
	addq	$1, %r15
	imulq	$7, %rcx, %r12
	addq	%r15, %r12
	cvttss2si	-4(%rsi,%r12,4), %edi
	imulq	$7, %rcx, %r12
	addq	%r15, %r12
	cvttss2si	-4(%r8,%r12,4), %r9d
	movl	4(%rdx,%rax,4), %r10d
	movl	%edi, %r11d
	imull	4(%rdx,%rax,4), %r11d
	movl	%r9d, %ebx
	imull	4(%r14,%rax,4), %ebx
	subl	%ebx, %r11d
	movl	%r11d, 4(%rdx,%rax,4)
	imull	%r9d, %r10d
	imull	4(%r14,%rax,4), %edi
	addl	%edi, %r10d
	movl	%r10d, 4(%r14,%rax,4)
	addq	$1, %r15
	imulq	$7, %rcx, %r12
	addq	%r15, %r12
	cvttss2si	-4(%rsi,%r12,4), %edi
	imulq	$7, %rcx, %r12
	addq	%r15, %r12
	cvttss2si	-4(%r8,%r12,4), %r9d
	movl	8(%rdx,%rax,4), %r10d
	movl	%edi, %r11d
	imull	8(%rdx,%rax,4), %r11d
	movl	%r9d, %ebx
	imull	8(%r14,%rax,4), %ebx
	subl	%ebx, %r11d
	movl	%r11d, 8(%rdx,%rax,4)
	imull	%r9d, %r10d
	imull	8(%r14,%rax,4), %edi
	addl	%edi, %r10d
	movl	%r10d, 8(%r14,%rax,4)
	addq	$1, %r15
	cmpq	$8, %r15
	movq	%r15, -176(%rbp)        # 8-byte Spill
	jne	.LBB0_16
# %bb.13:                               # %for.body316.preheader.1
                                        #   in Loop: Header=BB0_1 Depth=1
	xorl	%eax, %eax
	movl	%eax, %ecx
	movq	%rcx, -184(%rbp)        # 8-byte Spill
	jmp	.LBB0_14
.LBB0_14:                               # %for.body316.1
                                        #   Parent Loop BB0_1 Depth=1
                                        # =>  This Inner Loop Header: Depth=2
	movq	-184(%rbp), %rax        # 8-byte Reload
	movq	-48(%rbp), %rcx         # 8-byte Reload
	movl	(%rcx,%rax,4), %edx
	movq	-152(%rbp), %rsi        # 8-byte Reload
	shlq	$3, %rsi
	addq	%rax, %rsi
	movq	-64(%rbp), %rdi         # 8-byte Reload
	movl	%edx, (%rdi,%rsi,4)
	movq	-40(%rbp), %rsi         # 8-byte Reload
	movl	(%rsi,%rax,4), %edx
	movq	-152(%rbp), %r8         # 8-byte Reload
	shlq	$3, %r8
	addq	%rax, %r8
	movq	-56(%rbp), %r9          # 8-byte Reload
	movl	%edx, (%r9,%r8,4)
	movq	%rax, %r8
	addq	$1, %r8
	movl	4(%rcx,%rax,4), %edx
	movq	-152(%rbp), %r10        # 8-byte Reload
	shlq	$3, %r10
	addq	%r8, %r10
	movl	%edx, (%rdi,%r10,4)
	movl	4(%rsi,%rax,4), %edx
	movq	-152(%rbp), %r10        # 8-byte Reload
	shlq	$3, %r10
	addq	%r8, %r10
	movl	%edx, (%r9,%r10,4)
	addq	$1, %r8
	movl	8(%rcx,%rax,4), %edx
	movq	-152(%rbp), %r10        # 8-byte Reload
	shlq	$3, %r10
	addq	%r8, %r10
	movl	%edx, (%rdi,%r10,4)
	movl	8(%rsi,%rax,4), %edx
	movq	-152(%rbp), %r10        # 8-byte Reload
	shlq	$3, %r10
	addq	%r8, %r10
	movl	%edx, (%r9,%r10,4)
	addq	$1, %r8
	movl	12(%rcx,%rax,4), %edx
	movq	-152(%rbp), %r10        # 8-byte Reload
	shlq	$3, %r10
	addq	%r8, %r10
	movl	%edx, (%rdi,%r10,4)
	movl	12(%rsi,%rax,4), %edx
	movq	-152(%rbp), %rax        # 8-byte Reload
	shlq	$3, %rax
	addq	%r8, %rax
	movl	%edx, (%r9,%rax,4)
	addq	$1, %r8
	cmpq	$8, %r8
	movq	%r8, -184(%rbp)         # 8-byte Spill
	jne	.LBB0_14
# %bb.15:                               # %for.inc332.1
                                        #   in Loop: Header=BB0_1 Depth=1
	xorl	%eax, %eax
	movl	%eax, %ecx
	movq	-152(%rbp), %rdx        # 8-byte Reload
	addq	$1, %rdx
	movq	%rdx, -192(%rbp)        # 8-byte Spill
	movq	%rcx, -200(%rbp)        # 8-byte Spill
	jmp	.LBB0_17
.LBB0_16:                               # %for.body278.3.1
                                        #   in Loop: Header=BB0_12 Depth=2
	movq	-152(%rbp), %rax        # 8-byte Reload
	imulq	$7, %rax, %rcx
	movq	-176(%rbp), %rdx        # 8-byte Reload
	addq	%rdx, %rcx
	movq	-88(%rbp), %rsi         # 8-byte Reload
	cvttss2si	-4(%rsi,%rcx,4), %edi
	imulq	$7, %rax, %rcx
	addq	%rdx, %rcx
	movq	-96(%rbp), %r8          # 8-byte Reload
	cvttss2si	-4(%r8,%rcx,4), %r9d
	movq	-48(%rbp), %rcx         # 8-byte Reload
	movl	(%rcx,%rdx,4), %r10d
	movl	%edi, %r11d
	imull	(%rcx,%rdx,4), %r11d
	movl	%r9d, %ebx
	movq	-40(%rbp), %r14         # 8-byte Reload
	imull	(%r14,%rdx,4), %ebx
	subl	%ebx, %r11d
	movl	%r11d, (%rcx,%rdx,4)
	imull	%r9d, %r10d
	imull	(%r14,%rdx,4), %edi
	addl	%edi, %r10d
	movl	%r10d, (%r14,%rdx,4)
	addq	$1, %rdx
	movq	%rdx, -168(%rbp)        # 8-byte Spill
	jmp	.LBB0_12
.LBB0_17:                               # %for.body3.2
                                        #   Parent Loop BB0_1 Depth=1
                                        # =>  This Inner Loop Header: Depth=2
	movq	-200(%rbp), %rax        # 8-byte Reload
	movq	%rax, %rcx
	shlq	$6, %rcx
	movq	-192(%rbp), %rdx        # 8-byte Reload
	addq	%rdx, %rcx
	movq	-80(%rbp), %rsi         # 8-byte Reload
	movl	(%rsi,%rcx,4), %edi
	movq	-48(%rbp), %rcx         # 8-byte Reload
	movl	%edi, (%rcx,%rax,4)
	movq	%rax, %r8
	shlq	$6, %r8
	addq	%rdx, %r8
	movq	-72(%rbp), %r9          # 8-byte Reload
	movl	(%r9,%r8,4), %edi
	movq	-40(%rbp), %r8          # 8-byte Reload
	movl	%edi, (%r8,%rax,4)
	movq	%rax, %r10
	addq	$1, %r10
	movq	%r10, %r11
	shlq	$6, %r11
	addq	%rdx, %r11
	movl	(%rsi,%r11,4), %edi
	movl	%edi, 4(%rcx,%rax,4)
	movq	%r10, %r11
	shlq	$6, %r11
	addq	%rdx, %r11
	movl	(%r9,%r11,4), %edi
	movl	%edi, 4(%r8,%rax,4)
	addq	$1, %r10
	movq	%r10, %r11
	shlq	$6, %r11
	addq	%rdx, %r11
	movl	(%rsi,%r11,4), %edi
	movl	%edi, 8(%rcx,%rax,4)
	movq	%r10, %r11
	shlq	$6, %r11
	addq	%rdx, %r11
	movl	(%r9,%r11,4), %edi
	movl	%edi, 8(%r8,%rax,4)
	addq	$1, %r10
	movq	%r10, %r11
	shlq	$6, %r11
	addq	%rdx, %r11
	movl	(%rsi,%r11,4), %edi
	movl	%edi, 12(%rcx,%rax,4)
	movq	%r10, %r11
	shlq	$6, %r11
	addq	%rdx, %r11
	movl	(%r9,%r11,4), %edi
	movl	%edi, 12(%r8,%rax,4)
	addq	$1, %r10
	cmpq	$8, %r10
	movq	%r10, -200(%rbp)        # 8-byte Spill
	jne	.LBB0_17
# %bb.18:                               # %for.end.2
                                        #   in Loop: Header=BB0_1 Depth=1
	xorl	%eax, %eax
	movss	.LCPI0_0(%rip), %xmm0   # xmm0 = mem[0],zero,zero,zero
	movq	-48(%rbp), %rcx         # 8-byte Reload
	movl	(%rcx), %edx
	movq	-40(%rbp), %rsi         # 8-byte Reload
	movl	(%rsi), %edi
	movl	%edx, %r8d
	addl	16(%rcx), %r8d
	movl	%r8d, (%rcx)
	movl	%edi, %r8d
	addl	16(%rsi), %r8d
	movl	%r8d, (%rsi)
	subl	16(%rcx), %edx
	movl	%edx, 16(%rcx)
	subl	16(%rsi), %edi
	movl	%edi, 16(%rsi)
	movl	4(%rcx), %edx
	movl	4(%rsi), %edi
	movl	%edx, %r8d
	addl	20(%rcx), %r8d
	movl	%r8d, 4(%rcx)
	movl	%edi, %r8d
	addl	20(%rsi), %r8d
	movl	%r8d, 4(%rsi)
	subl	20(%rcx), %edx
	movl	%edx, 20(%rcx)
	subl	20(%rsi), %edi
	movl	%edi, 20(%rsi)
	movl	8(%rcx), %edx
	movl	8(%rsi), %edi
	movl	%edx, %r8d
	addl	24(%rcx), %r8d
	movl	%r8d, 8(%rcx)
	movl	%edi, %r8d
	addl	24(%rsi), %r8d
	movl	%r8d, 8(%rsi)
	subl	24(%rcx), %edx
	movl	%edx, 24(%rcx)
	subl	24(%rsi), %edi
	movl	%edi, 24(%rsi)
	movl	12(%rcx), %edx
	movl	12(%rsi), %edi
	movl	%edx, %r8d
	addl	28(%rcx), %r8d
	movl	%r8d, 12(%rcx)
	movl	%edi, %r8d
	addl	28(%rsi), %r8d
	movl	%r8d, 12(%rsi)
	subl	28(%rcx), %edx
	movl	%edx, 28(%rcx)
	subl	28(%rsi), %edi
	movl	%edi, 28(%rsi)
	movl	20(%rcx), %edx
	movl	%edx, %edi
	addl	20(%rsi), %edi
	cvtsi2ss	%edi, %xmm1
	mulss	%xmm0, %xmm1
	cvttss2si	%xmm1, %edi
	movl	%edi, 20(%rcx)
	movl	20(%rsi), %edi
	subl	%edx, %edi
	cvtsi2ss	%edi, %xmm1
	mulss	%xmm0, %xmm1
	cvttss2si	%xmm1, %edx
	movl	%edx, 20(%rsi)
	movl	24(%rcx), %edx
	movl	24(%rsi), %edi
	movl	%edi, 24(%rcx)
	movl	%eax, %edi
	subl	%edx, %edi
	movl	%edi, 24(%rsi)
	movl	28(%rcx), %edx
	movl	28(%rsi), %edi
	subl	%edx, %edi
	cvtsi2ss	%edi, %xmm1
	mulss	%xmm0, %xmm1
	cvttss2si	%xmm1, %edi
	movl	%edi, 28(%rcx)
	addl	28(%rsi), %edx
	movl	%eax, %edi
	subl	%edx, %edi
	cvtsi2ss	%edi, %xmm1
	mulss	%xmm0, %xmm1
	cvttss2si	%xmm1, %edx
	movl	%edx, 28(%rsi)
	movl	(%rcx), %edx
	movl	(%rsi), %edi
	movl	%edx, %r8d
	addl	8(%rcx), %r8d
	movl	%r8d, (%rcx)
	movl	%edi, %r8d
	addl	8(%rsi), %r8d
	movl	%r8d, (%rsi)
	subl	8(%rcx), %edx
	movl	%edx, 8(%rcx)
	subl	8(%rsi), %edi
	movl	%edi, 8(%rsi)
	movl	4(%rcx), %edx
	movl	4(%rsi), %edi
	movl	%edx, %r8d
	addl	12(%rcx), %r8d
	movl	%r8d, 4(%rcx)
	movl	%edi, %r8d
	addl	12(%rsi), %r8d
	movl	%r8d, 4(%rsi)
	subl	12(%rcx), %edx
	movl	%edx, 12(%rcx)
	subl	12(%rsi), %edi
	movl	%edi, 12(%rsi)
	movl	12(%rcx), %edx
	movl	%edi, 12(%rcx)
	movl	%eax, %edi
	subl	%edx, %edi
	movl	%edi, 12(%rsi)
	movl	(%rcx), %edx
	movl	(%rsi), %edi
	movl	%edx, %r8d
	addl	4(%rcx), %r8d
	movl	%r8d, (%rcx)
	movl	%edi, %r8d
	addl	4(%rsi), %r8d
	movl	%r8d, (%rsi)
	subl	4(%rcx), %edx
	movl	%edx, 4(%rcx)
	subl	4(%rsi), %edi
	movl	%edi, 4(%rsi)
	movl	8(%rcx), %edx
	movl	8(%rsi), %edi
	movl	%edx, %r8d
	addl	12(%rcx), %r8d
	movl	%r8d, 8(%rcx)
	movl	%edi, %r8d
	addl	12(%rsi), %r8d
	movl	%r8d, 8(%rsi)
	subl	12(%rcx), %edx
	movl	%edx, 12(%rcx)
	subl	12(%rsi), %edi
	movl	%edi, 12(%rsi)
	movl	16(%rcx), %edx
	movl	16(%rsi), %edi
	movl	%edx, %r8d
	addl	24(%rcx), %r8d
	movl	%r8d, 16(%rcx)
	movl	%edi, %r8d
	addl	24(%rsi), %r8d
	movl	%r8d, 16(%rsi)
	subl	24(%rcx), %edx
	movl	%edx, 24(%rcx)
	subl	24(%rsi), %edi
	movl	%edi, 24(%rsi)
	movl	20(%rcx), %edx
	movl	20(%rsi), %edi
	movl	%edx, %r8d
	addl	28(%rcx), %r8d
	movl	%r8d, 20(%rcx)
	movl	%edi, %r8d
	addl	28(%rsi), %r8d
	movl	%r8d, 20(%rsi)
	subl	28(%rcx), %edx
	movl	%edx, 28(%rcx)
	subl	28(%rsi), %edi
	movl	%edi, 28(%rsi)
	movl	28(%rcx), %edx
	movl	%edi, 28(%rcx)
	subl	%edx, %eax
	movl	%eax, 28(%rsi)
	movl	16(%rcx), %eax
	movl	16(%rsi), %edx
	movl	%eax, %edi
	addl	20(%rcx), %edi
	movl	%edi, 16(%rcx)
	movl	%edx, %edi
	addl	20(%rsi), %edi
	movl	%edi, 16(%rsi)
	subl	20(%rcx), %eax
	movl	%eax, 20(%rcx)
	subl	20(%rsi), %edx
	movl	%edx, 20(%rsi)
	movl	24(%rcx), %eax
	movl	24(%rsi), %edx
	movl	%eax, %edi
	addl	28(%rcx), %edi
	movl	%edi, 24(%rcx)
	movl	%edx, %edi
	addl	28(%rsi), %edi
	movl	%edi, 24(%rsi)
	subl	28(%rcx), %eax
	movl	%eax, 28(%rcx)
	subl	28(%rsi), %edx
	movl	%edx, 28(%rsi)
	movl	$1, %r9d
	movq	%r9, -208(%rbp)         # 8-byte Spill
.LBB0_19:                               # %for.body278.2
                                        #   Parent Loop BB0_1 Depth=1
                                        # =>  This Inner Loop Header: Depth=2
	movq	-208(%rbp), %rax        # 8-byte Reload
	movq	-192(%rbp), %rcx        # 8-byte Reload
	imulq	$7, %rcx, %rdx
	addq	%rax, %rdx
	movq	-88(%rbp), %rsi         # 8-byte Reload
	cvttss2si	-4(%rsi,%rdx,4), %edi
	imulq	$7, %rcx, %rdx
	addq	%rax, %rdx
	movq	-96(%rbp), %r8          # 8-byte Reload
	cvttss2si	-4(%r8,%rdx,4), %r9d
	movq	-48(%rbp), %rdx         # 8-byte Reload
	movl	(%rdx,%rax,4), %r10d
	movl	%edi, %r11d
	imull	(%rdx,%rax,4), %r11d
	movl	%r9d, %ebx
	movq	-40(%rbp), %r14         # 8-byte Reload
	imull	(%r14,%rax,4), %ebx
	subl	%ebx, %r11d
	movl	%r11d, (%rdx,%rax,4)
	imull	%r9d, %r10d
	imull	(%r14,%rax,4), %edi
	addl	%edi, %r10d
	movl	%r10d, (%r14,%rax,4)
	movq	%rax, %r15
	addq	$1, %r15
	imulq	$7, %rcx, %r12
	addq	%r15, %r12
	cvttss2si	-4(%rsi,%r12,4), %edi
	imulq	$7, %rcx, %r12
	addq	%r15, %r12
	cvttss2si	-4(%r8,%r12,4), %r9d
	movl	4(%rdx,%rax,4), %r10d
	movl	%edi, %r11d
	imull	4(%rdx,%rax,4), %r11d
	movl	%r9d, %ebx
	imull	4(%r14,%rax,4), %ebx
	subl	%ebx, %r11d
	movl	%r11d, 4(%rdx,%rax,4)
	imull	%r9d, %r10d
	imull	4(%r14,%rax,4), %edi
	addl	%edi, %r10d
	movl	%r10d, 4(%r14,%rax,4)
	addq	$1, %r15
	imulq	$7, %rcx, %r12
	addq	%r15, %r12
	cvttss2si	-4(%rsi,%r12,4), %edi
	imulq	$7, %rcx, %r12
	addq	%r15, %r12
	cvttss2si	-4(%r8,%r12,4), %r9d
	movl	8(%rdx,%rax,4), %r10d
	movl	%edi, %r11d
	imull	8(%rdx,%rax,4), %r11d
	movl	%r9d, %ebx
	imull	8(%r14,%rax,4), %ebx
	subl	%ebx, %r11d
	movl	%r11d, 8(%rdx,%rax,4)
	imull	%r9d, %r10d
	imull	8(%r14,%rax,4), %edi
	addl	%edi, %r10d
	movl	%r10d, 8(%r14,%rax,4)
	addq	$1, %r15
	cmpq	$8, %r15
	movq	%r15, -216(%rbp)        # 8-byte Spill
	jne	.LBB0_23
# %bb.20:                               # %for.body316.preheader.2
                                        #   in Loop: Header=BB0_1 Depth=1
	xorl	%eax, %eax
	movl	%eax, %ecx
	movq	%rcx, -224(%rbp)        # 8-byte Spill
	jmp	.LBB0_21
.LBB0_21:                               # %for.body316.2
                                        #   Parent Loop BB0_1 Depth=1
                                        # =>  This Inner Loop Header: Depth=2
	movq	-224(%rbp), %rax        # 8-byte Reload
	movq	-48(%rbp), %rcx         # 8-byte Reload
	movl	(%rcx,%rax,4), %edx
	movq	-192(%rbp), %rsi        # 8-byte Reload
	shlq	$3, %rsi
	addq	%rax, %rsi
	movq	-64(%rbp), %rdi         # 8-byte Reload
	movl	%edx, (%rdi,%rsi,4)
	movq	-40(%rbp), %rsi         # 8-byte Reload
	movl	(%rsi,%rax,4), %edx
	movq	-192(%rbp), %r8         # 8-byte Reload
	shlq	$3, %r8
	addq	%rax, %r8
	movq	-56(%rbp), %r9          # 8-byte Reload
	movl	%edx, (%r9,%r8,4)
	movq	%rax, %r8
	addq	$1, %r8
	movl	4(%rcx,%rax,4), %edx
	movq	-192(%rbp), %r10        # 8-byte Reload
	shlq	$3, %r10
	addq	%r8, %r10
	movl	%edx, (%rdi,%r10,4)
	movl	4(%rsi,%rax,4), %edx
	movq	-192(%rbp), %r10        # 8-byte Reload
	shlq	$3, %r10
	addq	%r8, %r10
	movl	%edx, (%r9,%r10,4)
	addq	$1, %r8
	movl	8(%rcx,%rax,4), %edx
	movq	-192(%rbp), %r10        # 8-byte Reload
	shlq	$3, %r10
	addq	%r8, %r10
	movl	%edx, (%rdi,%r10,4)
	movl	8(%rsi,%rax,4), %edx
	movq	-192(%rbp), %r10        # 8-byte Reload
	shlq	$3, %r10
	addq	%r8, %r10
	movl	%edx, (%r9,%r10,4)
	addq	$1, %r8
	movl	12(%rcx,%rax,4), %edx
	movq	-192(%rbp), %r10        # 8-byte Reload
	shlq	$3, %r10
	addq	%r8, %r10
	movl	%edx, (%rdi,%r10,4)
	movl	12(%rsi,%rax,4), %edx
	movq	-192(%rbp), %rax        # 8-byte Reload
	shlq	$3, %rax
	addq	%r8, %rax
	movl	%edx, (%r9,%rax,4)
	addq	$1, %r8
	cmpq	$8, %r8
	movq	%r8, -224(%rbp)         # 8-byte Spill
	jne	.LBB0_21
# %bb.22:                               # %for.inc332.2
                                        #   in Loop: Header=BB0_1 Depth=1
	xorl	%eax, %eax
	movl	%eax, %ecx
	movq	-192(%rbp), %rdx        # 8-byte Reload
	addq	$1, %rdx
	movq	%rdx, -232(%rbp)        # 8-byte Spill
	movq	%rcx, -240(%rbp)        # 8-byte Spill
	jmp	.LBB0_24
.LBB0_23:                               # %for.body278.3.2
                                        #   in Loop: Header=BB0_19 Depth=2
	movq	-192(%rbp), %rax        # 8-byte Reload
	imulq	$7, %rax, %rcx
	movq	-216(%rbp), %rdx        # 8-byte Reload
	addq	%rdx, %rcx
	movq	-88(%rbp), %rsi         # 8-byte Reload
	cvttss2si	-4(%rsi,%rcx,4), %edi
	imulq	$7, %rax, %rcx
	addq	%rdx, %rcx
	movq	-96(%rbp), %r8          # 8-byte Reload
	cvttss2si	-4(%r8,%rcx,4), %r9d
	movq	-48(%rbp), %rcx         # 8-byte Reload
	movl	(%rcx,%rdx,4), %r10d
	movl	%edi, %r11d
	imull	(%rcx,%rdx,4), %r11d
	movl	%r9d, %ebx
	movq	-40(%rbp), %r14         # 8-byte Reload
	imull	(%r14,%rdx,4), %ebx
	subl	%ebx, %r11d
	movl	%r11d, (%rcx,%rdx,4)
	imull	%r9d, %r10d
	imull	(%r14,%rdx,4), %edi
	addl	%edi, %r10d
	movl	%r10d, (%r14,%rdx,4)
	addq	$1, %rdx
	movq	%rdx, -208(%rbp)        # 8-byte Spill
	jmp	.LBB0_19
.LBB0_24:                               # %for.body3.3
                                        #   Parent Loop BB0_1 Depth=1
                                        # =>  This Inner Loop Header: Depth=2
	movq	-240(%rbp), %rax        # 8-byte Reload
	movq	%rax, %rcx
	shlq	$6, %rcx
	movq	-232(%rbp), %rdx        # 8-byte Reload
	addq	%rdx, %rcx
	movq	-80(%rbp), %rsi         # 8-byte Reload
	movl	(%rsi,%rcx,4), %edi
	movq	-48(%rbp), %rcx         # 8-byte Reload
	movl	%edi, (%rcx,%rax,4)
	movq	%rax, %r8
	shlq	$6, %r8
	addq	%rdx, %r8
	movq	-72(%rbp), %r9          # 8-byte Reload
	movl	(%r9,%r8,4), %edi
	movq	-40(%rbp), %r8          # 8-byte Reload
	movl	%edi, (%r8,%rax,4)
	movq	%rax, %r10
	addq	$1, %r10
	movq	%r10, %r11
	shlq	$6, %r11
	addq	%rdx, %r11
	movl	(%rsi,%r11,4), %edi
	movl	%edi, 4(%rcx,%rax,4)
	movq	%r10, %r11
	shlq	$6, %r11
	addq	%rdx, %r11
	movl	(%r9,%r11,4), %edi
	movl	%edi, 4(%r8,%rax,4)
	addq	$1, %r10
	movq	%r10, %r11
	shlq	$6, %r11
	addq	%rdx, %r11
	movl	(%rsi,%r11,4), %edi
	movl	%edi, 8(%rcx,%rax,4)
	movq	%r10, %r11
	shlq	$6, %r11
	addq	%rdx, %r11
	movl	(%r9,%r11,4), %edi
	movl	%edi, 8(%r8,%rax,4)
	addq	$1, %r10
	movq	%r10, %r11
	shlq	$6, %r11
	addq	%rdx, %r11
	movl	(%rsi,%r11,4), %edi
	movl	%edi, 12(%rcx,%rax,4)
	movq	%r10, %r11
	shlq	$6, %r11
	addq	%rdx, %r11
	movl	(%r9,%r11,4), %edi
	movl	%edi, 12(%r8,%rax,4)
	addq	$1, %r10
	cmpq	$8, %r10
	movq	%r10, -240(%rbp)        # 8-byte Spill
	jne	.LBB0_24
# %bb.25:                               # %for.end.3
                                        #   in Loop: Header=BB0_1 Depth=1
	xorl	%eax, %eax
	movss	.LCPI0_0(%rip), %xmm0   # xmm0 = mem[0],zero,zero,zero
	movq	-48(%rbp), %rcx         # 8-byte Reload
	movl	(%rcx), %edx
	movq	-40(%rbp), %rsi         # 8-byte Reload
	movl	(%rsi), %edi
	movl	%edx, %r8d
	addl	16(%rcx), %r8d
	movl	%r8d, (%rcx)
	movl	%edi, %r8d
	addl	16(%rsi), %r8d
	movl	%r8d, (%rsi)
	subl	16(%rcx), %edx
	movl	%edx, 16(%rcx)
	subl	16(%rsi), %edi
	movl	%edi, 16(%rsi)
	movl	4(%rcx), %edx
	movl	4(%rsi), %edi
	movl	%edx, %r8d
	addl	20(%rcx), %r8d
	movl	%r8d, 4(%rcx)
	movl	%edi, %r8d
	addl	20(%rsi), %r8d
	movl	%r8d, 4(%rsi)
	subl	20(%rcx), %edx
	movl	%edx, 20(%rcx)
	subl	20(%rsi), %edi
	movl	%edi, 20(%rsi)
	movl	8(%rcx), %edx
	movl	8(%rsi), %edi
	movl	%edx, %r8d
	addl	24(%rcx), %r8d
	movl	%r8d, 8(%rcx)
	movl	%edi, %r8d
	addl	24(%rsi), %r8d
	movl	%r8d, 8(%rsi)
	subl	24(%rcx), %edx
	movl	%edx, 24(%rcx)
	subl	24(%rsi), %edi
	movl	%edi, 24(%rsi)
	movl	12(%rcx), %edx
	movl	12(%rsi), %edi
	movl	%edx, %r8d
	addl	28(%rcx), %r8d
	movl	%r8d, 12(%rcx)
	movl	%edi, %r8d
	addl	28(%rsi), %r8d
	movl	%r8d, 12(%rsi)
	subl	28(%rcx), %edx
	movl	%edx, 28(%rcx)
	subl	28(%rsi), %edi
	movl	%edi, 28(%rsi)
	movl	20(%rcx), %edx
	movl	%edx, %edi
	addl	20(%rsi), %edi
	cvtsi2ss	%edi, %xmm1
	mulss	%xmm0, %xmm1
	cvttss2si	%xmm1, %edi
	movl	%edi, 20(%rcx)
	movl	20(%rsi), %edi
	subl	%edx, %edi
	cvtsi2ss	%edi, %xmm1
	mulss	%xmm0, %xmm1
	cvttss2si	%xmm1, %edx
	movl	%edx, 20(%rsi)
	movl	24(%rcx), %edx
	movl	24(%rsi), %edi
	movl	%edi, 24(%rcx)
	movl	%eax, %edi
	subl	%edx, %edi
	movl	%edi, 24(%rsi)
	movl	28(%rcx), %edx
	movl	28(%rsi), %edi
	subl	%edx, %edi
	cvtsi2ss	%edi, %xmm1
	mulss	%xmm0, %xmm1
	cvttss2si	%xmm1, %edi
	movl	%edi, 28(%rcx)
	addl	28(%rsi), %edx
	movl	%eax, %edi
	subl	%edx, %edi
	cvtsi2ss	%edi, %xmm1
	mulss	%xmm0, %xmm1
	cvttss2si	%xmm1, %edx
	movl	%edx, 28(%rsi)
	movl	(%rcx), %edx
	movl	(%rsi), %edi
	movl	%edx, %r8d
	addl	8(%rcx), %r8d
	movl	%r8d, (%rcx)
	movl	%edi, %r8d
	addl	8(%rsi), %r8d
	movl	%r8d, (%rsi)
	subl	8(%rcx), %edx
	movl	%edx, 8(%rcx)
	subl	8(%rsi), %edi
	movl	%edi, 8(%rsi)
	movl	4(%rcx), %edx
	movl	4(%rsi), %edi
	movl	%edx, %r8d
	addl	12(%rcx), %r8d
	movl	%r8d, 4(%rcx)
	movl	%edi, %r8d
	addl	12(%rsi), %r8d
	movl	%r8d, 4(%rsi)
	subl	12(%rcx), %edx
	movl	%edx, 12(%rcx)
	subl	12(%rsi), %edi
	movl	%edi, 12(%rsi)
	movl	12(%rcx), %edx
	movl	%edi, 12(%rcx)
	movl	%eax, %edi
	subl	%edx, %edi
	movl	%edi, 12(%rsi)
	movl	(%rcx), %edx
	movl	(%rsi), %edi
	movl	%edx, %r8d
	addl	4(%rcx), %r8d
	movl	%r8d, (%rcx)
	movl	%edi, %r8d
	addl	4(%rsi), %r8d
	movl	%r8d, (%rsi)
	subl	4(%rcx), %edx
	movl	%edx, 4(%rcx)
	subl	4(%rsi), %edi
	movl	%edi, 4(%rsi)
	movl	8(%rcx), %edx
	movl	8(%rsi), %edi
	movl	%edx, %r8d
	addl	12(%rcx), %r8d
	movl	%r8d, 8(%rcx)
	movl	%edi, %r8d
	addl	12(%rsi), %r8d
	movl	%r8d, 8(%rsi)
	subl	12(%rcx), %edx
	movl	%edx, 12(%rcx)
	subl	12(%rsi), %edi
	movl	%edi, 12(%rsi)
	movl	16(%rcx), %edx
	movl	16(%rsi), %edi
	movl	%edx, %r8d
	addl	24(%rcx), %r8d
	movl	%r8d, 16(%rcx)
	movl	%edi, %r8d
	addl	24(%rsi), %r8d
	movl	%r8d, 16(%rsi)
	subl	24(%rcx), %edx
	movl	%edx, 24(%rcx)
	subl	24(%rsi), %edi
	movl	%edi, 24(%rsi)
	movl	20(%rcx), %edx
	movl	20(%rsi), %edi
	movl	%edx, %r8d
	addl	28(%rcx), %r8d
	movl	%r8d, 20(%rcx)
	movl	%edi, %r8d
	addl	28(%rsi), %r8d
	movl	%r8d, 20(%rsi)
	subl	28(%rcx), %edx
	movl	%edx, 28(%rcx)
	subl	28(%rsi), %edi
	movl	%edi, 28(%rsi)
	movl	28(%rcx), %edx
	movl	%edi, 28(%rcx)
	subl	%edx, %eax
	movl	%eax, 28(%rsi)
	movl	16(%rcx), %eax
	movl	16(%rsi), %edx
	movl	%eax, %edi
	addl	20(%rcx), %edi
	movl	%edi, 16(%rcx)
	movl	%edx, %edi
	addl	20(%rsi), %edi
	movl	%edi, 16(%rsi)
	subl	20(%rcx), %eax
	movl	%eax, 20(%rcx)
	subl	20(%rsi), %edx
	movl	%edx, 20(%rsi)
	movl	24(%rcx), %eax
	movl	24(%rsi), %edx
	movl	%eax, %edi
	addl	28(%rcx), %edi
	movl	%edi, 24(%rcx)
	movl	%edx, %edi
	addl	28(%rsi), %edi
	movl	%edi, 24(%rsi)
	subl	28(%rcx), %eax
	movl	%eax, 28(%rcx)
	subl	28(%rsi), %edx
	movl	%edx, 28(%rsi)
	movl	$1, %r9d
	movq	%r9, -248(%rbp)         # 8-byte Spill
.LBB0_26:                               # %for.body278.3117
                                        #   Parent Loop BB0_1 Depth=1
                                        # =>  This Inner Loop Header: Depth=2
	movq	-248(%rbp), %rax        # 8-byte Reload
	movq	-232(%rbp), %rcx        # 8-byte Reload
	imulq	$7, %rcx, %rdx
	addq	%rax, %rdx
	movq	-88(%rbp), %rsi         # 8-byte Reload
	cvttss2si	-4(%rsi,%rdx,4), %edi
	imulq	$7, %rcx, %rdx
	addq	%rax, %rdx
	movq	-96(%rbp), %r8          # 8-byte Reload
	cvttss2si	-4(%r8,%rdx,4), %r9d
	movq	-48(%rbp), %rdx         # 8-byte Reload
	movl	(%rdx,%rax,4), %r10d
	movl	%edi, %r11d
	imull	(%rdx,%rax,4), %r11d
	movl	%r9d, %ebx
	movq	-40(%rbp), %r14         # 8-byte Reload
	imull	(%r14,%rax,4), %ebx
	subl	%ebx, %r11d
	movl	%r11d, (%rdx,%rax,4)
	imull	%r9d, %r10d
	imull	(%r14,%rax,4), %edi
	addl	%edi, %r10d
	movl	%r10d, (%r14,%rax,4)
	movq	%rax, %r15
	addq	$1, %r15
	imulq	$7, %rcx, %r12
	addq	%r15, %r12
	cvttss2si	-4(%rsi,%r12,4), %edi
	imulq	$7, %rcx, %r12
	addq	%r15, %r12
	cvttss2si	-4(%r8,%r12,4), %r9d
	movl	4(%rdx,%rax,4), %r10d
	movl	%edi, %r11d
	imull	4(%rdx,%rax,4), %r11d
	movl	%r9d, %ebx
	imull	4(%r14,%rax,4), %ebx
	subl	%ebx, %r11d
	movl	%r11d, 4(%rdx,%rax,4)
	imull	%r9d, %r10d
	imull	4(%r14,%rax,4), %edi
	addl	%edi, %r10d
	movl	%r10d, 4(%r14,%rax,4)
	addq	$1, %r15
	imulq	$7, %rcx, %r12
	addq	%r15, %r12
	cvttss2si	-4(%rsi,%r12,4), %edi
	imulq	$7, %rcx, %r12
	addq	%r15, %r12
	cvttss2si	-4(%r8,%r12,4), %r9d
	movl	8(%rdx,%rax,4), %r10d
	movl	%edi, %r11d
	imull	8(%rdx,%rax,4), %r11d
	movl	%r9d, %ebx
	imull	8(%r14,%rax,4), %ebx
	subl	%ebx, %r11d
	movl	%r11d, 8(%rdx,%rax,4)
	imull	%r9d, %r10d
	imull	8(%r14,%rax,4), %edi
	addl	%edi, %r10d
	movl	%r10d, 8(%r14,%rax,4)
	addq	$1, %r15
	cmpq	$8, %r15
	movq	%r15, -256(%rbp)        # 8-byte Spill
	jne	.LBB0_30
# %bb.27:                               # %for.body316.preheader.3
                                        #   in Loop: Header=BB0_1 Depth=1
	xorl	%eax, %eax
	movl	%eax, %ecx
	movq	%rcx, -264(%rbp)        # 8-byte Spill
	jmp	.LBB0_28
.LBB0_28:                               # %for.body316.3
                                        #   Parent Loop BB0_1 Depth=1
                                        # =>  This Inner Loop Header: Depth=2
	movq	-264(%rbp), %rax        # 8-byte Reload
	movq	-48(%rbp), %rcx         # 8-byte Reload
	movl	(%rcx,%rax,4), %edx
	movq	-232(%rbp), %rsi        # 8-byte Reload
	shlq	$3, %rsi
	addq	%rax, %rsi
	movq	-64(%rbp), %rdi         # 8-byte Reload
	movl	%edx, (%rdi,%rsi,4)
	movq	-40(%rbp), %rsi         # 8-byte Reload
	movl	(%rsi,%rax,4), %edx
	movq	-232(%rbp), %r8         # 8-byte Reload
	shlq	$3, %r8
	addq	%rax, %r8
	movq	-56(%rbp), %r9          # 8-byte Reload
	movl	%edx, (%r9,%r8,4)
	movq	%rax, %r8
	addq	$1, %r8
	movl	4(%rcx,%rax,4), %edx
	movq	-232(%rbp), %r10        # 8-byte Reload
	shlq	$3, %r10
	addq	%r8, %r10
	movl	%edx, (%rdi,%r10,4)
	movl	4(%rsi,%rax,4), %edx
	movq	-232(%rbp), %r10        # 8-byte Reload
	shlq	$3, %r10
	addq	%r8, %r10
	movl	%edx, (%r9,%r10,4)
	addq	$1, %r8
	movl	8(%rcx,%rax,4), %edx
	movq	-232(%rbp), %r10        # 8-byte Reload
	shlq	$3, %r10
	addq	%r8, %r10
	movl	%edx, (%rdi,%r10,4)
	movl	8(%rsi,%rax,4), %edx
	movq	-232(%rbp), %r10        # 8-byte Reload
	shlq	$3, %r10
	addq	%r8, %r10
	movl	%edx, (%r9,%r10,4)
	addq	$1, %r8
	movl	12(%rcx,%rax,4), %edx
	movq	-232(%rbp), %r10        # 8-byte Reload
	shlq	$3, %r10
	addq	%r8, %r10
	movl	%edx, (%rdi,%r10,4)
	movl	12(%rsi,%rax,4), %edx
	movq	-232(%rbp), %rax        # 8-byte Reload
	shlq	$3, %rax
	addq	%r8, %rax
	movl	%edx, (%r9,%rax,4)
	addq	$1, %r8
	cmpq	$8, %r8
	movq	%r8, -264(%rbp)         # 8-byte Spill
	jne	.LBB0_28
# %bb.29:                               # %for.inc332.3
                                        #   in Loop: Header=BB0_1 Depth=1
	xorl	%eax, %eax
	movl	%eax, %ecx
	movq	-232(%rbp), %rdx        # 8-byte Reload
	addq	$1, %rdx
	movq	%rdx, -272(%rbp)        # 8-byte Spill
	movq	%rcx, -280(%rbp)        # 8-byte Spill
	jmp	.LBB0_31
.LBB0_30:                               # %for.body278.3.3
                                        #   in Loop: Header=BB0_26 Depth=2
	movq	-232(%rbp), %rax        # 8-byte Reload
	imulq	$7, %rax, %rcx
	movq	-256(%rbp), %rdx        # 8-byte Reload
	addq	%rdx, %rcx
	movq	-88(%rbp), %rsi         # 8-byte Reload
	cvttss2si	-4(%rsi,%rcx,4), %edi
	imulq	$7, %rax, %rcx
	addq	%rdx, %rcx
	movq	-96(%rbp), %r8          # 8-byte Reload
	cvttss2si	-4(%r8,%rcx,4), %r9d
	movq	-48(%rbp), %rcx         # 8-byte Reload
	movl	(%rcx,%rdx,4), %r10d
	movl	%edi, %r11d
	imull	(%rcx,%rdx,4), %r11d
	movl	%r9d, %ebx
	movq	-40(%rbp), %r14         # 8-byte Reload
	imull	(%r14,%rdx,4), %ebx
	subl	%ebx, %r11d
	movl	%r11d, (%rcx,%rdx,4)
	imull	%r9d, %r10d
	imull	(%r14,%rdx,4), %edi
	addl	%edi, %r10d
	movl	%r10d, (%r14,%rdx,4)
	addq	$1, %rdx
	movq	%rdx, -248(%rbp)        # 8-byte Spill
	jmp	.LBB0_26
.LBB0_31:                               # %for.body3.4
                                        #   Parent Loop BB0_1 Depth=1
                                        # =>  This Inner Loop Header: Depth=2
	movq	-280(%rbp), %rax        # 8-byte Reload
	movq	%rax, %rcx
	shlq	$6, %rcx
	movq	-272(%rbp), %rdx        # 8-byte Reload
	addq	%rdx, %rcx
	movq	-80(%rbp), %rsi         # 8-byte Reload
	movl	(%rsi,%rcx,4), %edi
	movq	-48(%rbp), %rcx         # 8-byte Reload
	movl	%edi, (%rcx,%rax,4)
	movq	%rax, %r8
	shlq	$6, %r8
	addq	%rdx, %r8
	movq	-72(%rbp), %r9          # 8-byte Reload
	movl	(%r9,%r8,4), %edi
	movq	-40(%rbp), %r8          # 8-byte Reload
	movl	%edi, (%r8,%rax,4)
	movq	%rax, %r10
	addq	$1, %r10
	movq	%r10, %r11
	shlq	$6, %r11
	addq	%rdx, %r11
	movl	(%rsi,%r11,4), %edi
	movl	%edi, 4(%rcx,%rax,4)
	movq	%r10, %r11
	shlq	$6, %r11
	addq	%rdx, %r11
	movl	(%r9,%r11,4), %edi
	movl	%edi, 4(%r8,%rax,4)
	addq	$1, %r10
	movq	%r10, %r11
	shlq	$6, %r11
	addq	%rdx, %r11
	movl	(%rsi,%r11,4), %edi
	movl	%edi, 8(%rcx,%rax,4)
	movq	%r10, %r11
	shlq	$6, %r11
	addq	%rdx, %r11
	movl	(%r9,%r11,4), %edi
	movl	%edi, 8(%r8,%rax,4)
	addq	$1, %r10
	movq	%r10, %r11
	shlq	$6, %r11
	addq	%rdx, %r11
	movl	(%rsi,%r11,4), %edi
	movl	%edi, 12(%rcx,%rax,4)
	movq	%r10, %r11
	shlq	$6, %r11
	addq	%rdx, %r11
	movl	(%r9,%r11,4), %edi
	movl	%edi, 12(%r8,%rax,4)
	addq	$1, %r10
	cmpq	$8, %r10
	movq	%r10, -280(%rbp)        # 8-byte Spill
	jne	.LBB0_31
# %bb.32:                               # %for.end.4
                                        #   in Loop: Header=BB0_1 Depth=1
	xorl	%eax, %eax
	movss	.LCPI0_0(%rip), %xmm0   # xmm0 = mem[0],zero,zero,zero
	movq	-48(%rbp), %rcx         # 8-byte Reload
	movl	(%rcx), %edx
	movq	-40(%rbp), %rsi         # 8-byte Reload
	movl	(%rsi), %edi
	movl	%edx, %r8d
	addl	16(%rcx), %r8d
	movl	%r8d, (%rcx)
	movl	%edi, %r8d
	addl	16(%rsi), %r8d
	movl	%r8d, (%rsi)
	subl	16(%rcx), %edx
	movl	%edx, 16(%rcx)
	subl	16(%rsi), %edi
	movl	%edi, 16(%rsi)
	movl	4(%rcx), %edx
	movl	4(%rsi), %edi
	movl	%edx, %r8d
	addl	20(%rcx), %r8d
	movl	%r8d, 4(%rcx)
	movl	%edi, %r8d
	addl	20(%rsi), %r8d
	movl	%r8d, 4(%rsi)
	subl	20(%rcx), %edx
	movl	%edx, 20(%rcx)
	subl	20(%rsi), %edi
	movl	%edi, 20(%rsi)
	movl	8(%rcx), %edx
	movl	8(%rsi), %edi
	movl	%edx, %r8d
	addl	24(%rcx), %r8d
	movl	%r8d, 8(%rcx)
	movl	%edi, %r8d
	addl	24(%rsi), %r8d
	movl	%r8d, 8(%rsi)
	subl	24(%rcx), %edx
	movl	%edx, 24(%rcx)
	subl	24(%rsi), %edi
	movl	%edi, 24(%rsi)
	movl	12(%rcx), %edx
	movl	12(%rsi), %edi
	movl	%edx, %r8d
	addl	28(%rcx), %r8d
	movl	%r8d, 12(%rcx)
	movl	%edi, %r8d
	addl	28(%rsi), %r8d
	movl	%r8d, 12(%rsi)
	subl	28(%rcx), %edx
	movl	%edx, 28(%rcx)
	subl	28(%rsi), %edi
	movl	%edi, 28(%rsi)
	movl	20(%rcx), %edx
	movl	%edx, %edi
	addl	20(%rsi), %edi
	cvtsi2ss	%edi, %xmm1
	mulss	%xmm0, %xmm1
	cvttss2si	%xmm1, %edi
	movl	%edi, 20(%rcx)
	movl	20(%rsi), %edi
	subl	%edx, %edi
	cvtsi2ss	%edi, %xmm1
	mulss	%xmm0, %xmm1
	cvttss2si	%xmm1, %edx
	movl	%edx, 20(%rsi)
	movl	24(%rcx), %edx
	movl	24(%rsi), %edi
	movl	%edi, 24(%rcx)
	movl	%eax, %edi
	subl	%edx, %edi
	movl	%edi, 24(%rsi)
	movl	28(%rcx), %edx
	movl	28(%rsi), %edi
	subl	%edx, %edi
	cvtsi2ss	%edi, %xmm1
	mulss	%xmm0, %xmm1
	cvttss2si	%xmm1, %edi
	movl	%edi, 28(%rcx)
	addl	28(%rsi), %edx
	movl	%eax, %edi
	subl	%edx, %edi
	cvtsi2ss	%edi, %xmm1
	mulss	%xmm0, %xmm1
	cvttss2si	%xmm1, %edx
	movl	%edx, 28(%rsi)
	movl	(%rcx), %edx
	movl	(%rsi), %edi
	movl	%edx, %r8d
	addl	8(%rcx), %r8d
	movl	%r8d, (%rcx)
	movl	%edi, %r8d
	addl	8(%rsi), %r8d
	movl	%r8d, (%rsi)
	subl	8(%rcx), %edx
	movl	%edx, 8(%rcx)
	subl	8(%rsi), %edi
	movl	%edi, 8(%rsi)
	movl	4(%rcx), %edx
	movl	4(%rsi), %edi
	movl	%edx, %r8d
	addl	12(%rcx), %r8d
	movl	%r8d, 4(%rcx)
	movl	%edi, %r8d
	addl	12(%rsi), %r8d
	movl	%r8d, 4(%rsi)
	subl	12(%rcx), %edx
	movl	%edx, 12(%rcx)
	subl	12(%rsi), %edi
	movl	%edi, 12(%rsi)
	movl	12(%rcx), %edx
	movl	%edi, 12(%rcx)
	movl	%eax, %edi
	subl	%edx, %edi
	movl	%edi, 12(%rsi)
	movl	(%rcx), %edx
	movl	(%rsi), %edi
	movl	%edx, %r8d
	addl	4(%rcx), %r8d
	movl	%r8d, (%rcx)
	movl	%edi, %r8d
	addl	4(%rsi), %r8d
	movl	%r8d, (%rsi)
	subl	4(%rcx), %edx
	movl	%edx, 4(%rcx)
	subl	4(%rsi), %edi
	movl	%edi, 4(%rsi)
	movl	8(%rcx), %edx
	movl	8(%rsi), %edi
	movl	%edx, %r8d
	addl	12(%rcx), %r8d
	movl	%r8d, 8(%rcx)
	movl	%edi, %r8d
	addl	12(%rsi), %r8d
	movl	%r8d, 8(%rsi)
	subl	12(%rcx), %edx
	movl	%edx, 12(%rcx)
	subl	12(%rsi), %edi
	movl	%edi, 12(%rsi)
	movl	16(%rcx), %edx
	movl	16(%rsi), %edi
	movl	%edx, %r8d
	addl	24(%rcx), %r8d
	movl	%r8d, 16(%rcx)
	movl	%edi, %r8d
	addl	24(%rsi), %r8d
	movl	%r8d, 16(%rsi)
	subl	24(%rcx), %edx
	movl	%edx, 24(%rcx)
	subl	24(%rsi), %edi
	movl	%edi, 24(%rsi)
	movl	20(%rcx), %edx
	movl	20(%rsi), %edi
	movl	%edx, %r8d
	addl	28(%rcx), %r8d
	movl	%r8d, 20(%rcx)
	movl	%edi, %r8d
	addl	28(%rsi), %r8d
	movl	%r8d, 20(%rsi)
	subl	28(%rcx), %edx
	movl	%edx, 28(%rcx)
	subl	28(%rsi), %edi
	movl	%edi, 28(%rsi)
	movl	28(%rcx), %edx
	movl	%edi, 28(%rcx)
	subl	%edx, %eax
	movl	%eax, 28(%rsi)
	movl	16(%rcx), %eax
	movl	16(%rsi), %edx
	movl	%eax, %edi
	addl	20(%rcx), %edi
	movl	%edi, 16(%rcx)
	movl	%edx, %edi
	addl	20(%rsi), %edi
	movl	%edi, 16(%rsi)
	subl	20(%rcx), %eax
	movl	%eax, 20(%rcx)
	subl	20(%rsi), %edx
	movl	%edx, 20(%rsi)
	movl	24(%rcx), %eax
	movl	24(%rsi), %edx
	movl	%eax, %edi
	addl	28(%rcx), %edi
	movl	%edi, 24(%rcx)
	movl	%edx, %edi
	addl	28(%rsi), %edi
	movl	%edi, 24(%rsi)
	subl	28(%rcx), %eax
	movl	%eax, 28(%rcx)
	subl	28(%rsi), %edx
	movl	%edx, 28(%rsi)
	movl	$1, %r9d
	movq	%r9, -288(%rbp)         # 8-byte Spill
.LBB0_33:                               # %for.body278.4
                                        #   Parent Loop BB0_1 Depth=1
                                        # =>  This Inner Loop Header: Depth=2
	movq	-288(%rbp), %rax        # 8-byte Reload
	movq	-272(%rbp), %rcx        # 8-byte Reload
	imulq	$7, %rcx, %rdx
	addq	%rax, %rdx
	movq	-88(%rbp), %rsi         # 8-byte Reload
	cvttss2si	-4(%rsi,%rdx,4), %edi
	imulq	$7, %rcx, %rdx
	addq	%rax, %rdx
	movq	-96(%rbp), %r8          # 8-byte Reload
	cvttss2si	-4(%r8,%rdx,4), %r9d
	movq	-48(%rbp), %rdx         # 8-byte Reload
	movl	(%rdx,%rax,4), %r10d
	movl	%edi, %r11d
	imull	(%rdx,%rax,4), %r11d
	movl	%r9d, %ebx
	movq	-40(%rbp), %r14         # 8-byte Reload
	imull	(%r14,%rax,4), %ebx
	subl	%ebx, %r11d
	movl	%r11d, (%rdx,%rax,4)
	imull	%r9d, %r10d
	imull	(%r14,%rax,4), %edi
	addl	%edi, %r10d
	movl	%r10d, (%r14,%rax,4)
	movq	%rax, %r15
	addq	$1, %r15
	imulq	$7, %rcx, %r12
	addq	%r15, %r12
	cvttss2si	-4(%rsi,%r12,4), %edi
	imulq	$7, %rcx, %r12
	addq	%r15, %r12
	cvttss2si	-4(%r8,%r12,4), %r9d
	movl	4(%rdx,%rax,4), %r10d
	movl	%edi, %r11d
	imull	4(%rdx,%rax,4), %r11d
	movl	%r9d, %ebx
	imull	4(%r14,%rax,4), %ebx
	subl	%ebx, %r11d
	movl	%r11d, 4(%rdx,%rax,4)
	imull	%r9d, %r10d
	imull	4(%r14,%rax,4), %edi
	addl	%edi, %r10d
	movl	%r10d, 4(%r14,%rax,4)
	addq	$1, %r15
	imulq	$7, %rcx, %r12
	addq	%r15, %r12
	cvttss2si	-4(%rsi,%r12,4), %edi
	imulq	$7, %rcx, %r12
	addq	%r15, %r12
	cvttss2si	-4(%r8,%r12,4), %r9d
	movl	8(%rdx,%rax,4), %r10d
	movl	%edi, %r11d
	imull	8(%rdx,%rax,4), %r11d
	movl	%r9d, %ebx
	imull	8(%r14,%rax,4), %ebx
	subl	%ebx, %r11d
	movl	%r11d, 8(%rdx,%rax,4)
	imull	%r9d, %r10d
	imull	8(%r14,%rax,4), %edi
	addl	%edi, %r10d
	movl	%r10d, 8(%r14,%rax,4)
	addq	$1, %r15
	cmpq	$8, %r15
	movq	%r15, -296(%rbp)        # 8-byte Spill
	jne	.LBB0_37
# %bb.34:                               # %for.body316.preheader.4
                                        #   in Loop: Header=BB0_1 Depth=1
	xorl	%eax, %eax
	movl	%eax, %ecx
	movq	%rcx, -304(%rbp)        # 8-byte Spill
	jmp	.LBB0_35
.LBB0_35:                               # %for.body316.4
                                        #   Parent Loop BB0_1 Depth=1
                                        # =>  This Inner Loop Header: Depth=2
	movq	-304(%rbp), %rax        # 8-byte Reload
	movq	-48(%rbp), %rcx         # 8-byte Reload
	movl	(%rcx,%rax,4), %edx
	movq	-272(%rbp), %rsi        # 8-byte Reload
	shlq	$3, %rsi
	addq	%rax, %rsi
	movq	-64(%rbp), %rdi         # 8-byte Reload
	movl	%edx, (%rdi,%rsi,4)
	movq	-40(%rbp), %rsi         # 8-byte Reload
	movl	(%rsi,%rax,4), %edx
	movq	-272(%rbp), %r8         # 8-byte Reload
	shlq	$3, %r8
	addq	%rax, %r8
	movq	-56(%rbp), %r9          # 8-byte Reload
	movl	%edx, (%r9,%r8,4)
	movq	%rax, %r8
	addq	$1, %r8
	movl	4(%rcx,%rax,4), %edx
	movq	-272(%rbp), %r10        # 8-byte Reload
	shlq	$3, %r10
	addq	%r8, %r10
	movl	%edx, (%rdi,%r10,4)
	movl	4(%rsi,%rax,4), %edx
	movq	-272(%rbp), %r10        # 8-byte Reload
	shlq	$3, %r10
	addq	%r8, %r10
	movl	%edx, (%r9,%r10,4)
	addq	$1, %r8
	movl	8(%rcx,%rax,4), %edx
	movq	-272(%rbp), %r10        # 8-byte Reload
	shlq	$3, %r10
	addq	%r8, %r10
	movl	%edx, (%rdi,%r10,4)
	movl	8(%rsi,%rax,4), %edx
	movq	-272(%rbp), %r10        # 8-byte Reload
	shlq	$3, %r10
	addq	%r8, %r10
	movl	%edx, (%r9,%r10,4)
	addq	$1, %r8
	movl	12(%rcx,%rax,4), %edx
	movq	-272(%rbp), %r10        # 8-byte Reload
	shlq	$3, %r10
	addq	%r8, %r10
	movl	%edx, (%rdi,%r10,4)
	movl	12(%rsi,%rax,4), %edx
	movq	-272(%rbp), %rax        # 8-byte Reload
	shlq	$3, %rax
	addq	%r8, %rax
	movl	%edx, (%r9,%rax,4)
	addq	$1, %r8
	cmpq	$8, %r8
	movq	%r8, -304(%rbp)         # 8-byte Spill
	jne	.LBB0_35
# %bb.36:                               # %for.inc332.4
                                        #   in Loop: Header=BB0_1 Depth=1
	xorl	%eax, %eax
	movl	%eax, %ecx
	movq	-272(%rbp), %rdx        # 8-byte Reload
	addq	$1, %rdx
	movq	%rdx, -312(%rbp)        # 8-byte Spill
	movq	%rcx, -320(%rbp)        # 8-byte Spill
	jmp	.LBB0_38
.LBB0_37:                               # %for.body278.3.4
                                        #   in Loop: Header=BB0_33 Depth=2
	movq	-272(%rbp), %rax        # 8-byte Reload
	imulq	$7, %rax, %rcx
	movq	-296(%rbp), %rdx        # 8-byte Reload
	addq	%rdx, %rcx
	movq	-88(%rbp), %rsi         # 8-byte Reload
	cvttss2si	-4(%rsi,%rcx,4), %edi
	imulq	$7, %rax, %rcx
	addq	%rdx, %rcx
	movq	-96(%rbp), %r8          # 8-byte Reload
	cvttss2si	-4(%r8,%rcx,4), %r9d
	movq	-48(%rbp), %rcx         # 8-byte Reload
	movl	(%rcx,%rdx,4), %r10d
	movl	%edi, %r11d
	imull	(%rcx,%rdx,4), %r11d
	movl	%r9d, %ebx
	movq	-40(%rbp), %r14         # 8-byte Reload
	imull	(%r14,%rdx,4), %ebx
	subl	%ebx, %r11d
	movl	%r11d, (%rcx,%rdx,4)
	imull	%r9d, %r10d
	imull	(%r14,%rdx,4), %edi
	addl	%edi, %r10d
	movl	%r10d, (%r14,%rdx,4)
	addq	$1, %rdx
	movq	%rdx, -288(%rbp)        # 8-byte Spill
	jmp	.LBB0_33
.LBB0_38:                               # %for.body3.5
                                        #   Parent Loop BB0_1 Depth=1
                                        # =>  This Inner Loop Header: Depth=2
	movq	-320(%rbp), %rax        # 8-byte Reload
	movq	%rax, %rcx
	shlq	$6, %rcx
	movq	-312(%rbp), %rdx        # 8-byte Reload
	addq	%rdx, %rcx
	movq	-80(%rbp), %rsi         # 8-byte Reload
	movl	(%rsi,%rcx,4), %edi
	movq	-48(%rbp), %rcx         # 8-byte Reload
	movl	%edi, (%rcx,%rax,4)
	movq	%rax, %r8
	shlq	$6, %r8
	addq	%rdx, %r8
	movq	-72(%rbp), %r9          # 8-byte Reload
	movl	(%r9,%r8,4), %edi
	movq	-40(%rbp), %r8          # 8-byte Reload
	movl	%edi, (%r8,%rax,4)
	movq	%rax, %r10
	addq	$1, %r10
	movq	%r10, %r11
	shlq	$6, %r11
	addq	%rdx, %r11
	movl	(%rsi,%r11,4), %edi
	movl	%edi, 4(%rcx,%rax,4)
	movq	%r10, %r11
	shlq	$6, %r11
	addq	%rdx, %r11
	movl	(%r9,%r11,4), %edi
	movl	%edi, 4(%r8,%rax,4)
	addq	$1, %r10
	movq	%r10, %r11
	shlq	$6, %r11
	addq	%rdx, %r11
	movl	(%rsi,%r11,4), %edi
	movl	%edi, 8(%rcx,%rax,4)
	movq	%r10, %r11
	shlq	$6, %r11
	addq	%rdx, %r11
	movl	(%r9,%r11,4), %edi
	movl	%edi, 8(%r8,%rax,4)
	addq	$1, %r10
	movq	%r10, %r11
	shlq	$6, %r11
	addq	%rdx, %r11
	movl	(%rsi,%r11,4), %edi
	movl	%edi, 12(%rcx,%rax,4)
	movq	%r10, %r11
	shlq	$6, %r11
	addq	%rdx, %r11
	movl	(%r9,%r11,4), %edi
	movl	%edi, 12(%r8,%rax,4)
	addq	$1, %r10
	cmpq	$8, %r10
	movq	%r10, -320(%rbp)        # 8-byte Spill
	jne	.LBB0_38
# %bb.39:                               # %for.end.5
                                        #   in Loop: Header=BB0_1 Depth=1
	xorl	%eax, %eax
	movss	.LCPI0_0(%rip), %xmm0   # xmm0 = mem[0],zero,zero,zero
	movq	-48(%rbp), %rcx         # 8-byte Reload
	movl	(%rcx), %edx
	movq	-40(%rbp), %rsi         # 8-byte Reload
	movl	(%rsi), %edi
	movl	%edx, %r8d
	addl	16(%rcx), %r8d
	movl	%r8d, (%rcx)
	movl	%edi, %r8d
	addl	16(%rsi), %r8d
	movl	%r8d, (%rsi)
	subl	16(%rcx), %edx
	movl	%edx, 16(%rcx)
	subl	16(%rsi), %edi
	movl	%edi, 16(%rsi)
	movl	4(%rcx), %edx
	movl	4(%rsi), %edi
	movl	%edx, %r8d
	addl	20(%rcx), %r8d
	movl	%r8d, 4(%rcx)
	movl	%edi, %r8d
	addl	20(%rsi), %r8d
	movl	%r8d, 4(%rsi)
	subl	20(%rcx), %edx
	movl	%edx, 20(%rcx)
	subl	20(%rsi), %edi
	movl	%edi, 20(%rsi)
	movl	8(%rcx), %edx
	movl	8(%rsi), %edi
	movl	%edx, %r8d
	addl	24(%rcx), %r8d
	movl	%r8d, 8(%rcx)
	movl	%edi, %r8d
	addl	24(%rsi), %r8d
	movl	%r8d, 8(%rsi)
	subl	24(%rcx), %edx
	movl	%edx, 24(%rcx)
	subl	24(%rsi), %edi
	movl	%edi, 24(%rsi)
	movl	12(%rcx), %edx
	movl	12(%rsi), %edi
	movl	%edx, %r8d
	addl	28(%rcx), %r8d
	movl	%r8d, 12(%rcx)
	movl	%edi, %r8d
	addl	28(%rsi), %r8d
	movl	%r8d, 12(%rsi)
	subl	28(%rcx), %edx
	movl	%edx, 28(%rcx)
	subl	28(%rsi), %edi
	movl	%edi, 28(%rsi)
	movl	20(%rcx), %edx
	movl	%edx, %edi
	addl	20(%rsi), %edi
	cvtsi2ss	%edi, %xmm1
	mulss	%xmm0, %xmm1
	cvttss2si	%xmm1, %edi
	movl	%edi, 20(%rcx)
	movl	20(%rsi), %edi
	subl	%edx, %edi
	cvtsi2ss	%edi, %xmm1
	mulss	%xmm0, %xmm1
	cvttss2si	%xmm1, %edx
	movl	%edx, 20(%rsi)
	movl	24(%rcx), %edx
	movl	24(%rsi), %edi
	movl	%edi, 24(%rcx)
	movl	%eax, %edi
	subl	%edx, %edi
	movl	%edi, 24(%rsi)
	movl	28(%rcx), %edx
	movl	28(%rsi), %edi
	subl	%edx, %edi
	cvtsi2ss	%edi, %xmm1
	mulss	%xmm0, %xmm1
	cvttss2si	%xmm1, %edi
	movl	%edi, 28(%rcx)
	addl	28(%rsi), %edx
	movl	%eax, %edi
	subl	%edx, %edi
	cvtsi2ss	%edi, %xmm1
	mulss	%xmm0, %xmm1
	cvttss2si	%xmm1, %edx
	movl	%edx, 28(%rsi)
	movl	(%rcx), %edx
	movl	(%rsi), %edi
	movl	%edx, %r8d
	addl	8(%rcx), %r8d
	movl	%r8d, (%rcx)
	movl	%edi, %r8d
	addl	8(%rsi), %r8d
	movl	%r8d, (%rsi)
	subl	8(%rcx), %edx
	movl	%edx, 8(%rcx)
	subl	8(%rsi), %edi
	movl	%edi, 8(%rsi)
	movl	4(%rcx), %edx
	movl	4(%rsi), %edi
	movl	%edx, %r8d
	addl	12(%rcx), %r8d
	movl	%r8d, 4(%rcx)
	movl	%edi, %r8d
	addl	12(%rsi), %r8d
	movl	%r8d, 4(%rsi)
	subl	12(%rcx), %edx
	movl	%edx, 12(%rcx)
	subl	12(%rsi), %edi
	movl	%edi, 12(%rsi)
	movl	12(%rcx), %edx
	movl	%edi, 12(%rcx)
	movl	%eax, %edi
	subl	%edx, %edi
	movl	%edi, 12(%rsi)
	movl	(%rcx), %edx
	movl	(%rsi), %edi
	movl	%edx, %r8d
	addl	4(%rcx), %r8d
	movl	%r8d, (%rcx)
	movl	%edi, %r8d
	addl	4(%rsi), %r8d
	movl	%r8d, (%rsi)
	subl	4(%rcx), %edx
	movl	%edx, 4(%rcx)
	subl	4(%rsi), %edi
	movl	%edi, 4(%rsi)
	movl	8(%rcx), %edx
	movl	8(%rsi), %edi
	movl	%edx, %r8d
	addl	12(%rcx), %r8d
	movl	%r8d, 8(%rcx)
	movl	%edi, %r8d
	addl	12(%rsi), %r8d
	movl	%r8d, 8(%rsi)
	subl	12(%rcx), %edx
	movl	%edx, 12(%rcx)
	subl	12(%rsi), %edi
	movl	%edi, 12(%rsi)
	movl	16(%rcx), %edx
	movl	16(%rsi), %edi
	movl	%edx, %r8d
	addl	24(%rcx), %r8d
	movl	%r8d, 16(%rcx)
	movl	%edi, %r8d
	addl	24(%rsi), %r8d
	movl	%r8d, 16(%rsi)
	subl	24(%rcx), %edx
	movl	%edx, 24(%rcx)
	subl	24(%rsi), %edi
	movl	%edi, 24(%rsi)
	movl	20(%rcx), %edx
	movl	20(%rsi), %edi
	movl	%edx, %r8d
	addl	28(%rcx), %r8d
	movl	%r8d, 20(%rcx)
	movl	%edi, %r8d
	addl	28(%rsi), %r8d
	movl	%r8d, 20(%rsi)
	subl	28(%rcx), %edx
	movl	%edx, 28(%rcx)
	subl	28(%rsi), %edi
	movl	%edi, 28(%rsi)
	movl	28(%rcx), %edx
	movl	%edi, 28(%rcx)
	subl	%edx, %eax
	movl	%eax, 28(%rsi)
	movl	16(%rcx), %eax
	movl	16(%rsi), %edx
	movl	%eax, %edi
	addl	20(%rcx), %edi
	movl	%edi, 16(%rcx)
	movl	%edx, %edi
	addl	20(%rsi), %edi
	movl	%edi, 16(%rsi)
	subl	20(%rcx), %eax
	movl	%eax, 20(%rcx)
	subl	20(%rsi), %edx
	movl	%edx, 20(%rsi)
	movl	24(%rcx), %eax
	movl	24(%rsi), %edx
	movl	%eax, %edi
	addl	28(%rcx), %edi
	movl	%edi, 24(%rcx)
	movl	%edx, %edi
	addl	28(%rsi), %edi
	movl	%edi, 24(%rsi)
	subl	28(%rcx), %eax
	movl	%eax, 28(%rcx)
	subl	28(%rsi), %edx
	movl	%edx, 28(%rsi)
	movl	$1, %r9d
	movq	%r9, -328(%rbp)         # 8-byte Spill
.LBB0_40:                               # %for.body278.5
                                        #   Parent Loop BB0_1 Depth=1
                                        # =>  This Inner Loop Header: Depth=2
	movq	-328(%rbp), %rax        # 8-byte Reload
	movq	-312(%rbp), %rcx        # 8-byte Reload
	imulq	$7, %rcx, %rdx
	addq	%rax, %rdx
	movq	-88(%rbp), %rsi         # 8-byte Reload
	cvttss2si	-4(%rsi,%rdx,4), %edi
	imulq	$7, %rcx, %rdx
	addq	%rax, %rdx
	movq	-96(%rbp), %r8          # 8-byte Reload
	cvttss2si	-4(%r8,%rdx,4), %r9d
	movq	-48(%rbp), %rdx         # 8-byte Reload
	movl	(%rdx,%rax,4), %r10d
	movl	%edi, %r11d
	imull	(%rdx,%rax,4), %r11d
	movl	%r9d, %ebx
	movq	-40(%rbp), %r14         # 8-byte Reload
	imull	(%r14,%rax,4), %ebx
	subl	%ebx, %r11d
	movl	%r11d, (%rdx,%rax,4)
	imull	%r9d, %r10d
	imull	(%r14,%rax,4), %edi
	addl	%edi, %r10d
	movl	%r10d, (%r14,%rax,4)
	movq	%rax, %r15
	addq	$1, %r15
	imulq	$7, %rcx, %r12
	addq	%r15, %r12
	cvttss2si	-4(%rsi,%r12,4), %edi
	imulq	$7, %rcx, %r12
	addq	%r15, %r12
	cvttss2si	-4(%r8,%r12,4), %r9d
	movl	4(%rdx,%rax,4), %r10d
	movl	%edi, %r11d
	imull	4(%rdx,%rax,4), %r11d
	movl	%r9d, %ebx
	imull	4(%r14,%rax,4), %ebx
	subl	%ebx, %r11d
	movl	%r11d, 4(%rdx,%rax,4)
	imull	%r9d, %r10d
	imull	4(%r14,%rax,4), %edi
	addl	%edi, %r10d
	movl	%r10d, 4(%r14,%rax,4)
	addq	$1, %r15
	imulq	$7, %rcx, %r12
	addq	%r15, %r12
	cvttss2si	-4(%rsi,%r12,4), %edi
	imulq	$7, %rcx, %r12
	addq	%r15, %r12
	cvttss2si	-4(%r8,%r12,4), %r9d
	movl	8(%rdx,%rax,4), %r10d
	movl	%edi, %r11d
	imull	8(%rdx,%rax,4), %r11d
	movl	%r9d, %ebx
	imull	8(%r14,%rax,4), %ebx
	subl	%ebx, %r11d
	movl	%r11d, 8(%rdx,%rax,4)
	imull	%r9d, %r10d
	imull	8(%r14,%rax,4), %edi
	addl	%edi, %r10d
	movl	%r10d, 8(%r14,%rax,4)
	addq	$1, %r15
	cmpq	$8, %r15
	movq	%r15, -336(%rbp)        # 8-byte Spill
	jne	.LBB0_44
# %bb.41:                               # %for.body316.preheader.5
                                        #   in Loop: Header=BB0_1 Depth=1
	xorl	%eax, %eax
	movl	%eax, %ecx
	movq	%rcx, -344(%rbp)        # 8-byte Spill
	jmp	.LBB0_42
.LBB0_42:                               # %for.body316.5
                                        #   Parent Loop BB0_1 Depth=1
                                        # =>  This Inner Loop Header: Depth=2
	movq	-344(%rbp), %rax        # 8-byte Reload
	movq	-48(%rbp), %rcx         # 8-byte Reload
	movl	(%rcx,%rax,4), %edx
	movq	-312(%rbp), %rsi        # 8-byte Reload
	shlq	$3, %rsi
	addq	%rax, %rsi
	movq	-64(%rbp), %rdi         # 8-byte Reload
	movl	%edx, (%rdi,%rsi,4)
	movq	-40(%rbp), %rsi         # 8-byte Reload
	movl	(%rsi,%rax,4), %edx
	movq	-312(%rbp), %r8         # 8-byte Reload
	shlq	$3, %r8
	addq	%rax, %r8
	movq	-56(%rbp), %r9          # 8-byte Reload
	movl	%edx, (%r9,%r8,4)
	movq	%rax, %r8
	addq	$1, %r8
	movl	4(%rcx,%rax,4), %edx
	movq	-312(%rbp), %r10        # 8-byte Reload
	shlq	$3, %r10
	addq	%r8, %r10
	movl	%edx, (%rdi,%r10,4)
	movl	4(%rsi,%rax,4), %edx
	movq	-312(%rbp), %r10        # 8-byte Reload
	shlq	$3, %r10
	addq	%r8, %r10
	movl	%edx, (%r9,%r10,4)
	addq	$1, %r8
	movl	8(%rcx,%rax,4), %edx
	movq	-312(%rbp), %r10        # 8-byte Reload
	shlq	$3, %r10
	addq	%r8, %r10
	movl	%edx, (%rdi,%r10,4)
	movl	8(%rsi,%rax,4), %edx
	movq	-312(%rbp), %r10        # 8-byte Reload
	shlq	$3, %r10
	addq	%r8, %r10
	movl	%edx, (%r9,%r10,4)
	addq	$1, %r8
	movl	12(%rcx,%rax,4), %edx
	movq	-312(%rbp), %r10        # 8-byte Reload
	shlq	$3, %r10
	addq	%r8, %r10
	movl	%edx, (%rdi,%r10,4)
	movl	12(%rsi,%rax,4), %edx
	movq	-312(%rbp), %rax        # 8-byte Reload
	shlq	$3, %rax
	addq	%r8, %rax
	movl	%edx, (%r9,%rax,4)
	addq	$1, %r8
	cmpq	$8, %r8
	movq	%r8, -344(%rbp)         # 8-byte Spill
	jne	.LBB0_42
# %bb.43:                               # %for.inc332.5
                                        #   in Loop: Header=BB0_1 Depth=1
	xorl	%eax, %eax
	movl	%eax, %ecx
	movq	-312(%rbp), %rdx        # 8-byte Reload
	addq	$1, %rdx
	movq	%rdx, -352(%rbp)        # 8-byte Spill
	movq	%rcx, -360(%rbp)        # 8-byte Spill
	jmp	.LBB0_45
.LBB0_44:                               # %for.body278.3.5
                                        #   in Loop: Header=BB0_40 Depth=2
	movq	-312(%rbp), %rax        # 8-byte Reload
	imulq	$7, %rax, %rcx
	movq	-336(%rbp), %rdx        # 8-byte Reload
	addq	%rdx, %rcx
	movq	-88(%rbp), %rsi         # 8-byte Reload
	cvttss2si	-4(%rsi,%rcx,4), %edi
	imulq	$7, %rax, %rcx
	addq	%rdx, %rcx
	movq	-96(%rbp), %r8          # 8-byte Reload
	cvttss2si	-4(%r8,%rcx,4), %r9d
	movq	-48(%rbp), %rcx         # 8-byte Reload
	movl	(%rcx,%rdx,4), %r10d
	movl	%edi, %r11d
	imull	(%rcx,%rdx,4), %r11d
	movl	%r9d, %ebx
	movq	-40(%rbp), %r14         # 8-byte Reload
	imull	(%r14,%rdx,4), %ebx
	subl	%ebx, %r11d
	movl	%r11d, (%rcx,%rdx,4)
	imull	%r9d, %r10d
	imull	(%r14,%rdx,4), %edi
	addl	%edi, %r10d
	movl	%r10d, (%r14,%rdx,4)
	addq	$1, %rdx
	movq	%rdx, -328(%rbp)        # 8-byte Spill
	jmp	.LBB0_40
.LBB0_45:                               # %for.body3.6
                                        #   Parent Loop BB0_1 Depth=1
                                        # =>  This Inner Loop Header: Depth=2
	movq	-360(%rbp), %rax        # 8-byte Reload
	movq	%rax, %rcx
	shlq	$6, %rcx
	movq	-352(%rbp), %rdx        # 8-byte Reload
	addq	%rdx, %rcx
	movq	-80(%rbp), %rsi         # 8-byte Reload
	movl	(%rsi,%rcx,4), %edi
	movq	-48(%rbp), %rcx         # 8-byte Reload
	movl	%edi, (%rcx,%rax,4)
	movq	%rax, %r8
	shlq	$6, %r8
	addq	%rdx, %r8
	movq	-72(%rbp), %r9          # 8-byte Reload
	movl	(%r9,%r8,4), %edi
	movq	-40(%rbp), %r8          # 8-byte Reload
	movl	%edi, (%r8,%rax,4)
	movq	%rax, %r10
	addq	$1, %r10
	movq	%r10, %r11
	shlq	$6, %r11
	addq	%rdx, %r11
	movl	(%rsi,%r11,4), %edi
	movl	%edi, 4(%rcx,%rax,4)
	movq	%r10, %r11
	shlq	$6, %r11
	addq	%rdx, %r11
	movl	(%r9,%r11,4), %edi
	movl	%edi, 4(%r8,%rax,4)
	addq	$1, %r10
	movq	%r10, %r11
	shlq	$6, %r11
	addq	%rdx, %r11
	movl	(%rsi,%r11,4), %edi
	movl	%edi, 8(%rcx,%rax,4)
	movq	%r10, %r11
	shlq	$6, %r11
	addq	%rdx, %r11
	movl	(%r9,%r11,4), %edi
	movl	%edi, 8(%r8,%rax,4)
	addq	$1, %r10
	movq	%r10, %r11
	shlq	$6, %r11
	addq	%rdx, %r11
	movl	(%rsi,%r11,4), %edi
	movl	%edi, 12(%rcx,%rax,4)
	movq	%r10, %r11
	shlq	$6, %r11
	addq	%rdx, %r11
	movl	(%r9,%r11,4), %edi
	movl	%edi, 12(%r8,%rax,4)
	addq	$1, %r10
	cmpq	$8, %r10
	movq	%r10, -360(%rbp)        # 8-byte Spill
	jne	.LBB0_45
# %bb.46:                               # %for.end.6
                                        #   in Loop: Header=BB0_1 Depth=1
	xorl	%eax, %eax
	movss	.LCPI0_0(%rip), %xmm0   # xmm0 = mem[0],zero,zero,zero
	movq	-48(%rbp), %rcx         # 8-byte Reload
	movl	(%rcx), %edx
	movq	-40(%rbp), %rsi         # 8-byte Reload
	movl	(%rsi), %edi
	movl	%edx, %r8d
	addl	16(%rcx), %r8d
	movl	%r8d, (%rcx)
	movl	%edi, %r8d
	addl	16(%rsi), %r8d
	movl	%r8d, (%rsi)
	subl	16(%rcx), %edx
	movl	%edx, 16(%rcx)
	subl	16(%rsi), %edi
	movl	%edi, 16(%rsi)
	movl	4(%rcx), %edx
	movl	4(%rsi), %edi
	movl	%edx, %r8d
	addl	20(%rcx), %r8d
	movl	%r8d, 4(%rcx)
	movl	%edi, %r8d
	addl	20(%rsi), %r8d
	movl	%r8d, 4(%rsi)
	subl	20(%rcx), %edx
	movl	%edx, 20(%rcx)
	subl	20(%rsi), %edi
	movl	%edi, 20(%rsi)
	movl	8(%rcx), %edx
	movl	8(%rsi), %edi
	movl	%edx, %r8d
	addl	24(%rcx), %r8d
	movl	%r8d, 8(%rcx)
	movl	%edi, %r8d
	addl	24(%rsi), %r8d
	movl	%r8d, 8(%rsi)
	subl	24(%rcx), %edx
	movl	%edx, 24(%rcx)
	subl	24(%rsi), %edi
	movl	%edi, 24(%rsi)
	movl	12(%rcx), %edx
	movl	12(%rsi), %edi
	movl	%edx, %r8d
	addl	28(%rcx), %r8d
	movl	%r8d, 12(%rcx)
	movl	%edi, %r8d
	addl	28(%rsi), %r8d
	movl	%r8d, 12(%rsi)
	subl	28(%rcx), %edx
	movl	%edx, 28(%rcx)
	subl	28(%rsi), %edi
	movl	%edi, 28(%rsi)
	movl	20(%rcx), %edx
	movl	%edx, %edi
	addl	20(%rsi), %edi
	cvtsi2ss	%edi, %xmm1
	mulss	%xmm0, %xmm1
	cvttss2si	%xmm1, %edi
	movl	%edi, 20(%rcx)
	movl	20(%rsi), %edi
	subl	%edx, %edi
	cvtsi2ss	%edi, %xmm1
	mulss	%xmm0, %xmm1
	cvttss2si	%xmm1, %edx
	movl	%edx, 20(%rsi)
	movl	24(%rcx), %edx
	movl	24(%rsi), %edi
	movl	%edi, 24(%rcx)
	movl	%eax, %edi
	subl	%edx, %edi
	movl	%edi, 24(%rsi)
	movl	28(%rcx), %edx
	movl	28(%rsi), %edi
	subl	%edx, %edi
	cvtsi2ss	%edi, %xmm1
	mulss	%xmm0, %xmm1
	cvttss2si	%xmm1, %edi
	movl	%edi, 28(%rcx)
	addl	28(%rsi), %edx
	movl	%eax, %edi
	subl	%edx, %edi
	cvtsi2ss	%edi, %xmm1
	mulss	%xmm0, %xmm1
	cvttss2si	%xmm1, %edx
	movl	%edx, 28(%rsi)
	movl	(%rcx), %edx
	movl	(%rsi), %edi
	movl	%edx, %r8d
	addl	8(%rcx), %r8d
	movl	%r8d, (%rcx)
	movl	%edi, %r8d
	addl	8(%rsi), %r8d
	movl	%r8d, (%rsi)
	subl	8(%rcx), %edx
	movl	%edx, 8(%rcx)
	subl	8(%rsi), %edi
	movl	%edi, 8(%rsi)
	movl	4(%rcx), %edx
	movl	4(%rsi), %edi
	movl	%edx, %r8d
	addl	12(%rcx), %r8d
	movl	%r8d, 4(%rcx)
	movl	%edi, %r8d
	addl	12(%rsi), %r8d
	movl	%r8d, 4(%rsi)
	subl	12(%rcx), %edx
	movl	%edx, 12(%rcx)
	subl	12(%rsi), %edi
	movl	%edi, 12(%rsi)
	movl	12(%rcx), %edx
	movl	%edi, 12(%rcx)
	movl	%eax, %edi
	subl	%edx, %edi
	movl	%edi, 12(%rsi)
	movl	(%rcx), %edx
	movl	(%rsi), %edi
	movl	%edx, %r8d
	addl	4(%rcx), %r8d
	movl	%r8d, (%rcx)
	movl	%edi, %r8d
	addl	4(%rsi), %r8d
	movl	%r8d, (%rsi)
	subl	4(%rcx), %edx
	movl	%edx, 4(%rcx)
	subl	4(%rsi), %edi
	movl	%edi, 4(%rsi)
	movl	8(%rcx), %edx
	movl	8(%rsi), %edi
	movl	%edx, %r8d
	addl	12(%rcx), %r8d
	movl	%r8d, 8(%rcx)
	movl	%edi, %r8d
	addl	12(%rsi), %r8d
	movl	%r8d, 8(%rsi)
	subl	12(%rcx), %edx
	movl	%edx, 12(%rcx)
	subl	12(%rsi), %edi
	movl	%edi, 12(%rsi)
	movl	16(%rcx), %edx
	movl	16(%rsi), %edi
	movl	%edx, %r8d
	addl	24(%rcx), %r8d
	movl	%r8d, 16(%rcx)
	movl	%edi, %r8d
	addl	24(%rsi), %r8d
	movl	%r8d, 16(%rsi)
	subl	24(%rcx), %edx
	movl	%edx, 24(%rcx)
	subl	24(%rsi), %edi
	movl	%edi, 24(%rsi)
	movl	20(%rcx), %edx
	movl	20(%rsi), %edi
	movl	%edx, %r8d
	addl	28(%rcx), %r8d
	movl	%r8d, 20(%rcx)
	movl	%edi, %r8d
	addl	28(%rsi), %r8d
	movl	%r8d, 20(%rsi)
	subl	28(%rcx), %edx
	movl	%edx, 28(%rcx)
	subl	28(%rsi), %edi
	movl	%edi, 28(%rsi)
	movl	28(%rcx), %edx
	movl	%edi, 28(%rcx)
	subl	%edx, %eax
	movl	%eax, 28(%rsi)
	movl	16(%rcx), %eax
	movl	16(%rsi), %edx
	movl	%eax, %edi
	addl	20(%rcx), %edi
	movl	%edi, 16(%rcx)
	movl	%edx, %edi
	addl	20(%rsi), %edi
	movl	%edi, 16(%rsi)
	subl	20(%rcx), %eax
	movl	%eax, 20(%rcx)
	subl	20(%rsi), %edx
	movl	%edx, 20(%rsi)
	movl	24(%rcx), %eax
	movl	24(%rsi), %edx
	movl	%eax, %edi
	addl	28(%rcx), %edi
	movl	%edi, 24(%rcx)
	movl	%edx, %edi
	addl	28(%rsi), %edi
	movl	%edi, 24(%rsi)
	subl	28(%rcx), %eax
	movl	%eax, 28(%rcx)
	subl	28(%rsi), %edx
	movl	%edx, 28(%rsi)
	movl	$1, %r9d
	movq	%r9, -368(%rbp)         # 8-byte Spill
.LBB0_47:                               # %for.body278.6
                                        #   Parent Loop BB0_1 Depth=1
                                        # =>  This Inner Loop Header: Depth=2
	movq	-368(%rbp), %rax        # 8-byte Reload
	movq	-352(%rbp), %rcx        # 8-byte Reload
	imulq	$7, %rcx, %rdx
	addq	%rax, %rdx
	movq	-88(%rbp), %rsi         # 8-byte Reload
	cvttss2si	-4(%rsi,%rdx,4), %edi
	imulq	$7, %rcx, %rdx
	addq	%rax, %rdx
	movq	-96(%rbp), %r8          # 8-byte Reload
	cvttss2si	-4(%r8,%rdx,4), %r9d
	movq	-48(%rbp), %rdx         # 8-byte Reload
	movl	(%rdx,%rax,4), %r10d
	movl	%edi, %r11d
	imull	(%rdx,%rax,4), %r11d
	movl	%r9d, %ebx
	movq	-40(%rbp), %r14         # 8-byte Reload
	imull	(%r14,%rax,4), %ebx
	subl	%ebx, %r11d
	movl	%r11d, (%rdx,%rax,4)
	imull	%r9d, %r10d
	imull	(%r14,%rax,4), %edi
	addl	%edi, %r10d
	movl	%r10d, (%r14,%rax,4)
	movq	%rax, %r15
	addq	$1, %r15
	imulq	$7, %rcx, %r12
	addq	%r15, %r12
	cvttss2si	-4(%rsi,%r12,4), %edi
	imulq	$7, %rcx, %r12
	addq	%r15, %r12
	cvttss2si	-4(%r8,%r12,4), %r9d
	movl	4(%rdx,%rax,4), %r10d
	movl	%edi, %r11d
	imull	4(%rdx,%rax,4), %r11d
	movl	%r9d, %ebx
	imull	4(%r14,%rax,4), %ebx
	subl	%ebx, %r11d
	movl	%r11d, 4(%rdx,%rax,4)
	imull	%r9d, %r10d
	imull	4(%r14,%rax,4), %edi
	addl	%edi, %r10d
	movl	%r10d, 4(%r14,%rax,4)
	addq	$1, %r15
	imulq	$7, %rcx, %r12
	addq	%r15, %r12
	cvttss2si	-4(%rsi,%r12,4), %edi
	imulq	$7, %rcx, %r12
	addq	%r15, %r12
	cvttss2si	-4(%r8,%r12,4), %r9d
	movl	8(%rdx,%rax,4), %r10d
	movl	%edi, %r11d
	imull	8(%rdx,%rax,4), %r11d
	movl	%r9d, %ebx
	imull	8(%r14,%rax,4), %ebx
	subl	%ebx, %r11d
	movl	%r11d, 8(%rdx,%rax,4)
	imull	%r9d, %r10d
	imull	8(%r14,%rax,4), %edi
	addl	%edi, %r10d
	movl	%r10d, 8(%r14,%rax,4)
	addq	$1, %r15
	cmpq	$8, %r15
	movq	%r15, -376(%rbp)        # 8-byte Spill
	jne	.LBB0_51
# %bb.48:                               # %for.body316.preheader.6
                                        #   in Loop: Header=BB0_1 Depth=1
	xorl	%eax, %eax
	movl	%eax, %ecx
	movq	%rcx, -384(%rbp)        # 8-byte Spill
	jmp	.LBB0_49
.LBB0_49:                               # %for.body316.6
                                        #   Parent Loop BB0_1 Depth=1
                                        # =>  This Inner Loop Header: Depth=2
	movq	-384(%rbp), %rax        # 8-byte Reload
	movq	-48(%rbp), %rcx         # 8-byte Reload
	movl	(%rcx,%rax,4), %edx
	movq	-352(%rbp), %rsi        # 8-byte Reload
	shlq	$3, %rsi
	addq	%rax, %rsi
	movq	-64(%rbp), %rdi         # 8-byte Reload
	movl	%edx, (%rdi,%rsi,4)
	movq	-40(%rbp), %rsi         # 8-byte Reload
	movl	(%rsi,%rax,4), %edx
	movq	-352(%rbp), %r8         # 8-byte Reload
	shlq	$3, %r8
	addq	%rax, %r8
	movq	-56(%rbp), %r9          # 8-byte Reload
	movl	%edx, (%r9,%r8,4)
	movq	%rax, %r8
	addq	$1, %r8
	movl	4(%rcx,%rax,4), %edx
	movq	-352(%rbp), %r10        # 8-byte Reload
	shlq	$3, %r10
	addq	%r8, %r10
	movl	%edx, (%rdi,%r10,4)
	movl	4(%rsi,%rax,4), %edx
	movq	-352(%rbp), %r10        # 8-byte Reload
	shlq	$3, %r10
	addq	%r8, %r10
	movl	%edx, (%r9,%r10,4)
	addq	$1, %r8
	movl	8(%rcx,%rax,4), %edx
	movq	-352(%rbp), %r10        # 8-byte Reload
	shlq	$3, %r10
	addq	%r8, %r10
	movl	%edx, (%rdi,%r10,4)
	movl	8(%rsi,%rax,4), %edx
	movq	-352(%rbp), %r10        # 8-byte Reload
	shlq	$3, %r10
	addq	%r8, %r10
	movl	%edx, (%r9,%r10,4)
	addq	$1, %r8
	movl	12(%rcx,%rax,4), %edx
	movq	-352(%rbp), %r10        # 8-byte Reload
	shlq	$3, %r10
	addq	%r8, %r10
	movl	%edx, (%rdi,%r10,4)
	movl	12(%rsi,%rax,4), %edx
	movq	-352(%rbp), %rax        # 8-byte Reload
	shlq	$3, %rax
	addq	%r8, %rax
	movl	%edx, (%r9,%rax,4)
	addq	$1, %r8
	cmpq	$8, %r8
	movq	%r8, -384(%rbp)         # 8-byte Spill
	jne	.LBB0_49
# %bb.50:                               # %for.inc332.6
                                        #   in Loop: Header=BB0_1 Depth=1
	xorl	%eax, %eax
	movl	%eax, %ecx
	movq	-352(%rbp), %rdx        # 8-byte Reload
	addq	$1, %rdx
	movq	%rdx, -392(%rbp)        # 8-byte Spill
	movq	%rcx, -400(%rbp)        # 8-byte Spill
	jmp	.LBB0_52
.LBB0_51:                               # %for.body278.3.6
                                        #   in Loop: Header=BB0_47 Depth=2
	movq	-352(%rbp), %rax        # 8-byte Reload
	imulq	$7, %rax, %rcx
	movq	-376(%rbp), %rdx        # 8-byte Reload
	addq	%rdx, %rcx
	movq	-88(%rbp), %rsi         # 8-byte Reload
	cvttss2si	-4(%rsi,%rcx,4), %edi
	imulq	$7, %rax, %rcx
	addq	%rdx, %rcx
	movq	-96(%rbp), %r8          # 8-byte Reload
	cvttss2si	-4(%r8,%rcx,4), %r9d
	movq	-48(%rbp), %rcx         # 8-byte Reload
	movl	(%rcx,%rdx,4), %r10d
	movl	%edi, %r11d
	imull	(%rcx,%rdx,4), %r11d
	movl	%r9d, %ebx
	movq	-40(%rbp), %r14         # 8-byte Reload
	imull	(%r14,%rdx,4), %ebx
	subl	%ebx, %r11d
	movl	%r11d, (%rcx,%rdx,4)
	imull	%r9d, %r10d
	imull	(%r14,%rdx,4), %edi
	addl	%edi, %r10d
	movl	%r10d, (%r14,%rdx,4)
	addq	$1, %rdx
	movq	%rdx, -368(%rbp)        # 8-byte Spill
	jmp	.LBB0_47
.LBB0_52:                               # %for.body3.7
                                        #   Parent Loop BB0_1 Depth=1
                                        # =>  This Inner Loop Header: Depth=2
	movq	-400(%rbp), %rax        # 8-byte Reload
	movq	%rax, %rcx
	shlq	$6, %rcx
	movq	-392(%rbp), %rdx        # 8-byte Reload
	addq	%rdx, %rcx
	movq	-80(%rbp), %rsi         # 8-byte Reload
	movl	(%rsi,%rcx,4), %edi
	movq	-48(%rbp), %rcx         # 8-byte Reload
	movl	%edi, (%rcx,%rax,4)
	movq	%rax, %r8
	shlq	$6, %r8
	addq	%rdx, %r8
	movq	-72(%rbp), %r9          # 8-byte Reload
	movl	(%r9,%r8,4), %edi
	movq	-40(%rbp), %r8          # 8-byte Reload
	movl	%edi, (%r8,%rax,4)
	movq	%rax, %r10
	addq	$1, %r10
	movq	%r10, %r11
	shlq	$6, %r11
	addq	%rdx, %r11
	movl	(%rsi,%r11,4), %edi
	movl	%edi, 4(%rcx,%rax,4)
	movq	%r10, %r11
	shlq	$6, %r11
	addq	%rdx, %r11
	movl	(%r9,%r11,4), %edi
	movl	%edi, 4(%r8,%rax,4)
	addq	$1, %r10
	movq	%r10, %r11
	shlq	$6, %r11
	addq	%rdx, %r11
	movl	(%rsi,%r11,4), %edi
	movl	%edi, 8(%rcx,%rax,4)
	movq	%r10, %r11
	shlq	$6, %r11
	addq	%rdx, %r11
	movl	(%r9,%r11,4), %edi
	movl	%edi, 8(%r8,%rax,4)
	addq	$1, %r10
	movq	%r10, %r11
	shlq	$6, %r11
	addq	%rdx, %r11
	movl	(%rsi,%r11,4), %edi
	movl	%edi, 12(%rcx,%rax,4)
	movq	%r10, %r11
	shlq	$6, %r11
	addq	%rdx, %r11
	movl	(%r9,%r11,4), %edi
	movl	%edi, 12(%r8,%rax,4)
	addq	$1, %r10
	cmpq	$8, %r10
	movq	%r10, -400(%rbp)        # 8-byte Spill
	jne	.LBB0_52
# %bb.53:                               # %for.end.7
                                        #   in Loop: Header=BB0_1 Depth=1
	xorl	%eax, %eax
	movss	.LCPI0_0(%rip), %xmm0   # xmm0 = mem[0],zero,zero,zero
	movq	-48(%rbp), %rcx         # 8-byte Reload
	movl	(%rcx), %edx
	movq	-40(%rbp), %rsi         # 8-byte Reload
	movl	(%rsi), %edi
	movl	%edx, %r8d
	addl	16(%rcx), %r8d
	movl	%r8d, (%rcx)
	movl	%edi, %r8d
	addl	16(%rsi), %r8d
	movl	%r8d, (%rsi)
	subl	16(%rcx), %edx
	movl	%edx, 16(%rcx)
	subl	16(%rsi), %edi
	movl	%edi, 16(%rsi)
	movl	4(%rcx), %edx
	movl	4(%rsi), %edi
	movl	%edx, %r8d
	addl	20(%rcx), %r8d
	movl	%r8d, 4(%rcx)
	movl	%edi, %r8d
	addl	20(%rsi), %r8d
	movl	%r8d, 4(%rsi)
	subl	20(%rcx), %edx
	movl	%edx, 20(%rcx)
	subl	20(%rsi), %edi
	movl	%edi, 20(%rsi)
	movl	8(%rcx), %edx
	movl	8(%rsi), %edi
	movl	%edx, %r8d
	addl	24(%rcx), %r8d
	movl	%r8d, 8(%rcx)
	movl	%edi, %r8d
	addl	24(%rsi), %r8d
	movl	%r8d, 8(%rsi)
	subl	24(%rcx), %edx
	movl	%edx, 24(%rcx)
	subl	24(%rsi), %edi
	movl	%edi, 24(%rsi)
	movl	12(%rcx), %edx
	movl	12(%rsi), %edi
	movl	%edx, %r8d
	addl	28(%rcx), %r8d
	movl	%r8d, 12(%rcx)
	movl	%edi, %r8d
	addl	28(%rsi), %r8d
	movl	%r8d, 12(%rsi)
	subl	28(%rcx), %edx
	movl	%edx, 28(%rcx)
	subl	28(%rsi), %edi
	movl	%edi, 28(%rsi)
	movl	20(%rcx), %edx
	movl	%edx, %edi
	addl	20(%rsi), %edi
	cvtsi2ss	%edi, %xmm1
	mulss	%xmm0, %xmm1
	cvttss2si	%xmm1, %edi
	movl	%edi, 20(%rcx)
	movl	20(%rsi), %edi
	subl	%edx, %edi
	cvtsi2ss	%edi, %xmm1
	mulss	%xmm0, %xmm1
	cvttss2si	%xmm1, %edx
	movl	%edx, 20(%rsi)
	movl	24(%rcx), %edx
	movl	24(%rsi), %edi
	movl	%edi, 24(%rcx)
	movl	%eax, %edi
	subl	%edx, %edi
	movl	%edi, 24(%rsi)
	movl	28(%rcx), %edx
	movl	28(%rsi), %edi
	subl	%edx, %edi
	cvtsi2ss	%edi, %xmm1
	mulss	%xmm0, %xmm1
	cvttss2si	%xmm1, %edi
	movl	%edi, 28(%rcx)
	addl	28(%rsi), %edx
	movl	%eax, %edi
	subl	%edx, %edi
	cvtsi2ss	%edi, %xmm1
	mulss	%xmm0, %xmm1
	cvttss2si	%xmm1, %edx
	movl	%edx, 28(%rsi)
	movl	(%rcx), %edx
	movl	(%rsi), %edi
	movl	%edx, %r8d
	addl	8(%rcx), %r8d
	movl	%r8d, (%rcx)
	movl	%edi, %r8d
	addl	8(%rsi), %r8d
	movl	%r8d, (%rsi)
	subl	8(%rcx), %edx
	movl	%edx, 8(%rcx)
	subl	8(%rsi), %edi
	movl	%edi, 8(%rsi)
	movl	4(%rcx), %edx
	movl	4(%rsi), %edi
	movl	%edx, %r8d
	addl	12(%rcx), %r8d
	movl	%r8d, 4(%rcx)
	movl	%edi, %r8d
	addl	12(%rsi), %r8d
	movl	%r8d, 4(%rsi)
	subl	12(%rcx), %edx
	movl	%edx, 12(%rcx)
	subl	12(%rsi), %edi
	movl	%edi, 12(%rsi)
	movl	12(%rcx), %edx
	movl	%edi, 12(%rcx)
	movl	%eax, %edi
	subl	%edx, %edi
	movl	%edi, 12(%rsi)
	movl	(%rcx), %edx
	movl	(%rsi), %edi
	movl	%edx, %r8d
	addl	4(%rcx), %r8d
	movl	%r8d, (%rcx)
	movl	%edi, %r8d
	addl	4(%rsi), %r8d
	movl	%r8d, (%rsi)
	subl	4(%rcx), %edx
	movl	%edx, 4(%rcx)
	subl	4(%rsi), %edi
	movl	%edi, 4(%rsi)
	movl	8(%rcx), %edx
	movl	8(%rsi), %edi
	movl	%edx, %r8d
	addl	12(%rcx), %r8d
	movl	%r8d, 8(%rcx)
	movl	%edi, %r8d
	addl	12(%rsi), %r8d
	movl	%r8d, 8(%rsi)
	subl	12(%rcx), %edx
	movl	%edx, 12(%rcx)
	subl	12(%rsi), %edi
	movl	%edi, 12(%rsi)
	movl	16(%rcx), %edx
	movl	16(%rsi), %edi
	movl	%edx, %r8d
	addl	24(%rcx), %r8d
	movl	%r8d, 16(%rcx)
	movl	%edi, %r8d
	addl	24(%rsi), %r8d
	movl	%r8d, 16(%rsi)
	subl	24(%rcx), %edx
	movl	%edx, 24(%rcx)
	subl	24(%rsi), %edi
	movl	%edi, 24(%rsi)
	movl	20(%rcx), %edx
	movl	20(%rsi), %edi
	movl	%edx, %r8d
	addl	28(%rcx), %r8d
	movl	%r8d, 20(%rcx)
	movl	%edi, %r8d
	addl	28(%rsi), %r8d
	movl	%r8d, 20(%rsi)
	subl	28(%rcx), %edx
	movl	%edx, 28(%rcx)
	subl	28(%rsi), %edi
	movl	%edi, 28(%rsi)
	movl	28(%rcx), %edx
	movl	%edi, 28(%rcx)
	subl	%edx, %eax
	movl	%eax, 28(%rsi)
	movl	16(%rcx), %eax
	movl	16(%rsi), %edx
	movl	%eax, %edi
	addl	20(%rcx), %edi
	movl	%edi, 16(%rcx)
	movl	%edx, %edi
	addl	20(%rsi), %edi
	movl	%edi, 16(%rsi)
	subl	20(%rcx), %eax
	movl	%eax, 20(%rcx)
	subl	20(%rsi), %edx
	movl	%edx, 20(%rsi)
	movl	24(%rcx), %eax
	movl	24(%rsi), %edx
	movl	%eax, %edi
	addl	28(%rcx), %edi
	movl	%edi, 24(%rcx)
	movl	%edx, %edi
	addl	28(%rsi), %edi
	movl	%edi, 24(%rsi)
	subl	28(%rcx), %eax
	movl	%eax, 28(%rcx)
	subl	28(%rsi), %edx
	movl	%edx, 28(%rsi)
	movl	$1, %r9d
	movq	%r9, -408(%rbp)         # 8-byte Spill
.LBB0_54:                               # %for.body278.7
                                        #   Parent Loop BB0_1 Depth=1
                                        # =>  This Inner Loop Header: Depth=2
	movq	-408(%rbp), %rax        # 8-byte Reload
	movq	-392(%rbp), %rcx        # 8-byte Reload
	imulq	$7, %rcx, %rdx
	addq	%rax, %rdx
	movq	-88(%rbp), %rsi         # 8-byte Reload
	cvttss2si	-4(%rsi,%rdx,4), %edi
	imulq	$7, %rcx, %rdx
	addq	%rax, %rdx
	movq	-96(%rbp), %r8          # 8-byte Reload
	cvttss2si	-4(%r8,%rdx,4), %r9d
	movq	-48(%rbp), %rdx         # 8-byte Reload
	movl	(%rdx,%rax,4), %r10d
	movl	%edi, %r11d
	imull	(%rdx,%rax,4), %r11d
	movl	%r9d, %ebx
	movq	-40(%rbp), %r14         # 8-byte Reload
	imull	(%r14,%rax,4), %ebx
	subl	%ebx, %r11d
	movl	%r11d, (%rdx,%rax,4)
	imull	%r9d, %r10d
	imull	(%r14,%rax,4), %edi
	addl	%edi, %r10d
	movl	%r10d, (%r14,%rax,4)
	movq	%rax, %r15
	addq	$1, %r15
	imulq	$7, %rcx, %r12
	addq	%r15, %r12
	cvttss2si	-4(%rsi,%r12,4), %edi
	imulq	$7, %rcx, %r12
	addq	%r15, %r12
	cvttss2si	-4(%r8,%r12,4), %r9d
	movl	4(%rdx,%rax,4), %r10d
	movl	%edi, %r11d
	imull	4(%rdx,%rax,4), %r11d
	movl	%r9d, %ebx
	imull	4(%r14,%rax,4), %ebx
	subl	%ebx, %r11d
	movl	%r11d, 4(%rdx,%rax,4)
	imull	%r9d, %r10d
	imull	4(%r14,%rax,4), %edi
	addl	%edi, %r10d
	movl	%r10d, 4(%r14,%rax,4)
	addq	$1, %r15
	imulq	$7, %rcx, %r12
	addq	%r15, %r12
	cvttss2si	-4(%rsi,%r12,4), %edi
	imulq	$7, %rcx, %r12
	addq	%r15, %r12
	cvttss2si	-4(%r8,%r12,4), %r9d
	movl	8(%rdx,%rax,4), %r10d
	movl	%edi, %r11d
	imull	8(%rdx,%rax,4), %r11d
	movl	%r9d, %ebx
	imull	8(%r14,%rax,4), %ebx
	subl	%ebx, %r11d
	movl	%r11d, 8(%rdx,%rax,4)
	imull	%r9d, %r10d
	imull	8(%r14,%rax,4), %edi
	addl	%edi, %r10d
	movl	%r10d, 8(%r14,%rax,4)
	addq	$1, %r15
	cmpq	$8, %r15
	movq	%r15, -416(%rbp)        # 8-byte Spill
	jne	.LBB0_58
# %bb.55:                               # %for.body316.preheader.7
                                        #   in Loop: Header=BB0_1 Depth=1
	xorl	%eax, %eax
	movl	%eax, %ecx
	movq	%rcx, -424(%rbp)        # 8-byte Spill
	jmp	.LBB0_56
.LBB0_56:                               # %for.body316.7
                                        #   Parent Loop BB0_1 Depth=1
                                        # =>  This Inner Loop Header: Depth=2
	movq	-424(%rbp), %rax        # 8-byte Reload
	movq	-48(%rbp), %rcx         # 8-byte Reload
	movl	(%rcx,%rax,4), %edx
	movq	-392(%rbp), %rsi        # 8-byte Reload
	shlq	$3, %rsi
	addq	%rax, %rsi
	movq	-64(%rbp), %rdi         # 8-byte Reload
	movl	%edx, (%rdi,%rsi,4)
	movq	-40(%rbp), %rsi         # 8-byte Reload
	movl	(%rsi,%rax,4), %edx
	movq	-392(%rbp), %r8         # 8-byte Reload
	shlq	$3, %r8
	addq	%rax, %r8
	movq	-56(%rbp), %r9          # 8-byte Reload
	movl	%edx, (%r9,%r8,4)
	movq	%rax, %r8
	addq	$1, %r8
	movl	4(%rcx,%rax,4), %edx
	movq	-392(%rbp), %r10        # 8-byte Reload
	shlq	$3, %r10
	addq	%r8, %r10
	movl	%edx, (%rdi,%r10,4)
	movl	4(%rsi,%rax,4), %edx
	movq	-392(%rbp), %r10        # 8-byte Reload
	shlq	$3, %r10
	addq	%r8, %r10
	movl	%edx, (%r9,%r10,4)
	addq	$1, %r8
	movl	8(%rcx,%rax,4), %edx
	movq	-392(%rbp), %r10        # 8-byte Reload
	shlq	$3, %r10
	addq	%r8, %r10
	movl	%edx, (%rdi,%r10,4)
	movl	8(%rsi,%rax,4), %edx
	movq	-392(%rbp), %r10        # 8-byte Reload
	shlq	$3, %r10
	addq	%r8, %r10
	movl	%edx, (%r9,%r10,4)
	addq	$1, %r8
	movl	12(%rcx,%rax,4), %edx
	movq	-392(%rbp), %r10        # 8-byte Reload
	shlq	$3, %r10
	addq	%r8, %r10
	movl	%edx, (%rdi,%r10,4)
	movl	12(%rsi,%rax,4), %edx
	movq	-392(%rbp), %rax        # 8-byte Reload
	shlq	$3, %rax
	addq	%r8, %rax
	movl	%edx, (%r9,%rax,4)
	addq	$1, %r8
	cmpq	$8, %r8
	movq	%r8, -424(%rbp)         # 8-byte Spill
	jne	.LBB0_56
# %bb.57:                               # %for.inc332.7
                                        #   in Loop: Header=BB0_1 Depth=1
	xorl	%eax, %eax
	movl	%eax, %ecx
	movq	-392(%rbp), %rdx        # 8-byte Reload
	addq	$1, %rdx
	movq	%rdx, -432(%rbp)        # 8-byte Spill
	movq	%rcx, -440(%rbp)        # 8-byte Spill
	jmp	.LBB0_59
.LBB0_58:                               # %for.body278.3.7
                                        #   in Loop: Header=BB0_54 Depth=2
	movq	-392(%rbp), %rax        # 8-byte Reload
	imulq	$7, %rax, %rcx
	movq	-416(%rbp), %rdx        # 8-byte Reload
	addq	%rdx, %rcx
	movq	-88(%rbp), %rsi         # 8-byte Reload
	cvttss2si	-4(%rsi,%rcx,4), %edi
	imulq	$7, %rax, %rcx
	addq	%rdx, %rcx
	movq	-96(%rbp), %r8          # 8-byte Reload
	cvttss2si	-4(%r8,%rcx,4), %r9d
	movq	-48(%rbp), %rcx         # 8-byte Reload
	movl	(%rcx,%rdx,4), %r10d
	movl	%edi, %r11d
	imull	(%rcx,%rdx,4), %r11d
	movl	%r9d, %ebx
	movq	-40(%rbp), %r14         # 8-byte Reload
	imull	(%r14,%rdx,4), %ebx
	subl	%ebx, %r11d
	movl	%r11d, (%rcx,%rdx,4)
	imull	%r9d, %r10d
	imull	(%r14,%rdx,4), %edi
	addl	%edi, %r10d
	movl	%r10d, (%r14,%rdx,4)
	addq	$1, %rdx
	movq	%rdx, -408(%rbp)        # 8-byte Spill
	jmp	.LBB0_54
.LBB0_59:                               # %for.body3.8
                                        #   Parent Loop BB0_1 Depth=1
                                        # =>  This Inner Loop Header: Depth=2
	movq	-440(%rbp), %rax        # 8-byte Reload
	movq	%rax, %rcx
	shlq	$6, %rcx
	movq	-432(%rbp), %rdx        # 8-byte Reload
	addq	%rdx, %rcx
	movq	-80(%rbp), %rsi         # 8-byte Reload
	movl	(%rsi,%rcx,4), %edi
	movq	-48(%rbp), %rcx         # 8-byte Reload
	movl	%edi, (%rcx,%rax,4)
	movq	%rax, %r8
	shlq	$6, %r8
	addq	%rdx, %r8
	movq	-72(%rbp), %r9          # 8-byte Reload
	movl	(%r9,%r8,4), %edi
	movq	-40(%rbp), %r8          # 8-byte Reload
	movl	%edi, (%r8,%rax,4)
	movq	%rax, %r10
	addq	$1, %r10
	movq	%r10, %r11
	shlq	$6, %r11
	addq	%rdx, %r11
	movl	(%rsi,%r11,4), %edi
	movl	%edi, 4(%rcx,%rax,4)
	movq	%r10, %r11
	shlq	$6, %r11
	addq	%rdx, %r11
	movl	(%r9,%r11,4), %edi
	movl	%edi, 4(%r8,%rax,4)
	addq	$1, %r10
	movq	%r10, %r11
	shlq	$6, %r11
	addq	%rdx, %r11
	movl	(%rsi,%r11,4), %edi
	movl	%edi, 8(%rcx,%rax,4)
	movq	%r10, %r11
	shlq	$6, %r11
	addq	%rdx, %r11
	movl	(%r9,%r11,4), %edi
	movl	%edi, 8(%r8,%rax,4)
	addq	$1, %r10
	movq	%r10, %r11
	shlq	$6, %r11
	addq	%rdx, %r11
	movl	(%rsi,%r11,4), %edi
	movl	%edi, 12(%rcx,%rax,4)
	movq	%r10, %r11
	shlq	$6, %r11
	addq	%rdx, %r11
	movl	(%r9,%r11,4), %edi
	movl	%edi, 12(%r8,%rax,4)
	addq	$1, %r10
	cmpq	$8, %r10
	movq	%r10, -440(%rbp)        # 8-byte Spill
	jne	.LBB0_59
# %bb.60:                               # %for.end.8
                                        #   in Loop: Header=BB0_1 Depth=1
	xorl	%eax, %eax
	movss	.LCPI0_0(%rip), %xmm0   # xmm0 = mem[0],zero,zero,zero
	movq	-48(%rbp), %rcx         # 8-byte Reload
	movl	(%rcx), %edx
	movq	-40(%rbp), %rsi         # 8-byte Reload
	movl	(%rsi), %edi
	movl	%edx, %r8d
	addl	16(%rcx), %r8d
	movl	%r8d, (%rcx)
	movl	%edi, %r8d
	addl	16(%rsi), %r8d
	movl	%r8d, (%rsi)
	subl	16(%rcx), %edx
	movl	%edx, 16(%rcx)
	subl	16(%rsi), %edi
	movl	%edi, 16(%rsi)
	movl	4(%rcx), %edx
	movl	4(%rsi), %edi
	movl	%edx, %r8d
	addl	20(%rcx), %r8d
	movl	%r8d, 4(%rcx)
	movl	%edi, %r8d
	addl	20(%rsi), %r8d
	movl	%r8d, 4(%rsi)
	subl	20(%rcx), %edx
	movl	%edx, 20(%rcx)
	subl	20(%rsi), %edi
	movl	%edi, 20(%rsi)
	movl	8(%rcx), %edx
	movl	8(%rsi), %edi
	movl	%edx, %r8d
	addl	24(%rcx), %r8d
	movl	%r8d, 8(%rcx)
	movl	%edi, %r8d
	addl	24(%rsi), %r8d
	movl	%r8d, 8(%rsi)
	subl	24(%rcx), %edx
	movl	%edx, 24(%rcx)
	subl	24(%rsi), %edi
	movl	%edi, 24(%rsi)
	movl	12(%rcx), %edx
	movl	12(%rsi), %edi
	movl	%edx, %r8d
	addl	28(%rcx), %r8d
	movl	%r8d, 12(%rcx)
	movl	%edi, %r8d
	addl	28(%rsi), %r8d
	movl	%r8d, 12(%rsi)
	subl	28(%rcx), %edx
	movl	%edx, 28(%rcx)
	subl	28(%rsi), %edi
	movl	%edi, 28(%rsi)
	movl	20(%rcx), %edx
	movl	%edx, %edi
	addl	20(%rsi), %edi
	cvtsi2ss	%edi, %xmm1
	mulss	%xmm0, %xmm1
	cvttss2si	%xmm1, %edi
	movl	%edi, 20(%rcx)
	movl	20(%rsi), %edi
	subl	%edx, %edi
	cvtsi2ss	%edi, %xmm1
	mulss	%xmm0, %xmm1
	cvttss2si	%xmm1, %edx
	movl	%edx, 20(%rsi)
	movl	24(%rcx), %edx
	movl	24(%rsi), %edi
	movl	%edi, 24(%rcx)
	movl	%eax, %edi
	subl	%edx, %edi
	movl	%edi, 24(%rsi)
	movl	28(%rcx), %edx
	movl	28(%rsi), %edi
	subl	%edx, %edi
	cvtsi2ss	%edi, %xmm1
	mulss	%xmm0, %xmm1
	cvttss2si	%xmm1, %edi
	movl	%edi, 28(%rcx)
	addl	28(%rsi), %edx
	movl	%eax, %edi
	subl	%edx, %edi
	cvtsi2ss	%edi, %xmm1
	mulss	%xmm0, %xmm1
	cvttss2si	%xmm1, %edx
	movl	%edx, 28(%rsi)
	movl	(%rcx), %edx
	movl	(%rsi), %edi
	movl	%edx, %r8d
	addl	8(%rcx), %r8d
	movl	%r8d, (%rcx)
	movl	%edi, %r8d
	addl	8(%rsi), %r8d
	movl	%r8d, (%rsi)
	subl	8(%rcx), %edx
	movl	%edx, 8(%rcx)
	subl	8(%rsi), %edi
	movl	%edi, 8(%rsi)
	movl	4(%rcx), %edx
	movl	4(%rsi), %edi
	movl	%edx, %r8d
	addl	12(%rcx), %r8d
	movl	%r8d, 4(%rcx)
	movl	%edi, %r8d
	addl	12(%rsi), %r8d
	movl	%r8d, 4(%rsi)
	subl	12(%rcx), %edx
	movl	%edx, 12(%rcx)
	subl	12(%rsi), %edi
	movl	%edi, 12(%rsi)
	movl	12(%rcx), %edx
	movl	%edi, 12(%rcx)
	movl	%eax, %edi
	subl	%edx, %edi
	movl	%edi, 12(%rsi)
	movl	(%rcx), %edx
	movl	(%rsi), %edi
	movl	%edx, %r8d
	addl	4(%rcx), %r8d
	movl	%r8d, (%rcx)
	movl	%edi, %r8d
	addl	4(%rsi), %r8d
	movl	%r8d, (%rsi)
	subl	4(%rcx), %edx
	movl	%edx, 4(%rcx)
	subl	4(%rsi), %edi
	movl	%edi, 4(%rsi)
	movl	8(%rcx), %edx
	movl	8(%rsi), %edi
	movl	%edx, %r8d
	addl	12(%rcx), %r8d
	movl	%r8d, 8(%rcx)
	movl	%edi, %r8d
	addl	12(%rsi), %r8d
	movl	%r8d, 8(%rsi)
	subl	12(%rcx), %edx
	movl	%edx, 12(%rcx)
	subl	12(%rsi), %edi
	movl	%edi, 12(%rsi)
	movl	16(%rcx), %edx
	movl	16(%rsi), %edi
	movl	%edx, %r8d
	addl	24(%rcx), %r8d
	movl	%r8d, 16(%rcx)
	movl	%edi, %r8d
	addl	24(%rsi), %r8d
	movl	%r8d, 16(%rsi)
	subl	24(%rcx), %edx
	movl	%edx, 24(%rcx)
	subl	24(%rsi), %edi
	movl	%edi, 24(%rsi)
	movl	20(%rcx), %edx
	movl	20(%rsi), %edi
	movl	%edx, %r8d
	addl	28(%rcx), %r8d
	movl	%r8d, 20(%rcx)
	movl	%edi, %r8d
	addl	28(%rsi), %r8d
	movl	%r8d, 20(%rsi)
	subl	28(%rcx), %edx
	movl	%edx, 28(%rcx)
	subl	28(%rsi), %edi
	movl	%edi, 28(%rsi)
	movl	28(%rcx), %edx
	movl	%edi, 28(%rcx)
	subl	%edx, %eax
	movl	%eax, 28(%rsi)
	movl	16(%rcx), %eax
	movl	16(%rsi), %edx
	movl	%eax, %edi
	addl	20(%rcx), %edi
	movl	%edi, 16(%rcx)
	movl	%edx, %edi
	addl	20(%rsi), %edi
	movl	%edi, 16(%rsi)
	subl	20(%rcx), %eax
	movl	%eax, 20(%rcx)
	subl	20(%rsi), %edx
	movl	%edx, 20(%rsi)
	movl	24(%rcx), %eax
	movl	24(%rsi), %edx
	movl	%eax, %edi
	addl	28(%rcx), %edi
	movl	%edi, 24(%rcx)
	movl	%edx, %edi
	addl	28(%rsi), %edi
	movl	%edi, 24(%rsi)
	subl	28(%rcx), %eax
	movl	%eax, 28(%rcx)
	subl	28(%rsi), %edx
	movl	%edx, 28(%rsi)
	movl	$1, %r9d
	movq	%r9, -448(%rbp)         # 8-byte Spill
.LBB0_61:                               # %for.body278.8
                                        #   Parent Loop BB0_1 Depth=1
                                        # =>  This Inner Loop Header: Depth=2
	movq	-448(%rbp), %rax        # 8-byte Reload
	movq	-432(%rbp), %rcx        # 8-byte Reload
	imulq	$7, %rcx, %rdx
	addq	%rax, %rdx
	movq	-88(%rbp), %rsi         # 8-byte Reload
	cvttss2si	-4(%rsi,%rdx,4), %edi
	imulq	$7, %rcx, %rdx
	addq	%rax, %rdx
	movq	-96(%rbp), %r8          # 8-byte Reload
	cvttss2si	-4(%r8,%rdx,4), %r9d
	movq	-48(%rbp), %rdx         # 8-byte Reload
	movl	(%rdx,%rax,4), %r10d
	movl	%edi, %r11d
	imull	(%rdx,%rax,4), %r11d
	movl	%r9d, %ebx
	movq	-40(%rbp), %r14         # 8-byte Reload
	imull	(%r14,%rax,4), %ebx
	subl	%ebx, %r11d
	movl	%r11d, (%rdx,%rax,4)
	imull	%r9d, %r10d
	imull	(%r14,%rax,4), %edi
	addl	%edi, %r10d
	movl	%r10d, (%r14,%rax,4)
	movq	%rax, %r15
	addq	$1, %r15
	imulq	$7, %rcx, %r12
	addq	%r15, %r12
	cvttss2si	-4(%rsi,%r12,4), %edi
	imulq	$7, %rcx, %r12
	addq	%r15, %r12
	cvttss2si	-4(%r8,%r12,4), %r9d
	movl	4(%rdx,%rax,4), %r10d
	movl	%edi, %r11d
	imull	4(%rdx,%rax,4), %r11d
	movl	%r9d, %ebx
	imull	4(%r14,%rax,4), %ebx
	subl	%ebx, %r11d
	movl	%r11d, 4(%rdx,%rax,4)
	imull	%r9d, %r10d
	imull	4(%r14,%rax,4), %edi
	addl	%edi, %r10d
	movl	%r10d, 4(%r14,%rax,4)
	addq	$1, %r15
	imulq	$7, %rcx, %r12
	addq	%r15, %r12
	cvttss2si	-4(%rsi,%r12,4), %edi
	imulq	$7, %rcx, %r12
	addq	%r15, %r12
	cvttss2si	-4(%r8,%r12,4), %r9d
	movl	8(%rdx,%rax,4), %r10d
	movl	%edi, %r11d
	imull	8(%rdx,%rax,4), %r11d
	movl	%r9d, %ebx
	imull	8(%r14,%rax,4), %ebx
	subl	%ebx, %r11d
	movl	%r11d, 8(%rdx,%rax,4)
	imull	%r9d, %r10d
	imull	8(%r14,%rax,4), %edi
	addl	%edi, %r10d
	movl	%r10d, 8(%r14,%rax,4)
	addq	$1, %r15
	cmpq	$8, %r15
	movq	%r15, -456(%rbp)        # 8-byte Spill
	jne	.LBB0_65
# %bb.62:                               # %for.body316.preheader.8
                                        #   in Loop: Header=BB0_1 Depth=1
	xorl	%eax, %eax
	movl	%eax, %ecx
	movq	%rcx, -464(%rbp)        # 8-byte Spill
	jmp	.LBB0_63
.LBB0_63:                               # %for.body316.8
                                        #   Parent Loop BB0_1 Depth=1
                                        # =>  This Inner Loop Header: Depth=2
	movq	-464(%rbp), %rax        # 8-byte Reload
	movq	-48(%rbp), %rcx         # 8-byte Reload
	movl	(%rcx,%rax,4), %edx
	movq	-432(%rbp), %rsi        # 8-byte Reload
	shlq	$3, %rsi
	addq	%rax, %rsi
	movq	-64(%rbp), %rdi         # 8-byte Reload
	movl	%edx, (%rdi,%rsi,4)
	movq	-40(%rbp), %rsi         # 8-byte Reload
	movl	(%rsi,%rax,4), %edx
	movq	-432(%rbp), %r8         # 8-byte Reload
	shlq	$3, %r8
	addq	%rax, %r8
	movq	-56(%rbp), %r9          # 8-byte Reload
	movl	%edx, (%r9,%r8,4)
	movq	%rax, %r8
	addq	$1, %r8
	movl	4(%rcx,%rax,4), %edx
	movq	-432(%rbp), %r10        # 8-byte Reload
	shlq	$3, %r10
	addq	%r8, %r10
	movl	%edx, (%rdi,%r10,4)
	movl	4(%rsi,%rax,4), %edx
	movq	-432(%rbp), %r10        # 8-byte Reload
	shlq	$3, %r10
	addq	%r8, %r10
	movl	%edx, (%r9,%r10,4)
	addq	$1, %r8
	movl	8(%rcx,%rax,4), %edx
	movq	-432(%rbp), %r10        # 8-byte Reload
	shlq	$3, %r10
	addq	%r8, %r10
	movl	%edx, (%rdi,%r10,4)
	movl	8(%rsi,%rax,4), %edx
	movq	-432(%rbp), %r10        # 8-byte Reload
	shlq	$3, %r10
	addq	%r8, %r10
	movl	%edx, (%r9,%r10,4)
	addq	$1, %r8
	movl	12(%rcx,%rax,4), %edx
	movq	-432(%rbp), %r10        # 8-byte Reload
	shlq	$3, %r10
	addq	%r8, %r10
	movl	%edx, (%rdi,%r10,4)
	movl	12(%rsi,%rax,4), %edx
	movq	-432(%rbp), %rax        # 8-byte Reload
	shlq	$3, %rax
	addq	%r8, %rax
	movl	%edx, (%r9,%rax,4)
	addq	$1, %r8
	cmpq	$8, %r8
	movq	%r8, -464(%rbp)         # 8-byte Spill
	jne	.LBB0_63
# %bb.64:                               # %for.inc332.8
                                        #   in Loop: Header=BB0_1 Depth=1
	xorl	%eax, %eax
	movl	%eax, %ecx
	movq	-432(%rbp), %rdx        # 8-byte Reload
	addq	$1, %rdx
	movq	%rdx, -472(%rbp)        # 8-byte Spill
	movq	%rcx, -480(%rbp)        # 8-byte Spill
	jmp	.LBB0_66
.LBB0_65:                               # %for.body278.3.8
                                        #   in Loop: Header=BB0_61 Depth=2
	movq	-432(%rbp), %rax        # 8-byte Reload
	imulq	$7, %rax, %rcx
	movq	-456(%rbp), %rdx        # 8-byte Reload
	addq	%rdx, %rcx
	movq	-88(%rbp), %rsi         # 8-byte Reload
	cvttss2si	-4(%rsi,%rcx,4), %edi
	imulq	$7, %rax, %rcx
	addq	%rdx, %rcx
	movq	-96(%rbp), %r8          # 8-byte Reload
	cvttss2si	-4(%r8,%rcx,4), %r9d
	movq	-48(%rbp), %rcx         # 8-byte Reload
	movl	(%rcx,%rdx,4), %r10d
	movl	%edi, %r11d
	imull	(%rcx,%rdx,4), %r11d
	movl	%r9d, %ebx
	movq	-40(%rbp), %r14         # 8-byte Reload
	imull	(%r14,%rdx,4), %ebx
	subl	%ebx, %r11d
	movl	%r11d, (%rcx,%rdx,4)
	imull	%r9d, %r10d
	imull	(%r14,%rdx,4), %edi
	addl	%edi, %r10d
	movl	%r10d, (%r14,%rdx,4)
	addq	$1, %rdx
	movq	%rdx, -448(%rbp)        # 8-byte Spill
	jmp	.LBB0_61
.LBB0_66:                               # %for.body3.9
                                        #   Parent Loop BB0_1 Depth=1
                                        # =>  This Inner Loop Header: Depth=2
	movq	-480(%rbp), %rax        # 8-byte Reload
	movq	%rax, %rcx
	shlq	$6, %rcx
	movq	-472(%rbp), %rdx        # 8-byte Reload
	addq	%rdx, %rcx
	movq	-80(%rbp), %rsi         # 8-byte Reload
	movl	(%rsi,%rcx,4), %edi
	movq	-48(%rbp), %rcx         # 8-byte Reload
	movl	%edi, (%rcx,%rax,4)
	movq	%rax, %r8
	shlq	$6, %r8
	addq	%rdx, %r8
	movq	-72(%rbp), %r9          # 8-byte Reload
	movl	(%r9,%r8,4), %edi
	movq	-40(%rbp), %r8          # 8-byte Reload
	movl	%edi, (%r8,%rax,4)
	movq	%rax, %r10
	addq	$1, %r10
	movq	%r10, %r11
	shlq	$6, %r11
	addq	%rdx, %r11
	movl	(%rsi,%r11,4), %edi
	movl	%edi, 4(%rcx,%rax,4)
	movq	%r10, %r11
	shlq	$6, %r11
	addq	%rdx, %r11
	movl	(%r9,%r11,4), %edi
	movl	%edi, 4(%r8,%rax,4)
	addq	$1, %r10
	movq	%r10, %r11
	shlq	$6, %r11
	addq	%rdx, %r11
	movl	(%rsi,%r11,4), %edi
	movl	%edi, 8(%rcx,%rax,4)
	movq	%r10, %r11
	shlq	$6, %r11
	addq	%rdx, %r11
	movl	(%r9,%r11,4), %edi
	movl	%edi, 8(%r8,%rax,4)
	addq	$1, %r10
	movq	%r10, %r11
	shlq	$6, %r11
	addq	%rdx, %r11
	movl	(%rsi,%r11,4), %edi
	movl	%edi, 12(%rcx,%rax,4)
	movq	%r10, %r11
	shlq	$6, %r11
	addq	%rdx, %r11
	movl	(%r9,%r11,4), %edi
	movl	%edi, 12(%r8,%rax,4)
	addq	$1, %r10
	cmpq	$8, %r10
	movq	%r10, -480(%rbp)        # 8-byte Spill
	jne	.LBB0_66
# %bb.67:                               # %for.end.9
                                        #   in Loop: Header=BB0_1 Depth=1
	xorl	%eax, %eax
	movss	.LCPI0_0(%rip), %xmm0   # xmm0 = mem[0],zero,zero,zero
	movq	-48(%rbp), %rcx         # 8-byte Reload
	movl	(%rcx), %edx
	movq	-40(%rbp), %rsi         # 8-byte Reload
	movl	(%rsi), %edi
	movl	%edx, %r8d
	addl	16(%rcx), %r8d
	movl	%r8d, (%rcx)
	movl	%edi, %r8d
	addl	16(%rsi), %r8d
	movl	%r8d, (%rsi)
	subl	16(%rcx), %edx
	movl	%edx, 16(%rcx)
	subl	16(%rsi), %edi
	movl	%edi, 16(%rsi)
	movl	4(%rcx), %edx
	movl	4(%rsi), %edi
	movl	%edx, %r8d
	addl	20(%rcx), %r8d
	movl	%r8d, 4(%rcx)
	movl	%edi, %r8d
	addl	20(%rsi), %r8d
	movl	%r8d, 4(%rsi)
	subl	20(%rcx), %edx
	movl	%edx, 20(%rcx)
	subl	20(%rsi), %edi
	movl	%edi, 20(%rsi)
	movl	8(%rcx), %edx
	movl	8(%rsi), %edi
	movl	%edx, %r8d
	addl	24(%rcx), %r8d
	movl	%r8d, 8(%rcx)
	movl	%edi, %r8d
	addl	24(%rsi), %r8d
	movl	%r8d, 8(%rsi)
	subl	24(%rcx), %edx
	movl	%edx, 24(%rcx)
	subl	24(%rsi), %edi
	movl	%edi, 24(%rsi)
	movl	12(%rcx), %edx
	movl	12(%rsi), %edi
	movl	%edx, %r8d
	addl	28(%rcx), %r8d
	movl	%r8d, 12(%rcx)
	movl	%edi, %r8d
	addl	28(%rsi), %r8d
	movl	%r8d, 12(%rsi)
	subl	28(%rcx), %edx
	movl	%edx, 28(%rcx)
	subl	28(%rsi), %edi
	movl	%edi, 28(%rsi)
	movl	20(%rcx), %edx
	movl	%edx, %edi
	addl	20(%rsi), %edi
	cvtsi2ss	%edi, %xmm1
	mulss	%xmm0, %xmm1
	cvttss2si	%xmm1, %edi
	movl	%edi, 20(%rcx)
	movl	20(%rsi), %edi
	subl	%edx, %edi
	cvtsi2ss	%edi, %xmm1
	mulss	%xmm0, %xmm1
	cvttss2si	%xmm1, %edx
	movl	%edx, 20(%rsi)
	movl	24(%rcx), %edx
	movl	24(%rsi), %edi
	movl	%edi, 24(%rcx)
	movl	%eax, %edi
	subl	%edx, %edi
	movl	%edi, 24(%rsi)
	movl	28(%rcx), %edx
	movl	28(%rsi), %edi
	subl	%edx, %edi
	cvtsi2ss	%edi, %xmm1
	mulss	%xmm0, %xmm1
	cvttss2si	%xmm1, %edi
	movl	%edi, 28(%rcx)
	addl	28(%rsi), %edx
	movl	%eax, %edi
	subl	%edx, %edi
	cvtsi2ss	%edi, %xmm1
	mulss	%xmm0, %xmm1
	cvttss2si	%xmm1, %edx
	movl	%edx, 28(%rsi)
	movl	(%rcx), %edx
	movl	(%rsi), %edi
	movl	%edx, %r8d
	addl	8(%rcx), %r8d
	movl	%r8d, (%rcx)
	movl	%edi, %r8d
	addl	8(%rsi), %r8d
	movl	%r8d, (%rsi)
	subl	8(%rcx), %edx
	movl	%edx, 8(%rcx)
	subl	8(%rsi), %edi
	movl	%edi, 8(%rsi)
	movl	4(%rcx), %edx
	movl	4(%rsi), %edi
	movl	%edx, %r8d
	addl	12(%rcx), %r8d
	movl	%r8d, 4(%rcx)
	movl	%edi, %r8d
	addl	12(%rsi), %r8d
	movl	%r8d, 4(%rsi)
	subl	12(%rcx), %edx
	movl	%edx, 12(%rcx)
	subl	12(%rsi), %edi
	movl	%edi, 12(%rsi)
	movl	12(%rcx), %edx
	movl	%edi, 12(%rcx)
	movl	%eax, %edi
	subl	%edx, %edi
	movl	%edi, 12(%rsi)
	movl	(%rcx), %edx
	movl	(%rsi), %edi
	movl	%edx, %r8d
	addl	4(%rcx), %r8d
	movl	%r8d, (%rcx)
	movl	%edi, %r8d
	addl	4(%rsi), %r8d
	movl	%r8d, (%rsi)
	subl	4(%rcx), %edx
	movl	%edx, 4(%rcx)
	subl	4(%rsi), %edi
	movl	%edi, 4(%rsi)
	movl	8(%rcx), %edx
	movl	8(%rsi), %edi
	movl	%edx, %r8d
	addl	12(%rcx), %r8d
	movl	%r8d, 8(%rcx)
	movl	%edi, %r8d
	addl	12(%rsi), %r8d
	movl	%r8d, 8(%rsi)
	subl	12(%rcx), %edx
	movl	%edx, 12(%rcx)
	subl	12(%rsi), %edi
	movl	%edi, 12(%rsi)
	movl	16(%rcx), %edx
	movl	16(%rsi), %edi
	movl	%edx, %r8d
	addl	24(%rcx), %r8d
	movl	%r8d, 16(%rcx)
	movl	%edi, %r8d
	addl	24(%rsi), %r8d
	movl	%r8d, 16(%rsi)
	subl	24(%rcx), %edx
	movl	%edx, 24(%rcx)
	subl	24(%rsi), %edi
	movl	%edi, 24(%rsi)
	movl	20(%rcx), %edx
	movl	20(%rsi), %edi
	movl	%edx, %r8d
	addl	28(%rcx), %r8d
	movl	%r8d, 20(%rcx)
	movl	%edi, %r8d
	addl	28(%rsi), %r8d
	movl	%r8d, 20(%rsi)
	subl	28(%rcx), %edx
	movl	%edx, 28(%rcx)
	subl	28(%rsi), %edi
	movl	%edi, 28(%rsi)
	movl	28(%rcx), %edx
	movl	%edi, 28(%rcx)
	subl	%edx, %eax
	movl	%eax, 28(%rsi)
	movl	16(%rcx), %eax
	movl	16(%rsi), %edx
	movl	%eax, %edi
	addl	20(%rcx), %edi
	movl	%edi, 16(%rcx)
	movl	%edx, %edi
	addl	20(%rsi), %edi
	movl	%edi, 16(%rsi)
	subl	20(%rcx), %eax
	movl	%eax, 20(%rcx)
	subl	20(%rsi), %edx
	movl	%edx, 20(%rsi)
	movl	24(%rcx), %eax
	movl	24(%rsi), %edx
	movl	%eax, %edi
	addl	28(%rcx), %edi
	movl	%edi, 24(%rcx)
	movl	%edx, %edi
	addl	28(%rsi), %edi
	movl	%edi, 24(%rsi)
	subl	28(%rcx), %eax
	movl	%eax, 28(%rcx)
	subl	28(%rsi), %edx
	movl	%edx, 28(%rsi)
	movl	$1, %r9d
	movq	%r9, -488(%rbp)         # 8-byte Spill
.LBB0_68:                               # %for.body278.9
                                        #   Parent Loop BB0_1 Depth=1
                                        # =>  This Inner Loop Header: Depth=2
	movq	-488(%rbp), %rax        # 8-byte Reload
	movq	-472(%rbp), %rcx        # 8-byte Reload
	imulq	$7, %rcx, %rdx
	addq	%rax, %rdx
	movq	-88(%rbp), %rsi         # 8-byte Reload
	cvttss2si	-4(%rsi,%rdx,4), %edi
	imulq	$7, %rcx, %rdx
	addq	%rax, %rdx
	movq	-96(%rbp), %r8          # 8-byte Reload
	cvttss2si	-4(%r8,%rdx,4), %r9d
	movq	-48(%rbp), %rdx         # 8-byte Reload
	movl	(%rdx,%rax,4), %r10d
	movl	%edi, %r11d
	imull	(%rdx,%rax,4), %r11d
	movl	%r9d, %ebx
	movq	-40(%rbp), %r14         # 8-byte Reload
	imull	(%r14,%rax,4), %ebx
	subl	%ebx, %r11d
	movl	%r11d, (%rdx,%rax,4)
	imull	%r9d, %r10d
	imull	(%r14,%rax,4), %edi
	addl	%edi, %r10d
	movl	%r10d, (%r14,%rax,4)
	movq	%rax, %r15
	addq	$1, %r15
	imulq	$7, %rcx, %r12
	addq	%r15, %r12
	cvttss2si	-4(%rsi,%r12,4), %edi
	imulq	$7, %rcx, %r12
	addq	%r15, %r12
	cvttss2si	-4(%r8,%r12,4), %r9d
	movl	4(%rdx,%rax,4), %r10d
	movl	%edi, %r11d
	imull	4(%rdx,%rax,4), %r11d
	movl	%r9d, %ebx
	imull	4(%r14,%rax,4), %ebx
	subl	%ebx, %r11d
	movl	%r11d, 4(%rdx,%rax,4)
	imull	%r9d, %r10d
	imull	4(%r14,%rax,4), %edi
	addl	%edi, %r10d
	movl	%r10d, 4(%r14,%rax,4)
	addq	$1, %r15
	imulq	$7, %rcx, %r12
	addq	%r15, %r12
	cvttss2si	-4(%rsi,%r12,4), %edi
	imulq	$7, %rcx, %r12
	addq	%r15, %r12
	cvttss2si	-4(%r8,%r12,4), %r9d
	movl	8(%rdx,%rax,4), %r10d
	movl	%edi, %r11d
	imull	8(%rdx,%rax,4), %r11d
	movl	%r9d, %ebx
	imull	8(%r14,%rax,4), %ebx
	subl	%ebx, %r11d
	movl	%r11d, 8(%rdx,%rax,4)
	imull	%r9d, %r10d
	imull	8(%r14,%rax,4), %edi
	addl	%edi, %r10d
	movl	%r10d, 8(%r14,%rax,4)
	addq	$1, %r15
	cmpq	$8, %r15
	movq	%r15, -496(%rbp)        # 8-byte Spill
	jne	.LBB0_72
# %bb.69:                               # %for.body316.preheader.9
                                        #   in Loop: Header=BB0_1 Depth=1
	xorl	%eax, %eax
	movl	%eax, %ecx
	movq	%rcx, -504(%rbp)        # 8-byte Spill
	jmp	.LBB0_70
.LBB0_70:                               # %for.body316.9
                                        #   Parent Loop BB0_1 Depth=1
                                        # =>  This Inner Loop Header: Depth=2
	movq	-504(%rbp), %rax        # 8-byte Reload
	movq	-48(%rbp), %rcx         # 8-byte Reload
	movl	(%rcx,%rax,4), %edx
	movq	-472(%rbp), %rsi        # 8-byte Reload
	shlq	$3, %rsi
	addq	%rax, %rsi
	movq	-64(%rbp), %rdi         # 8-byte Reload
	movl	%edx, (%rdi,%rsi,4)
	movq	-40(%rbp), %rsi         # 8-byte Reload
	movl	(%rsi,%rax,4), %edx
	movq	-472(%rbp), %r8         # 8-byte Reload
	shlq	$3, %r8
	addq	%rax, %r8
	movq	-56(%rbp), %r9          # 8-byte Reload
	movl	%edx, (%r9,%r8,4)
	movq	%rax, %r8
	addq	$1, %r8
	movl	4(%rcx,%rax,4), %edx
	movq	-472(%rbp), %r10        # 8-byte Reload
	shlq	$3, %r10
	addq	%r8, %r10
	movl	%edx, (%rdi,%r10,4)
	movl	4(%rsi,%rax,4), %edx
	movq	-472(%rbp), %r10        # 8-byte Reload
	shlq	$3, %r10
	addq	%r8, %r10
	movl	%edx, (%r9,%r10,4)
	addq	$1, %r8
	movl	8(%rcx,%rax,4), %edx
	movq	-472(%rbp), %r10        # 8-byte Reload
	shlq	$3, %r10
	addq	%r8, %r10
	movl	%edx, (%rdi,%r10,4)
	movl	8(%rsi,%rax,4), %edx
	movq	-472(%rbp), %r10        # 8-byte Reload
	shlq	$3, %r10
	addq	%r8, %r10
	movl	%edx, (%r9,%r10,4)
	addq	$1, %r8
	movl	12(%rcx,%rax,4), %edx
	movq	-472(%rbp), %r10        # 8-byte Reload
	shlq	$3, %r10
	addq	%r8, %r10
	movl	%edx, (%rdi,%r10,4)
	movl	12(%rsi,%rax,4), %edx
	movq	-472(%rbp), %rax        # 8-byte Reload
	shlq	$3, %rax
	addq	%r8, %rax
	movl	%edx, (%r9,%rax,4)
	addq	$1, %r8
	cmpq	$8, %r8
	movq	%r8, -504(%rbp)         # 8-byte Spill
	jne	.LBB0_70
# %bb.71:                               # %for.inc332.9
                                        #   in Loop: Header=BB0_1 Depth=1
	xorl	%eax, %eax
	movl	%eax, %ecx
	movq	-472(%rbp), %rdx        # 8-byte Reload
	addq	$1, %rdx
	movq	%rdx, -512(%rbp)        # 8-byte Spill
	movq	%rcx, -520(%rbp)        # 8-byte Spill
	jmp	.LBB0_73
.LBB0_72:                               # %for.body278.3.9
                                        #   in Loop: Header=BB0_68 Depth=2
	movq	-472(%rbp), %rax        # 8-byte Reload
	imulq	$7, %rax, %rcx
	movq	-496(%rbp), %rdx        # 8-byte Reload
	addq	%rdx, %rcx
	movq	-88(%rbp), %rsi         # 8-byte Reload
	cvttss2si	-4(%rsi,%rcx,4), %edi
	imulq	$7, %rax, %rcx
	addq	%rdx, %rcx
	movq	-96(%rbp), %r8          # 8-byte Reload
	cvttss2si	-4(%r8,%rcx,4), %r9d
	movq	-48(%rbp), %rcx         # 8-byte Reload
	movl	(%rcx,%rdx,4), %r10d
	movl	%edi, %r11d
	imull	(%rcx,%rdx,4), %r11d
	movl	%r9d, %ebx
	movq	-40(%rbp), %r14         # 8-byte Reload
	imull	(%r14,%rdx,4), %ebx
	subl	%ebx, %r11d
	movl	%r11d, (%rcx,%rdx,4)
	imull	%r9d, %r10d
	imull	(%r14,%rdx,4), %edi
	addl	%edi, %r10d
	movl	%r10d, (%r14,%rdx,4)
	addq	$1, %rdx
	movq	%rdx, -488(%rbp)        # 8-byte Spill
	jmp	.LBB0_68
.LBB0_73:                               # %for.body3.10
                                        #   Parent Loop BB0_1 Depth=1
                                        # =>  This Inner Loop Header: Depth=2
	movq	-520(%rbp), %rax        # 8-byte Reload
	movq	%rax, %rcx
	shlq	$6, %rcx
	movq	-512(%rbp), %rdx        # 8-byte Reload
	addq	%rdx, %rcx
	movq	-80(%rbp), %rsi         # 8-byte Reload
	movl	(%rsi,%rcx,4), %edi
	movq	-48(%rbp), %rcx         # 8-byte Reload
	movl	%edi, (%rcx,%rax,4)
	movq	%rax, %r8
	shlq	$6, %r8
	addq	%rdx, %r8
	movq	-72(%rbp), %r9          # 8-byte Reload
	movl	(%r9,%r8,4), %edi
	movq	-40(%rbp), %r8          # 8-byte Reload
	movl	%edi, (%r8,%rax,4)
	movq	%rax, %r10
	addq	$1, %r10
	movq	%r10, %r11
	shlq	$6, %r11
	addq	%rdx, %r11
	movl	(%rsi,%r11,4), %edi
	movl	%edi, 4(%rcx,%rax,4)
	movq	%r10, %r11
	shlq	$6, %r11
	addq	%rdx, %r11
	movl	(%r9,%r11,4), %edi
	movl	%edi, 4(%r8,%rax,4)
	addq	$1, %r10
	movq	%r10, %r11
	shlq	$6, %r11
	addq	%rdx, %r11
	movl	(%rsi,%r11,4), %edi
	movl	%edi, 8(%rcx,%rax,4)
	movq	%r10, %r11
	shlq	$6, %r11
	addq	%rdx, %r11
	movl	(%r9,%r11,4), %edi
	movl	%edi, 8(%r8,%rax,4)
	addq	$1, %r10
	movq	%r10, %r11
	shlq	$6, %r11
	addq	%rdx, %r11
	movl	(%rsi,%r11,4), %edi
	movl	%edi, 12(%rcx,%rax,4)
	movq	%r10, %r11
	shlq	$6, %r11
	addq	%rdx, %r11
	movl	(%r9,%r11,4), %edi
	movl	%edi, 12(%r8,%rax,4)
	addq	$1, %r10
	cmpq	$8, %r10
	movq	%r10, -520(%rbp)        # 8-byte Spill
	jne	.LBB0_73
# %bb.74:                               # %for.end.10
                                        #   in Loop: Header=BB0_1 Depth=1
	xorl	%eax, %eax
	movss	.LCPI0_0(%rip), %xmm0   # xmm0 = mem[0],zero,zero,zero
	movq	-48(%rbp), %rcx         # 8-byte Reload
	movl	(%rcx), %edx
	movq	-40(%rbp), %rsi         # 8-byte Reload
	movl	(%rsi), %edi
	movl	%edx, %r8d
	addl	16(%rcx), %r8d
	movl	%r8d, (%rcx)
	movl	%edi, %r8d
	addl	16(%rsi), %r8d
	movl	%r8d, (%rsi)
	subl	16(%rcx), %edx
	movl	%edx, 16(%rcx)
	subl	16(%rsi), %edi
	movl	%edi, 16(%rsi)
	movl	4(%rcx), %edx
	movl	4(%rsi), %edi
	movl	%edx, %r8d
	addl	20(%rcx), %r8d
	movl	%r8d, 4(%rcx)
	movl	%edi, %r8d
	addl	20(%rsi), %r8d
	movl	%r8d, 4(%rsi)
	subl	20(%rcx), %edx
	movl	%edx, 20(%rcx)
	subl	20(%rsi), %edi
	movl	%edi, 20(%rsi)
	movl	8(%rcx), %edx
	movl	8(%rsi), %edi
	movl	%edx, %r8d
	addl	24(%rcx), %r8d
	movl	%r8d, 8(%rcx)
	movl	%edi, %r8d
	addl	24(%rsi), %r8d
	movl	%r8d, 8(%rsi)
	subl	24(%rcx), %edx
	movl	%edx, 24(%rcx)
	subl	24(%rsi), %edi
	movl	%edi, 24(%rsi)
	movl	12(%rcx), %edx
	movl	12(%rsi), %edi
	movl	%edx, %r8d
	addl	28(%rcx), %r8d
	movl	%r8d, 12(%rcx)
	movl	%edi, %r8d
	addl	28(%rsi), %r8d
	movl	%r8d, 12(%rsi)
	subl	28(%rcx), %edx
	movl	%edx, 28(%rcx)
	subl	28(%rsi), %edi
	movl	%edi, 28(%rsi)
	movl	20(%rcx), %edx
	movl	%edx, %edi
	addl	20(%rsi), %edi
	cvtsi2ss	%edi, %xmm1
	mulss	%xmm0, %xmm1
	cvttss2si	%xmm1, %edi
	movl	%edi, 20(%rcx)
	movl	20(%rsi), %edi
	subl	%edx, %edi
	cvtsi2ss	%edi, %xmm1
	mulss	%xmm0, %xmm1
	cvttss2si	%xmm1, %edx
	movl	%edx, 20(%rsi)
	movl	24(%rcx), %edx
	movl	24(%rsi), %edi
	movl	%edi, 24(%rcx)
	movl	%eax, %edi
	subl	%edx, %edi
	movl	%edi, 24(%rsi)
	movl	28(%rcx), %edx
	movl	28(%rsi), %edi
	subl	%edx, %edi
	cvtsi2ss	%edi, %xmm1
	mulss	%xmm0, %xmm1
	cvttss2si	%xmm1, %edi
	movl	%edi, 28(%rcx)
	addl	28(%rsi), %edx
	movl	%eax, %edi
	subl	%edx, %edi
	cvtsi2ss	%edi, %xmm1
	mulss	%xmm0, %xmm1
	cvttss2si	%xmm1, %edx
	movl	%edx, 28(%rsi)
	movl	(%rcx), %edx
	movl	(%rsi), %edi
	movl	%edx, %r8d
	addl	8(%rcx), %r8d
	movl	%r8d, (%rcx)
	movl	%edi, %r8d
	addl	8(%rsi), %r8d
	movl	%r8d, (%rsi)
	subl	8(%rcx), %edx
	movl	%edx, 8(%rcx)
	subl	8(%rsi), %edi
	movl	%edi, 8(%rsi)
	movl	4(%rcx), %edx
	movl	4(%rsi), %edi
	movl	%edx, %r8d
	addl	12(%rcx), %r8d
	movl	%r8d, 4(%rcx)
	movl	%edi, %r8d
	addl	12(%rsi), %r8d
	movl	%r8d, 4(%rsi)
	subl	12(%rcx), %edx
	movl	%edx, 12(%rcx)
	subl	12(%rsi), %edi
	movl	%edi, 12(%rsi)
	movl	12(%rcx), %edx
	movl	%edi, 12(%rcx)
	movl	%eax, %edi
	subl	%edx, %edi
	movl	%edi, 12(%rsi)
	movl	(%rcx), %edx
	movl	(%rsi), %edi
	movl	%edx, %r8d
	addl	4(%rcx), %r8d
	movl	%r8d, (%rcx)
	movl	%edi, %r8d
	addl	4(%rsi), %r8d
	movl	%r8d, (%rsi)
	subl	4(%rcx), %edx
	movl	%edx, 4(%rcx)
	subl	4(%rsi), %edi
	movl	%edi, 4(%rsi)
	movl	8(%rcx), %edx
	movl	8(%rsi), %edi
	movl	%edx, %r8d
	addl	12(%rcx), %r8d
	movl	%r8d, 8(%rcx)
	movl	%edi, %r8d
	addl	12(%rsi), %r8d
	movl	%r8d, 8(%rsi)
	subl	12(%rcx), %edx
	movl	%edx, 12(%rcx)
	subl	12(%rsi), %edi
	movl	%edi, 12(%rsi)
	movl	16(%rcx), %edx
	movl	16(%rsi), %edi
	movl	%edx, %r8d
	addl	24(%rcx), %r8d
	movl	%r8d, 16(%rcx)
	movl	%edi, %r8d
	addl	24(%rsi), %r8d
	movl	%r8d, 16(%rsi)
	subl	24(%rcx), %edx
	movl	%edx, 24(%rcx)
	subl	24(%rsi), %edi
	movl	%edi, 24(%rsi)
	movl	20(%rcx), %edx
	movl	20(%rsi), %edi
	movl	%edx, %r8d
	addl	28(%rcx), %r8d
	movl	%r8d, 20(%rcx)
	movl	%edi, %r8d
	addl	28(%rsi), %r8d
	movl	%r8d, 20(%rsi)
	subl	28(%rcx), %edx
	movl	%edx, 28(%rcx)
	subl	28(%rsi), %edi
	movl	%edi, 28(%rsi)
	movl	28(%rcx), %edx
	movl	%edi, 28(%rcx)
	subl	%edx, %eax
	movl	%eax, 28(%rsi)
	movl	16(%rcx), %eax
	movl	16(%rsi), %edx
	movl	%eax, %edi
	addl	20(%rcx), %edi
	movl	%edi, 16(%rcx)
	movl	%edx, %edi
	addl	20(%rsi), %edi
	movl	%edi, 16(%rsi)
	subl	20(%rcx), %eax
	movl	%eax, 20(%rcx)
	subl	20(%rsi), %edx
	movl	%edx, 20(%rsi)
	movl	24(%rcx), %eax
	movl	24(%rsi), %edx
	movl	%eax, %edi
	addl	28(%rcx), %edi
	movl	%edi, 24(%rcx)
	movl	%edx, %edi
	addl	28(%rsi), %edi
	movl	%edi, 24(%rsi)
	subl	28(%rcx), %eax
	movl	%eax, 28(%rcx)
	subl	28(%rsi), %edx
	movl	%edx, 28(%rsi)
	movl	$1, %r9d
	movq	%r9, -528(%rbp)         # 8-byte Spill
.LBB0_75:                               # %for.body278.10
                                        #   Parent Loop BB0_1 Depth=1
                                        # =>  This Inner Loop Header: Depth=2
	movq	-528(%rbp), %rax        # 8-byte Reload
	movq	-512(%rbp), %rcx        # 8-byte Reload
	imulq	$7, %rcx, %rdx
	addq	%rax, %rdx
	movq	-88(%rbp), %rsi         # 8-byte Reload
	cvttss2si	-4(%rsi,%rdx,4), %edi
	imulq	$7, %rcx, %rdx
	addq	%rax, %rdx
	movq	-96(%rbp), %r8          # 8-byte Reload
	cvttss2si	-4(%r8,%rdx,4), %r9d
	movq	-48(%rbp), %rdx         # 8-byte Reload
	movl	(%rdx,%rax,4), %r10d
	movl	%edi, %r11d
	imull	(%rdx,%rax,4), %r11d
	movl	%r9d, %ebx
	movq	-40(%rbp), %r14         # 8-byte Reload
	imull	(%r14,%rax,4), %ebx
	subl	%ebx, %r11d
	movl	%r11d, (%rdx,%rax,4)
	imull	%r9d, %r10d
	imull	(%r14,%rax,4), %edi
	addl	%edi, %r10d
	movl	%r10d, (%r14,%rax,4)
	movq	%rax, %r15
	addq	$1, %r15
	imulq	$7, %rcx, %r12
	addq	%r15, %r12
	cvttss2si	-4(%rsi,%r12,4), %edi
	imulq	$7, %rcx, %r12
	addq	%r15, %r12
	cvttss2si	-4(%r8,%r12,4), %r9d
	movl	4(%rdx,%rax,4), %r10d
	movl	%edi, %r11d
	imull	4(%rdx,%rax,4), %r11d
	movl	%r9d, %ebx
	imull	4(%r14,%rax,4), %ebx
	subl	%ebx, %r11d
	movl	%r11d, 4(%rdx,%rax,4)
	imull	%r9d, %r10d
	imull	4(%r14,%rax,4), %edi
	addl	%edi, %r10d
	movl	%r10d, 4(%r14,%rax,4)
	addq	$1, %r15
	imulq	$7, %rcx, %r12
	addq	%r15, %r12
	cvttss2si	-4(%rsi,%r12,4), %edi
	imulq	$7, %rcx, %r12
	addq	%r15, %r12
	cvttss2si	-4(%r8,%r12,4), %r9d
	movl	8(%rdx,%rax,4), %r10d
	movl	%edi, %r11d
	imull	8(%rdx,%rax,4), %r11d
	movl	%r9d, %ebx
	imull	8(%r14,%rax,4), %ebx
	subl	%ebx, %r11d
	movl	%r11d, 8(%rdx,%rax,4)
	imull	%r9d, %r10d
	imull	8(%r14,%rax,4), %edi
	addl	%edi, %r10d
	movl	%r10d, 8(%r14,%rax,4)
	addq	$1, %r15
	cmpq	$8, %r15
	movq	%r15, -536(%rbp)        # 8-byte Spill
	jne	.LBB0_79
# %bb.76:                               # %for.body316.preheader.10
                                        #   in Loop: Header=BB0_1 Depth=1
	xorl	%eax, %eax
	movl	%eax, %ecx
	movq	%rcx, -544(%rbp)        # 8-byte Spill
	jmp	.LBB0_77
.LBB0_77:                               # %for.body316.10
                                        #   Parent Loop BB0_1 Depth=1
                                        # =>  This Inner Loop Header: Depth=2
	movq	-544(%rbp), %rax        # 8-byte Reload
	movq	-48(%rbp), %rcx         # 8-byte Reload
	movl	(%rcx,%rax,4), %edx
	movq	-512(%rbp), %rsi        # 8-byte Reload
	shlq	$3, %rsi
	addq	%rax, %rsi
	movq	-64(%rbp), %rdi         # 8-byte Reload
	movl	%edx, (%rdi,%rsi,4)
	movq	-40(%rbp), %rsi         # 8-byte Reload
	movl	(%rsi,%rax,4), %edx
	movq	-512(%rbp), %r8         # 8-byte Reload
	shlq	$3, %r8
	addq	%rax, %r8
	movq	-56(%rbp), %r9          # 8-byte Reload
	movl	%edx, (%r9,%r8,4)
	movq	%rax, %r8
	addq	$1, %r8
	movl	4(%rcx,%rax,4), %edx
	movq	-512(%rbp), %r10        # 8-byte Reload
	shlq	$3, %r10
	addq	%r8, %r10
	movl	%edx, (%rdi,%r10,4)
	movl	4(%rsi,%rax,4), %edx
	movq	-512(%rbp), %r10        # 8-byte Reload
	shlq	$3, %r10
	addq	%r8, %r10
	movl	%edx, (%r9,%r10,4)
	addq	$1, %r8
	movl	8(%rcx,%rax,4), %edx
	movq	-512(%rbp), %r10        # 8-byte Reload
	shlq	$3, %r10
	addq	%r8, %r10
	movl	%edx, (%rdi,%r10,4)
	movl	8(%rsi,%rax,4), %edx
	movq	-512(%rbp), %r10        # 8-byte Reload
	shlq	$3, %r10
	addq	%r8, %r10
	movl	%edx, (%r9,%r10,4)
	addq	$1, %r8
	movl	12(%rcx,%rax,4), %edx
	movq	-512(%rbp), %r10        # 8-byte Reload
	shlq	$3, %r10
	addq	%r8, %r10
	movl	%edx, (%rdi,%r10,4)
	movl	12(%rsi,%rax,4), %edx
	movq	-512(%rbp), %rax        # 8-byte Reload
	shlq	$3, %rax
	addq	%r8, %rax
	movl	%edx, (%r9,%rax,4)
	addq	$1, %r8
	cmpq	$8, %r8
	movq	%r8, -544(%rbp)         # 8-byte Spill
	jne	.LBB0_77
# %bb.78:                               # %for.inc332.10
                                        #   in Loop: Header=BB0_1 Depth=1
	xorl	%eax, %eax
	movl	%eax, %ecx
	movq	-512(%rbp), %rdx        # 8-byte Reload
	addq	$1, %rdx
	movq	%rdx, -552(%rbp)        # 8-byte Spill
	movq	%rcx, -560(%rbp)        # 8-byte Spill
	jmp	.LBB0_80
.LBB0_79:                               # %for.body278.3.10
                                        #   in Loop: Header=BB0_75 Depth=2
	movq	-512(%rbp), %rax        # 8-byte Reload
	imulq	$7, %rax, %rcx
	movq	-536(%rbp), %rdx        # 8-byte Reload
	addq	%rdx, %rcx
	movq	-88(%rbp), %rsi         # 8-byte Reload
	cvttss2si	-4(%rsi,%rcx,4), %edi
	imulq	$7, %rax, %rcx
	addq	%rdx, %rcx
	movq	-96(%rbp), %r8          # 8-byte Reload
	cvttss2si	-4(%r8,%rcx,4), %r9d
	movq	-48(%rbp), %rcx         # 8-byte Reload
	movl	(%rcx,%rdx,4), %r10d
	movl	%edi, %r11d
	imull	(%rcx,%rdx,4), %r11d
	movl	%r9d, %ebx
	movq	-40(%rbp), %r14         # 8-byte Reload
	imull	(%r14,%rdx,4), %ebx
	subl	%ebx, %r11d
	movl	%r11d, (%rcx,%rdx,4)
	imull	%r9d, %r10d
	imull	(%r14,%rdx,4), %edi
	addl	%edi, %r10d
	movl	%r10d, (%r14,%rdx,4)
	addq	$1, %rdx
	movq	%rdx, -528(%rbp)        # 8-byte Spill
	jmp	.LBB0_75
.LBB0_80:                               # %for.body3.11
                                        #   Parent Loop BB0_1 Depth=1
                                        # =>  This Inner Loop Header: Depth=2
	movq	-560(%rbp), %rax        # 8-byte Reload
	movq	%rax, %rcx
	shlq	$6, %rcx
	movq	-552(%rbp), %rdx        # 8-byte Reload
	addq	%rdx, %rcx
	movq	-80(%rbp), %rsi         # 8-byte Reload
	movl	(%rsi,%rcx,4), %edi
	movq	-48(%rbp), %rcx         # 8-byte Reload
	movl	%edi, (%rcx,%rax,4)
	movq	%rax, %r8
	shlq	$6, %r8
	addq	%rdx, %r8
	movq	-72(%rbp), %r9          # 8-byte Reload
	movl	(%r9,%r8,4), %edi
	movq	-40(%rbp), %r8          # 8-byte Reload
	movl	%edi, (%r8,%rax,4)
	movq	%rax, %r10
	addq	$1, %r10
	movq	%r10, %r11
	shlq	$6, %r11
	addq	%rdx, %r11
	movl	(%rsi,%r11,4), %edi
	movl	%edi, 4(%rcx,%rax,4)
	movq	%r10, %r11
	shlq	$6, %r11
	addq	%rdx, %r11
	movl	(%r9,%r11,4), %edi
	movl	%edi, 4(%r8,%rax,4)
	addq	$1, %r10
	movq	%r10, %r11
	shlq	$6, %r11
	addq	%rdx, %r11
	movl	(%rsi,%r11,4), %edi
	movl	%edi, 8(%rcx,%rax,4)
	movq	%r10, %r11
	shlq	$6, %r11
	addq	%rdx, %r11
	movl	(%r9,%r11,4), %edi
	movl	%edi, 8(%r8,%rax,4)
	addq	$1, %r10
	movq	%r10, %r11
	shlq	$6, %r11
	addq	%rdx, %r11
	movl	(%rsi,%r11,4), %edi
	movl	%edi, 12(%rcx,%rax,4)
	movq	%r10, %r11
	shlq	$6, %r11
	addq	%rdx, %r11
	movl	(%r9,%r11,4), %edi
	movl	%edi, 12(%r8,%rax,4)
	addq	$1, %r10
	cmpq	$8, %r10
	movq	%r10, -560(%rbp)        # 8-byte Spill
	jne	.LBB0_80
# %bb.81:                               # %for.end.11
                                        #   in Loop: Header=BB0_1 Depth=1
	xorl	%eax, %eax
	movss	.LCPI0_0(%rip), %xmm0   # xmm0 = mem[0],zero,zero,zero
	movq	-48(%rbp), %rcx         # 8-byte Reload
	movl	(%rcx), %edx
	movq	-40(%rbp), %rsi         # 8-byte Reload
	movl	(%rsi), %edi
	movl	%edx, %r8d
	addl	16(%rcx), %r8d
	movl	%r8d, (%rcx)
	movl	%edi, %r8d
	addl	16(%rsi), %r8d
	movl	%r8d, (%rsi)
	subl	16(%rcx), %edx
	movl	%edx, 16(%rcx)
	subl	16(%rsi), %edi
	movl	%edi, 16(%rsi)
	movl	4(%rcx), %edx
	movl	4(%rsi), %edi
	movl	%edx, %r8d
	addl	20(%rcx), %r8d
	movl	%r8d, 4(%rcx)
	movl	%edi, %r8d
	addl	20(%rsi), %r8d
	movl	%r8d, 4(%rsi)
	subl	20(%rcx), %edx
	movl	%edx, 20(%rcx)
	subl	20(%rsi), %edi
	movl	%edi, 20(%rsi)
	movl	8(%rcx), %edx
	movl	8(%rsi), %edi
	movl	%edx, %r8d
	addl	24(%rcx), %r8d
	movl	%r8d, 8(%rcx)
	movl	%edi, %r8d
	addl	24(%rsi), %r8d
	movl	%r8d, 8(%rsi)
	subl	24(%rcx), %edx
	movl	%edx, 24(%rcx)
	subl	24(%rsi), %edi
	movl	%edi, 24(%rsi)
	movl	12(%rcx), %edx
	movl	12(%rsi), %edi
	movl	%edx, %r8d
	addl	28(%rcx), %r8d
	movl	%r8d, 12(%rcx)
	movl	%edi, %r8d
	addl	28(%rsi), %r8d
	movl	%r8d, 12(%rsi)
	subl	28(%rcx), %edx
	movl	%edx, 28(%rcx)
	subl	28(%rsi), %edi
	movl	%edi, 28(%rsi)
	movl	20(%rcx), %edx
	movl	%edx, %edi
	addl	20(%rsi), %edi
	cvtsi2ss	%edi, %xmm1
	mulss	%xmm0, %xmm1
	cvttss2si	%xmm1, %edi
	movl	%edi, 20(%rcx)
	movl	20(%rsi), %edi
	subl	%edx, %edi
	cvtsi2ss	%edi, %xmm1
	mulss	%xmm0, %xmm1
	cvttss2si	%xmm1, %edx
	movl	%edx, 20(%rsi)
	movl	24(%rcx), %edx
	movl	24(%rsi), %edi
	movl	%edi, 24(%rcx)
	movl	%eax, %edi
	subl	%edx, %edi
	movl	%edi, 24(%rsi)
	movl	28(%rcx), %edx
	movl	28(%rsi), %edi
	subl	%edx, %edi
	cvtsi2ss	%edi, %xmm1
	mulss	%xmm0, %xmm1
	cvttss2si	%xmm1, %edi
	movl	%edi, 28(%rcx)
	addl	28(%rsi), %edx
	movl	%eax, %edi
	subl	%edx, %edi
	cvtsi2ss	%edi, %xmm1
	mulss	%xmm0, %xmm1
	cvttss2si	%xmm1, %edx
	movl	%edx, 28(%rsi)
	movl	(%rcx), %edx
	movl	(%rsi), %edi
	movl	%edx, %r8d
	addl	8(%rcx), %r8d
	movl	%r8d, (%rcx)
	movl	%edi, %r8d
	addl	8(%rsi), %r8d
	movl	%r8d, (%rsi)
	subl	8(%rcx), %edx
	movl	%edx, 8(%rcx)
	subl	8(%rsi), %edi
	movl	%edi, 8(%rsi)
	movl	4(%rcx), %edx
	movl	4(%rsi), %edi
	movl	%edx, %r8d
	addl	12(%rcx), %r8d
	movl	%r8d, 4(%rcx)
	movl	%edi, %r8d
	addl	12(%rsi), %r8d
	movl	%r8d, 4(%rsi)
	subl	12(%rcx), %edx
	movl	%edx, 12(%rcx)
	subl	12(%rsi), %edi
	movl	%edi, 12(%rsi)
	movl	12(%rcx), %edx
	movl	%edi, 12(%rcx)
	movl	%eax, %edi
	subl	%edx, %edi
	movl	%edi, 12(%rsi)
	movl	(%rcx), %edx
	movl	(%rsi), %edi
	movl	%edx, %r8d
	addl	4(%rcx), %r8d
	movl	%r8d, (%rcx)
	movl	%edi, %r8d
	addl	4(%rsi), %r8d
	movl	%r8d, (%rsi)
	subl	4(%rcx), %edx
	movl	%edx, 4(%rcx)
	subl	4(%rsi), %edi
	movl	%edi, 4(%rsi)
	movl	8(%rcx), %edx
	movl	8(%rsi), %edi
	movl	%edx, %r8d
	addl	12(%rcx), %r8d
	movl	%r8d, 8(%rcx)
	movl	%edi, %r8d
	addl	12(%rsi), %r8d
	movl	%r8d, 8(%rsi)
	subl	12(%rcx), %edx
	movl	%edx, 12(%rcx)
	subl	12(%rsi), %edi
	movl	%edi, 12(%rsi)
	movl	16(%rcx), %edx
	movl	16(%rsi), %edi
	movl	%edx, %r8d
	addl	24(%rcx), %r8d
	movl	%r8d, 16(%rcx)
	movl	%edi, %r8d
	addl	24(%rsi), %r8d
	movl	%r8d, 16(%rsi)
	subl	24(%rcx), %edx
	movl	%edx, 24(%rcx)
	subl	24(%rsi), %edi
	movl	%edi, 24(%rsi)
	movl	20(%rcx), %edx
	movl	20(%rsi), %edi
	movl	%edx, %r8d
	addl	28(%rcx), %r8d
	movl	%r8d, 20(%rcx)
	movl	%edi, %r8d
	addl	28(%rsi), %r8d
	movl	%r8d, 20(%rsi)
	subl	28(%rcx), %edx
	movl	%edx, 28(%rcx)
	subl	28(%rsi), %edi
	movl	%edi, 28(%rsi)
	movl	28(%rcx), %edx
	movl	%edi, 28(%rcx)
	subl	%edx, %eax
	movl	%eax, 28(%rsi)
	movl	16(%rcx), %eax
	movl	16(%rsi), %edx
	movl	%eax, %edi
	addl	20(%rcx), %edi
	movl	%edi, 16(%rcx)
	movl	%edx, %edi
	addl	20(%rsi), %edi
	movl	%edi, 16(%rsi)
	subl	20(%rcx), %eax
	movl	%eax, 20(%rcx)
	subl	20(%rsi), %edx
	movl	%edx, 20(%rsi)
	movl	24(%rcx), %eax
	movl	24(%rsi), %edx
	movl	%eax, %edi
	addl	28(%rcx), %edi
	movl	%edi, 24(%rcx)
	movl	%edx, %edi
	addl	28(%rsi), %edi
	movl	%edi, 24(%rsi)
	subl	28(%rcx), %eax
	movl	%eax, 28(%rcx)
	subl	28(%rsi), %edx
	movl	%edx, 28(%rsi)
	movl	$1, %r9d
	movq	%r9, -568(%rbp)         # 8-byte Spill
.LBB0_82:                               # %for.body278.11
                                        #   Parent Loop BB0_1 Depth=1
                                        # =>  This Inner Loop Header: Depth=2
	movq	-568(%rbp), %rax        # 8-byte Reload
	movq	-552(%rbp), %rcx        # 8-byte Reload
	imulq	$7, %rcx, %rdx
	addq	%rax, %rdx
	movq	-88(%rbp), %rsi         # 8-byte Reload
	cvttss2si	-4(%rsi,%rdx,4), %edi
	imulq	$7, %rcx, %rdx
	addq	%rax, %rdx
	movq	-96(%rbp), %r8          # 8-byte Reload
	cvttss2si	-4(%r8,%rdx,4), %r9d
	movq	-48(%rbp), %rdx         # 8-byte Reload
	movl	(%rdx,%rax,4), %r10d
	movl	%edi, %r11d
	imull	(%rdx,%rax,4), %r11d
	movl	%r9d, %ebx
	movq	-40(%rbp), %r14         # 8-byte Reload
	imull	(%r14,%rax,4), %ebx
	subl	%ebx, %r11d
	movl	%r11d, (%rdx,%rax,4)
	imull	%r9d, %r10d
	imull	(%r14,%rax,4), %edi
	addl	%edi, %r10d
	movl	%r10d, (%r14,%rax,4)
	movq	%rax, %r15
	addq	$1, %r15
	imulq	$7, %rcx, %r12
	addq	%r15, %r12
	cvttss2si	-4(%rsi,%r12,4), %edi
	imulq	$7, %rcx, %r12
	addq	%r15, %r12
	cvttss2si	-4(%r8,%r12,4), %r9d
	movl	4(%rdx,%rax,4), %r10d
	movl	%edi, %r11d
	imull	4(%rdx,%rax,4), %r11d
	movl	%r9d, %ebx
	imull	4(%r14,%rax,4), %ebx
	subl	%ebx, %r11d
	movl	%r11d, 4(%rdx,%rax,4)
	imull	%r9d, %r10d
	imull	4(%r14,%rax,4), %edi
	addl	%edi, %r10d
	movl	%r10d, 4(%r14,%rax,4)
	addq	$1, %r15
	imulq	$7, %rcx, %r12
	addq	%r15, %r12
	cvttss2si	-4(%rsi,%r12,4), %edi
	imulq	$7, %rcx, %r12
	addq	%r15, %r12
	cvttss2si	-4(%r8,%r12,4), %r9d
	movl	8(%rdx,%rax,4), %r10d
	movl	%edi, %r11d
	imull	8(%rdx,%rax,4), %r11d
	movl	%r9d, %ebx
	imull	8(%r14,%rax,4), %ebx
	subl	%ebx, %r11d
	movl	%r11d, 8(%rdx,%rax,4)
	imull	%r9d, %r10d
	imull	8(%r14,%rax,4), %edi
	addl	%edi, %r10d
	movl	%r10d, 8(%r14,%rax,4)
	addq	$1, %r15
	cmpq	$8, %r15
	movq	%r15, -576(%rbp)        # 8-byte Spill
	jne	.LBB0_86
# %bb.83:                               # %for.body316.preheader.11
                                        #   in Loop: Header=BB0_1 Depth=1
	xorl	%eax, %eax
	movl	%eax, %ecx
	movq	%rcx, -584(%rbp)        # 8-byte Spill
	jmp	.LBB0_84
.LBB0_84:                               # %for.body316.11
                                        #   Parent Loop BB0_1 Depth=1
                                        # =>  This Inner Loop Header: Depth=2
	movq	-584(%rbp), %rax        # 8-byte Reload
	movq	-48(%rbp), %rcx         # 8-byte Reload
	movl	(%rcx,%rax,4), %edx
	movq	-552(%rbp), %rsi        # 8-byte Reload
	shlq	$3, %rsi
	addq	%rax, %rsi
	movq	-64(%rbp), %rdi         # 8-byte Reload
	movl	%edx, (%rdi,%rsi,4)
	movq	-40(%rbp), %rsi         # 8-byte Reload
	movl	(%rsi,%rax,4), %edx
	movq	-552(%rbp), %r8         # 8-byte Reload
	shlq	$3, %r8
	addq	%rax, %r8
	movq	-56(%rbp), %r9          # 8-byte Reload
	movl	%edx, (%r9,%r8,4)
	movq	%rax, %r8
	addq	$1, %r8
	movl	4(%rcx,%rax,4), %edx
	movq	-552(%rbp), %r10        # 8-byte Reload
	shlq	$3, %r10
	addq	%r8, %r10
	movl	%edx, (%rdi,%r10,4)
	movl	4(%rsi,%rax,4), %edx
	movq	-552(%rbp), %r10        # 8-byte Reload
	shlq	$3, %r10
	addq	%r8, %r10
	movl	%edx, (%r9,%r10,4)
	addq	$1, %r8
	movl	8(%rcx,%rax,4), %edx
	movq	-552(%rbp), %r10        # 8-byte Reload
	shlq	$3, %r10
	addq	%r8, %r10
	movl	%edx, (%rdi,%r10,4)
	movl	8(%rsi,%rax,4), %edx
	movq	-552(%rbp), %r10        # 8-byte Reload
	shlq	$3, %r10
	addq	%r8, %r10
	movl	%edx, (%r9,%r10,4)
	addq	$1, %r8
	movl	12(%rcx,%rax,4), %edx
	movq	-552(%rbp), %r10        # 8-byte Reload
	shlq	$3, %r10
	addq	%r8, %r10
	movl	%edx, (%rdi,%r10,4)
	movl	12(%rsi,%rax,4), %edx
	movq	-552(%rbp), %rax        # 8-byte Reload
	shlq	$3, %rax
	addq	%r8, %rax
	movl	%edx, (%r9,%rax,4)
	addq	$1, %r8
	cmpq	$8, %r8
	movq	%r8, -584(%rbp)         # 8-byte Spill
	jne	.LBB0_84
# %bb.85:                               # %for.inc332.11
                                        #   in Loop: Header=BB0_1 Depth=1
	xorl	%eax, %eax
	movl	%eax, %ecx
	movq	-552(%rbp), %rdx        # 8-byte Reload
	addq	$1, %rdx
	movq	%rdx, -592(%rbp)        # 8-byte Spill
	movq	%rcx, -600(%rbp)        # 8-byte Spill
	jmp	.LBB0_87
.LBB0_86:                               # %for.body278.3.11
                                        #   in Loop: Header=BB0_82 Depth=2
	movq	-552(%rbp), %rax        # 8-byte Reload
	imulq	$7, %rax, %rcx
	movq	-576(%rbp), %rdx        # 8-byte Reload
	addq	%rdx, %rcx
	movq	-88(%rbp), %rsi         # 8-byte Reload
	cvttss2si	-4(%rsi,%rcx,4), %edi
	imulq	$7, %rax, %rcx
	addq	%rdx, %rcx
	movq	-96(%rbp), %r8          # 8-byte Reload
	cvttss2si	-4(%r8,%rcx,4), %r9d
	movq	-48(%rbp), %rcx         # 8-byte Reload
	movl	(%rcx,%rdx,4), %r10d
	movl	%edi, %r11d
	imull	(%rcx,%rdx,4), %r11d
	movl	%r9d, %ebx
	movq	-40(%rbp), %r14         # 8-byte Reload
	imull	(%r14,%rdx,4), %ebx
	subl	%ebx, %r11d
	movl	%r11d, (%rcx,%rdx,4)
	imull	%r9d, %r10d
	imull	(%r14,%rdx,4), %edi
	addl	%edi, %r10d
	movl	%r10d, (%r14,%rdx,4)
	addq	$1, %rdx
	movq	%rdx, -568(%rbp)        # 8-byte Spill
	jmp	.LBB0_82
.LBB0_87:                               # %for.body3.12
                                        #   Parent Loop BB0_1 Depth=1
                                        # =>  This Inner Loop Header: Depth=2
	movq	-600(%rbp), %rax        # 8-byte Reload
	movq	%rax, %rcx
	shlq	$6, %rcx
	movq	-592(%rbp), %rdx        # 8-byte Reload
	addq	%rdx, %rcx
	movq	-80(%rbp), %rsi         # 8-byte Reload
	movl	(%rsi,%rcx,4), %edi
	movq	-48(%rbp), %rcx         # 8-byte Reload
	movl	%edi, (%rcx,%rax,4)
	movq	%rax, %r8
	shlq	$6, %r8
	addq	%rdx, %r8
	movq	-72(%rbp), %r9          # 8-byte Reload
	movl	(%r9,%r8,4), %edi
	movq	-40(%rbp), %r8          # 8-byte Reload
	movl	%edi, (%r8,%rax,4)
	movq	%rax, %r10
	addq	$1, %r10
	movq	%r10, %r11
	shlq	$6, %r11
	addq	%rdx, %r11
	movl	(%rsi,%r11,4), %edi
	movl	%edi, 4(%rcx,%rax,4)
	movq	%r10, %r11
	shlq	$6, %r11
	addq	%rdx, %r11
	movl	(%r9,%r11,4), %edi
	movl	%edi, 4(%r8,%rax,4)
	addq	$1, %r10
	movq	%r10, %r11
	shlq	$6, %r11
	addq	%rdx, %r11
	movl	(%rsi,%r11,4), %edi
	movl	%edi, 8(%rcx,%rax,4)
	movq	%r10, %r11
	shlq	$6, %r11
	addq	%rdx, %r11
	movl	(%r9,%r11,4), %edi
	movl	%edi, 8(%r8,%rax,4)
	addq	$1, %r10
	movq	%r10, %r11
	shlq	$6, %r11
	addq	%rdx, %r11
	movl	(%rsi,%r11,4), %edi
	movl	%edi, 12(%rcx,%rax,4)
	movq	%r10, %r11
	shlq	$6, %r11
	addq	%rdx, %r11
	movl	(%r9,%r11,4), %edi
	movl	%edi, 12(%r8,%rax,4)
	addq	$1, %r10
	cmpq	$8, %r10
	movq	%r10, -600(%rbp)        # 8-byte Spill
	jne	.LBB0_87
# %bb.88:                               # %for.end.12
                                        #   in Loop: Header=BB0_1 Depth=1
	xorl	%eax, %eax
	movss	.LCPI0_0(%rip), %xmm0   # xmm0 = mem[0],zero,zero,zero
	movq	-48(%rbp), %rcx         # 8-byte Reload
	movl	(%rcx), %edx
	movq	-40(%rbp), %rsi         # 8-byte Reload
	movl	(%rsi), %edi
	movl	%edx, %r8d
	addl	16(%rcx), %r8d
	movl	%r8d, (%rcx)
	movl	%edi, %r8d
	addl	16(%rsi), %r8d
	movl	%r8d, (%rsi)
	subl	16(%rcx), %edx
	movl	%edx, 16(%rcx)
	subl	16(%rsi), %edi
	movl	%edi, 16(%rsi)
	movl	4(%rcx), %edx
	movl	4(%rsi), %edi
	movl	%edx, %r8d
	addl	20(%rcx), %r8d
	movl	%r8d, 4(%rcx)
	movl	%edi, %r8d
	addl	20(%rsi), %r8d
	movl	%r8d, 4(%rsi)
	subl	20(%rcx), %edx
	movl	%edx, 20(%rcx)
	subl	20(%rsi), %edi
	movl	%edi, 20(%rsi)
	movl	8(%rcx), %edx
	movl	8(%rsi), %edi
	movl	%edx, %r8d
	addl	24(%rcx), %r8d
	movl	%r8d, 8(%rcx)
	movl	%edi, %r8d
	addl	24(%rsi), %r8d
	movl	%r8d, 8(%rsi)
	subl	24(%rcx), %edx
	movl	%edx, 24(%rcx)
	subl	24(%rsi), %edi
	movl	%edi, 24(%rsi)
	movl	12(%rcx), %edx
	movl	12(%rsi), %edi
	movl	%edx, %r8d
	addl	28(%rcx), %r8d
	movl	%r8d, 12(%rcx)
	movl	%edi, %r8d
	addl	28(%rsi), %r8d
	movl	%r8d, 12(%rsi)
	subl	28(%rcx), %edx
	movl	%edx, 28(%rcx)
	subl	28(%rsi), %edi
	movl	%edi, 28(%rsi)
	movl	20(%rcx), %edx
	movl	%edx, %edi
	addl	20(%rsi), %edi
	cvtsi2ss	%edi, %xmm1
	mulss	%xmm0, %xmm1
	cvttss2si	%xmm1, %edi
	movl	%edi, 20(%rcx)
	movl	20(%rsi), %edi
	subl	%edx, %edi
	cvtsi2ss	%edi, %xmm1
	mulss	%xmm0, %xmm1
	cvttss2si	%xmm1, %edx
	movl	%edx, 20(%rsi)
	movl	24(%rcx), %edx
	movl	24(%rsi), %edi
	movl	%edi, 24(%rcx)
	movl	%eax, %edi
	subl	%edx, %edi
	movl	%edi, 24(%rsi)
	movl	28(%rcx), %edx
	movl	28(%rsi), %edi
	subl	%edx, %edi
	cvtsi2ss	%edi, %xmm1
	mulss	%xmm0, %xmm1
	cvttss2si	%xmm1, %edi
	movl	%edi, 28(%rcx)
	addl	28(%rsi), %edx
	movl	%eax, %edi
	subl	%edx, %edi
	cvtsi2ss	%edi, %xmm1
	mulss	%xmm0, %xmm1
	cvttss2si	%xmm1, %edx
	movl	%edx, 28(%rsi)
	movl	(%rcx), %edx
	movl	(%rsi), %edi
	movl	%edx, %r8d
	addl	8(%rcx), %r8d
	movl	%r8d, (%rcx)
	movl	%edi, %r8d
	addl	8(%rsi), %r8d
	movl	%r8d, (%rsi)
	subl	8(%rcx), %edx
	movl	%edx, 8(%rcx)
	subl	8(%rsi), %edi
	movl	%edi, 8(%rsi)
	movl	4(%rcx), %edx
	movl	4(%rsi), %edi
	movl	%edx, %r8d
	addl	12(%rcx), %r8d
	movl	%r8d, 4(%rcx)
	movl	%edi, %r8d
	addl	12(%rsi), %r8d
	movl	%r8d, 4(%rsi)
	subl	12(%rcx), %edx
	movl	%edx, 12(%rcx)
	subl	12(%rsi), %edi
	movl	%edi, 12(%rsi)
	movl	12(%rcx), %edx
	movl	%edi, 12(%rcx)
	movl	%eax, %edi
	subl	%edx, %edi
	movl	%edi, 12(%rsi)
	movl	(%rcx), %edx
	movl	(%rsi), %edi
	movl	%edx, %r8d
	addl	4(%rcx), %r8d
	movl	%r8d, (%rcx)
	movl	%edi, %r8d
	addl	4(%rsi), %r8d
	movl	%r8d, (%rsi)
	subl	4(%rcx), %edx
	movl	%edx, 4(%rcx)
	subl	4(%rsi), %edi
	movl	%edi, 4(%rsi)
	movl	8(%rcx), %edx
	movl	8(%rsi), %edi
	movl	%edx, %r8d
	addl	12(%rcx), %r8d
	movl	%r8d, 8(%rcx)
	movl	%edi, %r8d
	addl	12(%rsi), %r8d
	movl	%r8d, 8(%rsi)
	subl	12(%rcx), %edx
	movl	%edx, 12(%rcx)
	subl	12(%rsi), %edi
	movl	%edi, 12(%rsi)
	movl	16(%rcx), %edx
	movl	16(%rsi), %edi
	movl	%edx, %r8d
	addl	24(%rcx), %r8d
	movl	%r8d, 16(%rcx)
	movl	%edi, %r8d
	addl	24(%rsi), %r8d
	movl	%r8d, 16(%rsi)
	subl	24(%rcx), %edx
	movl	%edx, 24(%rcx)
	subl	24(%rsi), %edi
	movl	%edi, 24(%rsi)
	movl	20(%rcx), %edx
	movl	20(%rsi), %edi
	movl	%edx, %r8d
	addl	28(%rcx), %r8d
	movl	%r8d, 20(%rcx)
	movl	%edi, %r8d
	addl	28(%rsi), %r8d
	movl	%r8d, 20(%rsi)
	subl	28(%rcx), %edx
	movl	%edx, 28(%rcx)
	subl	28(%rsi), %edi
	movl	%edi, 28(%rsi)
	movl	28(%rcx), %edx
	movl	%edi, 28(%rcx)
	subl	%edx, %eax
	movl	%eax, 28(%rsi)
	movl	16(%rcx), %eax
	movl	16(%rsi), %edx
	movl	%eax, %edi
	addl	20(%rcx), %edi
	movl	%edi, 16(%rcx)
	movl	%edx, %edi
	addl	20(%rsi), %edi
	movl	%edi, 16(%rsi)
	subl	20(%rcx), %eax
	movl	%eax, 20(%rcx)
	subl	20(%rsi), %edx
	movl	%edx, 20(%rsi)
	movl	24(%rcx), %eax
	movl	24(%rsi), %edx
	movl	%eax, %edi
	addl	28(%rcx), %edi
	movl	%edi, 24(%rcx)
	movl	%edx, %edi
	addl	28(%rsi), %edi
	movl	%edi, 24(%rsi)
	subl	28(%rcx), %eax
	movl	%eax, 28(%rcx)
	subl	28(%rsi), %edx
	movl	%edx, 28(%rsi)
	movl	$1, %r9d
	movq	%r9, -608(%rbp)         # 8-byte Spill
.LBB0_89:                               # %for.body278.12
                                        #   Parent Loop BB0_1 Depth=1
                                        # =>  This Inner Loop Header: Depth=2
	movq	-608(%rbp), %rax        # 8-byte Reload
	movq	-592(%rbp), %rcx        # 8-byte Reload
	imulq	$7, %rcx, %rdx
	addq	%rax, %rdx
	movq	-88(%rbp), %rsi         # 8-byte Reload
	cvttss2si	-4(%rsi,%rdx,4), %edi
	imulq	$7, %rcx, %rdx
	addq	%rax, %rdx
	movq	-96(%rbp), %r8          # 8-byte Reload
	cvttss2si	-4(%r8,%rdx,4), %r9d
	movq	-48(%rbp), %rdx         # 8-byte Reload
	movl	(%rdx,%rax,4), %r10d
	movl	%edi, %r11d
	imull	(%rdx,%rax,4), %r11d
	movl	%r9d, %ebx
	movq	-40(%rbp), %r14         # 8-byte Reload
	imull	(%r14,%rax,4), %ebx
	subl	%ebx, %r11d
	movl	%r11d, (%rdx,%rax,4)
	imull	%r9d, %r10d
	imull	(%r14,%rax,4), %edi
	addl	%edi, %r10d
	movl	%r10d, (%r14,%rax,4)
	movq	%rax, %r15
	addq	$1, %r15
	imulq	$7, %rcx, %r12
	addq	%r15, %r12
	cvttss2si	-4(%rsi,%r12,4), %edi
	imulq	$7, %rcx, %r12
	addq	%r15, %r12
	cvttss2si	-4(%r8,%r12,4), %r9d
	movl	4(%rdx,%rax,4), %r10d
	movl	%edi, %r11d
	imull	4(%rdx,%rax,4), %r11d
	movl	%r9d, %ebx
	imull	4(%r14,%rax,4), %ebx
	subl	%ebx, %r11d
	movl	%r11d, 4(%rdx,%rax,4)
	imull	%r9d, %r10d
	imull	4(%r14,%rax,4), %edi
	addl	%edi, %r10d
	movl	%r10d, 4(%r14,%rax,4)
	addq	$1, %r15
	imulq	$7, %rcx, %r12
	addq	%r15, %r12
	cvttss2si	-4(%rsi,%r12,4), %edi
	imulq	$7, %rcx, %r12
	addq	%r15, %r12
	cvttss2si	-4(%r8,%r12,4), %r9d
	movl	8(%rdx,%rax,4), %r10d
	movl	%edi, %r11d
	imull	8(%rdx,%rax,4), %r11d
	movl	%r9d, %ebx
	imull	8(%r14,%rax,4), %ebx
	subl	%ebx, %r11d
	movl	%r11d, 8(%rdx,%rax,4)
	imull	%r9d, %r10d
	imull	8(%r14,%rax,4), %edi
	addl	%edi, %r10d
	movl	%r10d, 8(%r14,%rax,4)
	addq	$1, %r15
	cmpq	$8, %r15
	movq	%r15, -616(%rbp)        # 8-byte Spill
	jne	.LBB0_93
# %bb.90:                               # %for.body316.preheader.12
                                        #   in Loop: Header=BB0_1 Depth=1
	xorl	%eax, %eax
	movl	%eax, %ecx
	movq	%rcx, -624(%rbp)        # 8-byte Spill
	jmp	.LBB0_91
.LBB0_91:                               # %for.body316.12
                                        #   Parent Loop BB0_1 Depth=1
                                        # =>  This Inner Loop Header: Depth=2
	movq	-624(%rbp), %rax        # 8-byte Reload
	movq	-48(%rbp), %rcx         # 8-byte Reload
	movl	(%rcx,%rax,4), %edx
	movq	-592(%rbp), %rsi        # 8-byte Reload
	shlq	$3, %rsi
	addq	%rax, %rsi
	movq	-64(%rbp), %rdi         # 8-byte Reload
	movl	%edx, (%rdi,%rsi,4)
	movq	-40(%rbp), %rsi         # 8-byte Reload
	movl	(%rsi,%rax,4), %edx
	movq	-592(%rbp), %r8         # 8-byte Reload
	shlq	$3, %r8
	addq	%rax, %r8
	movq	-56(%rbp), %r9          # 8-byte Reload
	movl	%edx, (%r9,%r8,4)
	movq	%rax, %r8
	addq	$1, %r8
	movl	4(%rcx,%rax,4), %edx
	movq	-592(%rbp), %r10        # 8-byte Reload
	shlq	$3, %r10
	addq	%r8, %r10
	movl	%edx, (%rdi,%r10,4)
	movl	4(%rsi,%rax,4), %edx
	movq	-592(%rbp), %r10        # 8-byte Reload
	shlq	$3, %r10
	addq	%r8, %r10
	movl	%edx, (%r9,%r10,4)
	addq	$1, %r8
	movl	8(%rcx,%rax,4), %edx
	movq	-592(%rbp), %r10        # 8-byte Reload
	shlq	$3, %r10
	addq	%r8, %r10
	movl	%edx, (%rdi,%r10,4)
	movl	8(%rsi,%rax,4), %edx
	movq	-592(%rbp), %r10        # 8-byte Reload
	shlq	$3, %r10
	addq	%r8, %r10
	movl	%edx, (%r9,%r10,4)
	addq	$1, %r8
	movl	12(%rcx,%rax,4), %edx
	movq	-592(%rbp), %r10        # 8-byte Reload
	shlq	$3, %r10
	addq	%r8, %r10
	movl	%edx, (%rdi,%r10,4)
	movl	12(%rsi,%rax,4), %edx
	movq	-592(%rbp), %rax        # 8-byte Reload
	shlq	$3, %rax
	addq	%r8, %rax
	movl	%edx, (%r9,%rax,4)
	addq	$1, %r8
	cmpq	$8, %r8
	movq	%r8, -624(%rbp)         # 8-byte Spill
	jne	.LBB0_91
# %bb.92:                               # %for.inc332.12
                                        #   in Loop: Header=BB0_1 Depth=1
	xorl	%eax, %eax
	movl	%eax, %ecx
	movq	-592(%rbp), %rdx        # 8-byte Reload
	addq	$1, %rdx
	movq	%rdx, -632(%rbp)        # 8-byte Spill
	movq	%rcx, -640(%rbp)        # 8-byte Spill
	jmp	.LBB0_94
.LBB0_93:                               # %for.body278.3.12
                                        #   in Loop: Header=BB0_89 Depth=2
	movq	-592(%rbp), %rax        # 8-byte Reload
	imulq	$7, %rax, %rcx
	movq	-616(%rbp), %rdx        # 8-byte Reload
	addq	%rdx, %rcx
	movq	-88(%rbp), %rsi         # 8-byte Reload
	cvttss2si	-4(%rsi,%rcx,4), %edi
	imulq	$7, %rax, %rcx
	addq	%rdx, %rcx
	movq	-96(%rbp), %r8          # 8-byte Reload
	cvttss2si	-4(%r8,%rcx,4), %r9d
	movq	-48(%rbp), %rcx         # 8-byte Reload
	movl	(%rcx,%rdx,4), %r10d
	movl	%edi, %r11d
	imull	(%rcx,%rdx,4), %r11d
	movl	%r9d, %ebx
	movq	-40(%rbp), %r14         # 8-byte Reload
	imull	(%r14,%rdx,4), %ebx
	subl	%ebx, %r11d
	movl	%r11d, (%rcx,%rdx,4)
	imull	%r9d, %r10d
	imull	(%r14,%rdx,4), %edi
	addl	%edi, %r10d
	movl	%r10d, (%r14,%rdx,4)
	addq	$1, %rdx
	movq	%rdx, -608(%rbp)        # 8-byte Spill
	jmp	.LBB0_89
.LBB0_94:                               # %for.body3.13
                                        #   Parent Loop BB0_1 Depth=1
                                        # =>  This Inner Loop Header: Depth=2
	movq	-640(%rbp), %rax        # 8-byte Reload
	movq	%rax, %rcx
	shlq	$6, %rcx
	movq	-632(%rbp), %rdx        # 8-byte Reload
	addq	%rdx, %rcx
	movq	-80(%rbp), %rsi         # 8-byte Reload
	movl	(%rsi,%rcx,4), %edi
	movq	-48(%rbp), %rcx         # 8-byte Reload
	movl	%edi, (%rcx,%rax,4)
	movq	%rax, %r8
	shlq	$6, %r8
	addq	%rdx, %r8
	movq	-72(%rbp), %r9          # 8-byte Reload
	movl	(%r9,%r8,4), %edi
	movq	-40(%rbp), %r8          # 8-byte Reload
	movl	%edi, (%r8,%rax,4)
	movq	%rax, %r10
	addq	$1, %r10
	movq	%r10, %r11
	shlq	$6, %r11
	addq	%rdx, %r11
	movl	(%rsi,%r11,4), %edi
	movl	%edi, 4(%rcx,%rax,4)
	movq	%r10, %r11
	shlq	$6, %r11
	addq	%rdx, %r11
	movl	(%r9,%r11,4), %edi
	movl	%edi, 4(%r8,%rax,4)
	addq	$1, %r10
	movq	%r10, %r11
	shlq	$6, %r11
	addq	%rdx, %r11
	movl	(%rsi,%r11,4), %edi
	movl	%edi, 8(%rcx,%rax,4)
	movq	%r10, %r11
	shlq	$6, %r11
	addq	%rdx, %r11
	movl	(%r9,%r11,4), %edi
	movl	%edi, 8(%r8,%rax,4)
	addq	$1, %r10
	movq	%r10, %r11
	shlq	$6, %r11
	addq	%rdx, %r11
	movl	(%rsi,%r11,4), %edi
	movl	%edi, 12(%rcx,%rax,4)
	movq	%r10, %r11
	shlq	$6, %r11
	addq	%rdx, %r11
	movl	(%r9,%r11,4), %edi
	movl	%edi, 12(%r8,%rax,4)
	addq	$1, %r10
	cmpq	$8, %r10
	movq	%r10, -640(%rbp)        # 8-byte Spill
	jne	.LBB0_94
# %bb.95:                               # %for.end.13
                                        #   in Loop: Header=BB0_1 Depth=1
	xorl	%eax, %eax
	movss	.LCPI0_0(%rip), %xmm0   # xmm0 = mem[0],zero,zero,zero
	movq	-48(%rbp), %rcx         # 8-byte Reload
	movl	(%rcx), %edx
	movq	-40(%rbp), %rsi         # 8-byte Reload
	movl	(%rsi), %edi
	movl	%edx, %r8d
	addl	16(%rcx), %r8d
	movl	%r8d, (%rcx)
	movl	%edi, %r8d
	addl	16(%rsi), %r8d
	movl	%r8d, (%rsi)
	subl	16(%rcx), %edx
	movl	%edx, 16(%rcx)
	subl	16(%rsi), %edi
	movl	%edi, 16(%rsi)
	movl	4(%rcx), %edx
	movl	4(%rsi), %edi
	movl	%edx, %r8d
	addl	20(%rcx), %r8d
	movl	%r8d, 4(%rcx)
	movl	%edi, %r8d
	addl	20(%rsi), %r8d
	movl	%r8d, 4(%rsi)
	subl	20(%rcx), %edx
	movl	%edx, 20(%rcx)
	subl	20(%rsi), %edi
	movl	%edi, 20(%rsi)
	movl	8(%rcx), %edx
	movl	8(%rsi), %edi
	movl	%edx, %r8d
	addl	24(%rcx), %r8d
	movl	%r8d, 8(%rcx)
	movl	%edi, %r8d
	addl	24(%rsi), %r8d
	movl	%r8d, 8(%rsi)
	subl	24(%rcx), %edx
	movl	%edx, 24(%rcx)
	subl	24(%rsi), %edi
	movl	%edi, 24(%rsi)
	movl	12(%rcx), %edx
	movl	12(%rsi), %edi
	movl	%edx, %r8d
	addl	28(%rcx), %r8d
	movl	%r8d, 12(%rcx)
	movl	%edi, %r8d
	addl	28(%rsi), %r8d
	movl	%r8d, 12(%rsi)
	subl	28(%rcx), %edx
	movl	%edx, 28(%rcx)
	subl	28(%rsi), %edi
	movl	%edi, 28(%rsi)
	movl	20(%rcx), %edx
	movl	%edx, %edi
	addl	20(%rsi), %edi
	cvtsi2ss	%edi, %xmm1
	mulss	%xmm0, %xmm1
	cvttss2si	%xmm1, %edi
	movl	%edi, 20(%rcx)
	movl	20(%rsi), %edi
	subl	%edx, %edi
	cvtsi2ss	%edi, %xmm1
	mulss	%xmm0, %xmm1
	cvttss2si	%xmm1, %edx
	movl	%edx, 20(%rsi)
	movl	24(%rcx), %edx
	movl	24(%rsi), %edi
	movl	%edi, 24(%rcx)
	movl	%eax, %edi
	subl	%edx, %edi
	movl	%edi, 24(%rsi)
	movl	28(%rcx), %edx
	movl	28(%rsi), %edi
	subl	%edx, %edi
	cvtsi2ss	%edi, %xmm1
	mulss	%xmm0, %xmm1
	cvttss2si	%xmm1, %edi
	movl	%edi, 28(%rcx)
	addl	28(%rsi), %edx
	movl	%eax, %edi
	subl	%edx, %edi
	cvtsi2ss	%edi, %xmm1
	mulss	%xmm0, %xmm1
	cvttss2si	%xmm1, %edx
	movl	%edx, 28(%rsi)
	movl	(%rcx), %edx
	movl	(%rsi), %edi
	movl	%edx, %r8d
	addl	8(%rcx), %r8d
	movl	%r8d, (%rcx)
	movl	%edi, %r8d
	addl	8(%rsi), %r8d
	movl	%r8d, (%rsi)
	subl	8(%rcx), %edx
	movl	%edx, 8(%rcx)
	subl	8(%rsi), %edi
	movl	%edi, 8(%rsi)
	movl	4(%rcx), %edx
	movl	4(%rsi), %edi
	movl	%edx, %r8d
	addl	12(%rcx), %r8d
	movl	%r8d, 4(%rcx)
	movl	%edi, %r8d
	addl	12(%rsi), %r8d
	movl	%r8d, 4(%rsi)
	subl	12(%rcx), %edx
	movl	%edx, 12(%rcx)
	subl	12(%rsi), %edi
	movl	%edi, 12(%rsi)
	movl	12(%rcx), %edx
	movl	%edi, 12(%rcx)
	movl	%eax, %edi
	subl	%edx, %edi
	movl	%edi, 12(%rsi)
	movl	(%rcx), %edx
	movl	(%rsi), %edi
	movl	%edx, %r8d
	addl	4(%rcx), %r8d
	movl	%r8d, (%rcx)
	movl	%edi, %r8d
	addl	4(%rsi), %r8d
	movl	%r8d, (%rsi)
	subl	4(%rcx), %edx
	movl	%edx, 4(%rcx)
	subl	4(%rsi), %edi
	movl	%edi, 4(%rsi)
	movl	8(%rcx), %edx
	movl	8(%rsi), %edi
	movl	%edx, %r8d
	addl	12(%rcx), %r8d
	movl	%r8d, 8(%rcx)
	movl	%edi, %r8d
	addl	12(%rsi), %r8d
	movl	%r8d, 8(%rsi)
	subl	12(%rcx), %edx
	movl	%edx, 12(%rcx)
	subl	12(%rsi), %edi
	movl	%edi, 12(%rsi)
	movl	16(%rcx), %edx
	movl	16(%rsi), %edi
	movl	%edx, %r8d
	addl	24(%rcx), %r8d
	movl	%r8d, 16(%rcx)
	movl	%edi, %r8d
	addl	24(%rsi), %r8d
	movl	%r8d, 16(%rsi)
	subl	24(%rcx), %edx
	movl	%edx, 24(%rcx)
	subl	24(%rsi), %edi
	movl	%edi, 24(%rsi)
	movl	20(%rcx), %edx
	movl	20(%rsi), %edi
	movl	%edx, %r8d
	addl	28(%rcx), %r8d
	movl	%r8d, 20(%rcx)
	movl	%edi, %r8d
	addl	28(%rsi), %r8d
	movl	%r8d, 20(%rsi)
	subl	28(%rcx), %edx
	movl	%edx, 28(%rcx)
	subl	28(%rsi), %edi
	movl	%edi, 28(%rsi)
	movl	28(%rcx), %edx
	movl	%edi, 28(%rcx)
	subl	%edx, %eax
	movl	%eax, 28(%rsi)
	movl	16(%rcx), %eax
	movl	16(%rsi), %edx
	movl	%eax, %edi
	addl	20(%rcx), %edi
	movl	%edi, 16(%rcx)
	movl	%edx, %edi
	addl	20(%rsi), %edi
	movl	%edi, 16(%rsi)
	subl	20(%rcx), %eax
	movl	%eax, 20(%rcx)
	subl	20(%rsi), %edx
	movl	%edx, 20(%rsi)
	movl	24(%rcx), %eax
	movl	24(%rsi), %edx
	movl	%eax, %edi
	addl	28(%rcx), %edi
	movl	%edi, 24(%rcx)
	movl	%edx, %edi
	addl	28(%rsi), %edi
	movl	%edi, 24(%rsi)
	subl	28(%rcx), %eax
	movl	%eax, 28(%rcx)
	subl	28(%rsi), %edx
	movl	%edx, 28(%rsi)
	movl	$1, %r9d
	movq	%r9, -648(%rbp)         # 8-byte Spill
.LBB0_96:                               # %for.body278.13
                                        #   Parent Loop BB0_1 Depth=1
                                        # =>  This Inner Loop Header: Depth=2
	movq	-648(%rbp), %rax        # 8-byte Reload
	movq	-632(%rbp), %rcx        # 8-byte Reload
	imulq	$7, %rcx, %rdx
	addq	%rax, %rdx
	movq	-88(%rbp), %rsi         # 8-byte Reload
	cvttss2si	-4(%rsi,%rdx,4), %edi
	imulq	$7, %rcx, %rdx
	addq	%rax, %rdx
	movq	-96(%rbp), %r8          # 8-byte Reload
	cvttss2si	-4(%r8,%rdx,4), %r9d
	movq	-48(%rbp), %rdx         # 8-byte Reload
	movl	(%rdx,%rax,4), %r10d
	movl	%edi, %r11d
	imull	(%rdx,%rax,4), %r11d
	movl	%r9d, %ebx
	movq	-40(%rbp), %r14         # 8-byte Reload
	imull	(%r14,%rax,4), %ebx
	subl	%ebx, %r11d
	movl	%r11d, (%rdx,%rax,4)
	imull	%r9d, %r10d
	imull	(%r14,%rax,4), %edi
	addl	%edi, %r10d
	movl	%r10d, (%r14,%rax,4)
	movq	%rax, %r15
	addq	$1, %r15
	imulq	$7, %rcx, %r12
	addq	%r15, %r12
	cvttss2si	-4(%rsi,%r12,4), %edi
	imulq	$7, %rcx, %r12
	addq	%r15, %r12
	cvttss2si	-4(%r8,%r12,4), %r9d
	movl	4(%rdx,%rax,4), %r10d
	movl	%edi, %r11d
	imull	4(%rdx,%rax,4), %r11d
	movl	%r9d, %ebx
	imull	4(%r14,%rax,4), %ebx
	subl	%ebx, %r11d
	movl	%r11d, 4(%rdx,%rax,4)
	imull	%r9d, %r10d
	imull	4(%r14,%rax,4), %edi
	addl	%edi, %r10d
	movl	%r10d, 4(%r14,%rax,4)
	addq	$1, %r15
	imulq	$7, %rcx, %r12
	addq	%r15, %r12
	cvttss2si	-4(%rsi,%r12,4), %edi
	imulq	$7, %rcx, %r12
	addq	%r15, %r12
	cvttss2si	-4(%r8,%r12,4), %r9d
	movl	8(%rdx,%rax,4), %r10d
	movl	%edi, %r11d
	imull	8(%rdx,%rax,4), %r11d
	movl	%r9d, %ebx
	imull	8(%r14,%rax,4), %ebx
	subl	%ebx, %r11d
	movl	%r11d, 8(%rdx,%rax,4)
	imull	%r9d, %r10d
	imull	8(%r14,%rax,4), %edi
	addl	%edi, %r10d
	movl	%r10d, 8(%r14,%rax,4)
	addq	$1, %r15
	cmpq	$8, %r15
	movq	%r15, -656(%rbp)        # 8-byte Spill
	jne	.LBB0_100
# %bb.97:                               # %for.body316.preheader.13
                                        #   in Loop: Header=BB0_1 Depth=1
	xorl	%eax, %eax
	movl	%eax, %ecx
	movq	%rcx, -664(%rbp)        # 8-byte Spill
	jmp	.LBB0_98
.LBB0_98:                               # %for.body316.13
                                        #   Parent Loop BB0_1 Depth=1
                                        # =>  This Inner Loop Header: Depth=2
	movq	-664(%rbp), %rax        # 8-byte Reload
	movq	-48(%rbp), %rcx         # 8-byte Reload
	movl	(%rcx,%rax,4), %edx
	movq	-632(%rbp), %rsi        # 8-byte Reload
	shlq	$3, %rsi
	addq	%rax, %rsi
	movq	-64(%rbp), %rdi         # 8-byte Reload
	movl	%edx, (%rdi,%rsi,4)
	movq	-40(%rbp), %rsi         # 8-byte Reload
	movl	(%rsi,%rax,4), %edx
	movq	-632(%rbp), %r8         # 8-byte Reload
	shlq	$3, %r8
	addq	%rax, %r8
	movq	-56(%rbp), %r9          # 8-byte Reload
	movl	%edx, (%r9,%r8,4)
	movq	%rax, %r8
	addq	$1, %r8
	movl	4(%rcx,%rax,4), %edx
	movq	-632(%rbp), %r10        # 8-byte Reload
	shlq	$3, %r10
	addq	%r8, %r10
	movl	%edx, (%rdi,%r10,4)
	movl	4(%rsi,%rax,4), %edx
	movq	-632(%rbp), %r10        # 8-byte Reload
	shlq	$3, %r10
	addq	%r8, %r10
	movl	%edx, (%r9,%r10,4)
	addq	$1, %r8
	movl	8(%rcx,%rax,4), %edx
	movq	-632(%rbp), %r10        # 8-byte Reload
	shlq	$3, %r10
	addq	%r8, %r10
	movl	%edx, (%rdi,%r10,4)
	movl	8(%rsi,%rax,4), %edx
	movq	-632(%rbp), %r10        # 8-byte Reload
	shlq	$3, %r10
	addq	%r8, %r10
	movl	%edx, (%r9,%r10,4)
	addq	$1, %r8
	movl	12(%rcx,%rax,4), %edx
	movq	-632(%rbp), %r10        # 8-byte Reload
	shlq	$3, %r10
	addq	%r8, %r10
	movl	%edx, (%rdi,%r10,4)
	movl	12(%rsi,%rax,4), %edx
	movq	-632(%rbp), %rax        # 8-byte Reload
	shlq	$3, %rax
	addq	%r8, %rax
	movl	%edx, (%r9,%rax,4)
	addq	$1, %r8
	cmpq	$8, %r8
	movq	%r8, -664(%rbp)         # 8-byte Spill
	jne	.LBB0_98
# %bb.99:                               # %for.inc332.13
                                        #   in Loop: Header=BB0_1 Depth=1
	xorl	%eax, %eax
	movl	%eax, %ecx
	movq	-632(%rbp), %rdx        # 8-byte Reload
	addq	$1, %rdx
	movq	%rdx, -672(%rbp)        # 8-byte Spill
	movq	%rcx, -680(%rbp)        # 8-byte Spill
	jmp	.LBB0_101
.LBB0_100:                              # %for.body278.3.13
                                        #   in Loop: Header=BB0_96 Depth=2
	movq	-632(%rbp), %rax        # 8-byte Reload
	imulq	$7, %rax, %rcx
	movq	-656(%rbp), %rdx        # 8-byte Reload
	addq	%rdx, %rcx
	movq	-88(%rbp), %rsi         # 8-byte Reload
	cvttss2si	-4(%rsi,%rcx,4), %edi
	imulq	$7, %rax, %rcx
	addq	%rdx, %rcx
	movq	-96(%rbp), %r8          # 8-byte Reload
	cvttss2si	-4(%r8,%rcx,4), %r9d
	movq	-48(%rbp), %rcx         # 8-byte Reload
	movl	(%rcx,%rdx,4), %r10d
	movl	%edi, %r11d
	imull	(%rcx,%rdx,4), %r11d
	movl	%r9d, %ebx
	movq	-40(%rbp), %r14         # 8-byte Reload
	imull	(%r14,%rdx,4), %ebx
	subl	%ebx, %r11d
	movl	%r11d, (%rcx,%rdx,4)
	imull	%r9d, %r10d
	imull	(%r14,%rdx,4), %edi
	addl	%edi, %r10d
	movl	%r10d, (%r14,%rdx,4)
	addq	$1, %rdx
	movq	%rdx, -648(%rbp)        # 8-byte Spill
	jmp	.LBB0_96
.LBB0_101:                              # %for.body3.14
                                        #   Parent Loop BB0_1 Depth=1
                                        # =>  This Inner Loop Header: Depth=2
	movq	-680(%rbp), %rax        # 8-byte Reload
	movq	%rax, %rcx
	shlq	$6, %rcx
	movq	-672(%rbp), %rdx        # 8-byte Reload
	addq	%rdx, %rcx
	movq	-80(%rbp), %rsi         # 8-byte Reload
	movl	(%rsi,%rcx,4), %edi
	movq	-48(%rbp), %rcx         # 8-byte Reload
	movl	%edi, (%rcx,%rax,4)
	movq	%rax, %r8
	shlq	$6, %r8
	addq	%rdx, %r8
	movq	-72(%rbp), %r9          # 8-byte Reload
	movl	(%r9,%r8,4), %edi
	movq	-40(%rbp), %r8          # 8-byte Reload
	movl	%edi, (%r8,%rax,4)
	movq	%rax, %r10
	addq	$1, %r10
	movq	%r10, %r11
	shlq	$6, %r11
	addq	%rdx, %r11
	movl	(%rsi,%r11,4), %edi
	movl	%edi, 4(%rcx,%rax,4)
	movq	%r10, %r11
	shlq	$6, %r11
	addq	%rdx, %r11
	movl	(%r9,%r11,4), %edi
	movl	%edi, 4(%r8,%rax,4)
	addq	$1, %r10
	movq	%r10, %r11
	shlq	$6, %r11
	addq	%rdx, %r11
	movl	(%rsi,%r11,4), %edi
	movl	%edi, 8(%rcx,%rax,4)
	movq	%r10, %r11
	shlq	$6, %r11
	addq	%rdx, %r11
	movl	(%r9,%r11,4), %edi
	movl	%edi, 8(%r8,%rax,4)
	addq	$1, %r10
	movq	%r10, %r11
	shlq	$6, %r11
	addq	%rdx, %r11
	movl	(%rsi,%r11,4), %edi
	movl	%edi, 12(%rcx,%rax,4)
	movq	%r10, %r11
	shlq	$6, %r11
	addq	%rdx, %r11
	movl	(%r9,%r11,4), %edi
	movl	%edi, 12(%r8,%rax,4)
	addq	$1, %r10
	cmpq	$8, %r10
	movq	%r10, -680(%rbp)        # 8-byte Spill
	jne	.LBB0_101
# %bb.102:                              # %for.end.14
                                        #   in Loop: Header=BB0_1 Depth=1
	xorl	%eax, %eax
	movss	.LCPI0_0(%rip), %xmm0   # xmm0 = mem[0],zero,zero,zero
	movq	-48(%rbp), %rcx         # 8-byte Reload
	movl	(%rcx), %edx
	movq	-40(%rbp), %rsi         # 8-byte Reload
	movl	(%rsi), %edi
	movl	%edx, %r8d
	addl	16(%rcx), %r8d
	movl	%r8d, (%rcx)
	movl	%edi, %r8d
	addl	16(%rsi), %r8d
	movl	%r8d, (%rsi)
	subl	16(%rcx), %edx
	movl	%edx, 16(%rcx)
	subl	16(%rsi), %edi
	movl	%edi, 16(%rsi)
	movl	4(%rcx), %edx
	movl	4(%rsi), %edi
	movl	%edx, %r8d
	addl	20(%rcx), %r8d
	movl	%r8d, 4(%rcx)
	movl	%edi, %r8d
	addl	20(%rsi), %r8d
	movl	%r8d, 4(%rsi)
	subl	20(%rcx), %edx
	movl	%edx, 20(%rcx)
	subl	20(%rsi), %edi
	movl	%edi, 20(%rsi)
	movl	8(%rcx), %edx
	movl	8(%rsi), %edi
	movl	%edx, %r8d
	addl	24(%rcx), %r8d
	movl	%r8d, 8(%rcx)
	movl	%edi, %r8d
	addl	24(%rsi), %r8d
	movl	%r8d, 8(%rsi)
	subl	24(%rcx), %edx
	movl	%edx, 24(%rcx)
	subl	24(%rsi), %edi
	movl	%edi, 24(%rsi)
	movl	12(%rcx), %edx
	movl	12(%rsi), %edi
	movl	%edx, %r8d
	addl	28(%rcx), %r8d
	movl	%r8d, 12(%rcx)
	movl	%edi, %r8d
	addl	28(%rsi), %r8d
	movl	%r8d, 12(%rsi)
	subl	28(%rcx), %edx
	movl	%edx, 28(%rcx)
	subl	28(%rsi), %edi
	movl	%edi, 28(%rsi)
	movl	20(%rcx), %edx
	movl	%edx, %edi
	addl	20(%rsi), %edi
	cvtsi2ss	%edi, %xmm1
	mulss	%xmm0, %xmm1
	cvttss2si	%xmm1, %edi
	movl	%edi, 20(%rcx)
	movl	20(%rsi), %edi
	subl	%edx, %edi
	cvtsi2ss	%edi, %xmm1
	mulss	%xmm0, %xmm1
	cvttss2si	%xmm1, %edx
	movl	%edx, 20(%rsi)
	movl	24(%rcx), %edx
	movl	24(%rsi), %edi
	movl	%edi, 24(%rcx)
	movl	%eax, %edi
	subl	%edx, %edi
	movl	%edi, 24(%rsi)
	movl	28(%rcx), %edx
	movl	28(%rsi), %edi
	subl	%edx, %edi
	cvtsi2ss	%edi, %xmm1
	mulss	%xmm0, %xmm1
	cvttss2si	%xmm1, %edi
	movl	%edi, 28(%rcx)
	addl	28(%rsi), %edx
	movl	%eax, %edi
	subl	%edx, %edi
	cvtsi2ss	%edi, %xmm1
	mulss	%xmm0, %xmm1
	cvttss2si	%xmm1, %edx
	movl	%edx, 28(%rsi)
	movl	(%rcx), %edx
	movl	(%rsi), %edi
	movl	%edx, %r8d
	addl	8(%rcx), %r8d
	movl	%r8d, (%rcx)
	movl	%edi, %r8d
	addl	8(%rsi), %r8d
	movl	%r8d, (%rsi)
	subl	8(%rcx), %edx
	movl	%edx, 8(%rcx)
	subl	8(%rsi), %edi
	movl	%edi, 8(%rsi)
	movl	4(%rcx), %edx
	movl	4(%rsi), %edi
	movl	%edx, %r8d
	addl	12(%rcx), %r8d
	movl	%r8d, 4(%rcx)
	movl	%edi, %r8d
	addl	12(%rsi), %r8d
	movl	%r8d, 4(%rsi)
	subl	12(%rcx), %edx
	movl	%edx, 12(%rcx)
	subl	12(%rsi), %edi
	movl	%edi, 12(%rsi)
	movl	12(%rcx), %edx
	movl	%edi, 12(%rcx)
	movl	%eax, %edi
	subl	%edx, %edi
	movl	%edi, 12(%rsi)
	movl	(%rcx), %edx
	movl	(%rsi), %edi
	movl	%edx, %r8d
	addl	4(%rcx), %r8d
	movl	%r8d, (%rcx)
	movl	%edi, %r8d
	addl	4(%rsi), %r8d
	movl	%r8d, (%rsi)
	subl	4(%rcx), %edx
	movl	%edx, 4(%rcx)
	subl	4(%rsi), %edi
	movl	%edi, 4(%rsi)
	movl	8(%rcx), %edx
	movl	8(%rsi), %edi
	movl	%edx, %r8d
	addl	12(%rcx), %r8d
	movl	%r8d, 8(%rcx)
	movl	%edi, %r8d
	addl	12(%rsi), %r8d
	movl	%r8d, 8(%rsi)
	subl	12(%rcx), %edx
	movl	%edx, 12(%rcx)
	subl	12(%rsi), %edi
	movl	%edi, 12(%rsi)
	movl	16(%rcx), %edx
	movl	16(%rsi), %edi
	movl	%edx, %r8d
	addl	24(%rcx), %r8d
	movl	%r8d, 16(%rcx)
	movl	%edi, %r8d
	addl	24(%rsi), %r8d
	movl	%r8d, 16(%rsi)
	subl	24(%rcx), %edx
	movl	%edx, 24(%rcx)
	subl	24(%rsi), %edi
	movl	%edi, 24(%rsi)
	movl	20(%rcx), %edx
	movl	20(%rsi), %edi
	movl	%edx, %r8d
	addl	28(%rcx), %r8d
	movl	%r8d, 20(%rcx)
	movl	%edi, %r8d
	addl	28(%rsi), %r8d
	movl	%r8d, 20(%rsi)
	subl	28(%rcx), %edx
	movl	%edx, 28(%rcx)
	subl	28(%rsi), %edi
	movl	%edi, 28(%rsi)
	movl	28(%rcx), %edx
	movl	%edi, 28(%rcx)
	subl	%edx, %eax
	movl	%eax, 28(%rsi)
	movl	16(%rcx), %eax
	movl	16(%rsi), %edx
	movl	%eax, %edi
	addl	20(%rcx), %edi
	movl	%edi, 16(%rcx)
	movl	%edx, %edi
	addl	20(%rsi), %edi
	movl	%edi, 16(%rsi)
	subl	20(%rcx), %eax
	movl	%eax, 20(%rcx)
	subl	20(%rsi), %edx
	movl	%edx, 20(%rsi)
	movl	24(%rcx), %eax
	movl	24(%rsi), %edx
	movl	%eax, %edi
	addl	28(%rcx), %edi
	movl	%edi, 24(%rcx)
	movl	%edx, %edi
	addl	28(%rsi), %edi
	movl	%edi, 24(%rsi)
	subl	28(%rcx), %eax
	movl	%eax, 28(%rcx)
	subl	28(%rsi), %edx
	movl	%edx, 28(%rsi)
	movl	$1, %r9d
	movq	%r9, -688(%rbp)         # 8-byte Spill
.LBB0_103:                              # %for.body278.14
                                        #   Parent Loop BB0_1 Depth=1
                                        # =>  This Inner Loop Header: Depth=2
	movq	-688(%rbp), %rax        # 8-byte Reload
	movq	-672(%rbp), %rcx        # 8-byte Reload
	imulq	$7, %rcx, %rdx
	addq	%rax, %rdx
	movq	-88(%rbp), %rsi         # 8-byte Reload
	cvttss2si	-4(%rsi,%rdx,4), %edi
	imulq	$7, %rcx, %rdx
	addq	%rax, %rdx
	movq	-96(%rbp), %r8          # 8-byte Reload
	cvttss2si	-4(%r8,%rdx,4), %r9d
	movq	-48(%rbp), %rdx         # 8-byte Reload
	movl	(%rdx,%rax,4), %r10d
	movl	%edi, %r11d
	imull	(%rdx,%rax,4), %r11d
	movl	%r9d, %ebx
	movq	-40(%rbp), %r14         # 8-byte Reload
	imull	(%r14,%rax,4), %ebx
	subl	%ebx, %r11d
	movl	%r11d, (%rdx,%rax,4)
	imull	%r9d, %r10d
	imull	(%r14,%rax,4), %edi
	addl	%edi, %r10d
	movl	%r10d, (%r14,%rax,4)
	movq	%rax, %r15
	addq	$1, %r15
	imulq	$7, %rcx, %r12
	addq	%r15, %r12
	cvttss2si	-4(%rsi,%r12,4), %edi
	imulq	$7, %rcx, %r12
	addq	%r15, %r12
	cvttss2si	-4(%r8,%r12,4), %r9d
	movl	4(%rdx,%rax,4), %r10d
	movl	%edi, %r11d
	imull	4(%rdx,%rax,4), %r11d
	movl	%r9d, %ebx
	imull	4(%r14,%rax,4), %ebx
	subl	%ebx, %r11d
	movl	%r11d, 4(%rdx,%rax,4)
	imull	%r9d, %r10d
	imull	4(%r14,%rax,4), %edi
	addl	%edi, %r10d
	movl	%r10d, 4(%r14,%rax,4)
	addq	$1, %r15
	imulq	$7, %rcx, %r12
	addq	%r15, %r12
	cvttss2si	-4(%rsi,%r12,4), %edi
	imulq	$7, %rcx, %r12
	addq	%r15, %r12
	cvttss2si	-4(%r8,%r12,4), %r9d
	movl	8(%rdx,%rax,4), %r10d
	movl	%edi, %r11d
	imull	8(%rdx,%rax,4), %r11d
	movl	%r9d, %ebx
	imull	8(%r14,%rax,4), %ebx
	subl	%ebx, %r11d
	movl	%r11d, 8(%rdx,%rax,4)
	imull	%r9d, %r10d
	imull	8(%r14,%rax,4), %edi
	addl	%edi, %r10d
	movl	%r10d, 8(%r14,%rax,4)
	addq	$1, %r15
	cmpq	$8, %r15
	movq	%r15, -696(%rbp)        # 8-byte Spill
	jne	.LBB0_107
# %bb.104:                              # %for.body316.preheader.14
                                        #   in Loop: Header=BB0_1 Depth=1
	xorl	%eax, %eax
	movl	%eax, %ecx
	movq	%rcx, -704(%rbp)        # 8-byte Spill
	jmp	.LBB0_105
.LBB0_105:                              # %for.body316.14
                                        #   Parent Loop BB0_1 Depth=1
                                        # =>  This Inner Loop Header: Depth=2
	movq	-704(%rbp), %rax        # 8-byte Reload
	movq	-48(%rbp), %rcx         # 8-byte Reload
	movl	(%rcx,%rax,4), %edx
	movq	-672(%rbp), %rsi        # 8-byte Reload
	shlq	$3, %rsi
	addq	%rax, %rsi
	movq	-64(%rbp), %rdi         # 8-byte Reload
	movl	%edx, (%rdi,%rsi,4)
	movq	-40(%rbp), %rsi         # 8-byte Reload
	movl	(%rsi,%rax,4), %edx
	movq	-672(%rbp), %r8         # 8-byte Reload
	shlq	$3, %r8
	addq	%rax, %r8
	movq	-56(%rbp), %r9          # 8-byte Reload
	movl	%edx, (%r9,%r8,4)
	movq	%rax, %r8
	addq	$1, %r8
	movl	4(%rcx,%rax,4), %edx
	movq	-672(%rbp), %r10        # 8-byte Reload
	shlq	$3, %r10
	addq	%r8, %r10
	movl	%edx, (%rdi,%r10,4)
	movl	4(%rsi,%rax,4), %edx
	movq	-672(%rbp), %r10        # 8-byte Reload
	shlq	$3, %r10
	addq	%r8, %r10
	movl	%edx, (%r9,%r10,4)
	addq	$1, %r8
	movl	8(%rcx,%rax,4), %edx
	movq	-672(%rbp), %r10        # 8-byte Reload
	shlq	$3, %r10
	addq	%r8, %r10
	movl	%edx, (%rdi,%r10,4)
	movl	8(%rsi,%rax,4), %edx
	movq	-672(%rbp), %r10        # 8-byte Reload
	shlq	$3, %r10
	addq	%r8, %r10
	movl	%edx, (%r9,%r10,4)
	addq	$1, %r8
	movl	12(%rcx,%rax,4), %edx
	movq	-672(%rbp), %r10        # 8-byte Reload
	shlq	$3, %r10
	addq	%r8, %r10
	movl	%edx, (%rdi,%r10,4)
	movl	12(%rsi,%rax,4), %edx
	movq	-672(%rbp), %rax        # 8-byte Reload
	shlq	$3, %rax
	addq	%r8, %rax
	movl	%edx, (%r9,%rax,4)
	addq	$1, %r8
	cmpq	$8, %r8
	movq	%r8, -704(%rbp)         # 8-byte Spill
	jne	.LBB0_105
# %bb.106:                              # %for.inc332.14
                                        #   in Loop: Header=BB0_1 Depth=1
	xorl	%eax, %eax
	movl	%eax, %ecx
	movq	-672(%rbp), %rdx        # 8-byte Reload
	addq	$1, %rdx
	movq	%rdx, -712(%rbp)        # 8-byte Spill
	movq	%rcx, -720(%rbp)        # 8-byte Spill
	jmp	.LBB0_108
.LBB0_107:                              # %for.body278.3.14
                                        #   in Loop: Header=BB0_103 Depth=2
	movq	-672(%rbp), %rax        # 8-byte Reload
	imulq	$7, %rax, %rcx
	movq	-696(%rbp), %rdx        # 8-byte Reload
	addq	%rdx, %rcx
	movq	-88(%rbp), %rsi         # 8-byte Reload
	cvttss2si	-4(%rsi,%rcx,4), %edi
	imulq	$7, %rax, %rcx
	addq	%rdx, %rcx
	movq	-96(%rbp), %r8          # 8-byte Reload
	cvttss2si	-4(%r8,%rcx,4), %r9d
	movq	-48(%rbp), %rcx         # 8-byte Reload
	movl	(%rcx,%rdx,4), %r10d
	movl	%edi, %r11d
	imull	(%rcx,%rdx,4), %r11d
	movl	%r9d, %ebx
	movq	-40(%rbp), %r14         # 8-byte Reload
	imull	(%r14,%rdx,4), %ebx
	subl	%ebx, %r11d
	movl	%r11d, (%rcx,%rdx,4)
	imull	%r9d, %r10d
	imull	(%r14,%rdx,4), %edi
	addl	%edi, %r10d
	movl	%r10d, (%r14,%rdx,4)
	addq	$1, %rdx
	movq	%rdx, -688(%rbp)        # 8-byte Spill
	jmp	.LBB0_103
.LBB0_108:                              # %for.body3.15
                                        #   Parent Loop BB0_1 Depth=1
                                        # =>  This Inner Loop Header: Depth=2
	movq	-720(%rbp), %rax        # 8-byte Reload
	movq	%rax, %rcx
	shlq	$6, %rcx
	movq	-712(%rbp), %rdx        # 8-byte Reload
	addq	%rdx, %rcx
	movq	-80(%rbp), %rsi         # 8-byte Reload
	movl	(%rsi,%rcx,4), %edi
	movq	-48(%rbp), %rcx         # 8-byte Reload
	movl	%edi, (%rcx,%rax,4)
	movq	%rax, %r8
	shlq	$6, %r8
	addq	%rdx, %r8
	movq	-72(%rbp), %r9          # 8-byte Reload
	movl	(%r9,%r8,4), %edi
	movq	-40(%rbp), %r8          # 8-byte Reload
	movl	%edi, (%r8,%rax,4)
	movq	%rax, %r10
	addq	$1, %r10
	movq	%r10, %r11
	shlq	$6, %r11
	addq	%rdx, %r11
	movl	(%rsi,%r11,4), %edi
	movl	%edi, 4(%rcx,%rax,4)
	movq	%r10, %r11
	shlq	$6, %r11
	addq	%rdx, %r11
	movl	(%r9,%r11,4), %edi
	movl	%edi, 4(%r8,%rax,4)
	addq	$1, %r10
	movq	%r10, %r11
	shlq	$6, %r11
	addq	%rdx, %r11
	movl	(%rsi,%r11,4), %edi
	movl	%edi, 8(%rcx,%rax,4)
	movq	%r10, %r11
	shlq	$6, %r11
	addq	%rdx, %r11
	movl	(%r9,%r11,4), %edi
	movl	%edi, 8(%r8,%rax,4)
	addq	$1, %r10
	movq	%r10, %r11
	shlq	$6, %r11
	addq	%rdx, %r11
	movl	(%rsi,%r11,4), %edi
	movl	%edi, 12(%rcx,%rax,4)
	movq	%r10, %r11
	shlq	$6, %r11
	addq	%rdx, %r11
	movl	(%r9,%r11,4), %edi
	movl	%edi, 12(%r8,%rax,4)
	addq	$1, %r10
	cmpq	$8, %r10
	movq	%r10, -720(%rbp)        # 8-byte Spill
	jne	.LBB0_108
# %bb.109:                              # %for.end.15
                                        #   in Loop: Header=BB0_1 Depth=1
	xorl	%eax, %eax
	movss	.LCPI0_0(%rip), %xmm0   # xmm0 = mem[0],zero,zero,zero
	movq	-48(%rbp), %rcx         # 8-byte Reload
	movl	(%rcx), %edx
	movq	-40(%rbp), %rsi         # 8-byte Reload
	movl	(%rsi), %edi
	movl	%edx, %r8d
	addl	16(%rcx), %r8d
	movl	%r8d, (%rcx)
	movl	%edi, %r8d
	addl	16(%rsi), %r8d
	movl	%r8d, (%rsi)
	subl	16(%rcx), %edx
	movl	%edx, 16(%rcx)
	subl	16(%rsi), %edi
	movl	%edi, 16(%rsi)
	movl	4(%rcx), %edx
	movl	4(%rsi), %edi
	movl	%edx, %r8d
	addl	20(%rcx), %r8d
	movl	%r8d, 4(%rcx)
	movl	%edi, %r8d
	addl	20(%rsi), %r8d
	movl	%r8d, 4(%rsi)
	subl	20(%rcx), %edx
	movl	%edx, 20(%rcx)
	subl	20(%rsi), %edi
	movl	%edi, 20(%rsi)
	movl	8(%rcx), %edx
	movl	8(%rsi), %edi
	movl	%edx, %r8d
	addl	24(%rcx), %r8d
	movl	%r8d, 8(%rcx)
	movl	%edi, %r8d
	addl	24(%rsi), %r8d
	movl	%r8d, 8(%rsi)
	subl	24(%rcx), %edx
	movl	%edx, 24(%rcx)
	subl	24(%rsi), %edi
	movl	%edi, 24(%rsi)
	movl	12(%rcx), %edx
	movl	12(%rsi), %edi
	movl	%edx, %r8d
	addl	28(%rcx), %r8d
	movl	%r8d, 12(%rcx)
	movl	%edi, %r8d
	addl	28(%rsi), %r8d
	movl	%r8d, 12(%rsi)
	subl	28(%rcx), %edx
	movl	%edx, 28(%rcx)
	subl	28(%rsi), %edi
	movl	%edi, 28(%rsi)
	movl	20(%rcx), %edx
	movl	%edx, %edi
	addl	20(%rsi), %edi
	cvtsi2ss	%edi, %xmm1
	mulss	%xmm0, %xmm1
	cvttss2si	%xmm1, %edi
	movl	%edi, 20(%rcx)
	movl	20(%rsi), %edi
	subl	%edx, %edi
	cvtsi2ss	%edi, %xmm1
	mulss	%xmm0, %xmm1
	cvttss2si	%xmm1, %edx
	movl	%edx, 20(%rsi)
	movl	24(%rcx), %edx
	movl	24(%rsi), %edi
	movl	%edi, 24(%rcx)
	movl	%eax, %edi
	subl	%edx, %edi
	movl	%edi, 24(%rsi)
	movl	28(%rcx), %edx
	movl	28(%rsi), %edi
	subl	%edx, %edi
	cvtsi2ss	%edi, %xmm1
	mulss	%xmm0, %xmm1
	cvttss2si	%xmm1, %edi
	movl	%edi, 28(%rcx)
	addl	28(%rsi), %edx
	movl	%eax, %edi
	subl	%edx, %edi
	cvtsi2ss	%edi, %xmm1
	mulss	%xmm0, %xmm1
	cvttss2si	%xmm1, %edx
	movl	%edx, 28(%rsi)
	movl	(%rcx), %edx
	movl	(%rsi), %edi
	movl	%edx, %r8d
	addl	8(%rcx), %r8d
	movl	%r8d, (%rcx)
	movl	%edi, %r8d
	addl	8(%rsi), %r8d
	movl	%r8d, (%rsi)
	subl	8(%rcx), %edx
	movl	%edx, 8(%rcx)
	subl	8(%rsi), %edi
	movl	%edi, 8(%rsi)
	movl	4(%rcx), %edx
	movl	4(%rsi), %edi
	movl	%edx, %r8d
	addl	12(%rcx), %r8d
	movl	%r8d, 4(%rcx)
	movl	%edi, %r8d
	addl	12(%rsi), %r8d
	movl	%r8d, 4(%rsi)
	subl	12(%rcx), %edx
	movl	%edx, 12(%rcx)
	subl	12(%rsi), %edi
	movl	%edi, 12(%rsi)
	movl	12(%rcx), %edx
	movl	%edi, 12(%rcx)
	movl	%eax, %edi
	subl	%edx, %edi
	movl	%edi, 12(%rsi)
	movl	(%rcx), %edx
	movl	(%rsi), %edi
	movl	%edx, %r8d
	addl	4(%rcx), %r8d
	movl	%r8d, (%rcx)
	movl	%edi, %r8d
	addl	4(%rsi), %r8d
	movl	%r8d, (%rsi)
	subl	4(%rcx), %edx
	movl	%edx, 4(%rcx)
	subl	4(%rsi), %edi
	movl	%edi, 4(%rsi)
	movl	8(%rcx), %edx
	movl	8(%rsi), %edi
	movl	%edx, %r8d
	addl	12(%rcx), %r8d
	movl	%r8d, 8(%rcx)
	movl	%edi, %r8d
	addl	12(%rsi), %r8d
	movl	%r8d, 8(%rsi)
	subl	12(%rcx), %edx
	movl	%edx, 12(%rcx)
	subl	12(%rsi), %edi
	movl	%edi, 12(%rsi)
	movl	16(%rcx), %edx
	movl	16(%rsi), %edi
	movl	%edx, %r8d
	addl	24(%rcx), %r8d
	movl	%r8d, 16(%rcx)
	movl	%edi, %r8d
	addl	24(%rsi), %r8d
	movl	%r8d, 16(%rsi)
	subl	24(%rcx), %edx
	movl	%edx, 24(%rcx)
	subl	24(%rsi), %edi
	movl	%edi, 24(%rsi)
	movl	20(%rcx), %edx
	movl	20(%rsi), %edi
	movl	%edx, %r8d
	addl	28(%rcx), %r8d
	movl	%r8d, 20(%rcx)
	movl	%edi, %r8d
	addl	28(%rsi), %r8d
	movl	%r8d, 20(%rsi)
	subl	28(%rcx), %edx
	movl	%edx, 28(%rcx)
	subl	28(%rsi), %edi
	movl	%edi, 28(%rsi)
	movl	28(%rcx), %edx
	movl	%edi, 28(%rcx)
	subl	%edx, %eax
	movl	%eax, 28(%rsi)
	movl	16(%rcx), %eax
	movl	16(%rsi), %edx
	movl	%eax, %edi
	addl	20(%rcx), %edi
	movl	%edi, 16(%rcx)
	movl	%edx, %edi
	addl	20(%rsi), %edi
	movl	%edi, 16(%rsi)
	subl	20(%rcx), %eax
	movl	%eax, 20(%rcx)
	subl	20(%rsi), %edx
	movl	%edx, 20(%rsi)
	movl	24(%rcx), %eax
	movl	24(%rsi), %edx
	movl	%eax, %edi
	addl	28(%rcx), %edi
	movl	%edi, 24(%rcx)
	movl	%edx, %edi
	addl	28(%rsi), %edi
	movl	%edi, 24(%rsi)
	subl	28(%rcx), %eax
	movl	%eax, 28(%rcx)
	subl	28(%rsi), %edx
	movl	%edx, 28(%rsi)
	movl	$1, %r9d
	movq	%r9, -728(%rbp)         # 8-byte Spill
.LBB0_110:                              # %for.body278.15
                                        #   Parent Loop BB0_1 Depth=1
                                        # =>  This Inner Loop Header: Depth=2
	movq	-728(%rbp), %rax        # 8-byte Reload
	movq	-712(%rbp), %rcx        # 8-byte Reload
	imulq	$7, %rcx, %rdx
	addq	%rax, %rdx
	movq	-88(%rbp), %rsi         # 8-byte Reload
	cvttss2si	-4(%rsi,%rdx,4), %edi
	imulq	$7, %rcx, %rdx
	addq	%rax, %rdx
	movq	-96(%rbp), %r8          # 8-byte Reload
	cvttss2si	-4(%r8,%rdx,4), %r9d
	movq	-48(%rbp), %rdx         # 8-byte Reload
	movl	(%rdx,%rax,4), %r10d
	movl	%edi, %r11d
	imull	(%rdx,%rax,4), %r11d
	movl	%r9d, %ebx
	movq	-40(%rbp), %r14         # 8-byte Reload
	imull	(%r14,%rax,4), %ebx
	subl	%ebx, %r11d
	movl	%r11d, (%rdx,%rax,4)
	imull	%r9d, %r10d
	imull	(%r14,%rax,4), %edi
	addl	%edi, %r10d
	movl	%r10d, (%r14,%rax,4)
	movq	%rax, %r15
	addq	$1, %r15
	imulq	$7, %rcx, %r12
	addq	%r15, %r12
	cvttss2si	-4(%rsi,%r12,4), %edi
	imulq	$7, %rcx, %r12
	addq	%r15, %r12
	cvttss2si	-4(%r8,%r12,4), %r9d
	movl	4(%rdx,%rax,4), %r10d
	movl	%edi, %r11d
	imull	4(%rdx,%rax,4), %r11d
	movl	%r9d, %ebx
	imull	4(%r14,%rax,4), %ebx
	subl	%ebx, %r11d
	movl	%r11d, 4(%rdx,%rax,4)
	imull	%r9d, %r10d
	imull	4(%r14,%rax,4), %edi
	addl	%edi, %r10d
	movl	%r10d, 4(%r14,%rax,4)
	addq	$1, %r15
	imulq	$7, %rcx, %r12
	addq	%r15, %r12
	cvttss2si	-4(%rsi,%r12,4), %edi
	imulq	$7, %rcx, %r12
	addq	%r15, %r12
	cvttss2si	-4(%r8,%r12,4), %r9d
	movl	8(%rdx,%rax,4), %r10d
	movl	%edi, %r11d
	imull	8(%rdx,%rax,4), %r11d
	movl	%r9d, %ebx
	imull	8(%r14,%rax,4), %ebx
	subl	%ebx, %r11d
	movl	%r11d, 8(%rdx,%rax,4)
	imull	%r9d, %r10d
	imull	8(%r14,%rax,4), %edi
	addl	%edi, %r10d
	movl	%r10d, 8(%r14,%rax,4)
	addq	$1, %r15
	cmpq	$8, %r15
	movq	%r15, -736(%rbp)        # 8-byte Spill
	jne	.LBB0_114
# %bb.111:                              # %for.body316.preheader.15
                                        #   in Loop: Header=BB0_1 Depth=1
	xorl	%eax, %eax
	movl	%eax, %ecx
	movq	%rcx, -744(%rbp)        # 8-byte Spill
	jmp	.LBB0_112
.LBB0_112:                              # %for.body316.15
                                        #   Parent Loop BB0_1 Depth=1
                                        # =>  This Inner Loop Header: Depth=2
	movq	-744(%rbp), %rax        # 8-byte Reload
	movq	-48(%rbp), %rcx         # 8-byte Reload
	movl	(%rcx,%rax,4), %edx
	movq	-712(%rbp), %rsi        # 8-byte Reload
	shlq	$3, %rsi
	addq	%rax, %rsi
	movq	-64(%rbp), %rdi         # 8-byte Reload
	movl	%edx, (%rdi,%rsi,4)
	movq	-40(%rbp), %rsi         # 8-byte Reload
	movl	(%rsi,%rax,4), %edx
	movq	-712(%rbp), %r8         # 8-byte Reload
	shlq	$3, %r8
	addq	%rax, %r8
	movq	-56(%rbp), %r9          # 8-byte Reload
	movl	%edx, (%r9,%r8,4)
	movq	%rax, %r8
	addq	$1, %r8
	movl	4(%rcx,%rax,4), %edx
	movq	-712(%rbp), %r10        # 8-byte Reload
	shlq	$3, %r10
	addq	%r8, %r10
	movl	%edx, (%rdi,%r10,4)
	movl	4(%rsi,%rax,4), %edx
	movq	-712(%rbp), %r10        # 8-byte Reload
	shlq	$3, %r10
	addq	%r8, %r10
	movl	%edx, (%r9,%r10,4)
	addq	$1, %r8
	movl	8(%rcx,%rax,4), %edx
	movq	-712(%rbp), %r10        # 8-byte Reload
	shlq	$3, %r10
	addq	%r8, %r10
	movl	%edx, (%rdi,%r10,4)
	movl	8(%rsi,%rax,4), %edx
	movq	-712(%rbp), %r10        # 8-byte Reload
	shlq	$3, %r10
	addq	%r8, %r10
	movl	%edx, (%r9,%r10,4)
	addq	$1, %r8
	movl	12(%rcx,%rax,4), %edx
	movq	-712(%rbp), %r10        # 8-byte Reload
	shlq	$3, %r10
	addq	%r8, %r10
	movl	%edx, (%rdi,%r10,4)
	movl	12(%rsi,%rax,4), %edx
	movq	-712(%rbp), %rax        # 8-byte Reload
	shlq	$3, %rax
	addq	%r8, %rax
	movl	%edx, (%r9,%rax,4)
	addq	$1, %r8
	cmpq	$8, %r8
	movq	%r8, -744(%rbp)         # 8-byte Spill
	jne	.LBB0_112
# %bb.113:                              # %for.inc332.15
                                        #   in Loop: Header=BB0_1 Depth=1
	xorl	%eax, %eax
	movl	%eax, %ecx
	movq	-712(%rbp), %rdx        # 8-byte Reload
	addq	$1, %rdx
	movq	%rdx, -752(%rbp)        # 8-byte Spill
	movq	%rcx, -760(%rbp)        # 8-byte Spill
	jmp	.LBB0_115
.LBB0_114:                              # %for.body278.3.15
                                        #   in Loop: Header=BB0_110 Depth=2
	movq	-712(%rbp), %rax        # 8-byte Reload
	imulq	$7, %rax, %rcx
	movq	-736(%rbp), %rdx        # 8-byte Reload
	addq	%rdx, %rcx
	movq	-88(%rbp), %rsi         # 8-byte Reload
	cvttss2si	-4(%rsi,%rcx,4), %edi
	imulq	$7, %rax, %rcx
	addq	%rdx, %rcx
	movq	-96(%rbp), %r8          # 8-byte Reload
	cvttss2si	-4(%r8,%rcx,4), %r9d
	movq	-48(%rbp), %rcx         # 8-byte Reload
	movl	(%rcx,%rdx,4), %r10d
	movl	%edi, %r11d
	imull	(%rcx,%rdx,4), %r11d
	movl	%r9d, %ebx
	movq	-40(%rbp), %r14         # 8-byte Reload
	imull	(%r14,%rdx,4), %ebx
	subl	%ebx, %r11d
	movl	%r11d, (%rcx,%rdx,4)
	imull	%r9d, %r10d
	imull	(%r14,%rdx,4), %edi
	addl	%edi, %r10d
	movl	%r10d, (%r14,%rdx,4)
	addq	$1, %rdx
	movq	%rdx, -728(%rbp)        # 8-byte Spill
	jmp	.LBB0_110
.LBB0_115:                              # %for.body3.16
                                        #   Parent Loop BB0_1 Depth=1
                                        # =>  This Inner Loop Header: Depth=2
	movq	-760(%rbp), %rax        # 8-byte Reload
	movq	%rax, %rcx
	shlq	$6, %rcx
	movq	-752(%rbp), %rdx        # 8-byte Reload
	addq	%rdx, %rcx
	movq	-80(%rbp), %rsi         # 8-byte Reload
	movl	(%rsi,%rcx,4), %edi
	movq	-48(%rbp), %rcx         # 8-byte Reload
	movl	%edi, (%rcx,%rax,4)
	movq	%rax, %r8
	shlq	$6, %r8
	addq	%rdx, %r8
	movq	-72(%rbp), %r9          # 8-byte Reload
	movl	(%r9,%r8,4), %edi
	movq	-40(%rbp), %r8          # 8-byte Reload
	movl	%edi, (%r8,%rax,4)
	movq	%rax, %r10
	addq	$1, %r10
	movq	%r10, %r11
	shlq	$6, %r11
	addq	%rdx, %r11
	movl	(%rsi,%r11,4), %edi
	movl	%edi, 4(%rcx,%rax,4)
	movq	%r10, %r11
	shlq	$6, %r11
	addq	%rdx, %r11
	movl	(%r9,%r11,4), %edi
	movl	%edi, 4(%r8,%rax,4)
	addq	$1, %r10
	movq	%r10, %r11
	shlq	$6, %r11
	addq	%rdx, %r11
	movl	(%rsi,%r11,4), %edi
	movl	%edi, 8(%rcx,%rax,4)
	movq	%r10, %r11
	shlq	$6, %r11
	addq	%rdx, %r11
	movl	(%r9,%r11,4), %edi
	movl	%edi, 8(%r8,%rax,4)
	addq	$1, %r10
	movq	%r10, %r11
	shlq	$6, %r11
	addq	%rdx, %r11
	movl	(%rsi,%r11,4), %edi
	movl	%edi, 12(%rcx,%rax,4)
	movq	%r10, %r11
	shlq	$6, %r11
	addq	%rdx, %r11
	movl	(%r9,%r11,4), %edi
	movl	%edi, 12(%r8,%rax,4)
	addq	$1, %r10
	cmpq	$8, %r10
	movq	%r10, -760(%rbp)        # 8-byte Spill
	jne	.LBB0_115
# %bb.116:                              # %for.end.16
                                        #   in Loop: Header=BB0_1 Depth=1
	xorl	%eax, %eax
	movss	.LCPI0_0(%rip), %xmm0   # xmm0 = mem[0],zero,zero,zero
	movq	-48(%rbp), %rcx         # 8-byte Reload
	movl	(%rcx), %edx
	movq	-40(%rbp), %rsi         # 8-byte Reload
	movl	(%rsi), %edi
	movl	%edx, %r8d
	addl	16(%rcx), %r8d
	movl	%r8d, (%rcx)
	movl	%edi, %r8d
	addl	16(%rsi), %r8d
	movl	%r8d, (%rsi)
	subl	16(%rcx), %edx
	movl	%edx, 16(%rcx)
	subl	16(%rsi), %edi
	movl	%edi, 16(%rsi)
	movl	4(%rcx), %edx
	movl	4(%rsi), %edi
	movl	%edx, %r8d
	addl	20(%rcx), %r8d
	movl	%r8d, 4(%rcx)
	movl	%edi, %r8d
	addl	20(%rsi), %r8d
	movl	%r8d, 4(%rsi)
	subl	20(%rcx), %edx
	movl	%edx, 20(%rcx)
	subl	20(%rsi), %edi
	movl	%edi, 20(%rsi)
	movl	8(%rcx), %edx
	movl	8(%rsi), %edi
	movl	%edx, %r8d
	addl	24(%rcx), %r8d
	movl	%r8d, 8(%rcx)
	movl	%edi, %r8d
	addl	24(%rsi), %r8d
	movl	%r8d, 8(%rsi)
	subl	24(%rcx), %edx
	movl	%edx, 24(%rcx)
	subl	24(%rsi), %edi
	movl	%edi, 24(%rsi)
	movl	12(%rcx), %edx
	movl	12(%rsi), %edi
	movl	%edx, %r8d
	addl	28(%rcx), %r8d
	movl	%r8d, 12(%rcx)
	movl	%edi, %r8d
	addl	28(%rsi), %r8d
	movl	%r8d, 12(%rsi)
	subl	28(%rcx), %edx
	movl	%edx, 28(%rcx)
	subl	28(%rsi), %edi
	movl	%edi, 28(%rsi)
	movl	20(%rcx), %edx
	movl	%edx, %edi
	addl	20(%rsi), %edi
	cvtsi2ss	%edi, %xmm1
	mulss	%xmm0, %xmm1
	cvttss2si	%xmm1, %edi
	movl	%edi, 20(%rcx)
	movl	20(%rsi), %edi
	subl	%edx, %edi
	cvtsi2ss	%edi, %xmm1
	mulss	%xmm0, %xmm1
	cvttss2si	%xmm1, %edx
	movl	%edx, 20(%rsi)
	movl	24(%rcx), %edx
	movl	24(%rsi), %edi
	movl	%edi, 24(%rcx)
	movl	%eax, %edi
	subl	%edx, %edi
	movl	%edi, 24(%rsi)
	movl	28(%rcx), %edx
	movl	28(%rsi), %edi
	subl	%edx, %edi
	cvtsi2ss	%edi, %xmm1
	mulss	%xmm0, %xmm1
	cvttss2si	%xmm1, %edi
	movl	%edi, 28(%rcx)
	addl	28(%rsi), %edx
	movl	%eax, %edi
	subl	%edx, %edi
	cvtsi2ss	%edi, %xmm1
	mulss	%xmm0, %xmm1
	cvttss2si	%xmm1, %edx
	movl	%edx, 28(%rsi)
	movl	(%rcx), %edx
	movl	(%rsi), %edi
	movl	%edx, %r8d
	addl	8(%rcx), %r8d
	movl	%r8d, (%rcx)
	movl	%edi, %r8d
	addl	8(%rsi), %r8d
	movl	%r8d, (%rsi)
	subl	8(%rcx), %edx
	movl	%edx, 8(%rcx)
	subl	8(%rsi), %edi
	movl	%edi, 8(%rsi)
	movl	4(%rcx), %edx
	movl	4(%rsi), %edi
	movl	%edx, %r8d
	addl	12(%rcx), %r8d
	movl	%r8d, 4(%rcx)
	movl	%edi, %r8d
	addl	12(%rsi), %r8d
	movl	%r8d, 4(%rsi)
	subl	12(%rcx), %edx
	movl	%edx, 12(%rcx)
	subl	12(%rsi), %edi
	movl	%edi, 12(%rsi)
	movl	12(%rcx), %edx
	movl	%edi, 12(%rcx)
	movl	%eax, %edi
	subl	%edx, %edi
	movl	%edi, 12(%rsi)
	movl	(%rcx), %edx
	movl	(%rsi), %edi
	movl	%edx, %r8d
	addl	4(%rcx), %r8d
	movl	%r8d, (%rcx)
	movl	%edi, %r8d
	addl	4(%rsi), %r8d
	movl	%r8d, (%rsi)
	subl	4(%rcx), %edx
	movl	%edx, 4(%rcx)
	subl	4(%rsi), %edi
	movl	%edi, 4(%rsi)
	movl	8(%rcx), %edx
	movl	8(%rsi), %edi
	movl	%edx, %r8d
	addl	12(%rcx), %r8d
	movl	%r8d, 8(%rcx)
	movl	%edi, %r8d
	addl	12(%rsi), %r8d
	movl	%r8d, 8(%rsi)
	subl	12(%rcx), %edx
	movl	%edx, 12(%rcx)
	subl	12(%rsi), %edi
	movl	%edi, 12(%rsi)
	movl	16(%rcx), %edx
	movl	16(%rsi), %edi
	movl	%edx, %r8d
	addl	24(%rcx), %r8d
	movl	%r8d, 16(%rcx)
	movl	%edi, %r8d
	addl	24(%rsi), %r8d
	movl	%r8d, 16(%rsi)
	subl	24(%rcx), %edx
	movl	%edx, 24(%rcx)
	subl	24(%rsi), %edi
	movl	%edi, 24(%rsi)
	movl	20(%rcx), %edx
	movl	20(%rsi), %edi
	movl	%edx, %r8d
	addl	28(%rcx), %r8d
	movl	%r8d, 20(%rcx)
	movl	%edi, %r8d
	addl	28(%rsi), %r8d
	movl	%r8d, 20(%rsi)
	subl	28(%rcx), %edx
	movl	%edx, 28(%rcx)
	subl	28(%rsi), %edi
	movl	%edi, 28(%rsi)
	movl	28(%rcx), %edx
	movl	%edi, 28(%rcx)
	subl	%edx, %eax
	movl	%eax, 28(%rsi)
	movl	16(%rcx), %eax
	movl	16(%rsi), %edx
	movl	%eax, %edi
	addl	20(%rcx), %edi
	movl	%edi, 16(%rcx)
	movl	%edx, %edi
	addl	20(%rsi), %edi
	movl	%edi, 16(%rsi)
	subl	20(%rcx), %eax
	movl	%eax, 20(%rcx)
	subl	20(%rsi), %edx
	movl	%edx, 20(%rsi)
	movl	24(%rcx), %eax
	movl	24(%rsi), %edx
	movl	%eax, %edi
	addl	28(%rcx), %edi
	movl	%edi, 24(%rcx)
	movl	%edx, %edi
	addl	28(%rsi), %edi
	movl	%edi, 24(%rsi)
	subl	28(%rcx), %eax
	movl	%eax, 28(%rcx)
	subl	28(%rsi), %edx
	movl	%edx, 28(%rsi)
	movl	$1, %r9d
	movq	%r9, -768(%rbp)         # 8-byte Spill
.LBB0_117:                              # %for.body278.16
                                        #   Parent Loop BB0_1 Depth=1
                                        # =>  This Inner Loop Header: Depth=2
	movq	-768(%rbp), %rax        # 8-byte Reload
	movq	-752(%rbp), %rcx        # 8-byte Reload
	imulq	$7, %rcx, %rdx
	addq	%rax, %rdx
	movq	-88(%rbp), %rsi         # 8-byte Reload
	cvttss2si	-4(%rsi,%rdx,4), %edi
	imulq	$7, %rcx, %rdx
	addq	%rax, %rdx
	movq	-96(%rbp), %r8          # 8-byte Reload
	cvttss2si	-4(%r8,%rdx,4), %r9d
	movq	-48(%rbp), %rdx         # 8-byte Reload
	movl	(%rdx,%rax,4), %r10d
	movl	%edi, %r11d
	imull	(%rdx,%rax,4), %r11d
	movl	%r9d, %ebx
	movq	-40(%rbp), %r14         # 8-byte Reload
	imull	(%r14,%rax,4), %ebx
	subl	%ebx, %r11d
	movl	%r11d, (%rdx,%rax,4)
	imull	%r9d, %r10d
	imull	(%r14,%rax,4), %edi
	addl	%edi, %r10d
	movl	%r10d, (%r14,%rax,4)
	movq	%rax, %r15
	addq	$1, %r15
	imulq	$7, %rcx, %r12
	addq	%r15, %r12
	cvttss2si	-4(%rsi,%r12,4), %edi
	imulq	$7, %rcx, %r12
	addq	%r15, %r12
	cvttss2si	-4(%r8,%r12,4), %r9d
	movl	4(%rdx,%rax,4), %r10d
	movl	%edi, %r11d
	imull	4(%rdx,%rax,4), %r11d
	movl	%r9d, %ebx
	imull	4(%r14,%rax,4), %ebx
	subl	%ebx, %r11d
	movl	%r11d, 4(%rdx,%rax,4)
	imull	%r9d, %r10d
	imull	4(%r14,%rax,4), %edi
	addl	%edi, %r10d
	movl	%r10d, 4(%r14,%rax,4)
	addq	$1, %r15
	imulq	$7, %rcx, %r12
	addq	%r15, %r12
	cvttss2si	-4(%rsi,%r12,4), %edi
	imulq	$7, %rcx, %r12
	addq	%r15, %r12
	cvttss2si	-4(%r8,%r12,4), %r9d
	movl	8(%rdx,%rax,4), %r10d
	movl	%edi, %r11d
	imull	8(%rdx,%rax,4), %r11d
	movl	%r9d, %ebx
	imull	8(%r14,%rax,4), %ebx
	subl	%ebx, %r11d
	movl	%r11d, 8(%rdx,%rax,4)
	imull	%r9d, %r10d
	imull	8(%r14,%rax,4), %edi
	addl	%edi, %r10d
	movl	%r10d, 8(%r14,%rax,4)
	addq	$1, %r15
	cmpq	$8, %r15
	movq	%r15, -776(%rbp)        # 8-byte Spill
	jne	.LBB0_121
# %bb.118:                              # %for.body316.preheader.16
                                        #   in Loop: Header=BB0_1 Depth=1
	xorl	%eax, %eax
	movl	%eax, %ecx
	movq	%rcx, -784(%rbp)        # 8-byte Spill
	jmp	.LBB0_119
.LBB0_119:                              # %for.body316.16
                                        #   Parent Loop BB0_1 Depth=1
                                        # =>  This Inner Loop Header: Depth=2
	movq	-784(%rbp), %rax        # 8-byte Reload
	movq	-48(%rbp), %rcx         # 8-byte Reload
	movl	(%rcx,%rax,4), %edx
	movq	-752(%rbp), %rsi        # 8-byte Reload
	shlq	$3, %rsi
	addq	%rax, %rsi
	movq	-64(%rbp), %rdi         # 8-byte Reload
	movl	%edx, (%rdi,%rsi,4)
	movq	-40(%rbp), %rsi         # 8-byte Reload
	movl	(%rsi,%rax,4), %edx
	movq	-752(%rbp), %r8         # 8-byte Reload
	shlq	$3, %r8
	addq	%rax, %r8
	movq	-56(%rbp), %r9          # 8-byte Reload
	movl	%edx, (%r9,%r8,4)
	movq	%rax, %r8
	addq	$1, %r8
	movl	4(%rcx,%rax,4), %edx
	movq	-752(%rbp), %r10        # 8-byte Reload
	shlq	$3, %r10
	addq	%r8, %r10
	movl	%edx, (%rdi,%r10,4)
	movl	4(%rsi,%rax,4), %edx
	movq	-752(%rbp), %r10        # 8-byte Reload
	shlq	$3, %r10
	addq	%r8, %r10
	movl	%edx, (%r9,%r10,4)
	addq	$1, %r8
	movl	8(%rcx,%rax,4), %edx
	movq	-752(%rbp), %r10        # 8-byte Reload
	shlq	$3, %r10
	addq	%r8, %r10
	movl	%edx, (%rdi,%r10,4)
	movl	8(%rsi,%rax,4), %edx
	movq	-752(%rbp), %r10        # 8-byte Reload
	shlq	$3, %r10
	addq	%r8, %r10
	movl	%edx, (%r9,%r10,4)
	addq	$1, %r8
	movl	12(%rcx,%rax,4), %edx
	movq	-752(%rbp), %r10        # 8-byte Reload
	shlq	$3, %r10
	addq	%r8, %r10
	movl	%edx, (%rdi,%r10,4)
	movl	12(%rsi,%rax,4), %edx
	movq	-752(%rbp), %rax        # 8-byte Reload
	shlq	$3, %rax
	addq	%r8, %rax
	movl	%edx, (%r9,%rax,4)
	addq	$1, %r8
	cmpq	$8, %r8
	movq	%r8, -784(%rbp)         # 8-byte Spill
	jne	.LBB0_119
# %bb.120:                              # %for.inc332.16
                                        #   in Loop: Header=BB0_1 Depth=1
	xorl	%eax, %eax
	movl	%eax, %ecx
	movq	-752(%rbp), %rdx        # 8-byte Reload
	addq	$1, %rdx
	movq	%rdx, -792(%rbp)        # 8-byte Spill
	movq	%rcx, -800(%rbp)        # 8-byte Spill
	jmp	.LBB0_122
.LBB0_121:                              # %for.body278.3.16
                                        #   in Loop: Header=BB0_117 Depth=2
	movq	-752(%rbp), %rax        # 8-byte Reload
	imulq	$7, %rax, %rcx
	movq	-776(%rbp), %rdx        # 8-byte Reload
	addq	%rdx, %rcx
	movq	-88(%rbp), %rsi         # 8-byte Reload
	cvttss2si	-4(%rsi,%rcx,4), %edi
	imulq	$7, %rax, %rcx
	addq	%rdx, %rcx
	movq	-96(%rbp), %r8          # 8-byte Reload
	cvttss2si	-4(%r8,%rcx,4), %r9d
	movq	-48(%rbp), %rcx         # 8-byte Reload
	movl	(%rcx,%rdx,4), %r10d
	movl	%edi, %r11d
	imull	(%rcx,%rdx,4), %r11d
	movl	%r9d, %ebx
	movq	-40(%rbp), %r14         # 8-byte Reload
	imull	(%r14,%rdx,4), %ebx
	subl	%ebx, %r11d
	movl	%r11d, (%rcx,%rdx,4)
	imull	%r9d, %r10d
	imull	(%r14,%rdx,4), %edi
	addl	%edi, %r10d
	movl	%r10d, (%r14,%rdx,4)
	addq	$1, %rdx
	movq	%rdx, -768(%rbp)        # 8-byte Spill
	jmp	.LBB0_117
.LBB0_122:                              # %for.body3.17
                                        #   Parent Loop BB0_1 Depth=1
                                        # =>  This Inner Loop Header: Depth=2
	movq	-800(%rbp), %rax        # 8-byte Reload
	movq	%rax, %rcx
	shlq	$6, %rcx
	movq	-792(%rbp), %rdx        # 8-byte Reload
	addq	%rdx, %rcx
	movq	-80(%rbp), %rsi         # 8-byte Reload
	movl	(%rsi,%rcx,4), %edi
	movq	-48(%rbp), %rcx         # 8-byte Reload
	movl	%edi, (%rcx,%rax,4)
	movq	%rax, %r8
	shlq	$6, %r8
	addq	%rdx, %r8
	movq	-72(%rbp), %r9          # 8-byte Reload
	movl	(%r9,%r8,4), %edi
	movq	-40(%rbp), %r8          # 8-byte Reload
	movl	%edi, (%r8,%rax,4)
	movq	%rax, %r10
	addq	$1, %r10
	movq	%r10, %r11
	shlq	$6, %r11
	addq	%rdx, %r11
	movl	(%rsi,%r11,4), %edi
	movl	%edi, 4(%rcx,%rax,4)
	movq	%r10, %r11
	shlq	$6, %r11
	addq	%rdx, %r11
	movl	(%r9,%r11,4), %edi
	movl	%edi, 4(%r8,%rax,4)
	addq	$1, %r10
	movq	%r10, %r11
	shlq	$6, %r11
	addq	%rdx, %r11
	movl	(%rsi,%r11,4), %edi
	movl	%edi, 8(%rcx,%rax,4)
	movq	%r10, %r11
	shlq	$6, %r11
	addq	%rdx, %r11
	movl	(%r9,%r11,4), %edi
	movl	%edi, 8(%r8,%rax,4)
	addq	$1, %r10
	movq	%r10, %r11
	shlq	$6, %r11
	addq	%rdx, %r11
	movl	(%rsi,%r11,4), %edi
	movl	%edi, 12(%rcx,%rax,4)
	movq	%r10, %r11
	shlq	$6, %r11
	addq	%rdx, %r11
	movl	(%r9,%r11,4), %edi
	movl	%edi, 12(%r8,%rax,4)
	addq	$1, %r10
	cmpq	$8, %r10
	movq	%r10, -800(%rbp)        # 8-byte Spill
	jne	.LBB0_122
# %bb.123:                              # %for.end.17
                                        #   in Loop: Header=BB0_1 Depth=1
	xorl	%eax, %eax
	movss	.LCPI0_0(%rip), %xmm0   # xmm0 = mem[0],zero,zero,zero
	movq	-48(%rbp), %rcx         # 8-byte Reload
	movl	(%rcx), %edx
	movq	-40(%rbp), %rsi         # 8-byte Reload
	movl	(%rsi), %edi
	movl	%edx, %r8d
	addl	16(%rcx), %r8d
	movl	%r8d, (%rcx)
	movl	%edi, %r8d
	addl	16(%rsi), %r8d
	movl	%r8d, (%rsi)
	subl	16(%rcx), %edx
	movl	%edx, 16(%rcx)
	subl	16(%rsi), %edi
	movl	%edi, 16(%rsi)
	movl	4(%rcx), %edx
	movl	4(%rsi), %edi
	movl	%edx, %r8d
	addl	20(%rcx), %r8d
	movl	%r8d, 4(%rcx)
	movl	%edi, %r8d
	addl	20(%rsi), %r8d
	movl	%r8d, 4(%rsi)
	subl	20(%rcx), %edx
	movl	%edx, 20(%rcx)
	subl	20(%rsi), %edi
	movl	%edi, 20(%rsi)
	movl	8(%rcx), %edx
	movl	8(%rsi), %edi
	movl	%edx, %r8d
	addl	24(%rcx), %r8d
	movl	%r8d, 8(%rcx)
	movl	%edi, %r8d
	addl	24(%rsi), %r8d
	movl	%r8d, 8(%rsi)
	subl	24(%rcx), %edx
	movl	%edx, 24(%rcx)
	subl	24(%rsi), %edi
	movl	%edi, 24(%rsi)
	movl	12(%rcx), %edx
	movl	12(%rsi), %edi
	movl	%edx, %r8d
	addl	28(%rcx), %r8d
	movl	%r8d, 12(%rcx)
	movl	%edi, %r8d
	addl	28(%rsi), %r8d
	movl	%r8d, 12(%rsi)
	subl	28(%rcx), %edx
	movl	%edx, 28(%rcx)
	subl	28(%rsi), %edi
	movl	%edi, 28(%rsi)
	movl	20(%rcx), %edx
	movl	%edx, %edi
	addl	20(%rsi), %edi
	cvtsi2ss	%edi, %xmm1
	mulss	%xmm0, %xmm1
	cvttss2si	%xmm1, %edi
	movl	%edi, 20(%rcx)
	movl	20(%rsi), %edi
	subl	%edx, %edi
	cvtsi2ss	%edi, %xmm1
	mulss	%xmm0, %xmm1
	cvttss2si	%xmm1, %edx
	movl	%edx, 20(%rsi)
	movl	24(%rcx), %edx
	movl	24(%rsi), %edi
	movl	%edi, 24(%rcx)
	movl	%eax, %edi
	subl	%edx, %edi
	movl	%edi, 24(%rsi)
	movl	28(%rcx), %edx
	movl	28(%rsi), %edi
	subl	%edx, %edi
	cvtsi2ss	%edi, %xmm1
	mulss	%xmm0, %xmm1
	cvttss2si	%xmm1, %edi
	movl	%edi, 28(%rcx)
	addl	28(%rsi), %edx
	movl	%eax, %edi
	subl	%edx, %edi
	cvtsi2ss	%edi, %xmm1
	mulss	%xmm0, %xmm1
	cvttss2si	%xmm1, %edx
	movl	%edx, 28(%rsi)
	movl	(%rcx), %edx
	movl	(%rsi), %edi
	movl	%edx, %r8d
	addl	8(%rcx), %r8d
	movl	%r8d, (%rcx)
	movl	%edi, %r8d
	addl	8(%rsi), %r8d
	movl	%r8d, (%rsi)
	subl	8(%rcx), %edx
	movl	%edx, 8(%rcx)
	subl	8(%rsi), %edi
	movl	%edi, 8(%rsi)
	movl	4(%rcx), %edx
	movl	4(%rsi), %edi
	movl	%edx, %r8d
	addl	12(%rcx), %r8d
	movl	%r8d, 4(%rcx)
	movl	%edi, %r8d
	addl	12(%rsi), %r8d
	movl	%r8d, 4(%rsi)
	subl	12(%rcx), %edx
	movl	%edx, 12(%rcx)
	subl	12(%rsi), %edi
	movl	%edi, 12(%rsi)
	movl	12(%rcx), %edx
	movl	%edi, 12(%rcx)
	movl	%eax, %edi
	subl	%edx, %edi
	movl	%edi, 12(%rsi)
	movl	(%rcx), %edx
	movl	(%rsi), %edi
	movl	%edx, %r8d
	addl	4(%rcx), %r8d
	movl	%r8d, (%rcx)
	movl	%edi, %r8d
	addl	4(%rsi), %r8d
	movl	%r8d, (%rsi)
	subl	4(%rcx), %edx
	movl	%edx, 4(%rcx)
	subl	4(%rsi), %edi
	movl	%edi, 4(%rsi)
	movl	8(%rcx), %edx
	movl	8(%rsi), %edi
	movl	%edx, %r8d
	addl	12(%rcx), %r8d
	movl	%r8d, 8(%rcx)
	movl	%edi, %r8d
	addl	12(%rsi), %r8d
	movl	%r8d, 8(%rsi)
	subl	12(%rcx), %edx
	movl	%edx, 12(%rcx)
	subl	12(%rsi), %edi
	movl	%edi, 12(%rsi)
	movl	16(%rcx), %edx
	movl	16(%rsi), %edi
	movl	%edx, %r8d
	addl	24(%rcx), %r8d
	movl	%r8d, 16(%rcx)
	movl	%edi, %r8d
	addl	24(%rsi), %r8d
	movl	%r8d, 16(%rsi)
	subl	24(%rcx), %edx
	movl	%edx, 24(%rcx)
	subl	24(%rsi), %edi
	movl	%edi, 24(%rsi)
	movl	20(%rcx), %edx
	movl	20(%rsi), %edi
	movl	%edx, %r8d
	addl	28(%rcx), %r8d
	movl	%r8d, 20(%rcx)
	movl	%edi, %r8d
	addl	28(%rsi), %r8d
	movl	%r8d, 20(%rsi)
	subl	28(%rcx), %edx
	movl	%edx, 28(%rcx)
	subl	28(%rsi), %edi
	movl	%edi, 28(%rsi)
	movl	28(%rcx), %edx
	movl	%edi, 28(%rcx)
	subl	%edx, %eax
	movl	%eax, 28(%rsi)
	movl	16(%rcx), %eax
	movl	16(%rsi), %edx
	movl	%eax, %edi
	addl	20(%rcx), %edi
	movl	%edi, 16(%rcx)
	movl	%edx, %edi
	addl	20(%rsi), %edi
	movl	%edi, 16(%rsi)
	subl	20(%rcx), %eax
	movl	%eax, 20(%rcx)
	subl	20(%rsi), %edx
	movl	%edx, 20(%rsi)
	movl	24(%rcx), %eax
	movl	24(%rsi), %edx
	movl	%eax, %edi
	addl	28(%rcx), %edi
	movl	%edi, 24(%rcx)
	movl	%edx, %edi
	addl	28(%rsi), %edi
	movl	%edi, 24(%rsi)
	subl	28(%rcx), %eax
	movl	%eax, 28(%rcx)
	subl	28(%rsi), %edx
	movl	%edx, 28(%rsi)
	movl	$1, %r9d
	movq	%r9, -808(%rbp)         # 8-byte Spill
.LBB0_124:                              # %for.body278.17
                                        #   Parent Loop BB0_1 Depth=1
                                        # =>  This Inner Loop Header: Depth=2
	movq	-808(%rbp), %rax        # 8-byte Reload
	movq	-792(%rbp), %rcx        # 8-byte Reload
	imulq	$7, %rcx, %rdx
	addq	%rax, %rdx
	movq	-88(%rbp), %rsi         # 8-byte Reload
	cvttss2si	-4(%rsi,%rdx,4), %edi
	imulq	$7, %rcx, %rdx
	addq	%rax, %rdx
	movq	-96(%rbp), %r8          # 8-byte Reload
	cvttss2si	-4(%r8,%rdx,4), %r9d
	movq	-48(%rbp), %rdx         # 8-byte Reload
	movl	(%rdx,%rax,4), %r10d
	movl	%edi, %r11d
	imull	(%rdx,%rax,4), %r11d
	movl	%r9d, %ebx
	movq	-40(%rbp), %r14         # 8-byte Reload
	imull	(%r14,%rax,4), %ebx
	subl	%ebx, %r11d
	movl	%r11d, (%rdx,%rax,4)
	imull	%r9d, %r10d
	imull	(%r14,%rax,4), %edi
	addl	%edi, %r10d
	movl	%r10d, (%r14,%rax,4)
	movq	%rax, %r15
	addq	$1, %r15
	imulq	$7, %rcx, %r12
	addq	%r15, %r12
	cvttss2si	-4(%rsi,%r12,4), %edi
	imulq	$7, %rcx, %r12
	addq	%r15, %r12
	cvttss2si	-4(%r8,%r12,4), %r9d
	movl	4(%rdx,%rax,4), %r10d
	movl	%edi, %r11d
	imull	4(%rdx,%rax,4), %r11d
	movl	%r9d, %ebx
	imull	4(%r14,%rax,4), %ebx
	subl	%ebx, %r11d
	movl	%r11d, 4(%rdx,%rax,4)
	imull	%r9d, %r10d
	imull	4(%r14,%rax,4), %edi
	addl	%edi, %r10d
	movl	%r10d, 4(%r14,%rax,4)
	addq	$1, %r15
	imulq	$7, %rcx, %r12
	addq	%r15, %r12
	cvttss2si	-4(%rsi,%r12,4), %edi
	imulq	$7, %rcx, %r12
	addq	%r15, %r12
	cvttss2si	-4(%r8,%r12,4), %r9d
	movl	8(%rdx,%rax,4), %r10d
	movl	%edi, %r11d
	imull	8(%rdx,%rax,4), %r11d
	movl	%r9d, %ebx
	imull	8(%r14,%rax,4), %ebx
	subl	%ebx, %r11d
	movl	%r11d, 8(%rdx,%rax,4)
	imull	%r9d, %r10d
	imull	8(%r14,%rax,4), %edi
	addl	%edi, %r10d
	movl	%r10d, 8(%r14,%rax,4)
	addq	$1, %r15
	cmpq	$8, %r15
	movq	%r15, -816(%rbp)        # 8-byte Spill
	jne	.LBB0_128
# %bb.125:                              # %for.body316.preheader.17
                                        #   in Loop: Header=BB0_1 Depth=1
	xorl	%eax, %eax
	movl	%eax, %ecx
	movq	%rcx, -824(%rbp)        # 8-byte Spill
	jmp	.LBB0_126
.LBB0_126:                              # %for.body316.17
                                        #   Parent Loop BB0_1 Depth=1
                                        # =>  This Inner Loop Header: Depth=2
	movq	-824(%rbp), %rax        # 8-byte Reload
	movq	-48(%rbp), %rcx         # 8-byte Reload
	movl	(%rcx,%rax,4), %edx
	movq	-792(%rbp), %rsi        # 8-byte Reload
	shlq	$3, %rsi
	addq	%rax, %rsi
	movq	-64(%rbp), %rdi         # 8-byte Reload
	movl	%edx, (%rdi,%rsi,4)
	movq	-40(%rbp), %rsi         # 8-byte Reload
	movl	(%rsi,%rax,4), %edx
	movq	-792(%rbp), %r8         # 8-byte Reload
	shlq	$3, %r8
	addq	%rax, %r8
	movq	-56(%rbp), %r9          # 8-byte Reload
	movl	%edx, (%r9,%r8,4)
	movq	%rax, %r8
	addq	$1, %r8
	movl	4(%rcx,%rax,4), %edx
	movq	-792(%rbp), %r10        # 8-byte Reload
	shlq	$3, %r10
	addq	%r8, %r10
	movl	%edx, (%rdi,%r10,4)
	movl	4(%rsi,%rax,4), %edx
	movq	-792(%rbp), %r10        # 8-byte Reload
	shlq	$3, %r10
	addq	%r8, %r10
	movl	%edx, (%r9,%r10,4)
	addq	$1, %r8
	movl	8(%rcx,%rax,4), %edx
	movq	-792(%rbp), %r10        # 8-byte Reload
	shlq	$3, %r10
	addq	%r8, %r10
	movl	%edx, (%rdi,%r10,4)
	movl	8(%rsi,%rax,4), %edx
	movq	-792(%rbp), %r10        # 8-byte Reload
	shlq	$3, %r10
	addq	%r8, %r10
	movl	%edx, (%r9,%r10,4)
	addq	$1, %r8
	movl	12(%rcx,%rax,4), %edx
	movq	-792(%rbp), %r10        # 8-byte Reload
	shlq	$3, %r10
	addq	%r8, %r10
	movl	%edx, (%rdi,%r10,4)
	movl	12(%rsi,%rax,4), %edx
	movq	-792(%rbp), %rax        # 8-byte Reload
	shlq	$3, %rax
	addq	%r8, %rax
	movl	%edx, (%r9,%rax,4)
	addq	$1, %r8
	cmpq	$8, %r8
	movq	%r8, -824(%rbp)         # 8-byte Spill
	jne	.LBB0_126
# %bb.127:                              # %for.inc332.17
                                        #   in Loop: Header=BB0_1 Depth=1
	xorl	%eax, %eax
	movl	%eax, %ecx
	movq	-792(%rbp), %rdx        # 8-byte Reload
	addq	$1, %rdx
	movq	%rdx, -832(%rbp)        # 8-byte Spill
	movq	%rcx, -840(%rbp)        # 8-byte Spill
	jmp	.LBB0_129
.LBB0_128:                              # %for.body278.3.17
                                        #   in Loop: Header=BB0_124 Depth=2
	movq	-792(%rbp), %rax        # 8-byte Reload
	imulq	$7, %rax, %rcx
	movq	-816(%rbp), %rdx        # 8-byte Reload
	addq	%rdx, %rcx
	movq	-88(%rbp), %rsi         # 8-byte Reload
	cvttss2si	-4(%rsi,%rcx,4), %edi
	imulq	$7, %rax, %rcx
	addq	%rdx, %rcx
	movq	-96(%rbp), %r8          # 8-byte Reload
	cvttss2si	-4(%r8,%rcx,4), %r9d
	movq	-48(%rbp), %rcx         # 8-byte Reload
	movl	(%rcx,%rdx,4), %r10d
	movl	%edi, %r11d
	imull	(%rcx,%rdx,4), %r11d
	movl	%r9d, %ebx
	movq	-40(%rbp), %r14         # 8-byte Reload
	imull	(%r14,%rdx,4), %ebx
	subl	%ebx, %r11d
	movl	%r11d, (%rcx,%rdx,4)
	imull	%r9d, %r10d
	imull	(%r14,%rdx,4), %edi
	addl	%edi, %r10d
	movl	%r10d, (%r14,%rdx,4)
	addq	$1, %rdx
	movq	%rdx, -808(%rbp)        # 8-byte Spill
	jmp	.LBB0_124
.LBB0_129:                              # %for.body3.18
                                        #   Parent Loop BB0_1 Depth=1
                                        # =>  This Inner Loop Header: Depth=2
	movq	-840(%rbp), %rax        # 8-byte Reload
	movq	%rax, %rcx
	shlq	$6, %rcx
	movq	-832(%rbp), %rdx        # 8-byte Reload
	addq	%rdx, %rcx
	movq	-80(%rbp), %rsi         # 8-byte Reload
	movl	(%rsi,%rcx,4), %edi
	movq	-48(%rbp), %rcx         # 8-byte Reload
	movl	%edi, (%rcx,%rax,4)
	movq	%rax, %r8
	shlq	$6, %r8
	addq	%rdx, %r8
	movq	-72(%rbp), %r9          # 8-byte Reload
	movl	(%r9,%r8,4), %edi
	movq	-40(%rbp), %r8          # 8-byte Reload
	movl	%edi, (%r8,%rax,4)
	movq	%rax, %r10
	addq	$1, %r10
	movq	%r10, %r11
	shlq	$6, %r11
	addq	%rdx, %r11
	movl	(%rsi,%r11,4), %edi
	movl	%edi, 4(%rcx,%rax,4)
	movq	%r10, %r11
	shlq	$6, %r11
	addq	%rdx, %r11
	movl	(%r9,%r11,4), %edi
	movl	%edi, 4(%r8,%rax,4)
	addq	$1, %r10
	movq	%r10, %r11
	shlq	$6, %r11
	addq	%rdx, %r11
	movl	(%rsi,%r11,4), %edi
	movl	%edi, 8(%rcx,%rax,4)
	movq	%r10, %r11
	shlq	$6, %r11
	addq	%rdx, %r11
	movl	(%r9,%r11,4), %edi
	movl	%edi, 8(%r8,%rax,4)
	addq	$1, %r10
	movq	%r10, %r11
	shlq	$6, %r11
	addq	%rdx, %r11
	movl	(%rsi,%r11,4), %edi
	movl	%edi, 12(%rcx,%rax,4)
	movq	%r10, %r11
	shlq	$6, %r11
	addq	%rdx, %r11
	movl	(%r9,%r11,4), %edi
	movl	%edi, 12(%r8,%rax,4)
	addq	$1, %r10
	cmpq	$8, %r10
	movq	%r10, -840(%rbp)        # 8-byte Spill
	jne	.LBB0_129
# %bb.130:                              # %for.end.18
                                        #   in Loop: Header=BB0_1 Depth=1
	xorl	%eax, %eax
	movss	.LCPI0_0(%rip), %xmm0   # xmm0 = mem[0],zero,zero,zero
	movq	-48(%rbp), %rcx         # 8-byte Reload
	movl	(%rcx), %edx
	movq	-40(%rbp), %rsi         # 8-byte Reload
	movl	(%rsi), %edi
	movl	%edx, %r8d
	addl	16(%rcx), %r8d
	movl	%r8d, (%rcx)
	movl	%edi, %r8d
	addl	16(%rsi), %r8d
	movl	%r8d, (%rsi)
	subl	16(%rcx), %edx
	movl	%edx, 16(%rcx)
	subl	16(%rsi), %edi
	movl	%edi, 16(%rsi)
	movl	4(%rcx), %edx
	movl	4(%rsi), %edi
	movl	%edx, %r8d
	addl	20(%rcx), %r8d
	movl	%r8d, 4(%rcx)
	movl	%edi, %r8d
	addl	20(%rsi), %r8d
	movl	%r8d, 4(%rsi)
	subl	20(%rcx), %edx
	movl	%edx, 20(%rcx)
	subl	20(%rsi), %edi
	movl	%edi, 20(%rsi)
	movl	8(%rcx), %edx
	movl	8(%rsi), %edi
	movl	%edx, %r8d
	addl	24(%rcx), %r8d
	movl	%r8d, 8(%rcx)
	movl	%edi, %r8d
	addl	24(%rsi), %r8d
	movl	%r8d, 8(%rsi)
	subl	24(%rcx), %edx
	movl	%edx, 24(%rcx)
	subl	24(%rsi), %edi
	movl	%edi, 24(%rsi)
	movl	12(%rcx), %edx
	movl	12(%rsi), %edi
	movl	%edx, %r8d
	addl	28(%rcx), %r8d
	movl	%r8d, 12(%rcx)
	movl	%edi, %r8d
	addl	28(%rsi), %r8d
	movl	%r8d, 12(%rsi)
	subl	28(%rcx), %edx
	movl	%edx, 28(%rcx)
	subl	28(%rsi), %edi
	movl	%edi, 28(%rsi)
	movl	20(%rcx), %edx
	movl	%edx, %edi
	addl	20(%rsi), %edi
	cvtsi2ss	%edi, %xmm1
	mulss	%xmm0, %xmm1
	cvttss2si	%xmm1, %edi
	movl	%edi, 20(%rcx)
	movl	20(%rsi), %edi
	subl	%edx, %edi
	cvtsi2ss	%edi, %xmm1
	mulss	%xmm0, %xmm1
	cvttss2si	%xmm1, %edx
	movl	%edx, 20(%rsi)
	movl	24(%rcx), %edx
	movl	24(%rsi), %edi
	movl	%edi, 24(%rcx)
	movl	%eax, %edi
	subl	%edx, %edi
	movl	%edi, 24(%rsi)
	movl	28(%rcx), %edx
	movl	28(%rsi), %edi
	subl	%edx, %edi
	cvtsi2ss	%edi, %xmm1
	mulss	%xmm0, %xmm1
	cvttss2si	%xmm1, %edi
	movl	%edi, 28(%rcx)
	addl	28(%rsi), %edx
	movl	%eax, %edi
	subl	%edx, %edi
	cvtsi2ss	%edi, %xmm1
	mulss	%xmm0, %xmm1
	cvttss2si	%xmm1, %edx
	movl	%edx, 28(%rsi)
	movl	(%rcx), %edx
	movl	(%rsi), %edi
	movl	%edx, %r8d
	addl	8(%rcx), %r8d
	movl	%r8d, (%rcx)
	movl	%edi, %r8d
	addl	8(%rsi), %r8d
	movl	%r8d, (%rsi)
	subl	8(%rcx), %edx
	movl	%edx, 8(%rcx)
	subl	8(%rsi), %edi
	movl	%edi, 8(%rsi)
	movl	4(%rcx), %edx
	movl	4(%rsi), %edi
	movl	%edx, %r8d
	addl	12(%rcx), %r8d
	movl	%r8d, 4(%rcx)
	movl	%edi, %r8d
	addl	12(%rsi), %r8d
	movl	%r8d, 4(%rsi)
	subl	12(%rcx), %edx
	movl	%edx, 12(%rcx)
	subl	12(%rsi), %edi
	movl	%edi, 12(%rsi)
	movl	12(%rcx), %edx
	movl	%edi, 12(%rcx)
	movl	%eax, %edi
	subl	%edx, %edi
	movl	%edi, 12(%rsi)
	movl	(%rcx), %edx
	movl	(%rsi), %edi
	movl	%edx, %r8d
	addl	4(%rcx), %r8d
	movl	%r8d, (%rcx)
	movl	%edi, %r8d
	addl	4(%rsi), %r8d
	movl	%r8d, (%rsi)
	subl	4(%rcx), %edx
	movl	%edx, 4(%rcx)
	subl	4(%rsi), %edi
	movl	%edi, 4(%rsi)
	movl	8(%rcx), %edx
	movl	8(%rsi), %edi
	movl	%edx, %r8d
	addl	12(%rcx), %r8d
	movl	%r8d, 8(%rcx)
	movl	%edi, %r8d
	addl	12(%rsi), %r8d
	movl	%r8d, 8(%rsi)
	subl	12(%rcx), %edx
	movl	%edx, 12(%rcx)
	subl	12(%rsi), %edi
	movl	%edi, 12(%rsi)
	movl	16(%rcx), %edx
	movl	16(%rsi), %edi
	movl	%edx, %r8d
	addl	24(%rcx), %r8d
	movl	%r8d, 16(%rcx)
	movl	%edi, %r8d
	addl	24(%rsi), %r8d
	movl	%r8d, 16(%rsi)
	subl	24(%rcx), %edx
	movl	%edx, 24(%rcx)
	subl	24(%rsi), %edi
	movl	%edi, 24(%rsi)
	movl	20(%rcx), %edx
	movl	20(%rsi), %edi
	movl	%edx, %r8d
	addl	28(%rcx), %r8d
	movl	%r8d, 20(%rcx)
	movl	%edi, %r8d
	addl	28(%rsi), %r8d
	movl	%r8d, 20(%rsi)
	subl	28(%rcx), %edx
	movl	%edx, 28(%rcx)
	subl	28(%rsi), %edi
	movl	%edi, 28(%rsi)
	movl	28(%rcx), %edx
	movl	%edi, 28(%rcx)
	subl	%edx, %eax
	movl	%eax, 28(%rsi)
	movl	16(%rcx), %eax
	movl	16(%rsi), %edx
	movl	%eax, %edi
	addl	20(%rcx), %edi
	movl	%edi, 16(%rcx)
	movl	%edx, %edi
	addl	20(%rsi), %edi
	movl	%edi, 16(%rsi)
	subl	20(%rcx), %eax
	movl	%eax, 20(%rcx)
	subl	20(%rsi), %edx
	movl	%edx, 20(%rsi)
	movl	24(%rcx), %eax
	movl	24(%rsi), %edx
	movl	%eax, %edi
	addl	28(%rcx), %edi
	movl	%edi, 24(%rcx)
	movl	%edx, %edi
	addl	28(%rsi), %edi
	movl	%edi, 24(%rsi)
	subl	28(%rcx), %eax
	movl	%eax, 28(%rcx)
	subl	28(%rsi), %edx
	movl	%edx, 28(%rsi)
	movl	$1, %r9d
	movq	%r9, -848(%rbp)         # 8-byte Spill
.LBB0_131:                              # %for.body278.18
                                        #   Parent Loop BB0_1 Depth=1
                                        # =>  This Inner Loop Header: Depth=2
	movq	-848(%rbp), %rax        # 8-byte Reload
	movq	-832(%rbp), %rcx        # 8-byte Reload
	imulq	$7, %rcx, %rdx
	addq	%rax, %rdx
	movq	-88(%rbp), %rsi         # 8-byte Reload
	cvttss2si	-4(%rsi,%rdx,4), %edi
	imulq	$7, %rcx, %rdx
	addq	%rax, %rdx
	movq	-96(%rbp), %r8          # 8-byte Reload
	cvttss2si	-4(%r8,%rdx,4), %r9d
	movq	-48(%rbp), %rdx         # 8-byte Reload
	movl	(%rdx,%rax,4), %r10d
	movl	%edi, %r11d
	imull	(%rdx,%rax,4), %r11d
	movl	%r9d, %ebx
	movq	-40(%rbp), %r14         # 8-byte Reload
	imull	(%r14,%rax,4), %ebx
	subl	%ebx, %r11d
	movl	%r11d, (%rdx,%rax,4)
	imull	%r9d, %r10d
	imull	(%r14,%rax,4), %edi
	addl	%edi, %r10d
	movl	%r10d, (%r14,%rax,4)
	movq	%rax, %r15
	addq	$1, %r15
	imulq	$7, %rcx, %r12
	addq	%r15, %r12
	cvttss2si	-4(%rsi,%r12,4), %edi
	imulq	$7, %rcx, %r12
	addq	%r15, %r12
	cvttss2si	-4(%r8,%r12,4), %r9d
	movl	4(%rdx,%rax,4), %r10d
	movl	%edi, %r11d
	imull	4(%rdx,%rax,4), %r11d
	movl	%r9d, %ebx
	imull	4(%r14,%rax,4), %ebx
	subl	%ebx, %r11d
	movl	%r11d, 4(%rdx,%rax,4)
	imull	%r9d, %r10d
	imull	4(%r14,%rax,4), %edi
	addl	%edi, %r10d
	movl	%r10d, 4(%r14,%rax,4)
	addq	$1, %r15
	imulq	$7, %rcx, %r12
	addq	%r15, %r12
	cvttss2si	-4(%rsi,%r12,4), %edi
	imulq	$7, %rcx, %r12
	addq	%r15, %r12
	cvttss2si	-4(%r8,%r12,4), %r9d
	movl	8(%rdx,%rax,4), %r10d
	movl	%edi, %r11d
	imull	8(%rdx,%rax,4), %r11d
	movl	%r9d, %ebx
	imull	8(%r14,%rax,4), %ebx
	subl	%ebx, %r11d
	movl	%r11d, 8(%rdx,%rax,4)
	imull	%r9d, %r10d
	imull	8(%r14,%rax,4), %edi
	addl	%edi, %r10d
	movl	%r10d, 8(%r14,%rax,4)
	addq	$1, %r15
	cmpq	$8, %r15
	movq	%r15, -856(%rbp)        # 8-byte Spill
	jne	.LBB0_135
# %bb.132:                              # %for.body316.preheader.18
                                        #   in Loop: Header=BB0_1 Depth=1
	xorl	%eax, %eax
	movl	%eax, %ecx
	movq	%rcx, -864(%rbp)        # 8-byte Spill
	jmp	.LBB0_133
.LBB0_133:                              # %for.body316.18
                                        #   Parent Loop BB0_1 Depth=1
                                        # =>  This Inner Loop Header: Depth=2
	movq	-864(%rbp), %rax        # 8-byte Reload
	movq	-48(%rbp), %rcx         # 8-byte Reload
	movl	(%rcx,%rax,4), %edx
	movq	-832(%rbp), %rsi        # 8-byte Reload
	shlq	$3, %rsi
	addq	%rax, %rsi
	movq	-64(%rbp), %rdi         # 8-byte Reload
	movl	%edx, (%rdi,%rsi,4)
	movq	-40(%rbp), %rsi         # 8-byte Reload
	movl	(%rsi,%rax,4), %edx
	movq	-832(%rbp), %r8         # 8-byte Reload
	shlq	$3, %r8
	addq	%rax, %r8
	movq	-56(%rbp), %r9          # 8-byte Reload
	movl	%edx, (%r9,%r8,4)
	movq	%rax, %r8
	addq	$1, %r8
	movl	4(%rcx,%rax,4), %edx
	movq	-832(%rbp), %r10        # 8-byte Reload
	shlq	$3, %r10
	addq	%r8, %r10
	movl	%edx, (%rdi,%r10,4)
	movl	4(%rsi,%rax,4), %edx
	movq	-832(%rbp), %r10        # 8-byte Reload
	shlq	$3, %r10
	addq	%r8, %r10
	movl	%edx, (%r9,%r10,4)
	addq	$1, %r8
	movl	8(%rcx,%rax,4), %edx
	movq	-832(%rbp), %r10        # 8-byte Reload
	shlq	$3, %r10
	addq	%r8, %r10
	movl	%edx, (%rdi,%r10,4)
	movl	8(%rsi,%rax,4), %edx
	movq	-832(%rbp), %r10        # 8-byte Reload
	shlq	$3, %r10
	addq	%r8, %r10
	movl	%edx, (%r9,%r10,4)
	addq	$1, %r8
	movl	12(%rcx,%rax,4), %edx
	movq	-832(%rbp), %r10        # 8-byte Reload
	shlq	$3, %r10
	addq	%r8, %r10
	movl	%edx, (%rdi,%r10,4)
	movl	12(%rsi,%rax,4), %edx
	movq	-832(%rbp), %rax        # 8-byte Reload
	shlq	$3, %rax
	addq	%r8, %rax
	movl	%edx, (%r9,%rax,4)
	addq	$1, %r8
	cmpq	$8, %r8
	movq	%r8, -864(%rbp)         # 8-byte Spill
	jne	.LBB0_133
# %bb.134:                              # %for.inc332.18
                                        #   in Loop: Header=BB0_1 Depth=1
	xorl	%eax, %eax
	movl	%eax, %ecx
	movq	-832(%rbp), %rdx        # 8-byte Reload
	addq	$1, %rdx
	movq	%rdx, -872(%rbp)        # 8-byte Spill
	movq	%rcx, -880(%rbp)        # 8-byte Spill
	jmp	.LBB0_136
.LBB0_135:                              # %for.body278.3.18
                                        #   in Loop: Header=BB0_131 Depth=2
	movq	-832(%rbp), %rax        # 8-byte Reload
	imulq	$7, %rax, %rcx
	movq	-856(%rbp), %rdx        # 8-byte Reload
	addq	%rdx, %rcx
	movq	-88(%rbp), %rsi         # 8-byte Reload
	cvttss2si	-4(%rsi,%rcx,4), %edi
	imulq	$7, %rax, %rcx
	addq	%rdx, %rcx
	movq	-96(%rbp), %r8          # 8-byte Reload
	cvttss2si	-4(%r8,%rcx,4), %r9d
	movq	-48(%rbp), %rcx         # 8-byte Reload
	movl	(%rcx,%rdx,4), %r10d
	movl	%edi, %r11d
	imull	(%rcx,%rdx,4), %r11d
	movl	%r9d, %ebx
	movq	-40(%rbp), %r14         # 8-byte Reload
	imull	(%r14,%rdx,4), %ebx
	subl	%ebx, %r11d
	movl	%r11d, (%rcx,%rdx,4)
	imull	%r9d, %r10d
	imull	(%r14,%rdx,4), %edi
	addl	%edi, %r10d
	movl	%r10d, (%r14,%rdx,4)
	addq	$1, %rdx
	movq	%rdx, -848(%rbp)        # 8-byte Spill
	jmp	.LBB0_131
.LBB0_136:                              # %for.body3.19
                                        #   Parent Loop BB0_1 Depth=1
                                        # =>  This Inner Loop Header: Depth=2
	movq	-880(%rbp), %rax        # 8-byte Reload
	movq	%rax, %rcx
	shlq	$6, %rcx
	movq	-872(%rbp), %rdx        # 8-byte Reload
	addq	%rdx, %rcx
	movq	-80(%rbp), %rsi         # 8-byte Reload
	movl	(%rsi,%rcx,4), %edi
	movq	-48(%rbp), %rcx         # 8-byte Reload
	movl	%edi, (%rcx,%rax,4)
	movq	%rax, %r8
	shlq	$6, %r8
	addq	%rdx, %r8
	movq	-72(%rbp), %r9          # 8-byte Reload
	movl	(%r9,%r8,4), %edi
	movq	-40(%rbp), %r8          # 8-byte Reload
	movl	%edi, (%r8,%rax,4)
	movq	%rax, %r10
	addq	$1, %r10
	movq	%r10, %r11
	shlq	$6, %r11
	addq	%rdx, %r11
	movl	(%rsi,%r11,4), %edi
	movl	%edi, 4(%rcx,%rax,4)
	movq	%r10, %r11
	shlq	$6, %r11
	addq	%rdx, %r11
	movl	(%r9,%r11,4), %edi
	movl	%edi, 4(%r8,%rax,4)
	addq	$1, %r10
	movq	%r10, %r11
	shlq	$6, %r11
	addq	%rdx, %r11
	movl	(%rsi,%r11,4), %edi
	movl	%edi, 8(%rcx,%rax,4)
	movq	%r10, %r11
	shlq	$6, %r11
	addq	%rdx, %r11
	movl	(%r9,%r11,4), %edi
	movl	%edi, 8(%r8,%rax,4)
	addq	$1, %r10
	movq	%r10, %r11
	shlq	$6, %r11
	addq	%rdx, %r11
	movl	(%rsi,%r11,4), %edi
	movl	%edi, 12(%rcx,%rax,4)
	movq	%r10, %r11
	shlq	$6, %r11
	addq	%rdx, %r11
	movl	(%r9,%r11,4), %edi
	movl	%edi, 12(%r8,%rax,4)
	addq	$1, %r10
	cmpq	$8, %r10
	movq	%r10, -880(%rbp)        # 8-byte Spill
	jne	.LBB0_136
# %bb.137:                              # %for.end.19
                                        #   in Loop: Header=BB0_1 Depth=1
	xorl	%eax, %eax
	movss	.LCPI0_0(%rip), %xmm0   # xmm0 = mem[0],zero,zero,zero
	movq	-48(%rbp), %rcx         # 8-byte Reload
	movl	(%rcx), %edx
	movq	-40(%rbp), %rsi         # 8-byte Reload
	movl	(%rsi), %edi
	movl	%edx, %r8d
	addl	16(%rcx), %r8d
	movl	%r8d, (%rcx)
	movl	%edi, %r8d
	addl	16(%rsi), %r8d
	movl	%r8d, (%rsi)
	subl	16(%rcx), %edx
	movl	%edx, 16(%rcx)
	subl	16(%rsi), %edi
	movl	%edi, 16(%rsi)
	movl	4(%rcx), %edx
	movl	4(%rsi), %edi
	movl	%edx, %r8d
	addl	20(%rcx), %r8d
	movl	%r8d, 4(%rcx)
	movl	%edi, %r8d
	addl	20(%rsi), %r8d
	movl	%r8d, 4(%rsi)
	subl	20(%rcx), %edx
	movl	%edx, 20(%rcx)
	subl	20(%rsi), %edi
	movl	%edi, 20(%rsi)
	movl	8(%rcx), %edx
	movl	8(%rsi), %edi
	movl	%edx, %r8d
	addl	24(%rcx), %r8d
	movl	%r8d, 8(%rcx)
	movl	%edi, %r8d
	addl	24(%rsi), %r8d
	movl	%r8d, 8(%rsi)
	subl	24(%rcx), %edx
	movl	%edx, 24(%rcx)
	subl	24(%rsi), %edi
	movl	%edi, 24(%rsi)
	movl	12(%rcx), %edx
	movl	12(%rsi), %edi
	movl	%edx, %r8d
	addl	28(%rcx), %r8d
	movl	%r8d, 12(%rcx)
	movl	%edi, %r8d
	addl	28(%rsi), %r8d
	movl	%r8d, 12(%rsi)
	subl	28(%rcx), %edx
	movl	%edx, 28(%rcx)
	subl	28(%rsi), %edi
	movl	%edi, 28(%rsi)
	movl	20(%rcx), %edx
	movl	%edx, %edi
	addl	20(%rsi), %edi
	cvtsi2ss	%edi, %xmm1
	mulss	%xmm0, %xmm1
	cvttss2si	%xmm1, %edi
	movl	%edi, 20(%rcx)
	movl	20(%rsi), %edi
	subl	%edx, %edi
	cvtsi2ss	%edi, %xmm1
	mulss	%xmm0, %xmm1
	cvttss2si	%xmm1, %edx
	movl	%edx, 20(%rsi)
	movl	24(%rcx), %edx
	movl	24(%rsi), %edi
	movl	%edi, 24(%rcx)
	movl	%eax, %edi
	subl	%edx, %edi
	movl	%edi, 24(%rsi)
	movl	28(%rcx), %edx
	movl	28(%rsi), %edi
	subl	%edx, %edi
	cvtsi2ss	%edi, %xmm1
	mulss	%xmm0, %xmm1
	cvttss2si	%xmm1, %edi
	movl	%edi, 28(%rcx)
	addl	28(%rsi), %edx
	movl	%eax, %edi
	subl	%edx, %edi
	cvtsi2ss	%edi, %xmm1
	mulss	%xmm0, %xmm1
	cvttss2si	%xmm1, %edx
	movl	%edx, 28(%rsi)
	movl	(%rcx), %edx
	movl	(%rsi), %edi
	movl	%edx, %r8d
	addl	8(%rcx), %r8d
	movl	%r8d, (%rcx)
	movl	%edi, %r8d
	addl	8(%rsi), %r8d
	movl	%r8d, (%rsi)
	subl	8(%rcx), %edx
	movl	%edx, 8(%rcx)
	subl	8(%rsi), %edi
	movl	%edi, 8(%rsi)
	movl	4(%rcx), %edx
	movl	4(%rsi), %edi
	movl	%edx, %r8d
	addl	12(%rcx), %r8d
	movl	%r8d, 4(%rcx)
	movl	%edi, %r8d
	addl	12(%rsi), %r8d
	movl	%r8d, 4(%rsi)
	subl	12(%rcx), %edx
	movl	%edx, 12(%rcx)
	subl	12(%rsi), %edi
	movl	%edi, 12(%rsi)
	movl	12(%rcx), %edx
	movl	%edi, 12(%rcx)
	movl	%eax, %edi
	subl	%edx, %edi
	movl	%edi, 12(%rsi)
	movl	(%rcx), %edx
	movl	(%rsi), %edi
	movl	%edx, %r8d
	addl	4(%rcx), %r8d
	movl	%r8d, (%rcx)
	movl	%edi, %r8d
	addl	4(%rsi), %r8d
	movl	%r8d, (%rsi)
	subl	4(%rcx), %edx
	movl	%edx, 4(%rcx)
	subl	4(%rsi), %edi
	movl	%edi, 4(%rsi)
	movl	8(%rcx), %edx
	movl	8(%rsi), %edi
	movl	%edx, %r8d
	addl	12(%rcx), %r8d
	movl	%r8d, 8(%rcx)
	movl	%edi, %r8d
	addl	12(%rsi), %r8d
	movl	%r8d, 8(%rsi)
	subl	12(%rcx), %edx
	movl	%edx, 12(%rcx)
	subl	12(%rsi), %edi
	movl	%edi, 12(%rsi)
	movl	16(%rcx), %edx
	movl	16(%rsi), %edi
	movl	%edx, %r8d
	addl	24(%rcx), %r8d
	movl	%r8d, 16(%rcx)
	movl	%edi, %r8d
	addl	24(%rsi), %r8d
	movl	%r8d, 16(%rsi)
	subl	24(%rcx), %edx
	movl	%edx, 24(%rcx)
	subl	24(%rsi), %edi
	movl	%edi, 24(%rsi)
	movl	20(%rcx), %edx
	movl	20(%rsi), %edi
	movl	%edx, %r8d
	addl	28(%rcx), %r8d
	movl	%r8d, 20(%rcx)
	movl	%edi, %r8d
	addl	28(%rsi), %r8d
	movl	%r8d, 20(%rsi)
	subl	28(%rcx), %edx
	movl	%edx, 28(%rcx)
	subl	28(%rsi), %edi
	movl	%edi, 28(%rsi)
	movl	28(%rcx), %edx
	movl	%edi, 28(%rcx)
	subl	%edx, %eax
	movl	%eax, 28(%rsi)
	movl	16(%rcx), %eax
	movl	16(%rsi), %edx
	movl	%eax, %edi
	addl	20(%rcx), %edi
	movl	%edi, 16(%rcx)
	movl	%edx, %edi
	addl	20(%rsi), %edi
	movl	%edi, 16(%rsi)
	subl	20(%rcx), %eax
	movl	%eax, 20(%rcx)
	subl	20(%rsi), %edx
	movl	%edx, 20(%rsi)
	movl	24(%rcx), %eax
	movl	24(%rsi), %edx
	movl	%eax, %edi
	addl	28(%rcx), %edi
	movl	%edi, 24(%rcx)
	movl	%edx, %edi
	addl	28(%rsi), %edi
	movl	%edi, 24(%rsi)
	subl	28(%rcx), %eax
	movl	%eax, 28(%rcx)
	subl	28(%rsi), %edx
	movl	%edx, 28(%rsi)
	movl	$1, %r9d
	movq	%r9, -888(%rbp)         # 8-byte Spill
.LBB0_138:                              # %for.body278.19
                                        #   Parent Loop BB0_1 Depth=1
                                        # =>  This Inner Loop Header: Depth=2
	movq	-888(%rbp), %rax        # 8-byte Reload
	movq	-872(%rbp), %rcx        # 8-byte Reload
	imulq	$7, %rcx, %rdx
	addq	%rax, %rdx
	movq	-88(%rbp), %rsi         # 8-byte Reload
	cvttss2si	-4(%rsi,%rdx,4), %edi
	imulq	$7, %rcx, %rdx
	addq	%rax, %rdx
	movq	-96(%rbp), %r8          # 8-byte Reload
	cvttss2si	-4(%r8,%rdx,4), %r9d
	movq	-48(%rbp), %rdx         # 8-byte Reload
	movl	(%rdx,%rax,4), %r10d
	movl	%edi, %r11d
	imull	(%rdx,%rax,4), %r11d
	movl	%r9d, %ebx
	movq	-40(%rbp), %r14         # 8-byte Reload
	imull	(%r14,%rax,4), %ebx
	subl	%ebx, %r11d
	movl	%r11d, (%rdx,%rax,4)
	imull	%r9d, %r10d
	imull	(%r14,%rax,4), %edi
	addl	%edi, %r10d
	movl	%r10d, (%r14,%rax,4)
	movq	%rax, %r15
	addq	$1, %r15
	imulq	$7, %rcx, %r12
	addq	%r15, %r12
	cvttss2si	-4(%rsi,%r12,4), %edi
	imulq	$7, %rcx, %r12
	addq	%r15, %r12
	cvttss2si	-4(%r8,%r12,4), %r9d
	movl	4(%rdx,%rax,4), %r10d
	movl	%edi, %r11d
	imull	4(%rdx,%rax,4), %r11d
	movl	%r9d, %ebx
	imull	4(%r14,%rax,4), %ebx
	subl	%ebx, %r11d
	movl	%r11d, 4(%rdx,%rax,4)
	imull	%r9d, %r10d
	imull	4(%r14,%rax,4), %edi
	addl	%edi, %r10d
	movl	%r10d, 4(%r14,%rax,4)
	addq	$1, %r15
	imulq	$7, %rcx, %r12
	addq	%r15, %r12
	cvttss2si	-4(%rsi,%r12,4), %edi
	imulq	$7, %rcx, %r12
	addq	%r15, %r12
	cvttss2si	-4(%r8,%r12,4), %r9d
	movl	8(%rdx,%rax,4), %r10d
	movl	%edi, %r11d
	imull	8(%rdx,%rax,4), %r11d
	movl	%r9d, %ebx
	imull	8(%r14,%rax,4), %ebx
	subl	%ebx, %r11d
	movl	%r11d, 8(%rdx,%rax,4)
	imull	%r9d, %r10d
	imull	8(%r14,%rax,4), %edi
	addl	%edi, %r10d
	movl	%r10d, 8(%r14,%rax,4)
	addq	$1, %r15
	cmpq	$8, %r15
	movq	%r15, -896(%rbp)        # 8-byte Spill
	jne	.LBB0_142
# %bb.139:                              # %for.body316.preheader.19
                                        #   in Loop: Header=BB0_1 Depth=1
	xorl	%eax, %eax
	movl	%eax, %ecx
	movq	%rcx, -904(%rbp)        # 8-byte Spill
	jmp	.LBB0_140
.LBB0_140:                              # %for.body316.19
                                        #   Parent Loop BB0_1 Depth=1
                                        # =>  This Inner Loop Header: Depth=2
	movq	-904(%rbp), %rax        # 8-byte Reload
	movq	-48(%rbp), %rcx         # 8-byte Reload
	movl	(%rcx,%rax,4), %edx
	movq	-872(%rbp), %rsi        # 8-byte Reload
	shlq	$3, %rsi
	addq	%rax, %rsi
	movq	-64(%rbp), %rdi         # 8-byte Reload
	movl	%edx, (%rdi,%rsi,4)
	movq	-40(%rbp), %rsi         # 8-byte Reload
	movl	(%rsi,%rax,4), %edx
	movq	-872(%rbp), %r8         # 8-byte Reload
	shlq	$3, %r8
	addq	%rax, %r8
	movq	-56(%rbp), %r9          # 8-byte Reload
	movl	%edx, (%r9,%r8,4)
	movq	%rax, %r8
	addq	$1, %r8
	movl	4(%rcx,%rax,4), %edx
	movq	-872(%rbp), %r10        # 8-byte Reload
	shlq	$3, %r10
	addq	%r8, %r10
	movl	%edx, (%rdi,%r10,4)
	movl	4(%rsi,%rax,4), %edx
	movq	-872(%rbp), %r10        # 8-byte Reload
	shlq	$3, %r10
	addq	%r8, %r10
	movl	%edx, (%r9,%r10,4)
	addq	$1, %r8
	movl	8(%rcx,%rax,4), %edx
	movq	-872(%rbp), %r10        # 8-byte Reload
	shlq	$3, %r10
	addq	%r8, %r10
	movl	%edx, (%rdi,%r10,4)
	movl	8(%rsi,%rax,4), %edx
	movq	-872(%rbp), %r10        # 8-byte Reload
	shlq	$3, %r10
	addq	%r8, %r10
	movl	%edx, (%r9,%r10,4)
	addq	$1, %r8
	movl	12(%rcx,%rax,4), %edx
	movq	-872(%rbp), %r10        # 8-byte Reload
	shlq	$3, %r10
	addq	%r8, %r10
	movl	%edx, (%rdi,%r10,4)
	movl	12(%rsi,%rax,4), %edx
	movq	-872(%rbp), %rax        # 8-byte Reload
	shlq	$3, %rax
	addq	%r8, %rax
	movl	%edx, (%r9,%rax,4)
	addq	$1, %r8
	cmpq	$8, %r8
	movq	%r8, -904(%rbp)         # 8-byte Spill
	jne	.LBB0_140
# %bb.141:                              # %for.inc332.19
                                        #   in Loop: Header=BB0_1 Depth=1
	xorl	%eax, %eax
	movl	%eax, %ecx
	movq	-872(%rbp), %rdx        # 8-byte Reload
	addq	$1, %rdx
	movq	%rdx, -912(%rbp)        # 8-byte Spill
	movq	%rcx, -920(%rbp)        # 8-byte Spill
	jmp	.LBB0_143
.LBB0_142:                              # %for.body278.3.19
                                        #   in Loop: Header=BB0_138 Depth=2
	movq	-872(%rbp), %rax        # 8-byte Reload
	imulq	$7, %rax, %rcx
	movq	-896(%rbp), %rdx        # 8-byte Reload
	addq	%rdx, %rcx
	movq	-88(%rbp), %rsi         # 8-byte Reload
	cvttss2si	-4(%rsi,%rcx,4), %edi
	imulq	$7, %rax, %rcx
	addq	%rdx, %rcx
	movq	-96(%rbp), %r8          # 8-byte Reload
	cvttss2si	-4(%r8,%rcx,4), %r9d
	movq	-48(%rbp), %rcx         # 8-byte Reload
	movl	(%rcx,%rdx,4), %r10d
	movl	%edi, %r11d
	imull	(%rcx,%rdx,4), %r11d
	movl	%r9d, %ebx
	movq	-40(%rbp), %r14         # 8-byte Reload
	imull	(%r14,%rdx,4), %ebx
	subl	%ebx, %r11d
	movl	%r11d, (%rcx,%rdx,4)
	imull	%r9d, %r10d
	imull	(%r14,%rdx,4), %edi
	addl	%edi, %r10d
	movl	%r10d, (%r14,%rdx,4)
	addq	$1, %rdx
	movq	%rdx, -888(%rbp)        # 8-byte Spill
	jmp	.LBB0_138
.LBB0_143:                              # %for.body3.20
                                        #   Parent Loop BB0_1 Depth=1
                                        # =>  This Inner Loop Header: Depth=2
	movq	-920(%rbp), %rax        # 8-byte Reload
	movq	%rax, %rcx
	shlq	$6, %rcx
	movq	-912(%rbp), %rdx        # 8-byte Reload
	addq	%rdx, %rcx
	movq	-80(%rbp), %rsi         # 8-byte Reload
	movl	(%rsi,%rcx,4), %edi
	movq	-48(%rbp), %rcx         # 8-byte Reload
	movl	%edi, (%rcx,%rax,4)
	movq	%rax, %r8
	shlq	$6, %r8
	addq	%rdx, %r8
	movq	-72(%rbp), %r9          # 8-byte Reload
	movl	(%r9,%r8,4), %edi
	movq	-40(%rbp), %r8          # 8-byte Reload
	movl	%edi, (%r8,%rax,4)
	movq	%rax, %r10
	addq	$1, %r10
	movq	%r10, %r11
	shlq	$6, %r11
	addq	%rdx, %r11
	movl	(%rsi,%r11,4), %edi
	movl	%edi, 4(%rcx,%rax,4)
	movq	%r10, %r11
	shlq	$6, %r11
	addq	%rdx, %r11
	movl	(%r9,%r11,4), %edi
	movl	%edi, 4(%r8,%rax,4)
	addq	$1, %r10
	movq	%r10, %r11
	shlq	$6, %r11
	addq	%rdx, %r11
	movl	(%rsi,%r11,4), %edi
	movl	%edi, 8(%rcx,%rax,4)
	movq	%r10, %r11
	shlq	$6, %r11
	addq	%rdx, %r11
	movl	(%r9,%r11,4), %edi
	movl	%edi, 8(%r8,%rax,4)
	addq	$1, %r10
	movq	%r10, %r11
	shlq	$6, %r11
	addq	%rdx, %r11
	movl	(%rsi,%r11,4), %edi
	movl	%edi, 12(%rcx,%rax,4)
	movq	%r10, %r11
	shlq	$6, %r11
	addq	%rdx, %r11
	movl	(%r9,%r11,4), %edi
	movl	%edi, 12(%r8,%rax,4)
	addq	$1, %r10
	cmpq	$8, %r10
	movq	%r10, -920(%rbp)        # 8-byte Spill
	jne	.LBB0_143
# %bb.144:                              # %for.end.20
                                        #   in Loop: Header=BB0_1 Depth=1
	xorl	%eax, %eax
	movss	.LCPI0_0(%rip), %xmm0   # xmm0 = mem[0],zero,zero,zero
	movq	-48(%rbp), %rcx         # 8-byte Reload
	movl	(%rcx), %edx
	movq	-40(%rbp), %rsi         # 8-byte Reload
	movl	(%rsi), %edi
	movl	%edx, %r8d
	addl	16(%rcx), %r8d
	movl	%r8d, (%rcx)
	movl	%edi, %r8d
	addl	16(%rsi), %r8d
	movl	%r8d, (%rsi)
	subl	16(%rcx), %edx
	movl	%edx, 16(%rcx)
	subl	16(%rsi), %edi
	movl	%edi, 16(%rsi)
	movl	4(%rcx), %edx
	movl	4(%rsi), %edi
	movl	%edx, %r8d
	addl	20(%rcx), %r8d
	movl	%r8d, 4(%rcx)
	movl	%edi, %r8d
	addl	20(%rsi), %r8d
	movl	%r8d, 4(%rsi)
	subl	20(%rcx), %edx
	movl	%edx, 20(%rcx)
	subl	20(%rsi), %edi
	movl	%edi, 20(%rsi)
	movl	8(%rcx), %edx
	movl	8(%rsi), %edi
	movl	%edx, %r8d
	addl	24(%rcx), %r8d
	movl	%r8d, 8(%rcx)
	movl	%edi, %r8d
	addl	24(%rsi), %r8d
	movl	%r8d, 8(%rsi)
	subl	24(%rcx), %edx
	movl	%edx, 24(%rcx)
	subl	24(%rsi), %edi
	movl	%edi, 24(%rsi)
	movl	12(%rcx), %edx
	movl	12(%rsi), %edi
	movl	%edx, %r8d
	addl	28(%rcx), %r8d
	movl	%r8d, 12(%rcx)
	movl	%edi, %r8d
	addl	28(%rsi), %r8d
	movl	%r8d, 12(%rsi)
	subl	28(%rcx), %edx
	movl	%edx, 28(%rcx)
	subl	28(%rsi), %edi
	movl	%edi, 28(%rsi)
	movl	20(%rcx), %edx
	movl	%edx, %edi
	addl	20(%rsi), %edi
	cvtsi2ss	%edi, %xmm1
	mulss	%xmm0, %xmm1
	cvttss2si	%xmm1, %edi
	movl	%edi, 20(%rcx)
	movl	20(%rsi), %edi
	subl	%edx, %edi
	cvtsi2ss	%edi, %xmm1
	mulss	%xmm0, %xmm1
	cvttss2si	%xmm1, %edx
	movl	%edx, 20(%rsi)
	movl	24(%rcx), %edx
	movl	24(%rsi), %edi
	movl	%edi, 24(%rcx)
	movl	%eax, %edi
	subl	%edx, %edi
	movl	%edi, 24(%rsi)
	movl	28(%rcx), %edx
	movl	28(%rsi), %edi
	subl	%edx, %edi
	cvtsi2ss	%edi, %xmm1
	mulss	%xmm0, %xmm1
	cvttss2si	%xmm1, %edi
	movl	%edi, 28(%rcx)
	addl	28(%rsi), %edx
	movl	%eax, %edi
	subl	%edx, %edi
	cvtsi2ss	%edi, %xmm1
	mulss	%xmm0, %xmm1
	cvttss2si	%xmm1, %edx
	movl	%edx, 28(%rsi)
	movl	(%rcx), %edx
	movl	(%rsi), %edi
	movl	%edx, %r8d
	addl	8(%rcx), %r8d
	movl	%r8d, (%rcx)
	movl	%edi, %r8d
	addl	8(%rsi), %r8d
	movl	%r8d, (%rsi)
	subl	8(%rcx), %edx
	movl	%edx, 8(%rcx)
	subl	8(%rsi), %edi
	movl	%edi, 8(%rsi)
	movl	4(%rcx), %edx
	movl	4(%rsi), %edi
	movl	%edx, %r8d
	addl	12(%rcx), %r8d
	movl	%r8d, 4(%rcx)
	movl	%edi, %r8d
	addl	12(%rsi), %r8d
	movl	%r8d, 4(%rsi)
	subl	12(%rcx), %edx
	movl	%edx, 12(%rcx)
	subl	12(%rsi), %edi
	movl	%edi, 12(%rsi)
	movl	12(%rcx), %edx
	movl	%edi, 12(%rcx)
	movl	%eax, %edi
	subl	%edx, %edi
	movl	%edi, 12(%rsi)
	movl	(%rcx), %edx
	movl	(%rsi), %edi
	movl	%edx, %r8d
	addl	4(%rcx), %r8d
	movl	%r8d, (%rcx)
	movl	%edi, %r8d
	addl	4(%rsi), %r8d
	movl	%r8d, (%rsi)
	subl	4(%rcx), %edx
	movl	%edx, 4(%rcx)
	subl	4(%rsi), %edi
	movl	%edi, 4(%rsi)
	movl	8(%rcx), %edx
	movl	8(%rsi), %edi
	movl	%edx, %r8d
	addl	12(%rcx), %r8d
	movl	%r8d, 8(%rcx)
	movl	%edi, %r8d
	addl	12(%rsi), %r8d
	movl	%r8d, 8(%rsi)
	subl	12(%rcx), %edx
	movl	%edx, 12(%rcx)
	subl	12(%rsi), %edi
	movl	%edi, 12(%rsi)
	movl	16(%rcx), %edx
	movl	16(%rsi), %edi
	movl	%edx, %r8d
	addl	24(%rcx), %r8d
	movl	%r8d, 16(%rcx)
	movl	%edi, %r8d
	addl	24(%rsi), %r8d
	movl	%r8d, 16(%rsi)
	subl	24(%rcx), %edx
	movl	%edx, 24(%rcx)
	subl	24(%rsi), %edi
	movl	%edi, 24(%rsi)
	movl	20(%rcx), %edx
	movl	20(%rsi), %edi
	movl	%edx, %r8d
	addl	28(%rcx), %r8d
	movl	%r8d, 20(%rcx)
	movl	%edi, %r8d
	addl	28(%rsi), %r8d
	movl	%r8d, 20(%rsi)
	subl	28(%rcx), %edx
	movl	%edx, 28(%rcx)
	subl	28(%rsi), %edi
	movl	%edi, 28(%rsi)
	movl	28(%rcx), %edx
	movl	%edi, 28(%rcx)
	subl	%edx, %eax
	movl	%eax, 28(%rsi)
	movl	16(%rcx), %eax
	movl	16(%rsi), %edx
	movl	%eax, %edi
	addl	20(%rcx), %edi
	movl	%edi, 16(%rcx)
	movl	%edx, %edi
	addl	20(%rsi), %edi
	movl	%edi, 16(%rsi)
	subl	20(%rcx), %eax
	movl	%eax, 20(%rcx)
	subl	20(%rsi), %edx
	movl	%edx, 20(%rsi)
	movl	24(%rcx), %eax
	movl	24(%rsi), %edx
	movl	%eax, %edi
	addl	28(%rcx), %edi
	movl	%edi, 24(%rcx)
	movl	%edx, %edi
	addl	28(%rsi), %edi
	movl	%edi, 24(%rsi)
	subl	28(%rcx), %eax
	movl	%eax, 28(%rcx)
	subl	28(%rsi), %edx
	movl	%edx, 28(%rsi)
	movl	$1, %r9d
	movq	%r9, -928(%rbp)         # 8-byte Spill
.LBB0_145:                              # %for.body278.20
                                        #   Parent Loop BB0_1 Depth=1
                                        # =>  This Inner Loop Header: Depth=2
	movq	-928(%rbp), %rax        # 8-byte Reload
	movq	-912(%rbp), %rcx        # 8-byte Reload
	imulq	$7, %rcx, %rdx
	addq	%rax, %rdx
	movq	-88(%rbp), %rsi         # 8-byte Reload
	cvttss2si	-4(%rsi,%rdx,4), %edi
	imulq	$7, %rcx, %rdx
	addq	%rax, %rdx
	movq	-96(%rbp), %r8          # 8-byte Reload
	cvttss2si	-4(%r8,%rdx,4), %r9d
	movq	-48(%rbp), %rdx         # 8-byte Reload
	movl	(%rdx,%rax,4), %r10d
	movl	%edi, %r11d
	imull	(%rdx,%rax,4), %r11d
	movl	%r9d, %ebx
	movq	-40(%rbp), %r14         # 8-byte Reload
	imull	(%r14,%rax,4), %ebx
	subl	%ebx, %r11d
	movl	%r11d, (%rdx,%rax,4)
	imull	%r9d, %r10d
	imull	(%r14,%rax,4), %edi
	addl	%edi, %r10d
	movl	%r10d, (%r14,%rax,4)
	movq	%rax, %r15
	addq	$1, %r15
	imulq	$7, %rcx, %r12
	addq	%r15, %r12
	cvttss2si	-4(%rsi,%r12,4), %edi
	imulq	$7, %rcx, %r12
	addq	%r15, %r12
	cvttss2si	-4(%r8,%r12,4), %r9d
	movl	4(%rdx,%rax,4), %r10d
	movl	%edi, %r11d
	imull	4(%rdx,%rax,4), %r11d
	movl	%r9d, %ebx
	imull	4(%r14,%rax,4), %ebx
	subl	%ebx, %r11d
	movl	%r11d, 4(%rdx,%rax,4)
	imull	%r9d, %r10d
	imull	4(%r14,%rax,4), %edi
	addl	%edi, %r10d
	movl	%r10d, 4(%r14,%rax,4)
	addq	$1, %r15
	imulq	$7, %rcx, %r12
	addq	%r15, %r12
	cvttss2si	-4(%rsi,%r12,4), %edi
	imulq	$7, %rcx, %r12
	addq	%r15, %r12
	cvttss2si	-4(%r8,%r12,4), %r9d
	movl	8(%rdx,%rax,4), %r10d
	movl	%edi, %r11d
	imull	8(%rdx,%rax,4), %r11d
	movl	%r9d, %ebx
	imull	8(%r14,%rax,4), %ebx
	subl	%ebx, %r11d
	movl	%r11d, 8(%rdx,%rax,4)
	imull	%r9d, %r10d
	imull	8(%r14,%rax,4), %edi
	addl	%edi, %r10d
	movl	%r10d, 8(%r14,%rax,4)
	addq	$1, %r15
	cmpq	$8, %r15
	movq	%r15, -936(%rbp)        # 8-byte Spill
	jne	.LBB0_149
# %bb.146:                              # %for.body316.preheader.20
                                        #   in Loop: Header=BB0_1 Depth=1
	xorl	%eax, %eax
	movl	%eax, %ecx
	movq	%rcx, -944(%rbp)        # 8-byte Spill
	jmp	.LBB0_147
.LBB0_147:                              # %for.body316.20
                                        #   Parent Loop BB0_1 Depth=1
                                        # =>  This Inner Loop Header: Depth=2
	movq	-944(%rbp), %rax        # 8-byte Reload
	movq	-48(%rbp), %rcx         # 8-byte Reload
	movl	(%rcx,%rax,4), %edx
	movq	-912(%rbp), %rsi        # 8-byte Reload
	shlq	$3, %rsi
	addq	%rax, %rsi
	movq	-64(%rbp), %rdi         # 8-byte Reload
	movl	%edx, (%rdi,%rsi,4)
	movq	-40(%rbp), %rsi         # 8-byte Reload
	movl	(%rsi,%rax,4), %edx
	movq	-912(%rbp), %r8         # 8-byte Reload
	shlq	$3, %r8
	addq	%rax, %r8
	movq	-56(%rbp), %r9          # 8-byte Reload
	movl	%edx, (%r9,%r8,4)
	movq	%rax, %r8
	addq	$1, %r8
	movl	4(%rcx,%rax,4), %edx
	movq	-912(%rbp), %r10        # 8-byte Reload
	shlq	$3, %r10
	addq	%r8, %r10
	movl	%edx, (%rdi,%r10,4)
	movl	4(%rsi,%rax,4), %edx
	movq	-912(%rbp), %r10        # 8-byte Reload
	shlq	$3, %r10
	addq	%r8, %r10
	movl	%edx, (%r9,%r10,4)
	addq	$1, %r8
	movl	8(%rcx,%rax,4), %edx
	movq	-912(%rbp), %r10        # 8-byte Reload
	shlq	$3, %r10
	addq	%r8, %r10
	movl	%edx, (%rdi,%r10,4)
	movl	8(%rsi,%rax,4), %edx
	movq	-912(%rbp), %r10        # 8-byte Reload
	shlq	$3, %r10
	addq	%r8, %r10
	movl	%edx, (%r9,%r10,4)
	addq	$1, %r8
	movl	12(%rcx,%rax,4), %edx
	movq	-912(%rbp), %r10        # 8-byte Reload
	shlq	$3, %r10
	addq	%r8, %r10
	movl	%edx, (%rdi,%r10,4)
	movl	12(%rsi,%rax,4), %edx
	movq	-912(%rbp), %rax        # 8-byte Reload
	shlq	$3, %rax
	addq	%r8, %rax
	movl	%edx, (%r9,%rax,4)
	addq	$1, %r8
	cmpq	$8, %r8
	movq	%r8, -944(%rbp)         # 8-byte Spill
	jne	.LBB0_147
# %bb.148:                              # %for.inc332.20
                                        #   in Loop: Header=BB0_1 Depth=1
	xorl	%eax, %eax
	movl	%eax, %ecx
	movq	-912(%rbp), %rdx        # 8-byte Reload
	addq	$1, %rdx
	movq	%rdx, -952(%rbp)        # 8-byte Spill
	movq	%rcx, -960(%rbp)        # 8-byte Spill
	jmp	.LBB0_150
.LBB0_149:                              # %for.body278.3.20
                                        #   in Loop: Header=BB0_145 Depth=2
	movq	-912(%rbp), %rax        # 8-byte Reload
	imulq	$7, %rax, %rcx
	movq	-936(%rbp), %rdx        # 8-byte Reload
	addq	%rdx, %rcx
	movq	-88(%rbp), %rsi         # 8-byte Reload
	cvttss2si	-4(%rsi,%rcx,4), %edi
	imulq	$7, %rax, %rcx
	addq	%rdx, %rcx
	movq	-96(%rbp), %r8          # 8-byte Reload
	cvttss2si	-4(%r8,%rcx,4), %r9d
	movq	-48(%rbp), %rcx         # 8-byte Reload
	movl	(%rcx,%rdx,4), %r10d
	movl	%edi, %r11d
	imull	(%rcx,%rdx,4), %r11d
	movl	%r9d, %ebx
	movq	-40(%rbp), %r14         # 8-byte Reload
	imull	(%r14,%rdx,4), %ebx
	subl	%ebx, %r11d
	movl	%r11d, (%rcx,%rdx,4)
	imull	%r9d, %r10d
	imull	(%r14,%rdx,4), %edi
	addl	%edi, %r10d
	movl	%r10d, (%r14,%rdx,4)
	addq	$1, %rdx
	movq	%rdx, -928(%rbp)        # 8-byte Spill
	jmp	.LBB0_145
.LBB0_150:                              # %for.body3.21
                                        #   Parent Loop BB0_1 Depth=1
                                        # =>  This Inner Loop Header: Depth=2
	movq	-960(%rbp), %rax        # 8-byte Reload
	movq	%rax, %rcx
	shlq	$6, %rcx
	movq	-952(%rbp), %rdx        # 8-byte Reload
	addq	%rdx, %rcx
	movq	-80(%rbp), %rsi         # 8-byte Reload
	movl	(%rsi,%rcx,4), %edi
	movq	-48(%rbp), %rcx         # 8-byte Reload
	movl	%edi, (%rcx,%rax,4)
	movq	%rax, %r8
	shlq	$6, %r8
	addq	%rdx, %r8
	movq	-72(%rbp), %r9          # 8-byte Reload
	movl	(%r9,%r8,4), %edi
	movq	-40(%rbp), %r8          # 8-byte Reload
	movl	%edi, (%r8,%rax,4)
	movq	%rax, %r10
	addq	$1, %r10
	movq	%r10, %r11
	shlq	$6, %r11
	addq	%rdx, %r11
	movl	(%rsi,%r11,4), %edi
	movl	%edi, 4(%rcx,%rax,4)
	movq	%r10, %r11
	shlq	$6, %r11
	addq	%rdx, %r11
	movl	(%r9,%r11,4), %edi
	movl	%edi, 4(%r8,%rax,4)
	addq	$1, %r10
	movq	%r10, %r11
	shlq	$6, %r11
	addq	%rdx, %r11
	movl	(%rsi,%r11,4), %edi
	movl	%edi, 8(%rcx,%rax,4)
	movq	%r10, %r11
	shlq	$6, %r11
	addq	%rdx, %r11
	movl	(%r9,%r11,4), %edi
	movl	%edi, 8(%r8,%rax,4)
	addq	$1, %r10
	movq	%r10, %r11
	shlq	$6, %r11
	addq	%rdx, %r11
	movl	(%rsi,%r11,4), %edi
	movl	%edi, 12(%rcx,%rax,4)
	movq	%r10, %r11
	shlq	$6, %r11
	addq	%rdx, %r11
	movl	(%r9,%r11,4), %edi
	movl	%edi, 12(%r8,%rax,4)
	addq	$1, %r10
	cmpq	$8, %r10
	movq	%r10, -960(%rbp)        # 8-byte Spill
	jne	.LBB0_150
# %bb.151:                              # %for.end.21
                                        #   in Loop: Header=BB0_1 Depth=1
	xorl	%eax, %eax
	movss	.LCPI0_0(%rip), %xmm0   # xmm0 = mem[0],zero,zero,zero
	movq	-48(%rbp), %rcx         # 8-byte Reload
	movl	(%rcx), %edx
	movq	-40(%rbp), %rsi         # 8-byte Reload
	movl	(%rsi), %edi
	movl	%edx, %r8d
	addl	16(%rcx), %r8d
	movl	%r8d, (%rcx)
	movl	%edi, %r8d
	addl	16(%rsi), %r8d
	movl	%r8d, (%rsi)
	subl	16(%rcx), %edx
	movl	%edx, 16(%rcx)
	subl	16(%rsi), %edi
	movl	%edi, 16(%rsi)
	movl	4(%rcx), %edx
	movl	4(%rsi), %edi
	movl	%edx, %r8d
	addl	20(%rcx), %r8d
	movl	%r8d, 4(%rcx)
	movl	%edi, %r8d
	addl	20(%rsi), %r8d
	movl	%r8d, 4(%rsi)
	subl	20(%rcx), %edx
	movl	%edx, 20(%rcx)
	subl	20(%rsi), %edi
	movl	%edi, 20(%rsi)
	movl	8(%rcx), %edx
	movl	8(%rsi), %edi
	movl	%edx, %r8d
	addl	24(%rcx), %r8d
	movl	%r8d, 8(%rcx)
	movl	%edi, %r8d
	addl	24(%rsi), %r8d
	movl	%r8d, 8(%rsi)
	subl	24(%rcx), %edx
	movl	%edx, 24(%rcx)
	subl	24(%rsi), %edi
	movl	%edi, 24(%rsi)
	movl	12(%rcx), %edx
	movl	12(%rsi), %edi
	movl	%edx, %r8d
	addl	28(%rcx), %r8d
	movl	%r8d, 12(%rcx)
	movl	%edi, %r8d
	addl	28(%rsi), %r8d
	movl	%r8d, 12(%rsi)
	subl	28(%rcx), %edx
	movl	%edx, 28(%rcx)
	subl	28(%rsi), %edi
	movl	%edi, 28(%rsi)
	movl	20(%rcx), %edx
	movl	%edx, %edi
	addl	20(%rsi), %edi
	cvtsi2ss	%edi, %xmm1
	mulss	%xmm0, %xmm1
	cvttss2si	%xmm1, %edi
	movl	%edi, 20(%rcx)
	movl	20(%rsi), %edi
	subl	%edx, %edi
	cvtsi2ss	%edi, %xmm1
	mulss	%xmm0, %xmm1
	cvttss2si	%xmm1, %edx
	movl	%edx, 20(%rsi)
	movl	24(%rcx), %edx
	movl	24(%rsi), %edi
	movl	%edi, 24(%rcx)
	movl	%eax, %edi
	subl	%edx, %edi
	movl	%edi, 24(%rsi)
	movl	28(%rcx), %edx
	movl	28(%rsi), %edi
	subl	%edx, %edi
	cvtsi2ss	%edi, %xmm1
	mulss	%xmm0, %xmm1
	cvttss2si	%xmm1, %edi
	movl	%edi, 28(%rcx)
	addl	28(%rsi), %edx
	movl	%eax, %edi
	subl	%edx, %edi
	cvtsi2ss	%edi, %xmm1
	mulss	%xmm0, %xmm1
	cvttss2si	%xmm1, %edx
	movl	%edx, 28(%rsi)
	movl	(%rcx), %edx
	movl	(%rsi), %edi
	movl	%edx, %r8d
	addl	8(%rcx), %r8d
	movl	%r8d, (%rcx)
	movl	%edi, %r8d
	addl	8(%rsi), %r8d
	movl	%r8d, (%rsi)
	subl	8(%rcx), %edx
	movl	%edx, 8(%rcx)
	subl	8(%rsi), %edi
	movl	%edi, 8(%rsi)
	movl	4(%rcx), %edx
	movl	4(%rsi), %edi
	movl	%edx, %r8d
	addl	12(%rcx), %r8d
	movl	%r8d, 4(%rcx)
	movl	%edi, %r8d
	addl	12(%rsi), %r8d
	movl	%r8d, 4(%rsi)
	subl	12(%rcx), %edx
	movl	%edx, 12(%rcx)
	subl	12(%rsi), %edi
	movl	%edi, 12(%rsi)
	movl	12(%rcx), %edx
	movl	%edi, 12(%rcx)
	movl	%eax, %edi
	subl	%edx, %edi
	movl	%edi, 12(%rsi)
	movl	(%rcx), %edx
	movl	(%rsi), %edi
	movl	%edx, %r8d
	addl	4(%rcx), %r8d
	movl	%r8d, (%rcx)
	movl	%edi, %r8d
	addl	4(%rsi), %r8d
	movl	%r8d, (%rsi)
	subl	4(%rcx), %edx
	movl	%edx, 4(%rcx)
	subl	4(%rsi), %edi
	movl	%edi, 4(%rsi)
	movl	8(%rcx), %edx
	movl	8(%rsi), %edi
	movl	%edx, %r8d
	addl	12(%rcx), %r8d
	movl	%r8d, 8(%rcx)
	movl	%edi, %r8d
	addl	12(%rsi), %r8d
	movl	%r8d, 8(%rsi)
	subl	12(%rcx), %edx
	movl	%edx, 12(%rcx)
	subl	12(%rsi), %edi
	movl	%edi, 12(%rsi)
	movl	16(%rcx), %edx
	movl	16(%rsi), %edi
	movl	%edx, %r8d
	addl	24(%rcx), %r8d
	movl	%r8d, 16(%rcx)
	movl	%edi, %r8d
	addl	24(%rsi), %r8d
	movl	%r8d, 16(%rsi)
	subl	24(%rcx), %edx
	movl	%edx, 24(%rcx)
	subl	24(%rsi), %edi
	movl	%edi, 24(%rsi)
	movl	20(%rcx), %edx
	movl	20(%rsi), %edi
	movl	%edx, %r8d
	addl	28(%rcx), %r8d
	movl	%r8d, 20(%rcx)
	movl	%edi, %r8d
	addl	28(%rsi), %r8d
	movl	%r8d, 20(%rsi)
	subl	28(%rcx), %edx
	movl	%edx, 28(%rcx)
	subl	28(%rsi), %edi
	movl	%edi, 28(%rsi)
	movl	28(%rcx), %edx
	movl	%edi, 28(%rcx)
	subl	%edx, %eax
	movl	%eax, 28(%rsi)
	movl	16(%rcx), %eax
	movl	16(%rsi), %edx
	movl	%eax, %edi
	addl	20(%rcx), %edi
	movl	%edi, 16(%rcx)
	movl	%edx, %edi
	addl	20(%rsi), %edi
	movl	%edi, 16(%rsi)
	subl	20(%rcx), %eax
	movl	%eax, 20(%rcx)
	subl	20(%rsi), %edx
	movl	%edx, 20(%rsi)
	movl	24(%rcx), %eax
	movl	24(%rsi), %edx
	movl	%eax, %edi
	addl	28(%rcx), %edi
	movl	%edi, 24(%rcx)
	movl	%edx, %edi
	addl	28(%rsi), %edi
	movl	%edi, 24(%rsi)
	subl	28(%rcx), %eax
	movl	%eax, 28(%rcx)
	subl	28(%rsi), %edx
	movl	%edx, 28(%rsi)
	movl	$1, %r9d
	movq	%r9, -968(%rbp)         # 8-byte Spill
.LBB0_152:                              # %for.body278.21
                                        #   Parent Loop BB0_1 Depth=1
                                        # =>  This Inner Loop Header: Depth=2
	movq	-968(%rbp), %rax        # 8-byte Reload
	movq	-952(%rbp), %rcx        # 8-byte Reload
	imulq	$7, %rcx, %rdx
	addq	%rax, %rdx
	movq	-88(%rbp), %rsi         # 8-byte Reload
	cvttss2si	-4(%rsi,%rdx,4), %edi
	imulq	$7, %rcx, %rdx
	addq	%rax, %rdx
	movq	-96(%rbp), %r8          # 8-byte Reload
	cvttss2si	-4(%r8,%rdx,4), %r9d
	movq	-48(%rbp), %rdx         # 8-byte Reload
	movl	(%rdx,%rax,4), %r10d
	movl	%edi, %r11d
	imull	(%rdx,%rax,4), %r11d
	movl	%r9d, %ebx
	movq	-40(%rbp), %r14         # 8-byte Reload
	imull	(%r14,%rax,4), %ebx
	subl	%ebx, %r11d
	movl	%r11d, (%rdx,%rax,4)
	imull	%r9d, %r10d
	imull	(%r14,%rax,4), %edi
	addl	%edi, %r10d
	movl	%r10d, (%r14,%rax,4)
	movq	%rax, %r15
	addq	$1, %r15
	imulq	$7, %rcx, %r12
	addq	%r15, %r12
	cvttss2si	-4(%rsi,%r12,4), %edi
	imulq	$7, %rcx, %r12
	addq	%r15, %r12
	cvttss2si	-4(%r8,%r12,4), %r9d
	movl	4(%rdx,%rax,4), %r10d
	movl	%edi, %r11d
	imull	4(%rdx,%rax,4), %r11d
	movl	%r9d, %ebx
	imull	4(%r14,%rax,4), %ebx
	subl	%ebx, %r11d
	movl	%r11d, 4(%rdx,%rax,4)
	imull	%r9d, %r10d
	imull	4(%r14,%rax,4), %edi
	addl	%edi, %r10d
	movl	%r10d, 4(%r14,%rax,4)
	addq	$1, %r15
	imulq	$7, %rcx, %r12
	addq	%r15, %r12
	cvttss2si	-4(%rsi,%r12,4), %edi
	imulq	$7, %rcx, %r12
	addq	%r15, %r12
	cvttss2si	-4(%r8,%r12,4), %r9d
	movl	8(%rdx,%rax,4), %r10d
	movl	%edi, %r11d
	imull	8(%rdx,%rax,4), %r11d
	movl	%r9d, %ebx
	imull	8(%r14,%rax,4), %ebx
	subl	%ebx, %r11d
	movl	%r11d, 8(%rdx,%rax,4)
	imull	%r9d, %r10d
	imull	8(%r14,%rax,4), %edi
	addl	%edi, %r10d
	movl	%r10d, 8(%r14,%rax,4)
	addq	$1, %r15
	cmpq	$8, %r15
	movq	%r15, -976(%rbp)        # 8-byte Spill
	jne	.LBB0_156
# %bb.153:                              # %for.body316.preheader.21
                                        #   in Loop: Header=BB0_1 Depth=1
	xorl	%eax, %eax
	movl	%eax, %ecx
	movq	%rcx, -984(%rbp)        # 8-byte Spill
	jmp	.LBB0_154
.LBB0_154:                              # %for.body316.21
                                        #   Parent Loop BB0_1 Depth=1
                                        # =>  This Inner Loop Header: Depth=2
	movq	-984(%rbp), %rax        # 8-byte Reload
	movq	-48(%rbp), %rcx         # 8-byte Reload
	movl	(%rcx,%rax,4), %edx
	movq	-952(%rbp), %rsi        # 8-byte Reload
	shlq	$3, %rsi
	addq	%rax, %rsi
	movq	-64(%rbp), %rdi         # 8-byte Reload
	movl	%edx, (%rdi,%rsi,4)
	movq	-40(%rbp), %rsi         # 8-byte Reload
	movl	(%rsi,%rax,4), %edx
	movq	-952(%rbp), %r8         # 8-byte Reload
	shlq	$3, %r8
	addq	%rax, %r8
	movq	-56(%rbp), %r9          # 8-byte Reload
	movl	%edx, (%r9,%r8,4)
	movq	%rax, %r8
	addq	$1, %r8
	movl	4(%rcx,%rax,4), %edx
	movq	-952(%rbp), %r10        # 8-byte Reload
	shlq	$3, %r10
	addq	%r8, %r10
	movl	%edx, (%rdi,%r10,4)
	movl	4(%rsi,%rax,4), %edx
	movq	-952(%rbp), %r10        # 8-byte Reload
	shlq	$3, %r10
	addq	%r8, %r10
	movl	%edx, (%r9,%r10,4)
	addq	$1, %r8
	movl	8(%rcx,%rax,4), %edx
	movq	-952(%rbp), %r10        # 8-byte Reload
	shlq	$3, %r10
	addq	%r8, %r10
	movl	%edx, (%rdi,%r10,4)
	movl	8(%rsi,%rax,4), %edx
	movq	-952(%rbp), %r10        # 8-byte Reload
	shlq	$3, %r10
	addq	%r8, %r10
	movl	%edx, (%r9,%r10,4)
	addq	$1, %r8
	movl	12(%rcx,%rax,4), %edx
	movq	-952(%rbp), %r10        # 8-byte Reload
	shlq	$3, %r10
	addq	%r8, %r10
	movl	%edx, (%rdi,%r10,4)
	movl	12(%rsi,%rax,4), %edx
	movq	-952(%rbp), %rax        # 8-byte Reload
	shlq	$3, %rax
	addq	%r8, %rax
	movl	%edx, (%r9,%rax,4)
	addq	$1, %r8
	cmpq	$8, %r8
	movq	%r8, -984(%rbp)         # 8-byte Spill
	jne	.LBB0_154
# %bb.155:                              # %for.inc332.21
                                        #   in Loop: Header=BB0_1 Depth=1
	xorl	%eax, %eax
	movl	%eax, %ecx
	movq	-952(%rbp), %rdx        # 8-byte Reload
	addq	$1, %rdx
	movq	%rdx, -992(%rbp)        # 8-byte Spill
	movq	%rcx, -1000(%rbp)       # 8-byte Spill
	jmp	.LBB0_157
.LBB0_156:                              # %for.body278.3.21
                                        #   in Loop: Header=BB0_152 Depth=2
	movq	-952(%rbp), %rax        # 8-byte Reload
	imulq	$7, %rax, %rcx
	movq	-976(%rbp), %rdx        # 8-byte Reload
	addq	%rdx, %rcx
	movq	-88(%rbp), %rsi         # 8-byte Reload
	cvttss2si	-4(%rsi,%rcx,4), %edi
	imulq	$7, %rax, %rcx
	addq	%rdx, %rcx
	movq	-96(%rbp), %r8          # 8-byte Reload
	cvttss2si	-4(%r8,%rcx,4), %r9d
	movq	-48(%rbp), %rcx         # 8-byte Reload
	movl	(%rcx,%rdx,4), %r10d
	movl	%edi, %r11d
	imull	(%rcx,%rdx,4), %r11d
	movl	%r9d, %ebx
	movq	-40(%rbp), %r14         # 8-byte Reload
	imull	(%r14,%rdx,4), %ebx
	subl	%ebx, %r11d
	movl	%r11d, (%rcx,%rdx,4)
	imull	%r9d, %r10d
	imull	(%r14,%rdx,4), %edi
	addl	%edi, %r10d
	movl	%r10d, (%r14,%rdx,4)
	addq	$1, %rdx
	movq	%rdx, -968(%rbp)        # 8-byte Spill
	jmp	.LBB0_152
.LBB0_157:                              # %for.body3.22
                                        #   Parent Loop BB0_1 Depth=1
                                        # =>  This Inner Loop Header: Depth=2
	movq	-1000(%rbp), %rax       # 8-byte Reload
	movq	%rax, %rcx
	shlq	$6, %rcx
	movq	-992(%rbp), %rdx        # 8-byte Reload
	addq	%rdx, %rcx
	movq	-80(%rbp), %rsi         # 8-byte Reload
	movl	(%rsi,%rcx,4), %edi
	movq	-48(%rbp), %rcx         # 8-byte Reload
	movl	%edi, (%rcx,%rax,4)
	movq	%rax, %r8
	shlq	$6, %r8
	addq	%rdx, %r8
	movq	-72(%rbp), %r9          # 8-byte Reload
	movl	(%r9,%r8,4), %edi
	movq	-40(%rbp), %r8          # 8-byte Reload
	movl	%edi, (%r8,%rax,4)
	movq	%rax, %r10
	addq	$1, %r10
	movq	%r10, %r11
	shlq	$6, %r11
	addq	%rdx, %r11
	movl	(%rsi,%r11,4), %edi
	movl	%edi, 4(%rcx,%rax,4)
	movq	%r10, %r11
	shlq	$6, %r11
	addq	%rdx, %r11
	movl	(%r9,%r11,4), %edi
	movl	%edi, 4(%r8,%rax,4)
	addq	$1, %r10
	movq	%r10, %r11
	shlq	$6, %r11
	addq	%rdx, %r11
	movl	(%rsi,%r11,4), %edi
	movl	%edi, 8(%rcx,%rax,4)
	movq	%r10, %r11
	shlq	$6, %r11
	addq	%rdx, %r11
	movl	(%r9,%r11,4), %edi
	movl	%edi, 8(%r8,%rax,4)
	addq	$1, %r10
	movq	%r10, %r11
	shlq	$6, %r11
	addq	%rdx, %r11
	movl	(%rsi,%r11,4), %edi
	movl	%edi, 12(%rcx,%rax,4)
	movq	%r10, %r11
	shlq	$6, %r11
	addq	%rdx, %r11
	movl	(%r9,%r11,4), %edi
	movl	%edi, 12(%r8,%rax,4)
	addq	$1, %r10
	cmpq	$8, %r10
	movq	%r10, -1000(%rbp)       # 8-byte Spill
	jne	.LBB0_157
# %bb.158:                              # %for.end.22
                                        #   in Loop: Header=BB0_1 Depth=1
	xorl	%eax, %eax
	movss	.LCPI0_0(%rip), %xmm0   # xmm0 = mem[0],zero,zero,zero
	movq	-48(%rbp), %rcx         # 8-byte Reload
	movl	(%rcx), %edx
	movq	-40(%rbp), %rsi         # 8-byte Reload
	movl	(%rsi), %edi
	movl	%edx, %r8d
	addl	16(%rcx), %r8d
	movl	%r8d, (%rcx)
	movl	%edi, %r8d
	addl	16(%rsi), %r8d
	movl	%r8d, (%rsi)
	subl	16(%rcx), %edx
	movl	%edx, 16(%rcx)
	subl	16(%rsi), %edi
	movl	%edi, 16(%rsi)
	movl	4(%rcx), %edx
	movl	4(%rsi), %edi
	movl	%edx, %r8d
	addl	20(%rcx), %r8d
	movl	%r8d, 4(%rcx)
	movl	%edi, %r8d
	addl	20(%rsi), %r8d
	movl	%r8d, 4(%rsi)
	subl	20(%rcx), %edx
	movl	%edx, 20(%rcx)
	subl	20(%rsi), %edi
	movl	%edi, 20(%rsi)
	movl	8(%rcx), %edx
	movl	8(%rsi), %edi
	movl	%edx, %r8d
	addl	24(%rcx), %r8d
	movl	%r8d, 8(%rcx)
	movl	%edi, %r8d
	addl	24(%rsi), %r8d
	movl	%r8d, 8(%rsi)
	subl	24(%rcx), %edx
	movl	%edx, 24(%rcx)
	subl	24(%rsi), %edi
	movl	%edi, 24(%rsi)
	movl	12(%rcx), %edx
	movl	12(%rsi), %edi
	movl	%edx, %r8d
	addl	28(%rcx), %r8d
	movl	%r8d, 12(%rcx)
	movl	%edi, %r8d
	addl	28(%rsi), %r8d
	movl	%r8d, 12(%rsi)
	subl	28(%rcx), %edx
	movl	%edx, 28(%rcx)
	subl	28(%rsi), %edi
	movl	%edi, 28(%rsi)
	movl	20(%rcx), %edx
	movl	%edx, %edi
	addl	20(%rsi), %edi
	cvtsi2ss	%edi, %xmm1
	mulss	%xmm0, %xmm1
	cvttss2si	%xmm1, %edi
	movl	%edi, 20(%rcx)
	movl	20(%rsi), %edi
	subl	%edx, %edi
	cvtsi2ss	%edi, %xmm1
	mulss	%xmm0, %xmm1
	cvttss2si	%xmm1, %edx
	movl	%edx, 20(%rsi)
	movl	24(%rcx), %edx
	movl	24(%rsi), %edi
	movl	%edi, 24(%rcx)
	movl	%eax, %edi
	subl	%edx, %edi
	movl	%edi, 24(%rsi)
	movl	28(%rcx), %edx
	movl	28(%rsi), %edi
	subl	%edx, %edi
	cvtsi2ss	%edi, %xmm1
	mulss	%xmm0, %xmm1
	cvttss2si	%xmm1, %edi
	movl	%edi, 28(%rcx)
	addl	28(%rsi), %edx
	movl	%eax, %edi
	subl	%edx, %edi
	cvtsi2ss	%edi, %xmm1
	mulss	%xmm0, %xmm1
	cvttss2si	%xmm1, %edx
	movl	%edx, 28(%rsi)
	movl	(%rcx), %edx
	movl	(%rsi), %edi
	movl	%edx, %r8d
	addl	8(%rcx), %r8d
	movl	%r8d, (%rcx)
	movl	%edi, %r8d
	addl	8(%rsi), %r8d
	movl	%r8d, (%rsi)
	subl	8(%rcx), %edx
	movl	%edx, 8(%rcx)
	subl	8(%rsi), %edi
	movl	%edi, 8(%rsi)
	movl	4(%rcx), %edx
	movl	4(%rsi), %edi
	movl	%edx, %r8d
	addl	12(%rcx), %r8d
	movl	%r8d, 4(%rcx)
	movl	%edi, %r8d
	addl	12(%rsi), %r8d
	movl	%r8d, 4(%rsi)
	subl	12(%rcx), %edx
	movl	%edx, 12(%rcx)
	subl	12(%rsi), %edi
	movl	%edi, 12(%rsi)
	movl	12(%rcx), %edx
	movl	%edi, 12(%rcx)
	movl	%eax, %edi
	subl	%edx, %edi
	movl	%edi, 12(%rsi)
	movl	(%rcx), %edx
	movl	(%rsi), %edi
	movl	%edx, %r8d
	addl	4(%rcx), %r8d
	movl	%r8d, (%rcx)
	movl	%edi, %r8d
	addl	4(%rsi), %r8d
	movl	%r8d, (%rsi)
	subl	4(%rcx), %edx
	movl	%edx, 4(%rcx)
	subl	4(%rsi), %edi
	movl	%edi, 4(%rsi)
	movl	8(%rcx), %edx
	movl	8(%rsi), %edi
	movl	%edx, %r8d
	addl	12(%rcx), %r8d
	movl	%r8d, 8(%rcx)
	movl	%edi, %r8d
	addl	12(%rsi), %r8d
	movl	%r8d, 8(%rsi)
	subl	12(%rcx), %edx
	movl	%edx, 12(%rcx)
	subl	12(%rsi), %edi
	movl	%edi, 12(%rsi)
	movl	16(%rcx), %edx
	movl	16(%rsi), %edi
	movl	%edx, %r8d
	addl	24(%rcx), %r8d
	movl	%r8d, 16(%rcx)
	movl	%edi, %r8d
	addl	24(%rsi), %r8d
	movl	%r8d, 16(%rsi)
	subl	24(%rcx), %edx
	movl	%edx, 24(%rcx)
	subl	24(%rsi), %edi
	movl	%edi, 24(%rsi)
	movl	20(%rcx), %edx
	movl	20(%rsi), %edi
	movl	%edx, %r8d
	addl	28(%rcx), %r8d
	movl	%r8d, 20(%rcx)
	movl	%edi, %r8d
	addl	28(%rsi), %r8d
	movl	%r8d, 20(%rsi)
	subl	28(%rcx), %edx
	movl	%edx, 28(%rcx)
	subl	28(%rsi), %edi
	movl	%edi, 28(%rsi)
	movl	28(%rcx), %edx
	movl	%edi, 28(%rcx)
	subl	%edx, %eax
	movl	%eax, 28(%rsi)
	movl	16(%rcx), %eax
	movl	16(%rsi), %edx
	movl	%eax, %edi
	addl	20(%rcx), %edi
	movl	%edi, 16(%rcx)
	movl	%edx, %edi
	addl	20(%rsi), %edi
	movl	%edi, 16(%rsi)
	subl	20(%rcx), %eax
	movl	%eax, 20(%rcx)
	subl	20(%rsi), %edx
	movl	%edx, 20(%rsi)
	movl	24(%rcx), %eax
	movl	24(%rsi), %edx
	movl	%eax, %edi
	addl	28(%rcx), %edi
	movl	%edi, 24(%rcx)
	movl	%edx, %edi
	addl	28(%rsi), %edi
	movl	%edi, 24(%rsi)
	subl	28(%rcx), %eax
	movl	%eax, 28(%rcx)
	subl	28(%rsi), %edx
	movl	%edx, 28(%rsi)
	movl	$1, %r9d
	movq	%r9, -1008(%rbp)        # 8-byte Spill
.LBB0_159:                              # %for.body278.22
                                        #   Parent Loop BB0_1 Depth=1
                                        # =>  This Inner Loop Header: Depth=2
	movq	-1008(%rbp), %rax       # 8-byte Reload
	movq	-992(%rbp), %rcx        # 8-byte Reload
	imulq	$7, %rcx, %rdx
	addq	%rax, %rdx
	movq	-88(%rbp), %rsi         # 8-byte Reload
	cvttss2si	-4(%rsi,%rdx,4), %edi
	imulq	$7, %rcx, %rdx
	addq	%rax, %rdx
	movq	-96(%rbp), %r8          # 8-byte Reload
	cvttss2si	-4(%r8,%rdx,4), %r9d
	movq	-48(%rbp), %rdx         # 8-byte Reload
	movl	(%rdx,%rax,4), %r10d
	movl	%edi, %r11d
	imull	(%rdx,%rax,4), %r11d
	movl	%r9d, %ebx
	movq	-40(%rbp), %r14         # 8-byte Reload
	imull	(%r14,%rax,4), %ebx
	subl	%ebx, %r11d
	movl	%r11d, (%rdx,%rax,4)
	imull	%r9d, %r10d
	imull	(%r14,%rax,4), %edi
	addl	%edi, %r10d
	movl	%r10d, (%r14,%rax,4)
	movq	%rax, %r15
	addq	$1, %r15
	imulq	$7, %rcx, %r12
	addq	%r15, %r12
	cvttss2si	-4(%rsi,%r12,4), %edi
	imulq	$7, %rcx, %r12
	addq	%r15, %r12
	cvttss2si	-4(%r8,%r12,4), %r9d
	movl	4(%rdx,%rax,4), %r10d
	movl	%edi, %r11d
	imull	4(%rdx,%rax,4), %r11d
	movl	%r9d, %ebx
	imull	4(%r14,%rax,4), %ebx
	subl	%ebx, %r11d
	movl	%r11d, 4(%rdx,%rax,4)
	imull	%r9d, %r10d
	imull	4(%r14,%rax,4), %edi
	addl	%edi, %r10d
	movl	%r10d, 4(%r14,%rax,4)
	addq	$1, %r15
	imulq	$7, %rcx, %r12
	addq	%r15, %r12
	cvttss2si	-4(%rsi,%r12,4), %edi
	imulq	$7, %rcx, %r12
	addq	%r15, %r12
	cvttss2si	-4(%r8,%r12,4), %r9d
	movl	8(%rdx,%rax,4), %r10d
	movl	%edi, %r11d
	imull	8(%rdx,%rax,4), %r11d
	movl	%r9d, %ebx
	imull	8(%r14,%rax,4), %ebx
	subl	%ebx, %r11d
	movl	%r11d, 8(%rdx,%rax,4)
	imull	%r9d, %r10d
	imull	8(%r14,%rax,4), %edi
	addl	%edi, %r10d
	movl	%r10d, 8(%r14,%rax,4)
	addq	$1, %r15
	cmpq	$8, %r15
	movq	%r15, -1016(%rbp)       # 8-byte Spill
	jne	.LBB0_163
# %bb.160:                              # %for.body316.preheader.22
                                        #   in Loop: Header=BB0_1 Depth=1
	xorl	%eax, %eax
	movl	%eax, %ecx
	movq	%rcx, -1024(%rbp)       # 8-byte Spill
	jmp	.LBB0_161
.LBB0_161:                              # %for.body316.22
                                        #   Parent Loop BB0_1 Depth=1
                                        # =>  This Inner Loop Header: Depth=2
	movq	-1024(%rbp), %rax       # 8-byte Reload
	movq	-48(%rbp), %rcx         # 8-byte Reload
	movl	(%rcx,%rax,4), %edx
	movq	-992(%rbp), %rsi        # 8-byte Reload
	shlq	$3, %rsi
	addq	%rax, %rsi
	movq	-64(%rbp), %rdi         # 8-byte Reload
	movl	%edx, (%rdi,%rsi,4)
	movq	-40(%rbp), %rsi         # 8-byte Reload
	movl	(%rsi,%rax,4), %edx
	movq	-992(%rbp), %r8         # 8-byte Reload
	shlq	$3, %r8
	addq	%rax, %r8
	movq	-56(%rbp), %r9          # 8-byte Reload
	movl	%edx, (%r9,%r8,4)
	movq	%rax, %r8
	addq	$1, %r8
	movl	4(%rcx,%rax,4), %edx
	movq	-992(%rbp), %r10        # 8-byte Reload
	shlq	$3, %r10
	addq	%r8, %r10
	movl	%edx, (%rdi,%r10,4)
	movl	4(%rsi,%rax,4), %edx
	movq	-992(%rbp), %r10        # 8-byte Reload
	shlq	$3, %r10
	addq	%r8, %r10
	movl	%edx, (%r9,%r10,4)
	addq	$1, %r8
	movl	8(%rcx,%rax,4), %edx
	movq	-992(%rbp), %r10        # 8-byte Reload
	shlq	$3, %r10
	addq	%r8, %r10
	movl	%edx, (%rdi,%r10,4)
	movl	8(%rsi,%rax,4), %edx
	movq	-992(%rbp), %r10        # 8-byte Reload
	shlq	$3, %r10
	addq	%r8, %r10
	movl	%edx, (%r9,%r10,4)
	addq	$1, %r8
	movl	12(%rcx,%rax,4), %edx
	movq	-992(%rbp), %r10        # 8-byte Reload
	shlq	$3, %r10
	addq	%r8, %r10
	movl	%edx, (%rdi,%r10,4)
	movl	12(%rsi,%rax,4), %edx
	movq	-992(%rbp), %rax        # 8-byte Reload
	shlq	$3, %rax
	addq	%r8, %rax
	movl	%edx, (%r9,%rax,4)
	addq	$1, %r8
	cmpq	$8, %r8
	movq	%r8, -1024(%rbp)        # 8-byte Spill
	jne	.LBB0_161
# %bb.162:                              # %for.inc332.22
                                        #   in Loop: Header=BB0_1 Depth=1
	xorl	%eax, %eax
	movl	%eax, %ecx
	movq	-992(%rbp), %rdx        # 8-byte Reload
	addq	$1, %rdx
	movq	%rdx, -1032(%rbp)       # 8-byte Spill
	movq	%rcx, -1040(%rbp)       # 8-byte Spill
	jmp	.LBB0_164
.LBB0_163:                              # %for.body278.3.22
                                        #   in Loop: Header=BB0_159 Depth=2
	movq	-992(%rbp), %rax        # 8-byte Reload
	imulq	$7, %rax, %rcx
	movq	-1016(%rbp), %rdx       # 8-byte Reload
	addq	%rdx, %rcx
	movq	-88(%rbp), %rsi         # 8-byte Reload
	cvttss2si	-4(%rsi,%rcx,4), %edi
	imulq	$7, %rax, %rcx
	addq	%rdx, %rcx
	movq	-96(%rbp), %r8          # 8-byte Reload
	cvttss2si	-4(%r8,%rcx,4), %r9d
	movq	-48(%rbp), %rcx         # 8-byte Reload
	movl	(%rcx,%rdx,4), %r10d
	movl	%edi, %r11d
	imull	(%rcx,%rdx,4), %r11d
	movl	%r9d, %ebx
	movq	-40(%rbp), %r14         # 8-byte Reload
	imull	(%r14,%rdx,4), %ebx
	subl	%ebx, %r11d
	movl	%r11d, (%rcx,%rdx,4)
	imull	%r9d, %r10d
	imull	(%r14,%rdx,4), %edi
	addl	%edi, %r10d
	movl	%r10d, (%r14,%rdx,4)
	addq	$1, %rdx
	movq	%rdx, -1008(%rbp)       # 8-byte Spill
	jmp	.LBB0_159
.LBB0_164:                              # %for.body3.23
                                        #   Parent Loop BB0_1 Depth=1
                                        # =>  This Inner Loop Header: Depth=2
	movq	-1040(%rbp), %rax       # 8-byte Reload
	movq	%rax, %rcx
	shlq	$6, %rcx
	movq	-1032(%rbp), %rdx       # 8-byte Reload
	addq	%rdx, %rcx
	movq	-80(%rbp), %rsi         # 8-byte Reload
	movl	(%rsi,%rcx,4), %edi
	movq	-48(%rbp), %rcx         # 8-byte Reload
	movl	%edi, (%rcx,%rax,4)
	movq	%rax, %r8
	shlq	$6, %r8
	addq	%rdx, %r8
	movq	-72(%rbp), %r9          # 8-byte Reload
	movl	(%r9,%r8,4), %edi
	movq	-40(%rbp), %r8          # 8-byte Reload
	movl	%edi, (%r8,%rax,4)
	movq	%rax, %r10
	addq	$1, %r10
	movq	%r10, %r11
	shlq	$6, %r11
	addq	%rdx, %r11
	movl	(%rsi,%r11,4), %edi
	movl	%edi, 4(%rcx,%rax,4)
	movq	%r10, %r11
	shlq	$6, %r11
	addq	%rdx, %r11
	movl	(%r9,%r11,4), %edi
	movl	%edi, 4(%r8,%rax,4)
	addq	$1, %r10
	movq	%r10, %r11
	shlq	$6, %r11
	addq	%rdx, %r11
	movl	(%rsi,%r11,4), %edi
	movl	%edi, 8(%rcx,%rax,4)
	movq	%r10, %r11
	shlq	$6, %r11
	addq	%rdx, %r11
	movl	(%r9,%r11,4), %edi
	movl	%edi, 8(%r8,%rax,4)
	addq	$1, %r10
	movq	%r10, %r11
	shlq	$6, %r11
	addq	%rdx, %r11
	movl	(%rsi,%r11,4), %edi
	movl	%edi, 12(%rcx,%rax,4)
	movq	%r10, %r11
	shlq	$6, %r11
	addq	%rdx, %r11
	movl	(%r9,%r11,4), %edi
	movl	%edi, 12(%r8,%rax,4)
	addq	$1, %r10
	cmpq	$8, %r10
	movq	%r10, -1040(%rbp)       # 8-byte Spill
	jne	.LBB0_164
# %bb.165:                              # %for.end.23
                                        #   in Loop: Header=BB0_1 Depth=1
	xorl	%eax, %eax
	movss	.LCPI0_0(%rip), %xmm0   # xmm0 = mem[0],zero,zero,zero
	movq	-48(%rbp), %rcx         # 8-byte Reload
	movl	(%rcx), %edx
	movq	-40(%rbp), %rsi         # 8-byte Reload
	movl	(%rsi), %edi
	movl	%edx, %r8d
	addl	16(%rcx), %r8d
	movl	%r8d, (%rcx)
	movl	%edi, %r8d
	addl	16(%rsi), %r8d
	movl	%r8d, (%rsi)
	subl	16(%rcx), %edx
	movl	%edx, 16(%rcx)
	subl	16(%rsi), %edi
	movl	%edi, 16(%rsi)
	movl	4(%rcx), %edx
	movl	4(%rsi), %edi
	movl	%edx, %r8d
	addl	20(%rcx), %r8d
	movl	%r8d, 4(%rcx)
	movl	%edi, %r8d
	addl	20(%rsi), %r8d
	movl	%r8d, 4(%rsi)
	subl	20(%rcx), %edx
	movl	%edx, 20(%rcx)
	subl	20(%rsi), %edi
	movl	%edi, 20(%rsi)
