	.text
	.file	"ss_sort.c"
	.globl	print                   # -- Begin function print
	.p2align	4, 0x90
	.type	print,@function
print:                                  # @print
	.cfi_startproc
# %bb.0:                                # %entry
	pushq	%rbp
	.cfi_def_cfa_offset 16
	.cfi_offset %rbp, -16
	movq	%rsp, %rbp
	.cfi_def_cfa_register %rbp
	subq	$64, %rsp
	cmpl	$0, %esi
	movq	%rdi, -8(%rbp)          # 8-byte Spill
	movl	%esi, -12(%rbp)         # 4-byte Spill
	jle	.LBB0_4
# %bb.1:                                # %for.body.preheader
	xorl	%eax, %eax
	movl	%eax, %ecx
	movl	-12(%rbp), %eax         # 4-byte Reload
	movl	%eax, %edx
	movl	%edx, %esi
	movq	%rsi, -24(%rbp)         # 8-byte Spill
	movq	%rcx, -32(%rbp)         # 8-byte Spill
.LBB0_2:                                # %for.body
                                        # =>This Inner Loop Header: Depth=1
	movq	-32(%rbp), %rax         # 8-byte Reload
	movq	-8(%rbp), %rcx          # 8-byte Reload
	movl	(%rcx,%rax,4), %esi
	movabsq	$.L.str, %rdi
	movq	%rax, -40(%rbp)         # 8-byte Spill
	movb	$0, %al
	callq	printf
	movq	-40(%rbp), %rcx         # 8-byte Reload
	addq	$1, %rcx
	movq	-24(%rbp), %rdx         # 8-byte Reload
	cmpq	%rdx, %rcx
	movq	%rcx, -48(%rbp)         # 8-byte Spill
	jne	.LBB0_5
.LBB0_3:                                # %for.end.loopexit
	jmp	.LBB0_4
.LBB0_4:                                # %for.end
	addq	$64, %rsp
	popq	%rbp
	.cfi_def_cfa %rsp, 8
	retq
.LBB0_5:                                # %for.body.1
                                        #   in Loop: Header=BB0_2 Depth=1
	.cfi_def_cfa %rbp, 16
	movq	-8(%rbp), %rax          # 8-byte Reload
	movq	-48(%rbp), %rcx         # 8-byte Reload
	movl	(%rax,%rcx,4), %esi
	movabsq	$.L.str, %rdi
	movb	$0, %al
	callq	printf
	movq	-48(%rbp), %rcx         # 8-byte Reload
	addq	$1, %rcx
	movq	-24(%rbp), %rdx         # 8-byte Reload
	cmpq	%rdx, %rcx
	movq	%rcx, -56(%rbp)         # 8-byte Spill
	je	.LBB0_3
# %bb.6:                                # %for.body.2
                                        #   in Loop: Header=BB0_2 Depth=1
	movq	-8(%rbp), %rax          # 8-byte Reload
	movq	-56(%rbp), %rcx         # 8-byte Reload
	movl	(%rax,%rcx,4), %esi
	movabsq	$.L.str, %rdi
	movb	$0, %al
	callq	printf
	movq	-56(%rbp), %rcx         # 8-byte Reload
	addq	$1, %rcx
	movq	-24(%rbp), %rdx         # 8-byte Reload
	cmpq	%rdx, %rcx
	movq	%rcx, -64(%rbp)         # 8-byte Spill
	je	.LBB0_3
# %bb.7:                                # %for.body.3
                                        #   in Loop: Header=BB0_2 Depth=1
	movq	-8(%rbp), %rax          # 8-byte Reload
	movq	-64(%rbp), %rcx         # 8-byte Reload
	movl	(%rax,%rcx,4), %esi
	movabsq	$.L.str, %rdi
	movb	$0, %al
	callq	printf
	movq	-64(%rbp), %rcx         # 8-byte Reload
	addq	$1, %rcx
	movq	-24(%rbp), %rdx         # 8-byte Reload
	cmpq	%rdx, %rcx
	movq	%rcx, -32(%rbp)         # 8-byte Spill
	jne	.LBB0_2
	jmp	.LBB0_3
.Lfunc_end0:
	.size	print, .Lfunc_end0-print
	.cfi_endproc
                                        # -- End function
	.globl	local_scan              # -- Begin function local_scan
	.p2align	4, 0x90
	.type	local_scan,@function
local_scan:                             # @local_scan
	.cfi_startproc
# %bb.0:                                # %entry
	pushq	%rbp
	.cfi_def_cfa_offset 16
	.cfi_offset %rbp, -16
	movq	%rsp, %rbp
	.cfi_def_cfa_register %rbp
	subq	$1936, %rsp             # imm = 0x790
	movq	%rdi, -8(%rbp)          # 8-byte Spill
	jmp	.LBB1_1
.LBB1_1:                                # %for.body
	movl	$1, %eax
	movq	%rax, -16(%rbp)         # 8-byte Spill
	jmp	.LBB1_2
.LBB1_2:                                # %for.body3
                                        # =>This Inner Loop Header: Depth=1
	movq	-16(%rbp), %rax         # 8-byte Reload
	movq	-8(%rbp), %rcx          # 8-byte Reload
	movl	-4(%rcx,%rax,4), %edx
	addl	(%rcx,%rax,4), %edx
	movl	%edx, (%rcx,%rax,4)
	movq	%rax, %rsi
	addq	$1, %rsi
	movl	(%rcx,%rax,4), %edx
	addl	4(%rcx,%rax,4), %edx
	movl	%edx, 4(%rcx,%rax,4)
	addq	$1, %rsi
	movl	4(%rcx,%rax,4), %edx
	addl	8(%rcx,%rax,4), %edx
	movl	%edx, 8(%rcx,%rax,4)
	movq	%rsi, %rax
	addq	$1, %rax
	cmpq	$16, %rax
	movq	%rsi, -24(%rbp)         # 8-byte Spill
	movq	%rax, -32(%rbp)         # 8-byte Spill
	jne	.LBB1_4
# %bb.3:                                # %for.inc9
	movl	$1, %eax
	movq	%rax, -40(%rbp)         # 8-byte Spill
	jmp	.LBB1_5
.LBB1_4:                                # %for.body3.3
                                        #   in Loop: Header=BB1_2 Depth=1
	movq	-8(%rbp), %rax          # 8-byte Reload
	movq	-24(%rbp), %rcx         # 8-byte Reload
	movl	(%rax,%rcx,4), %edx
	movq	-32(%rbp), %rsi         # 8-byte Reload
	addl	(%rax,%rsi,4), %edx
	movl	%edx, (%rax,%rsi,4)
	addq	$1, %rsi
	movq	%rsi, -16(%rbp)         # 8-byte Spill
	jmp	.LBB1_2
.LBB1_5:                                # %for.body3.1
                                        # =>This Inner Loop Header: Depth=1
	movq	-40(%rbp), %rax         # 8-byte Reload
	movq	%rax, %rcx
	addq	$16, %rcx
	movq	-8(%rbp), %rdx          # 8-byte Reload
	movl	-4(%rdx,%rcx,4), %esi
	movq	%rax, %rcx
	addq	$16, %rcx
	addl	(%rdx,%rcx,4), %esi
	movl	%esi, (%rdx,%rcx,4)
	addq	$1, %rax
	movq	%rax, %rcx
	addq	$16, %rcx
	movl	-4(%rdx,%rcx,4), %esi
	movq	%rax, %rcx
	addq	$16, %rcx
	addl	(%rdx,%rcx,4), %esi
	movl	%esi, (%rdx,%rcx,4)
	addq	$1, %rax
	movq	%rax, %rcx
	addq	$16, %rcx
	movl	-4(%rdx,%rcx,4), %esi
	movq	%rax, %rcx
	addq	$16, %rcx
	addl	(%rdx,%rcx,4), %esi
	movl	%esi, (%rdx,%rcx,4)
	addq	$1, %rax
	cmpq	$16, %rax
	movq	%rax, -48(%rbp)         # 8-byte Spill
	jne	.LBB1_7
# %bb.6:                                # %for.inc9.1
	movl	$1, %eax
	movq	%rax, -56(%rbp)         # 8-byte Spill
	jmp	.LBB1_8
.LBB1_7:                                # %for.body3.3.1
                                        #   in Loop: Header=BB1_5 Depth=1
	movq	-48(%rbp), %rax         # 8-byte Reload
	addq	$16, %rax
	movq	-8(%rbp), %rcx          # 8-byte Reload
	movl	-4(%rcx,%rax,4), %edx
	movq	-48(%rbp), %rax         # 8-byte Reload
	addq	$16, %rax
	addl	(%rcx,%rax,4), %edx
	movl	%edx, (%rcx,%rax,4)
	movq	-48(%rbp), %rax         # 8-byte Reload
	addq	$1, %rax
	movq	%rax, -40(%rbp)         # 8-byte Spill
	jmp	.LBB1_5
.LBB1_8:                                # %for.body3.2
                                        # =>This Inner Loop Header: Depth=1
	movq	-56(%rbp), %rax         # 8-byte Reload
	movq	%rax, %rcx
	addq	$32, %rcx
	movq	-8(%rbp), %rdx          # 8-byte Reload
	movl	-4(%rdx,%rcx,4), %esi
	movq	%rax, %rcx
	addq	$32, %rcx
	addl	(%rdx,%rcx,4), %esi
	movl	%esi, (%rdx,%rcx,4)
	addq	$1, %rax
	movq	%rax, %rcx
	addq	$32, %rcx
	movl	-4(%rdx,%rcx,4), %esi
	movq	%rax, %rcx
	addq	$32, %rcx
	addl	(%rdx,%rcx,4), %esi
	movl	%esi, (%rdx,%rcx,4)
	addq	$1, %rax
	movq	%rax, %rcx
	addq	$32, %rcx
	movl	-4(%rdx,%rcx,4), %esi
	movq	%rax, %rcx
	addq	$32, %rcx
	addl	(%rdx,%rcx,4), %esi
	movl	%esi, (%rdx,%rcx,4)
	addq	$1, %rax
	cmpq	$16, %rax
	movq	%rax, -64(%rbp)         # 8-byte Spill
	jne	.LBB1_10
# %bb.9:                                # %for.inc9.2
	movl	$1, %eax
	movq	%rax, -72(%rbp)         # 8-byte Spill
	jmp	.LBB1_11
.LBB1_10:                               # %for.body3.3.2
                                        #   in Loop: Header=BB1_8 Depth=1
	movq	-64(%rbp), %rax         # 8-byte Reload
	addq	$32, %rax
	movq	-8(%rbp), %rcx          # 8-byte Reload
	movl	-4(%rcx,%rax,4), %edx
	movq	-64(%rbp), %rax         # 8-byte Reload
	addq	$32, %rax
	addl	(%rcx,%rax,4), %edx
	movl	%edx, (%rcx,%rax,4)
	movq	-64(%rbp), %rax         # 8-byte Reload
	addq	$1, %rax
	movq	%rax, -56(%rbp)         # 8-byte Spill
	jmp	.LBB1_8
.LBB1_11:                               # %for.body3.329
                                        # =>This Inner Loop Header: Depth=1
	movq	-72(%rbp), %rax         # 8-byte Reload
	movq	%rax, %rcx
	addq	$48, %rcx
	movq	-8(%rbp), %rdx          # 8-byte Reload
	movl	-4(%rdx,%rcx,4), %esi
	movq	%rax, %rcx
	addq	$48, %rcx
	addl	(%rdx,%rcx,4), %esi
	movl	%esi, (%rdx,%rcx,4)
	addq	$1, %rax
	movq	%rax, %rcx
	addq	$48, %rcx
	movl	-4(%rdx,%rcx,4), %esi
	movq	%rax, %rcx
	addq	$48, %rcx
	addl	(%rdx,%rcx,4), %esi
	movl	%esi, (%rdx,%rcx,4)
	addq	$1, %rax
	movq	%rax, %rcx
	addq	$48, %rcx
	movl	-4(%rdx,%rcx,4), %esi
	movq	%rax, %rcx
	addq	$48, %rcx
	addl	(%rdx,%rcx,4), %esi
	movl	%esi, (%rdx,%rcx,4)
	addq	$1, %rax
	cmpq	$16, %rax
	movq	%rax, -80(%rbp)         # 8-byte Spill
	jne	.LBB1_13
# %bb.12:                               # %for.inc9.3
	movl	$1, %eax
	movq	%rax, -88(%rbp)         # 8-byte Spill
	jmp	.LBB1_14
.LBB1_13:                               # %for.body3.3.3
                                        #   in Loop: Header=BB1_11 Depth=1
	movq	-80(%rbp), %rax         # 8-byte Reload
	addq	$48, %rax
	movq	-8(%rbp), %rcx          # 8-byte Reload
	movl	-4(%rcx,%rax,4), %edx
	movq	-80(%rbp), %rax         # 8-byte Reload
	addq	$48, %rax
	addl	(%rcx,%rax,4), %edx
	movl	%edx, (%rcx,%rax,4)
	movq	-80(%rbp), %rax         # 8-byte Reload
	addq	$1, %rax
	movq	%rax, -72(%rbp)         # 8-byte Spill
	jmp	.LBB1_11
.LBB1_14:                               # %for.body3.4
                                        # =>This Inner Loop Header: Depth=1
	movq	-88(%rbp), %rax         # 8-byte Reload
	movq	%rax, %rcx
	addq	$64, %rcx
	movq	-8(%rbp), %rdx          # 8-byte Reload
	movl	-4(%rdx,%rcx,4), %esi
	movq	%rax, %rcx
	addq	$64, %rcx
	addl	(%rdx,%rcx,4), %esi
	movl	%esi, (%rdx,%rcx,4)
	addq	$1, %rax
	movq	%rax, %rcx
	addq	$64, %rcx
	movl	-4(%rdx,%rcx,4), %esi
	movq	%rax, %rcx
	addq	$64, %rcx
	addl	(%rdx,%rcx,4), %esi
	movl	%esi, (%rdx,%rcx,4)
	addq	$1, %rax
	movq	%rax, %rcx
	addq	$64, %rcx
	movl	-4(%rdx,%rcx,4), %esi
	movq	%rax, %rcx
	addq	$64, %rcx
	addl	(%rdx,%rcx,4), %esi
	movl	%esi, (%rdx,%rcx,4)
	addq	$1, %rax
	cmpq	$16, %rax
	movq	%rax, -96(%rbp)         # 8-byte Spill
	jne	.LBB1_16
# %bb.15:                               # %for.inc9.4
	movl	$1, %eax
	movq	%rax, -104(%rbp)        # 8-byte Spill
	jmp	.LBB1_17
.LBB1_16:                               # %for.body3.3.4
                                        #   in Loop: Header=BB1_14 Depth=1
	movq	-96(%rbp), %rax         # 8-byte Reload
	addq	$64, %rax
	movq	-8(%rbp), %rcx          # 8-byte Reload
	movl	-4(%rcx,%rax,4), %edx
	movq	-96(%rbp), %rax         # 8-byte Reload
	addq	$64, %rax
	addl	(%rcx,%rax,4), %edx
	movl	%edx, (%rcx,%rax,4)
	movq	-96(%rbp), %rax         # 8-byte Reload
	addq	$1, %rax
	movq	%rax, -88(%rbp)         # 8-byte Spill
	jmp	.LBB1_14
.LBB1_17:                               # %for.body3.5
                                        # =>This Inner Loop Header: Depth=1
	movq	-104(%rbp), %rax        # 8-byte Reload
	movq	%rax, %rcx
	addq	$80, %rcx
	movq	-8(%rbp), %rdx          # 8-byte Reload
	movl	-4(%rdx,%rcx,4), %esi
	movq	%rax, %rcx
	addq	$80, %rcx
	addl	(%rdx,%rcx,4), %esi
	movl	%esi, (%rdx,%rcx,4)
	addq	$1, %rax
	movq	%rax, %rcx
	addq	$80, %rcx
	movl	-4(%rdx,%rcx,4), %esi
	movq	%rax, %rcx
	addq	$80, %rcx
	addl	(%rdx,%rcx,4), %esi
	movl	%esi, (%rdx,%rcx,4)
	addq	$1, %rax
	movq	%rax, %rcx
	addq	$80, %rcx
	movl	-4(%rdx,%rcx,4), %esi
	movq	%rax, %rcx
	addq	$80, %rcx
	addl	(%rdx,%rcx,4), %esi
	movl	%esi, (%rdx,%rcx,4)
	addq	$1, %rax
	cmpq	$16, %rax
	movq	%rax, -112(%rbp)        # 8-byte Spill
	jne	.LBB1_19
# %bb.18:                               # %for.inc9.5
	movl	$1, %eax
	movq	%rax, -120(%rbp)        # 8-byte Spill
	jmp	.LBB1_20
.LBB1_19:                               # %for.body3.3.5
                                        #   in Loop: Header=BB1_17 Depth=1
	movq	-112(%rbp), %rax        # 8-byte Reload
	addq	$80, %rax
	movq	-8(%rbp), %rcx          # 8-byte Reload
	movl	-4(%rcx,%rax,4), %edx
	movq	-112(%rbp), %rax        # 8-byte Reload
	addq	$80, %rax
	addl	(%rcx,%rax,4), %edx
	movl	%edx, (%rcx,%rax,4)
	movq	-112(%rbp), %rax        # 8-byte Reload
	addq	$1, %rax
	movq	%rax, -104(%rbp)        # 8-byte Spill
	jmp	.LBB1_17
.LBB1_20:                               # %for.body3.6
                                        # =>This Inner Loop Header: Depth=1
	movq	-120(%rbp), %rax        # 8-byte Reload
	movq	%rax, %rcx
	addq	$96, %rcx
	movq	-8(%rbp), %rdx          # 8-byte Reload
	movl	-4(%rdx,%rcx,4), %esi
	movq	%rax, %rcx
	addq	$96, %rcx
	addl	(%rdx,%rcx,4), %esi
	movl	%esi, (%rdx,%rcx,4)
	addq	$1, %rax
	movq	%rax, %rcx
	addq	$96, %rcx
	movl	-4(%rdx,%rcx,4), %esi
	movq	%rax, %rcx
	addq	$96, %rcx
	addl	(%rdx,%rcx,4), %esi
	movl	%esi, (%rdx,%rcx,4)
	addq	$1, %rax
	movq	%rax, %rcx
	addq	$96, %rcx
	movl	-4(%rdx,%rcx,4), %esi
	movq	%rax, %rcx
	addq	$96, %rcx
	addl	(%rdx,%rcx,4), %esi
	movl	%esi, (%rdx,%rcx,4)
	addq	$1, %rax
	cmpq	$16, %rax
	movq	%rax, -128(%rbp)        # 8-byte Spill
	jne	.LBB1_22
# %bb.21:                               # %for.inc9.6
	movl	$1, %eax
	movq	%rax, -136(%rbp)        # 8-byte Spill
	jmp	.LBB1_23
.LBB1_22:                               # %for.body3.3.6
                                        #   in Loop: Header=BB1_20 Depth=1
	movq	-128(%rbp), %rax        # 8-byte Reload
	addq	$96, %rax
	movq	-8(%rbp), %rcx          # 8-byte Reload
	movl	-4(%rcx,%rax,4), %edx
	movq	-128(%rbp), %rax        # 8-byte Reload
	addq	$96, %rax
	addl	(%rcx,%rax,4), %edx
	movl	%edx, (%rcx,%rax,4)
	movq	-128(%rbp), %rax        # 8-byte Reload
	addq	$1, %rax
	movq	%rax, -120(%rbp)        # 8-byte Spill
	jmp	.LBB1_20
.LBB1_23:                               # %for.body3.7
                                        # =>This Inner Loop Header: Depth=1
	movq	-136(%rbp), %rax        # 8-byte Reload
	movq	%rax, %rcx
	addq	$112, %rcx
	movq	-8(%rbp), %rdx          # 8-byte Reload
	movl	-4(%rdx,%rcx,4), %esi
	movq	%rax, %rcx
	addq	$112, %rcx
	addl	(%rdx,%rcx,4), %esi
	movl	%esi, (%rdx,%rcx,4)
	addq	$1, %rax
	movq	%rax, %rcx
	addq	$112, %rcx
	movl	-4(%rdx,%rcx,4), %esi
	movq	%rax, %rcx
	addq	$112, %rcx
	addl	(%rdx,%rcx,4), %esi
	movl	%esi, (%rdx,%rcx,4)
	addq	$1, %rax
	movq	%rax, %rcx
	addq	$112, %rcx
	movl	-4(%rdx,%rcx,4), %esi
	movq	%rax, %rcx
	addq	$112, %rcx
	addl	(%rdx,%rcx,4), %esi
	movl	%esi, (%rdx,%rcx,4)
	addq	$1, %rax
	cmpq	$16, %rax
	movq	%rax, -144(%rbp)        # 8-byte Spill
	jne	.LBB1_25
# %bb.24:                               # %for.inc9.7
	movl	$1, %eax
	movq	%rax, -152(%rbp)        # 8-byte Spill
	jmp	.LBB1_26
.LBB1_25:                               # %for.body3.3.7
                                        #   in Loop: Header=BB1_23 Depth=1
	movq	-144(%rbp), %rax        # 8-byte Reload
	addq	$112, %rax
	movq	-8(%rbp), %rcx          # 8-byte Reload
	movl	-4(%rcx,%rax,4), %edx
	movq	-144(%rbp), %rax        # 8-byte Reload
	addq	$112, %rax
	addl	(%rcx,%rax,4), %edx
	movl	%edx, (%rcx,%rax,4)
	movq	-144(%rbp), %rax        # 8-byte Reload
	addq	$1, %rax
	movq	%rax, -136(%rbp)        # 8-byte Spill
	jmp	.LBB1_23
.LBB1_26:                               # %for.body3.8
                                        # =>This Inner Loop Header: Depth=1
	movq	-152(%rbp), %rax        # 8-byte Reload
	movq	%rax, %rcx
	addq	$128, %rcx
	movq	-8(%rbp), %rdx          # 8-byte Reload
	movl	-4(%rdx,%rcx,4), %esi
	movq	%rax, %rcx
	addq	$128, %rcx
	addl	(%rdx,%rcx,4), %esi
	movl	%esi, (%rdx,%rcx,4)
	addq	$1, %rax
	movq	%rax, %rcx
	addq	$128, %rcx
	movl	-4(%rdx,%rcx,4), %esi
	movq	%rax, %rcx
	addq	$128, %rcx
	addl	(%rdx,%rcx,4), %esi
	movl	%esi, (%rdx,%rcx,4)
	addq	$1, %rax
	movq	%rax, %rcx
	addq	$128, %rcx
	movl	-4(%rdx,%rcx,4), %esi
	movq	%rax, %rcx
	addq	$128, %rcx
	addl	(%rdx,%rcx,4), %esi
	movl	%esi, (%rdx,%rcx,4)
	addq	$1, %rax
	cmpq	$16, %rax
	movq	%rax, -160(%rbp)        # 8-byte Spill
	jne	.LBB1_28
# %bb.27:                               # %for.inc9.8
	movl	$1, %eax
	movq	%rax, -168(%rbp)        # 8-byte Spill
	jmp	.LBB1_29
.LBB1_28:                               # %for.body3.3.8
                                        #   in Loop: Header=BB1_26 Depth=1
	movq	-160(%rbp), %rax        # 8-byte Reload
	addq	$128, %rax
	movq	-8(%rbp), %rcx          # 8-byte Reload
	movl	-4(%rcx,%rax,4), %edx
	movq	-160(%rbp), %rax        # 8-byte Reload
	addq	$128, %rax
	addl	(%rcx,%rax,4), %edx
	movl	%edx, (%rcx,%rax,4)
	movq	-160(%rbp), %rax        # 8-byte Reload
	addq	$1, %rax
	movq	%rax, -152(%rbp)        # 8-byte Spill
	jmp	.LBB1_26
.LBB1_29:                               # %for.body3.9
                                        # =>This Inner Loop Header: Depth=1
	movq	-168(%rbp), %rax        # 8-byte Reload
	movq	%rax, %rcx
	addq	$144, %rcx
	movq	-8(%rbp), %rdx          # 8-byte Reload
	movl	-4(%rdx,%rcx,4), %esi
	movq	%rax, %rcx
	addq	$144, %rcx
	addl	(%rdx,%rcx,4), %esi
	movl	%esi, (%rdx,%rcx,4)
	addq	$1, %rax
	movq	%rax, %rcx
	addq	$144, %rcx
	movl	-4(%rdx,%rcx,4), %esi
	movq	%rax, %rcx
	addq	$144, %rcx
	addl	(%rdx,%rcx,4), %esi
	movl	%esi, (%rdx,%rcx,4)
	addq	$1, %rax
	movq	%rax, %rcx
	addq	$144, %rcx
	movl	-4(%rdx,%rcx,4), %esi
	movq	%rax, %rcx
	addq	$144, %rcx
	addl	(%rdx,%rcx,4), %esi
	movl	%esi, (%rdx,%rcx,4)
	addq	$1, %rax
	cmpq	$16, %rax
	movq	%rax, -176(%rbp)        # 8-byte Spill
	jne	.LBB1_31
# %bb.30:                               # %for.inc9.9
	movl	$1, %eax
	movq	%rax, -184(%rbp)        # 8-byte Spill
	jmp	.LBB1_32
.LBB1_31:                               # %for.body3.3.9
                                        #   in Loop: Header=BB1_29 Depth=1
	movq	-176(%rbp), %rax        # 8-byte Reload
	addq	$144, %rax
	movq	-8(%rbp), %rcx          # 8-byte Reload
	movl	-4(%rcx,%rax,4), %edx
	movq	-176(%rbp), %rax        # 8-byte Reload
	addq	$144, %rax
	addl	(%rcx,%rax,4), %edx
	movl	%edx, (%rcx,%rax,4)
	movq	-176(%rbp), %rax        # 8-byte Reload
	addq	$1, %rax
	movq	%rax, -168(%rbp)        # 8-byte Spill
	jmp	.LBB1_29
.LBB1_32:                               # %for.body3.10
                                        # =>This Inner Loop Header: Depth=1
	movq	-184(%rbp), %rax        # 8-byte Reload
	movq	%rax, %rcx
	addq	$160, %rcx
	movq	-8(%rbp), %rdx          # 8-byte Reload
	movl	-4(%rdx,%rcx,4), %esi
	movq	%rax, %rcx
	addq	$160, %rcx
	addl	(%rdx,%rcx,4), %esi
	movl	%esi, (%rdx,%rcx,4)
	addq	$1, %rax
	movq	%rax, %rcx
	addq	$160, %rcx
	movl	-4(%rdx,%rcx,4), %esi
	movq	%rax, %rcx
	addq	$160, %rcx
	addl	(%rdx,%rcx,4), %esi
	movl	%esi, (%rdx,%rcx,4)
	addq	$1, %rax
	movq	%rax, %rcx
	addq	$160, %rcx
	movl	-4(%rdx,%rcx,4), %esi
	movq	%rax, %rcx
	addq	$160, %rcx
	addl	(%rdx,%rcx,4), %esi
	movl	%esi, (%rdx,%rcx,4)
	addq	$1, %rax
	cmpq	$16, %rax
	movq	%rax, -192(%rbp)        # 8-byte Spill
	jne	.LBB1_34
# %bb.33:                               # %for.inc9.10
	movl	$1, %eax
	movq	%rax, -200(%rbp)        # 8-byte Spill
	jmp	.LBB1_35
.LBB1_34:                               # %for.body3.3.10
                                        #   in Loop: Header=BB1_32 Depth=1
	movq	-192(%rbp), %rax        # 8-byte Reload
	addq	$160, %rax
	movq	-8(%rbp), %rcx          # 8-byte Reload
	movl	-4(%rcx,%rax,4), %edx
	movq	-192(%rbp), %rax        # 8-byte Reload
	addq	$160, %rax
	addl	(%rcx,%rax,4), %edx
	movl	%edx, (%rcx,%rax,4)
	movq	-192(%rbp), %rax        # 8-byte Reload
	addq	$1, %rax
	movq	%rax, -184(%rbp)        # 8-byte Spill
	jmp	.LBB1_32
.LBB1_35:                               # %for.body3.11
                                        # =>This Inner Loop Header: Depth=1
	movq	-200(%rbp), %rax        # 8-byte Reload
	movq	%rax, %rcx
	addq	$176, %rcx
	movq	-8(%rbp), %rdx          # 8-byte Reload
	movl	-4(%rdx,%rcx,4), %esi
	movq	%rax, %rcx
	addq	$176, %rcx
	addl	(%rdx,%rcx,4), %esi
	movl	%esi, (%rdx,%rcx,4)
	addq	$1, %rax
	movq	%rax, %rcx
	addq	$176, %rcx
	movl	-4(%rdx,%rcx,4), %esi
	movq	%rax, %rcx
	addq	$176, %rcx
	addl	(%rdx,%rcx,4), %esi
	movl	%esi, (%rdx,%rcx,4)
	addq	$1, %rax
	movq	%rax, %rcx
	addq	$176, %rcx
	movl	-4(%rdx,%rcx,4), %esi
	movq	%rax, %rcx
	addq	$176, %rcx
	addl	(%rdx,%rcx,4), %esi
	movl	%esi, (%rdx,%rcx,4)
	addq	$1, %rax
	cmpq	$16, %rax
	movq	%rax, -208(%rbp)        # 8-byte Spill
	jne	.LBB1_37
# %bb.36:                               # %for.inc9.11
	movl	$1, %eax
	movq	%rax, -216(%rbp)        # 8-byte Spill
	jmp	.LBB1_38
.LBB1_37:                               # %for.body3.3.11
                                        #   in Loop: Header=BB1_35 Depth=1
	movq	-208(%rbp), %rax        # 8-byte Reload
	addq	$176, %rax
	movq	-8(%rbp), %rcx          # 8-byte Reload
	movl	-4(%rcx,%rax,4), %edx
	movq	-208(%rbp), %rax        # 8-byte Reload
	addq	$176, %rax
	addl	(%rcx,%rax,4), %edx
	movl	%edx, (%rcx,%rax,4)
	movq	-208(%rbp), %rax        # 8-byte Reload
	addq	$1, %rax
	movq	%rax, -200(%rbp)        # 8-byte Spill
	jmp	.LBB1_35
.LBB1_38:                               # %for.body3.12
                                        # =>This Inner Loop Header: Depth=1
	movq	-216(%rbp), %rax        # 8-byte Reload
	movq	%rax, %rcx
	addq	$192, %rcx
	movq	-8(%rbp), %rdx          # 8-byte Reload
	movl	-4(%rdx,%rcx,4), %esi
	movq	%rax, %rcx
	addq	$192, %rcx
	addl	(%rdx,%rcx,4), %esi
	movl	%esi, (%rdx,%rcx,4)
	addq	$1, %rax
	movq	%rax, %rcx
	addq	$192, %rcx
	movl	-4(%rdx,%rcx,4), %esi
	movq	%rax, %rcx
	addq	$192, %rcx
	addl	(%rdx,%rcx,4), %esi
	movl	%esi, (%rdx,%rcx,4)
	addq	$1, %rax
	movq	%rax, %rcx
	addq	$192, %rcx
	movl	-4(%rdx,%rcx,4), %esi
	movq	%rax, %rcx
	addq	$192, %rcx
	addl	(%rdx,%rcx,4), %esi
	movl	%esi, (%rdx,%rcx,4)
	addq	$1, %rax
	cmpq	$16, %rax
	movq	%rax, -224(%rbp)        # 8-byte Spill
	jne	.LBB1_40
# %bb.39:                               # %for.inc9.12
	movl	$1, %eax
	movq	%rax, -232(%rbp)        # 8-byte Spill
	jmp	.LBB1_41
.LBB1_40:                               # %for.body3.3.12
                                        #   in Loop: Header=BB1_38 Depth=1
	movq	-224(%rbp), %rax        # 8-byte Reload
	addq	$192, %rax
	movq	-8(%rbp), %rcx          # 8-byte Reload
	movl	-4(%rcx,%rax,4), %edx
	movq	-224(%rbp), %rax        # 8-byte Reload
	addq	$192, %rax
	addl	(%rcx,%rax,4), %edx
	movl	%edx, (%rcx,%rax,4)
	movq	-224(%rbp), %rax        # 8-byte Reload
	addq	$1, %rax
	movq	%rax, -216(%rbp)        # 8-byte Spill
	jmp	.LBB1_38
.LBB1_41:                               # %for.body3.13
                                        # =>This Inner Loop Header: Depth=1
	movq	-232(%rbp), %rax        # 8-byte Reload
	movq	%rax, %rcx
	addq	$208, %rcx
	movq	-8(%rbp), %rdx          # 8-byte Reload
	movl	-4(%rdx,%rcx,4), %esi
	movq	%rax, %rcx
	addq	$208, %rcx
	addl	(%rdx,%rcx,4), %esi
	movl	%esi, (%rdx,%rcx,4)
	addq	$1, %rax
	movq	%rax, %rcx
	addq	$208, %rcx
	movl	-4(%rdx,%rcx,4), %esi
	movq	%rax, %rcx
	addq	$208, %rcx
	addl	(%rdx,%rcx,4), %esi
	movl	%esi, (%rdx,%rcx,4)
	addq	$1, %rax
	movq	%rax, %rcx
	addq	$208, %rcx
	movl	-4(%rdx,%rcx,4), %esi
	movq	%rax, %rcx
	addq	$208, %rcx
	addl	(%rdx,%rcx,4), %esi
	movl	%esi, (%rdx,%rcx,4)
	addq	$1, %rax
	cmpq	$16, %rax
	movq	%rax, -240(%rbp)        # 8-byte Spill
	jne	.LBB1_43
# %bb.42:                               # %for.inc9.13
	movl	$1, %eax
	movq	%rax, -248(%rbp)        # 8-byte Spill
	jmp	.LBB1_44
.LBB1_43:                               # %for.body3.3.13
                                        #   in Loop: Header=BB1_41 Depth=1
	movq	-240(%rbp), %rax        # 8-byte Reload
	addq	$208, %rax
	movq	-8(%rbp), %rcx          # 8-byte Reload
	movl	-4(%rcx,%rax,4), %edx
	movq	-240(%rbp), %rax        # 8-byte Reload
	addq	$208, %rax
	addl	(%rcx,%rax,4), %edx
	movl	%edx, (%rcx,%rax,4)
	movq	-240(%rbp), %rax        # 8-byte Reload
	addq	$1, %rax
	movq	%rax, -232(%rbp)        # 8-byte Spill
	jmp	.LBB1_41
.LBB1_44:                               # %for.body3.14
                                        # =>This Inner Loop Header: Depth=1
	movq	-248(%rbp), %rax        # 8-byte Reload
	movq	%rax, %rcx
	addq	$224, %rcx
	movq	-8(%rbp), %rdx          # 8-byte Reload
	movl	-4(%rdx,%rcx,4), %esi
	movq	%rax, %rcx
	addq	$224, %rcx
	addl	(%rdx,%rcx,4), %esi
	movl	%esi, (%rdx,%rcx,4)
	addq	$1, %rax
	movq	%rax, %rcx
	addq	$224, %rcx
	movl	-4(%rdx,%rcx,4), %esi
	movq	%rax, %rcx
	addq	$224, %rcx
	addl	(%rdx,%rcx,4), %esi
	movl	%esi, (%rdx,%rcx,4)
	addq	$1, %rax
	movq	%rax, %rcx
	addq	$224, %rcx
	movl	-4(%rdx,%rcx,4), %esi
	movq	%rax, %rcx
	addq	$224, %rcx
	addl	(%rdx,%rcx,4), %esi
	movl	%esi, (%rdx,%rcx,4)
	addq	$1, %rax
	cmpq	$16, %rax
	movq	%rax, -256(%rbp)        # 8-byte Spill
	jne	.LBB1_46
# %bb.45:                               # %for.inc9.14
	movl	$1, %eax
	movq	%rax, -264(%rbp)        # 8-byte Spill
	jmp	.LBB1_47
.LBB1_46:                               # %for.body3.3.14
                                        #   in Loop: Header=BB1_44 Depth=1
	movq	-256(%rbp), %rax        # 8-byte Reload
	addq	$224, %rax
	movq	-8(%rbp), %rcx          # 8-byte Reload
	movl	-4(%rcx,%rax,4), %edx
	movq	-256(%rbp), %rax        # 8-byte Reload
	addq	$224, %rax
	addl	(%rcx,%rax,4), %edx
	movl	%edx, (%rcx,%rax,4)
	movq	-256(%rbp), %rax        # 8-byte Reload
	addq	$1, %rax
	movq	%rax, -248(%rbp)        # 8-byte Spill
	jmp	.LBB1_44
.LBB1_47:                               # %for.body3.15
                                        # =>This Inner Loop Header: Depth=1
	movq	-264(%rbp), %rax        # 8-byte Reload
	movq	%rax, %rcx
	addq	$240, %rcx
	movq	-8(%rbp), %rdx          # 8-byte Reload
	movl	-4(%rdx,%rcx,4), %esi
	movq	%rax, %rcx
	addq	$240, %rcx
	addl	(%rdx,%rcx,4), %esi
	movl	%esi, (%rdx,%rcx,4)
	addq	$1, %rax
	movq	%rax, %rcx
	addq	$240, %rcx
	movl	-4(%rdx,%rcx,4), %esi
	movq	%rax, %rcx
	addq	$240, %rcx
	addl	(%rdx,%rcx,4), %esi
	movl	%esi, (%rdx,%rcx,4)
	addq	$1, %rax
	movq	%rax, %rcx
	addq	$240, %rcx
	movl	-4(%rdx,%rcx,4), %esi
	movq	%rax, %rcx
	addq	$240, %rcx
	addl	(%rdx,%rcx,4), %esi
	movl	%esi, (%rdx,%rcx,4)
	addq	$1, %rax
	cmpq	$16, %rax
	movq	%rax, -272(%rbp)        # 8-byte Spill
	jne	.LBB1_49
# %bb.48:                               # %for.inc9.15
	movl	$1, %eax
	movq	%rax, -280(%rbp)        # 8-byte Spill
	jmp	.LBB1_50
.LBB1_49:                               # %for.body3.3.15
                                        #   in Loop: Header=BB1_47 Depth=1
	movq	-272(%rbp), %rax        # 8-byte Reload
	addq	$240, %rax
	movq	-8(%rbp), %rcx          # 8-byte Reload
	movl	-4(%rcx,%rax,4), %edx
	movq	-272(%rbp), %rax        # 8-byte Reload
	addq	$240, %rax
	addl	(%rcx,%rax,4), %edx
	movl	%edx, (%rcx,%rax,4)
	movq	-272(%rbp), %rax        # 8-byte Reload
	addq	$1, %rax
	movq	%rax, -264(%rbp)        # 8-byte Spill
	jmp	.LBB1_47
.LBB1_50:                               # %for.body3.16
                                        # =>This Inner Loop Header: Depth=1
	movq	-280(%rbp), %rax        # 8-byte Reload
	movq	%rax, %rcx
	addq	$256, %rcx              # imm = 0x100
	movq	-8(%rbp), %rdx          # 8-byte Reload
	movl	-4(%rdx,%rcx,4), %esi
	movq	%rax, %rcx
	addq	$256, %rcx              # imm = 0x100
	addl	(%rdx,%rcx,4), %esi
	movl	%esi, (%rdx,%rcx,4)
	addq	$1, %rax
	movq	%rax, %rcx
	addq	$256, %rcx              # imm = 0x100
	movl	-4(%rdx,%rcx,4), %esi
	movq	%rax, %rcx
	addq	$256, %rcx              # imm = 0x100
	addl	(%rdx,%rcx,4), %esi
	movl	%esi, (%rdx,%rcx,4)
	addq	$1, %rax
	movq	%rax, %rcx
	addq	$256, %rcx              # imm = 0x100
	movl	-4(%rdx,%rcx,4), %esi
	movq	%rax, %rcx
	addq	$256, %rcx              # imm = 0x100
	addl	(%rdx,%rcx,4), %esi
	movl	%esi, (%rdx,%rcx,4)
	addq	$1, %rax
	cmpq	$16, %rax
	movq	%rax, -288(%rbp)        # 8-byte Spill
	jne	.LBB1_52
# %bb.51:                               # %for.inc9.16
	movl	$1, %eax
	movq	%rax, -296(%rbp)        # 8-byte Spill
	jmp	.LBB1_53
.LBB1_52:                               # %for.body3.3.16
                                        #   in Loop: Header=BB1_50 Depth=1
	movq	-288(%rbp), %rax        # 8-byte Reload
	addq	$256, %rax              # imm = 0x100
	movq	-8(%rbp), %rcx          # 8-byte Reload
	movl	-4(%rcx,%rax,4), %edx
	movq	-288(%rbp), %rax        # 8-byte Reload
	addq	$256, %rax              # imm = 0x100
	addl	(%rcx,%rax,4), %edx
	movl	%edx, (%rcx,%rax,4)
	movq	-288(%rbp), %rax        # 8-byte Reload
	addq	$1, %rax
	movq	%rax, -280(%rbp)        # 8-byte Spill
	jmp	.LBB1_50
.LBB1_53:                               # %for.body3.17
                                        # =>This Inner Loop Header: Depth=1
	movq	-296(%rbp), %rax        # 8-byte Reload
	movq	%rax, %rcx
	addq	$272, %rcx              # imm = 0x110
	movq	-8(%rbp), %rdx          # 8-byte Reload
	movl	-4(%rdx,%rcx,4), %esi
	movq	%rax, %rcx
	addq	$272, %rcx              # imm = 0x110
	addl	(%rdx,%rcx,4), %esi
	movl	%esi, (%rdx,%rcx,4)
	addq	$1, %rax
	movq	%rax, %rcx
	addq	$272, %rcx              # imm = 0x110
	movl	-4(%rdx,%rcx,4), %esi
	movq	%rax, %rcx
	addq	$272, %rcx              # imm = 0x110
	addl	(%rdx,%rcx,4), %esi
	movl	%esi, (%rdx,%rcx,4)
	addq	$1, %rax
	movq	%rax, %rcx
	addq	$272, %rcx              # imm = 0x110
	movl	-4(%rdx,%rcx,4), %esi
	movq	%rax, %rcx
	addq	$272, %rcx              # imm = 0x110
	addl	(%rdx,%rcx,4), %esi
	movl	%esi, (%rdx,%rcx,4)
	addq	$1, %rax
	cmpq	$16, %rax
	movq	%rax, -304(%rbp)        # 8-byte Spill
	jne	.LBB1_55
# %bb.54:                               # %for.inc9.17
	movl	$1, %eax
	movq	%rax, -312(%rbp)        # 8-byte Spill
	jmp	.LBB1_56
.LBB1_55:                               # %for.body3.3.17
                                        #   in Loop: Header=BB1_53 Depth=1
	movq	-304(%rbp), %rax        # 8-byte Reload
	addq	$272, %rax              # imm = 0x110
	movq	-8(%rbp), %rcx          # 8-byte Reload
	movl	-4(%rcx,%rax,4), %edx
	movq	-304(%rbp), %rax        # 8-byte Reload
	addq	$272, %rax              # imm = 0x110
	addl	(%rcx,%rax,4), %edx
	movl	%edx, (%rcx,%rax,4)
	movq	-304(%rbp), %rax        # 8-byte Reload
	addq	$1, %rax
	movq	%rax, -296(%rbp)        # 8-byte Spill
	jmp	.LBB1_53
.LBB1_56:                               # %for.body3.18
                                        # =>This Inner Loop Header: Depth=1
	movq	-312(%rbp), %rax        # 8-byte Reload
	movq	%rax, %rcx
	addq	$288, %rcx              # imm = 0x120
	movq	-8(%rbp), %rdx          # 8-byte Reload
	movl	-4(%rdx,%rcx,4), %esi
	movq	%rax, %rcx
	addq	$288, %rcx              # imm = 0x120
	addl	(%rdx,%rcx,4), %esi
	movl	%esi, (%rdx,%rcx,4)
	addq	$1, %rax
	movq	%rax, %rcx
	addq	$288, %rcx              # imm = 0x120
	movl	-4(%rdx,%rcx,4), %esi
	movq	%rax, %rcx
	addq	$288, %rcx              # imm = 0x120
	addl	(%rdx,%rcx,4), %esi
	movl	%esi, (%rdx,%rcx,4)
	addq	$1, %rax
	movq	%rax, %rcx
	addq	$288, %rcx              # imm = 0x120
	movl	-4(%rdx,%rcx,4), %esi
	movq	%rax, %rcx
	addq	$288, %rcx              # imm = 0x120
	addl	(%rdx,%rcx,4), %esi
	movl	%esi, (%rdx,%rcx,4)
	addq	$1, %rax
	cmpq	$16, %rax
	movq	%rax, -320(%rbp)        # 8-byte Spill
	jne	.LBB1_58
# %bb.57:                               # %for.inc9.18
	movl	$1, %eax
	movq	%rax, -328(%rbp)        # 8-byte Spill
	jmp	.LBB1_59
.LBB1_58:                               # %for.body3.3.18
                                        #   in Loop: Header=BB1_56 Depth=1
	movq	-320(%rbp), %rax        # 8-byte Reload
	addq	$288, %rax              # imm = 0x120
	movq	-8(%rbp), %rcx          # 8-byte Reload
	movl	-4(%rcx,%rax,4), %edx
	movq	-320(%rbp), %rax        # 8-byte Reload
	addq	$288, %rax              # imm = 0x120
	addl	(%rcx,%rax,4), %edx
	movl	%edx, (%rcx,%rax,4)
	movq	-320(%rbp), %rax        # 8-byte Reload
	addq	$1, %rax
	movq	%rax, -312(%rbp)        # 8-byte Spill
	jmp	.LBB1_56
.LBB1_59:                               # %for.body3.19
                                        # =>This Inner Loop Header: Depth=1
	movq	-328(%rbp), %rax        # 8-byte Reload
	movq	%rax, %rcx
	addq	$304, %rcx              # imm = 0x130
	movq	-8(%rbp), %rdx          # 8-byte Reload
	movl	-4(%rdx,%rcx,4), %esi
	movq	%rax, %rcx
	addq	$304, %rcx              # imm = 0x130
	addl	(%rdx,%rcx,4), %esi
	movl	%esi, (%rdx,%rcx,4)
	addq	$1, %rax
	movq	%rax, %rcx
	addq	$304, %rcx              # imm = 0x130
	movl	-4(%rdx,%rcx,4), %esi
	movq	%rax, %rcx
	addq	$304, %rcx              # imm = 0x130
	addl	(%rdx,%rcx,4), %esi
	movl	%esi, (%rdx,%rcx,4)
	addq	$1, %rax
	movq	%rax, %rcx
	addq	$304, %rcx              # imm = 0x130
	movl	-4(%rdx,%rcx,4), %esi
	movq	%rax, %rcx
	addq	$304, %rcx              # imm = 0x130
	addl	(%rdx,%rcx,4), %esi
	movl	%esi, (%rdx,%rcx,4)
	addq	$1, %rax
	cmpq	$16, %rax
	movq	%rax, -336(%rbp)        # 8-byte Spill
	jne	.LBB1_61
# %bb.60:                               # %for.inc9.19
	movl	$1, %eax
	movq	%rax, -344(%rbp)        # 8-byte Spill
	jmp	.LBB1_62
.LBB1_61:                               # %for.body3.3.19
                                        #   in Loop: Header=BB1_59 Depth=1
	movq	-336(%rbp), %rax        # 8-byte Reload
	addq	$304, %rax              # imm = 0x130
	movq	-8(%rbp), %rcx          # 8-byte Reload
	movl	-4(%rcx,%rax,4), %edx
	movq	-336(%rbp), %rax        # 8-byte Reload
	addq	$304, %rax              # imm = 0x130
	addl	(%rcx,%rax,4), %edx
	movl	%edx, (%rcx,%rax,4)
	movq	-336(%rbp), %rax        # 8-byte Reload
	addq	$1, %rax
	movq	%rax, -328(%rbp)        # 8-byte Spill
	jmp	.LBB1_59
.LBB1_62:                               # %for.body3.20
                                        # =>This Inner Loop Header: Depth=1
	movq	-344(%rbp), %rax        # 8-byte Reload
	movq	%rax, %rcx
	addq	$320, %rcx              # imm = 0x140
	movq	-8(%rbp), %rdx          # 8-byte Reload
	movl	-4(%rdx,%rcx,4), %esi
	movq	%rax, %rcx
	addq	$320, %rcx              # imm = 0x140
	addl	(%rdx,%rcx,4), %esi
	movl	%esi, (%rdx,%rcx,4)
	addq	$1, %rax
	movq	%rax, %rcx
	addq	$320, %rcx              # imm = 0x140
	movl	-4(%rdx,%rcx,4), %esi
	movq	%rax, %rcx
	addq	$320, %rcx              # imm = 0x140
	addl	(%rdx,%rcx,4), %esi
	movl	%esi, (%rdx,%rcx,4)
	addq	$1, %rax
	movq	%rax, %rcx
	addq	$320, %rcx              # imm = 0x140
	movl	-4(%rdx,%rcx,4), %esi
	movq	%rax, %rcx
	addq	$320, %rcx              # imm = 0x140
	addl	(%rdx,%rcx,4), %esi
	movl	%esi, (%rdx,%rcx,4)
	addq	$1, %rax
	cmpq	$16, %rax
	movq	%rax, -352(%rbp)        # 8-byte Spill
	jne	.LBB1_64
# %bb.63:                               # %for.inc9.20
	movl	$1, %eax
	movq	%rax, -360(%rbp)        # 8-byte Spill
	jmp	.LBB1_65
.LBB1_64:                               # %for.body3.3.20
                                        #   in Loop: Header=BB1_62 Depth=1
	movq	-352(%rbp), %rax        # 8-byte Reload
	addq	$320, %rax              # imm = 0x140
	movq	-8(%rbp), %rcx          # 8-byte Reload
	movl	-4(%rcx,%rax,4), %edx
	movq	-352(%rbp), %rax        # 8-byte Reload
	addq	$320, %rax              # imm = 0x140
	addl	(%rcx,%rax,4), %edx
	movl	%edx, (%rcx,%rax,4)
	movq	-352(%rbp), %rax        # 8-byte Reload
	addq	$1, %rax
	movq	%rax, -344(%rbp)        # 8-byte Spill
	jmp	.LBB1_62
.LBB1_65:                               # %for.body3.21
                                        # =>This Inner Loop Header: Depth=1
	movq	-360(%rbp), %rax        # 8-byte Reload
	movq	%rax, %rcx
	addq	$336, %rcx              # imm = 0x150
	movq	-8(%rbp), %rdx          # 8-byte Reload
	movl	-4(%rdx,%rcx,4), %esi
	movq	%rax, %rcx
	addq	$336, %rcx              # imm = 0x150
	addl	(%rdx,%rcx,4), %esi
	movl	%esi, (%rdx,%rcx,4)
	addq	$1, %rax
	movq	%rax, %rcx
	addq	$336, %rcx              # imm = 0x150
	movl	-4(%rdx,%rcx,4), %esi
	movq	%rax, %rcx
	addq	$336, %rcx              # imm = 0x150
	addl	(%rdx,%rcx,4), %esi
	movl	%esi, (%rdx,%rcx,4)
	addq	$1, %rax
	movq	%rax, %rcx
	addq	$336, %rcx              # imm = 0x150
	movl	-4(%rdx,%rcx,4), %esi
	movq	%rax, %rcx
	addq	$336, %rcx              # imm = 0x150
	addl	(%rdx,%rcx,4), %esi
	movl	%esi, (%rdx,%rcx,4)
	addq	$1, %rax
	cmpq	$16, %rax
	movq	%rax, -368(%rbp)        # 8-byte Spill
	jne	.LBB1_67
# %bb.66:                               # %for.inc9.21
	movl	$1, %eax
	movq	%rax, -376(%rbp)        # 8-byte Spill
	jmp	.LBB1_68
.LBB1_67:                               # %for.body3.3.21
                                        #   in Loop: Header=BB1_65 Depth=1
	movq	-368(%rbp), %rax        # 8-byte Reload
	addq	$336, %rax              # imm = 0x150
	movq	-8(%rbp), %rcx          # 8-byte Reload
	movl	-4(%rcx,%rax,4), %edx
	movq	-368(%rbp), %rax        # 8-byte Reload
	addq	$336, %rax              # imm = 0x150
	addl	(%rcx,%rax,4), %edx
	movl	%edx, (%rcx,%rax,4)
	movq	-368(%rbp), %rax        # 8-byte Reload
	addq	$1, %rax
	movq	%rax, -360(%rbp)        # 8-byte Spill
	jmp	.LBB1_65
.LBB1_68:                               # %for.body3.22
                                        # =>This Inner Loop Header: Depth=1
	movq	-376(%rbp), %rax        # 8-byte Reload
	movq	%rax, %rcx
	addq	$352, %rcx              # imm = 0x160
	movq	-8(%rbp), %rdx          # 8-byte Reload
	movl	-4(%rdx,%rcx,4), %esi
	movq	%rax, %rcx
	addq	$352, %rcx              # imm = 0x160
	addl	(%rdx,%rcx,4), %esi
	movl	%esi, (%rdx,%rcx,4)
	addq	$1, %rax
	movq	%rax, %rcx
	addq	$352, %rcx              # imm = 0x160
	movl	-4(%rdx,%rcx,4), %esi
	movq	%rax, %rcx
	addq	$352, %rcx              # imm = 0x160
	addl	(%rdx,%rcx,4), %esi
	movl	%esi, (%rdx,%rcx,4)
	addq	$1, %rax
	movq	%rax, %rcx
	addq	$352, %rcx              # imm = 0x160
	movl	-4(%rdx,%rcx,4), %esi
	movq	%rax, %rcx
	addq	$352, %rcx              # imm = 0x160
	addl	(%rdx,%rcx,4), %esi
	movl	%esi, (%rdx,%rcx,4)
	addq	$1, %rax
	cmpq	$16, %rax
	movq	%rax, -384(%rbp)        # 8-byte Spill
	jne	.LBB1_70
# %bb.69:                               # %for.inc9.22
	movl	$1, %eax
	movq	%rax, -392(%rbp)        # 8-byte Spill
	jmp	.LBB1_71
.LBB1_70:                               # %for.body3.3.22
                                        #   in Loop: Header=BB1_68 Depth=1
	movq	-384(%rbp), %rax        # 8-byte Reload
	addq	$352, %rax              # imm = 0x160
	movq	-8(%rbp), %rcx          # 8-byte Reload
	movl	-4(%rcx,%rax,4), %edx
	movq	-384(%rbp), %rax        # 8-byte Reload
	addq	$352, %rax              # imm = 0x160
	addl	(%rcx,%rax,4), %edx
	movl	%edx, (%rcx,%rax,4)
	movq	-384(%rbp), %rax        # 8-byte Reload
	addq	$1, %rax
	movq	%rax, -376(%rbp)        # 8-byte Spill
	jmp	.LBB1_68
.LBB1_71:                               # %for.body3.23
                                        # =>This Inner Loop Header: Depth=1
	movq	-392(%rbp), %rax        # 8-byte Reload
	movq	%rax, %rcx
	addq	$368, %rcx              # imm = 0x170
	movq	-8(%rbp), %rdx          # 8-byte Reload
	movl	-4(%rdx,%rcx,4), %esi
	movq	%rax, %rcx
	addq	$368, %rcx              # imm = 0x170
	addl	(%rdx,%rcx,4), %esi
	movl	%esi, (%rdx,%rcx,4)
	addq	$1, %rax
	movq	%rax, %rcx
	addq	$368, %rcx              # imm = 0x170
	movl	-4(%rdx,%rcx,4), %esi
	movq	%rax, %rcx
	addq	$368, %rcx              # imm = 0x170
	addl	(%rdx,%rcx,4), %esi
	movl	%esi, (%rdx,%rcx,4)
	addq	$1, %rax
	movq	%rax, %rcx
	addq	$368, %rcx              # imm = 0x170
	movl	-4(%rdx,%rcx,4), %esi
	movq	%rax, %rcx
	addq	$368, %rcx              # imm = 0x170
	addl	(%rdx,%rcx,4), %esi
	movl	%esi, (%rdx,%rcx,4)
	addq	$1, %rax
	cmpq	$16, %rax
	movq	%rax, -400(%rbp)        # 8-byte Spill
	jne	.LBB1_73
# %bb.72:                               # %for.inc9.23
	movl	$1, %eax
	movq	%rax, -408(%rbp)        # 8-byte Spill
	jmp	.LBB1_74
.LBB1_73:                               # %for.body3.3.23
                                        #   in Loop: Header=BB1_71 Depth=1
	movq	-400(%rbp), %rax        # 8-byte Reload
	addq	$368, %rax              # imm = 0x170
	movq	-8(%rbp), %rcx          # 8-byte Reload
	movl	-4(%rcx,%rax,4), %edx
	movq	-400(%rbp), %rax        # 8-byte Reload
	addq	$368, %rax              # imm = 0x170
	addl	(%rcx,%rax,4), %edx
	movl	%edx, (%rcx,%rax,4)
	movq	-400(%rbp), %rax        # 8-byte Reload
	addq	$1, %rax
	movq	%rax, -392(%rbp)        # 8-byte Spill
	jmp	.LBB1_71
.LBB1_74:                               # %for.body3.24
                                        # =>This Inner Loop Header: Depth=1
	movq	-408(%rbp), %rax        # 8-byte Reload
	movq	%rax, %rcx
	addq	$384, %rcx              # imm = 0x180
	movq	-8(%rbp), %rdx          # 8-byte Reload
	movl	-4(%rdx,%rcx,4), %esi
	movq	%rax, %rcx
	addq	$384, %rcx              # imm = 0x180
	addl	(%rdx,%rcx,4), %esi
	movl	%esi, (%rdx,%rcx,4)
	addq	$1, %rax
	movq	%rax, %rcx
	addq	$384, %rcx              # imm = 0x180
	movl	-4(%rdx,%rcx,4), %esi
	movq	%rax, %rcx
	addq	$384, %rcx              # imm = 0x180
	addl	(%rdx,%rcx,4), %esi
	movl	%esi, (%rdx,%rcx,4)
	addq	$1, %rax
	movq	%rax, %rcx
	addq	$384, %rcx              # imm = 0x180
	movl	-4(%rdx,%rcx,4), %esi
	movq	%rax, %rcx
	addq	$384, %rcx              # imm = 0x180
	addl	(%rdx,%rcx,4), %esi
	movl	%esi, (%rdx,%rcx,4)
	addq	$1, %rax
	cmpq	$16, %rax
	movq	%rax, -416(%rbp)        # 8-byte Spill
	jne	.LBB1_76
# %bb.75:                               # %for.inc9.24
	movl	$1, %eax
	movq	%rax, -424(%rbp)        # 8-byte Spill
	jmp	.LBB1_77
.LBB1_76:                               # %for.body3.3.24
                                        #   in Loop: Header=BB1_74 Depth=1
	movq	-416(%rbp), %rax        # 8-byte Reload
	addq	$384, %rax              # imm = 0x180
	movq	-8(%rbp), %rcx          # 8-byte Reload
	movl	-4(%rcx,%rax,4), %edx
	movq	-416(%rbp), %rax        # 8-byte Reload
	addq	$384, %rax              # imm = 0x180
	addl	(%rcx,%rax,4), %edx
	movl	%edx, (%rcx,%rax,4)
	movq	-416(%rbp), %rax        # 8-byte Reload
	addq	$1, %rax
	movq	%rax, -408(%rbp)        # 8-byte Spill
	jmp	.LBB1_74
.LBB1_77:                               # %for.body3.25
                                        # =>This Inner Loop Header: Depth=1
	movq	-424(%rbp), %rax        # 8-byte Reload
	movq	%rax, %rcx
	addq	$400, %rcx              # imm = 0x190
	movq	-8(%rbp), %rdx          # 8-byte Reload
	movl	-4(%rdx,%rcx,4), %esi
	movq	%rax, %rcx
	addq	$400, %rcx              # imm = 0x190
	addl	(%rdx,%rcx,4), %esi
	movl	%esi, (%rdx,%rcx,4)
	addq	$1, %rax
	movq	%rax, %rcx
	addq	$400, %rcx              # imm = 0x190
	movl	-4(%rdx,%rcx,4), %esi
	movq	%rax, %rcx
	addq	$400, %rcx              # imm = 0x190
	addl	(%rdx,%rcx,4), %esi
	movl	%esi, (%rdx,%rcx,4)
	addq	$1, %rax
	movq	%rax, %rcx
	addq	$400, %rcx              # imm = 0x190
	movl	-4(%rdx,%rcx,4), %esi
	movq	%rax, %rcx
	addq	$400, %rcx              # imm = 0x190
	addl	(%rdx,%rcx,4), %esi
	movl	%esi, (%rdx,%rcx,4)
	addq	$1, %rax
	cmpq	$16, %rax
	movq	%rax, -432(%rbp)        # 8-byte Spill
	jne	.LBB1_79
# %bb.78:                               # %for.inc9.25
	movl	$1, %eax
	movq	%rax, -440(%rbp)        # 8-byte Spill
	jmp	.LBB1_80
.LBB1_79:                               # %for.body3.3.25
                                        #   in Loop: Header=BB1_77 Depth=1
	movq	-432(%rbp), %rax        # 8-byte Reload
	addq	$400, %rax              # imm = 0x190
	movq	-8(%rbp), %rcx          # 8-byte Reload
	movl	-4(%rcx,%rax,4), %edx
	movq	-432(%rbp), %rax        # 8-byte Reload
	addq	$400, %rax              # imm = 0x190
	addl	(%rcx,%rax,4), %edx
	movl	%edx, (%rcx,%rax,4)
	movq	-432(%rbp), %rax        # 8-byte Reload
	addq	$1, %rax
	movq	%rax, -424(%rbp)        # 8-byte Spill
	jmp	.LBB1_77
.LBB1_80:                               # %for.body3.26
                                        # =>This Inner Loop Header: Depth=1
	movq	-440(%rbp), %rax        # 8-byte Reload
	movq	%rax, %rcx
	addq	$416, %rcx              # imm = 0x1A0
	movq	-8(%rbp), %rdx          # 8-byte Reload
	movl	-4(%rdx,%rcx,4), %esi
	movq	%rax, %rcx
	addq	$416, %rcx              # imm = 0x1A0
	addl	(%rdx,%rcx,4), %esi
	movl	%esi, (%rdx,%rcx,4)
	addq	$1, %rax
	movq	%rax, %rcx
	addq	$416, %rcx              # imm = 0x1A0
	movl	-4(%rdx,%rcx,4), %esi
	movq	%rax, %rcx
	addq	$416, %rcx              # imm = 0x1A0
	addl	(%rdx,%rcx,4), %esi
	movl	%esi, (%rdx,%rcx,4)
	addq	$1, %rax
	movq	%rax, %rcx
	addq	$416, %rcx              # imm = 0x1A0
	movl	-4(%rdx,%rcx,4), %esi
	movq	%rax, %rcx
	addq	$416, %rcx              # imm = 0x1A0
	addl	(%rdx,%rcx,4), %esi
	movl	%esi, (%rdx,%rcx,4)
	addq	$1, %rax
	cmpq	$16, %rax
	movq	%rax, -448(%rbp)        # 8-byte Spill
	jne	.LBB1_82
# %bb.81:                               # %for.inc9.26
	movl	$1, %eax
	movq	%rax, -456(%rbp)        # 8-byte Spill
	jmp	.LBB1_83
.LBB1_82:                               # %for.body3.3.26
                                        #   in Loop: Header=BB1_80 Depth=1
	movq	-448(%rbp), %rax        # 8-byte Reload
	addq	$416, %rax              # imm = 0x1A0
	movq	-8(%rbp), %rcx          # 8-byte Reload
	movl	-4(%rcx,%rax,4), %edx
	movq	-448(%rbp), %rax        # 8-byte Reload
	addq	$416, %rax              # imm = 0x1A0
	addl	(%rcx,%rax,4), %edx
	movl	%edx, (%rcx,%rax,4)
	movq	-448(%rbp), %rax        # 8-byte Reload
	addq	$1, %rax
	movq	%rax, -440(%rbp)        # 8-byte Spill
	jmp	.LBB1_80
.LBB1_83:                               # %for.body3.27
                                        # =>This Inner Loop Header: Depth=1
	movq	-456(%rbp), %rax        # 8-byte Reload
	movq	%rax, %rcx
	addq	$432, %rcx              # imm = 0x1B0
	movq	-8(%rbp), %rdx          # 8-byte Reload
	movl	-4(%rdx,%rcx,4), %esi
	movq	%rax, %rcx
	addq	$432, %rcx              # imm = 0x1B0
	addl	(%rdx,%rcx,4), %esi
	movl	%esi, (%rdx,%rcx,4)
	addq	$1, %rax
	movq	%rax, %rcx
	addq	$432, %rcx              # imm = 0x1B0
	movl	-4(%rdx,%rcx,4), %esi
	movq	%rax, %rcx
	addq	$432, %rcx              # imm = 0x1B0
	addl	(%rdx,%rcx,4), %esi
	movl	%esi, (%rdx,%rcx,4)
	addq	$1, %rax
	movq	%rax, %rcx
	addq	$432, %rcx              # imm = 0x1B0
	movl	-4(%rdx,%rcx,4), %esi
	movq	%rax, %rcx
	addq	$432, %rcx              # imm = 0x1B0
	addl	(%rdx,%rcx,4), %esi
	movl	%esi, (%rdx,%rcx,4)
	addq	$1, %rax
	cmpq	$16, %rax
	movq	%rax, -464(%rbp)        # 8-byte Spill
	jne	.LBB1_85
# %bb.84:                               # %for.inc9.27
	movl	$1, %eax
	movq	%rax, -472(%rbp)        # 8-byte Spill
	jmp	.LBB1_86
.LBB1_85:                               # %for.body3.3.27
                                        #   in Loop: Header=BB1_83 Depth=1
	movq	-464(%rbp), %rax        # 8-byte Reload
	addq	$432, %rax              # imm = 0x1B0
	movq	-8(%rbp), %rcx          # 8-byte Reload
	movl	-4(%rcx,%rax,4), %edx
	movq	-464(%rbp), %rax        # 8-byte Reload
	addq	$432, %rax              # imm = 0x1B0
	addl	(%rcx,%rax,4), %edx
	movl	%edx, (%rcx,%rax,4)
	movq	-464(%rbp), %rax        # 8-byte Reload
	addq	$1, %rax
	movq	%rax, -456(%rbp)        # 8-byte Spill
	jmp	.LBB1_83
.LBB1_86:                               # %for.body3.28
                                        # =>This Inner Loop Header: Depth=1
	movq	-472(%rbp), %rax        # 8-byte Reload
	movq	%rax, %rcx
	addq	$448, %rcx              # imm = 0x1C0
	movq	-8(%rbp), %rdx          # 8-byte Reload
	movl	-4(%rdx,%rcx,4), %esi
	movq	%rax, %rcx
	addq	$448, %rcx              # imm = 0x1C0
	addl	(%rdx,%rcx,4), %esi
	movl	%esi, (%rdx,%rcx,4)
	addq	$1, %rax
	movq	%rax, %rcx
	addq	$448, %rcx              # imm = 0x1C0
	movl	-4(%rdx,%rcx,4), %esi
	movq	%rax, %rcx
	addq	$448, %rcx              # imm = 0x1C0
	addl	(%rdx,%rcx,4), %esi
	movl	%esi, (%rdx,%rcx,4)
	addq	$1, %rax
	movq	%rax, %rcx
	addq	$448, %rcx              # imm = 0x1C0
	movl	-4(%rdx,%rcx,4), %esi
	movq	%rax, %rcx
	addq	$448, %rcx              # imm = 0x1C0
	addl	(%rdx,%rcx,4), %esi
	movl	%esi, (%rdx,%rcx,4)
	addq	$1, %rax
	cmpq	$16, %rax
	movq	%rax, -480(%rbp)        # 8-byte Spill
	jne	.LBB1_88
# %bb.87:                               # %for.inc9.28
	movl	$1, %eax
	movq	%rax, -488(%rbp)        # 8-byte Spill
	jmp	.LBB1_89
.LBB1_88:                               # %for.body3.3.28
                                        #   in Loop: Header=BB1_86 Depth=1
	movq	-480(%rbp), %rax        # 8-byte Reload
	addq	$448, %rax              # imm = 0x1C0
	movq	-8(%rbp), %rcx          # 8-byte Reload
	movl	-4(%rcx,%rax,4), %edx
	movq	-480(%rbp), %rax        # 8-byte Reload
	addq	$448, %rax              # imm = 0x1C0
	addl	(%rcx,%rax,4), %edx
	movl	%edx, (%rcx,%rax,4)
	movq	-480(%rbp), %rax        # 8-byte Reload
	addq	$1, %rax
	movq	%rax, -472(%rbp)        # 8-byte Spill
	jmp	.LBB1_86
.LBB1_89:                               # %for.body3.29
                                        # =>This Inner Loop Header: Depth=1
	movq	-488(%rbp), %rax        # 8-byte Reload
	movq	%rax, %rcx
	addq	$464, %rcx              # imm = 0x1D0
	movq	-8(%rbp), %rdx          # 8-byte Reload
	movl	-4(%rdx,%rcx,4), %esi
	movq	%rax, %rcx
	addq	$464, %rcx              # imm = 0x1D0
	addl	(%rdx,%rcx,4), %esi
	movl	%esi, (%rdx,%rcx,4)
	addq	$1, %rax
	movq	%rax, %rcx
	addq	$464, %rcx              # imm = 0x1D0
	movl	-4(%rdx,%rcx,4), %esi
	movq	%rax, %rcx
	addq	$464, %rcx              # imm = 0x1D0
	addl	(%rdx,%rcx,4), %esi
	movl	%esi, (%rdx,%rcx,4)
	addq	$1, %rax
	movq	%rax, %rcx
	addq	$464, %rcx              # imm = 0x1D0
	movl	-4(%rdx,%rcx,4), %esi
	movq	%rax, %rcx
	addq	$464, %rcx              # imm = 0x1D0
	addl	(%rdx,%rcx,4), %esi
	movl	%esi, (%rdx,%rcx,4)
	addq	$1, %rax
	cmpq	$16, %rax
	movq	%rax, -496(%rbp)        # 8-byte Spill
	jne	.LBB1_91
# %bb.90:                               # %for.inc9.29
	movl	$1, %eax
	movq	%rax, -504(%rbp)        # 8-byte Spill
	jmp	.LBB1_92
.LBB1_91:                               # %for.body3.3.29
                                        #   in Loop: Header=BB1_89 Depth=1
	movq	-496(%rbp), %rax        # 8-byte Reload
	addq	$464, %rax              # imm = 0x1D0
	movq	-8(%rbp), %rcx          # 8-byte Reload
	movl	-4(%rcx,%rax,4), %edx
	movq	-496(%rbp), %rax        # 8-byte Reload
	addq	$464, %rax              # imm = 0x1D0
	addl	(%rcx,%rax,4), %edx
	movl	%edx, (%rcx,%rax,4)
	movq	-496(%rbp), %rax        # 8-byte Reload
	addq	$1, %rax
	movq	%rax, -488(%rbp)        # 8-byte Spill
	jmp	.LBB1_89
.LBB1_92:                               # %for.body3.30
                                        # =>This Inner Loop Header: Depth=1
	movq	-504(%rbp), %rax        # 8-byte Reload
	movq	%rax, %rcx
	addq	$480, %rcx              # imm = 0x1E0
	movq	-8(%rbp), %rdx          # 8-byte Reload
	movl	-4(%rdx,%rcx,4), %esi
	movq	%rax, %rcx
	addq	$480, %rcx              # imm = 0x1E0
	addl	(%rdx,%rcx,4), %esi
	movl	%esi, (%rdx,%rcx,4)
	addq	$1, %rax
	movq	%rax, %rcx
	addq	$480, %rcx              # imm = 0x1E0
	movl	-4(%rdx,%rcx,4), %esi
	movq	%rax, %rcx
	addq	$480, %rcx              # imm = 0x1E0
	addl	(%rdx,%rcx,4), %esi
	movl	%esi, (%rdx,%rcx,4)
	addq	$1, %rax
	movq	%rax, %rcx
	addq	$480, %rcx              # imm = 0x1E0
	movl	-4(%rdx,%rcx,4), %esi
	movq	%rax, %rcx
	addq	$480, %rcx              # imm = 0x1E0
	addl	(%rdx,%rcx,4), %esi
	movl	%esi, (%rdx,%rcx,4)
	addq	$1, %rax
	cmpq	$16, %rax
	movq	%rax, -512(%rbp)        # 8-byte Spill
	jne	.LBB1_94
# %bb.93:                               # %for.inc9.30
	movl	$1, %eax
	movq	%rax, -520(%rbp)        # 8-byte Spill
	jmp	.LBB1_95
.LBB1_94:                               # %for.body3.3.30
                                        #   in Loop: Header=BB1_92 Depth=1
	movq	-512(%rbp), %rax        # 8-byte Reload
	addq	$480, %rax              # imm = 0x1E0
	movq	-8(%rbp), %rcx          # 8-byte Reload
	movl	-4(%rcx,%rax,4), %edx
	movq	-512(%rbp), %rax        # 8-byte Reload
	addq	$480, %rax              # imm = 0x1E0
	addl	(%rcx,%rax,4), %edx
	movl	%edx, (%rcx,%rax,4)
	movq	-512(%rbp), %rax        # 8-byte Reload
	addq	$1, %rax
	movq	%rax, -504(%rbp)        # 8-byte Spill
	jmp	.LBB1_92
.LBB1_95:                               # %for.body3.31
                                        # =>This Inner Loop Header: Depth=1
	movq	-520(%rbp), %rax        # 8-byte Reload
	movq	%rax, %rcx
	addq	$496, %rcx              # imm = 0x1F0
	movq	-8(%rbp), %rdx          # 8-byte Reload
	movl	-4(%rdx,%rcx,4), %esi
	movq	%rax, %rcx
	addq	$496, %rcx              # imm = 0x1F0
	addl	(%rdx,%rcx,4), %esi
	movl	%esi, (%rdx,%rcx,4)
	addq	$1, %rax
	movq	%rax, %rcx
	addq	$496, %rcx              # imm = 0x1F0
	movl	-4(%rdx,%rcx,4), %esi
	movq	%rax, %rcx
	addq	$496, %rcx              # imm = 0x1F0
	addl	(%rdx,%rcx,4), %esi
	movl	%esi, (%rdx,%rcx,4)
	addq	$1, %rax
	movq	%rax, %rcx
	addq	$496, %rcx              # imm = 0x1F0
	movl	-4(%rdx,%rcx,4), %esi
	movq	%rax, %rcx
	addq	$496, %rcx              # imm = 0x1F0
	addl	(%rdx,%rcx,4), %esi
	movl	%esi, (%rdx,%rcx,4)
	addq	$1, %rax
	cmpq	$16, %rax
	movq	%rax, -528(%rbp)        # 8-byte Spill
	jne	.LBB1_97
# %bb.96:                               # %for.inc9.31
	movl	$1, %eax
	movq	%rax, -536(%rbp)        # 8-byte Spill
	jmp	.LBB1_98
.LBB1_97:                               # %for.body3.3.31
                                        #   in Loop: Header=BB1_95 Depth=1
	movq	-528(%rbp), %rax        # 8-byte Reload
	addq	$496, %rax              # imm = 0x1F0
	movq	-8(%rbp), %rcx          # 8-byte Reload
	movl	-4(%rcx,%rax,4), %edx
	movq	-528(%rbp), %rax        # 8-byte Reload
	addq	$496, %rax              # imm = 0x1F0
	addl	(%rcx,%rax,4), %edx
	movl	%edx, (%rcx,%rax,4)
	movq	-528(%rbp), %rax        # 8-byte Reload
	addq	$1, %rax
	movq	%rax, -520(%rbp)        # 8-byte Spill
	jmp	.LBB1_95
.LBB1_98:                               # %for.body3.32
                                        # =>This Inner Loop Header: Depth=1
	movq	-536(%rbp), %rax        # 8-byte Reload
	movq	%rax, %rcx
	addq	$512, %rcx              # imm = 0x200
	movq	-8(%rbp), %rdx          # 8-byte Reload
	movl	-4(%rdx,%rcx,4), %esi
	movq	%rax, %rcx
	addq	$512, %rcx              # imm = 0x200
	addl	(%rdx,%rcx,4), %esi
	movl	%esi, (%rdx,%rcx,4)
	addq	$1, %rax
	movq	%rax, %rcx
	addq	$512, %rcx              # imm = 0x200
	movl	-4(%rdx,%rcx,4), %esi
	movq	%rax, %rcx
	addq	$512, %rcx              # imm = 0x200
	addl	(%rdx,%rcx,4), %esi
	movl	%esi, (%rdx,%rcx,4)
	addq	$1, %rax
	movq	%rax, %rcx
	addq	$512, %rcx              # imm = 0x200
	movl	-4(%rdx,%rcx,4), %esi
	movq	%rax, %rcx
	addq	$512, %rcx              # imm = 0x200
	addl	(%rdx,%rcx,4), %esi
	movl	%esi, (%rdx,%rcx,4)
	addq	$1, %rax
	cmpq	$16, %rax
	movq	%rax, -544(%rbp)        # 8-byte Spill
	jne	.LBB1_100
# %bb.99:                               # %for.inc9.32
	movl	$1, %eax
	movq	%rax, -552(%rbp)        # 8-byte Spill
	jmp	.LBB1_101
.LBB1_100:                              # %for.body3.3.32
                                        #   in Loop: Header=BB1_98 Depth=1
	movq	-544(%rbp), %rax        # 8-byte Reload
	addq	$512, %rax              # imm = 0x200
	movq	-8(%rbp), %rcx          # 8-byte Reload
	movl	-4(%rcx,%rax,4), %edx
	movq	-544(%rbp), %rax        # 8-byte Reload
	addq	$512, %rax              # imm = 0x200
	addl	(%rcx,%rax,4), %edx
	movl	%edx, (%rcx,%rax,4)
	movq	-544(%rbp), %rax        # 8-byte Reload
	addq	$1, %rax
	movq	%rax, -536(%rbp)        # 8-byte Spill
	jmp	.LBB1_98
.LBB1_101:                              # %for.body3.33
                                        # =>This Inner Loop Header: Depth=1
	movq	-552(%rbp), %rax        # 8-byte Reload
	movq	%rax, %rcx
	addq	$528, %rcx              # imm = 0x210
	movq	-8(%rbp), %rdx          # 8-byte Reload
	movl	-4(%rdx,%rcx,4), %esi
	movq	%rax, %rcx
	addq	$528, %rcx              # imm = 0x210
	addl	(%rdx,%rcx,4), %esi
	movl	%esi, (%rdx,%rcx,4)
	addq	$1, %rax
	movq	%rax, %rcx
	addq	$528, %rcx              # imm = 0x210
	movl	-4(%rdx,%rcx,4), %esi
	movq	%rax, %rcx
	addq	$528, %rcx              # imm = 0x210
	addl	(%rdx,%rcx,4), %esi
	movl	%esi, (%rdx,%rcx,4)
	addq	$1, %rax
	movq	%rax, %rcx
	addq	$528, %rcx              # imm = 0x210
	movl	-4(%rdx,%rcx,4), %esi
	movq	%rax, %rcx
	addq	$528, %rcx              # imm = 0x210
	addl	(%rdx,%rcx,4), %esi
	movl	%esi, (%rdx,%rcx,4)
	addq	$1, %rax
	cmpq	$16, %rax
	movq	%rax, -560(%rbp)        # 8-byte Spill
	jne	.LBB1_103
# %bb.102:                              # %for.inc9.33
	movl	$1, %eax
	movq	%rax, -568(%rbp)        # 8-byte Spill
	jmp	.LBB1_104
.LBB1_103:                              # %for.body3.3.33
                                        #   in Loop: Header=BB1_101 Depth=1
	movq	-560(%rbp), %rax        # 8-byte Reload
	addq	$528, %rax              # imm = 0x210
	movq	-8(%rbp), %rcx          # 8-byte Reload
	movl	-4(%rcx,%rax,4), %edx
	movq	-560(%rbp), %rax        # 8-byte Reload
	addq	$528, %rax              # imm = 0x210
	addl	(%rcx,%rax,4), %edx
	movl	%edx, (%rcx,%rax,4)
	movq	-560(%rbp), %rax        # 8-byte Reload
	addq	$1, %rax
	movq	%rax, -552(%rbp)        # 8-byte Spill
	jmp	.LBB1_101
.LBB1_104:                              # %for.body3.34
                                        # =>This Inner Loop Header: Depth=1
	movq	-568(%rbp), %rax        # 8-byte Reload
	movq	%rax, %rcx
	addq	$544, %rcx              # imm = 0x220
	movq	-8(%rbp), %rdx          # 8-byte Reload
	movl	-4(%rdx,%rcx,4), %esi
	movq	%rax, %rcx
	addq	$544, %rcx              # imm = 0x220
	addl	(%rdx,%rcx,4), %esi
	movl	%esi, (%rdx,%rcx,4)
	addq	$1, %rax
	movq	%rax, %rcx
	addq	$544, %rcx              # imm = 0x220
	movl	-4(%rdx,%rcx,4), %esi
	movq	%rax, %rcx
	addq	$544, %rcx              # imm = 0x220
	addl	(%rdx,%rcx,4), %esi
	movl	%esi, (%rdx,%rcx,4)
	addq	$1, %rax
	movq	%rax, %rcx
	addq	$544, %rcx              # imm = 0x220
	movl	-4(%rdx,%rcx,4), %esi
	movq	%rax, %rcx
	addq	$544, %rcx              # imm = 0x220
	addl	(%rdx,%rcx,4), %esi
	movl	%esi, (%rdx,%rcx,4)
	addq	$1, %rax
	cmpq	$16, %rax
	movq	%rax, -576(%rbp)        # 8-byte Spill
	jne	.LBB1_106
# %bb.105:                              # %for.inc9.34
	movl	$1, %eax
	movq	%rax, -584(%rbp)        # 8-byte Spill
	jmp	.LBB1_107
.LBB1_106:                              # %for.body3.3.34
                                        #   in Loop: Header=BB1_104 Depth=1
	movq	-576(%rbp), %rax        # 8-byte Reload
	addq	$544, %rax              # imm = 0x220
	movq	-8(%rbp), %rcx          # 8-byte Reload
	movl	-4(%rcx,%rax,4), %edx
	movq	-576(%rbp), %rax        # 8-byte Reload
	addq	$544, %rax              # imm = 0x220
	addl	(%rcx,%rax,4), %edx
	movl	%edx, (%rcx,%rax,4)
	movq	-576(%rbp), %rax        # 8-byte Reload
	addq	$1, %rax
	movq	%rax, -568(%rbp)        # 8-byte Spill
	jmp	.LBB1_104
.LBB1_107:                              # %for.body3.35
                                        # =>This Inner Loop Header: Depth=1
	movq	-584(%rbp), %rax        # 8-byte Reload
	movq	%rax, %rcx
	addq	$560, %rcx              # imm = 0x230
	movq	-8(%rbp), %rdx          # 8-byte Reload
	movl	-4(%rdx,%rcx,4), %esi
	movq	%rax, %rcx
	addq	$560, %rcx              # imm = 0x230
	addl	(%rdx,%rcx,4), %esi
	movl	%esi, (%rdx,%rcx,4)
	addq	$1, %rax
	movq	%rax, %rcx
	addq	$560, %rcx              # imm = 0x230
	movl	-4(%rdx,%rcx,4), %esi
	movq	%rax, %rcx
	addq	$560, %rcx              # imm = 0x230
	addl	(%rdx,%rcx,4), %esi
	movl	%esi, (%rdx,%rcx,4)
	addq	$1, %rax
	movq	%rax, %rcx
	addq	$560, %rcx              # imm = 0x230
	movl	-4(%rdx,%rcx,4), %esi
	movq	%rax, %rcx
	addq	$560, %rcx              # imm = 0x230
	addl	(%rdx,%rcx,4), %esi
	movl	%esi, (%rdx,%rcx,4)
	addq	$1, %rax
	cmpq	$16, %rax
	movq	%rax, -592(%rbp)        # 8-byte Spill
	jne	.LBB1_109
# %bb.108:                              # %for.inc9.35
	movl	$1, %eax
	movq	%rax, -600(%rbp)        # 8-byte Spill
	jmp	.LBB1_110
.LBB1_109:                              # %for.body3.3.35
                                        #   in Loop: Header=BB1_107 Depth=1
	movq	-592(%rbp), %rax        # 8-byte Reload
	addq	$560, %rax              # imm = 0x230
	movq	-8(%rbp), %rcx          # 8-byte Reload
	movl	-4(%rcx,%rax,4), %edx
	movq	-592(%rbp), %rax        # 8-byte Reload
	addq	$560, %rax              # imm = 0x230
	addl	(%rcx,%rax,4), %edx
	movl	%edx, (%rcx,%rax,4)
	movq	-592(%rbp), %rax        # 8-byte Reload
	addq	$1, %rax
	movq	%rax, -584(%rbp)        # 8-byte Spill
	jmp	.LBB1_107
.LBB1_110:                              # %for.body3.36
                                        # =>This Inner Loop Header: Depth=1
	movq	-600(%rbp), %rax        # 8-byte Reload
	movq	%rax, %rcx
	addq	$576, %rcx              # imm = 0x240
	movq	-8(%rbp), %rdx          # 8-byte Reload
	movl	-4(%rdx,%rcx,4), %esi
	movq	%rax, %rcx
	addq	$576, %rcx              # imm = 0x240
	addl	(%rdx,%rcx,4), %esi
	movl	%esi, (%rdx,%rcx,4)
	addq	$1, %rax
	movq	%rax, %rcx
	addq	$576, %rcx              # imm = 0x240
	movl	-4(%rdx,%rcx,4), %esi
	movq	%rax, %rcx
	addq	$576, %rcx              # imm = 0x240
	addl	(%rdx,%rcx,4), %esi
	movl	%esi, (%rdx,%rcx,4)
	addq	$1, %rax
	movq	%rax, %rcx
	addq	$576, %rcx              # imm = 0x240
	movl	-4(%rdx,%rcx,4), %esi
	movq	%rax, %rcx
	addq	$576, %rcx              # imm = 0x240
	addl	(%rdx,%rcx,4), %esi
	movl	%esi, (%rdx,%rcx,4)
	addq	$1, %rax
	cmpq	$16, %rax
	movq	%rax, -608(%rbp)        # 8-byte Spill
	jne	.LBB1_112
# %bb.111:                              # %for.inc9.36
	movl	$1, %eax
	movq	%rax, -616(%rbp)        # 8-byte Spill
	jmp	.LBB1_113
.LBB1_112:                              # %for.body3.3.36
                                        #   in Loop: Header=BB1_110 Depth=1
	movq	-608(%rbp), %rax        # 8-byte Reload
	addq	$576, %rax              # imm = 0x240
	movq	-8(%rbp), %rcx          # 8-byte Reload
	movl	-4(%rcx,%rax,4), %edx
	movq	-608(%rbp), %rax        # 8-byte Reload
	addq	$576, %rax              # imm = 0x240
	addl	(%rcx,%rax,4), %edx
	movl	%edx, (%rcx,%rax,4)
	movq	-608(%rbp), %rax        # 8-byte Reload
	addq	$1, %rax
	movq	%rax, -600(%rbp)        # 8-byte Spill
	jmp	.LBB1_110
.LBB1_113:                              # %for.body3.37
                                        # =>This Inner Loop Header: Depth=1
	movq	-616(%rbp), %rax        # 8-byte Reload
	movq	%rax, %rcx
	addq	$592, %rcx              # imm = 0x250
	movq	-8(%rbp), %rdx          # 8-byte Reload
	movl	-4(%rdx,%rcx,4), %esi
	movq	%rax, %rcx
	addq	$592, %rcx              # imm = 0x250
	addl	(%rdx,%rcx,4), %esi
	movl	%esi, (%rdx,%rcx,4)
	addq	$1, %rax
	movq	%rax, %rcx
	addq	$592, %rcx              # imm = 0x250
	movl	-4(%rdx,%rcx,4), %esi
	movq	%rax, %rcx
	addq	$592, %rcx              # imm = 0x250
	addl	(%rdx,%rcx,4), %esi
	movl	%esi, (%rdx,%rcx,4)
	addq	$1, %rax
	movq	%rax, %rcx
	addq	$592, %rcx              # imm = 0x250
	movl	-4(%rdx,%rcx,4), %esi
	movq	%rax, %rcx
	addq	$592, %rcx              # imm = 0x250
	addl	(%rdx,%rcx,4), %esi
	movl	%esi, (%rdx,%rcx,4)
	addq	$1, %rax
	cmpq	$16, %rax
	movq	%rax, -624(%rbp)        # 8-byte Spill
	jne	.LBB1_115
# %bb.114:                              # %for.inc9.37
	movl	$1, %eax
	movq	%rax, -632(%rbp)        # 8-byte Spill
	jmp	.LBB1_116
.LBB1_115:                              # %for.body3.3.37
                                        #   in Loop: Header=BB1_113 Depth=1
	movq	-624(%rbp), %rax        # 8-byte Reload
	addq	$592, %rax              # imm = 0x250
	movq	-8(%rbp), %rcx          # 8-byte Reload
	movl	-4(%rcx,%rax,4), %edx
	movq	-624(%rbp), %rax        # 8-byte Reload
	addq	$592, %rax              # imm = 0x250
	addl	(%rcx,%rax,4), %edx
	movl	%edx, (%rcx,%rax,4)
	movq	-624(%rbp), %rax        # 8-byte Reload
	addq	$1, %rax
	movq	%rax, -616(%rbp)        # 8-byte Spill
	jmp	.LBB1_113
.LBB1_116:                              # %for.body3.38
                                        # =>This Inner Loop Header: Depth=1
	movq	-632(%rbp), %rax        # 8-byte Reload
	movq	%rax, %rcx
	addq	$608, %rcx              # imm = 0x260
	movq	-8(%rbp), %rdx          # 8-byte Reload
	movl	-4(%rdx,%rcx,4), %esi
	movq	%rax, %rcx
	addq	$608, %rcx              # imm = 0x260
	addl	(%rdx,%rcx,4), %esi
	movl	%esi, (%rdx,%rcx,4)
	addq	$1, %rax
	movq	%rax, %rcx
	addq	$608, %rcx              # imm = 0x260
	movl	-4(%rdx,%rcx,4), %esi
	movq	%rax, %rcx
	addq	$608, %rcx              # imm = 0x260
	addl	(%rdx,%rcx,4), %esi
	movl	%esi, (%rdx,%rcx,4)
	addq	$1, %rax
	movq	%rax, %rcx
	addq	$608, %rcx              # imm = 0x260
	movl	-4(%rdx,%rcx,4), %esi
	movq	%rax, %rcx
	addq	$608, %rcx              # imm = 0x260
	addl	(%rdx,%rcx,4), %esi
	movl	%esi, (%rdx,%rcx,4)
	addq	$1, %rax
	cmpq	$16, %rax
	movq	%rax, -640(%rbp)        # 8-byte Spill
	jne	.LBB1_118
# %bb.117:                              # %for.inc9.38
	movl	$1, %eax
	movq	%rax, -648(%rbp)        # 8-byte Spill
	jmp	.LBB1_119
.LBB1_118:                              # %for.body3.3.38
                                        #   in Loop: Header=BB1_116 Depth=1
	movq	-640(%rbp), %rax        # 8-byte Reload
	addq	$608, %rax              # imm = 0x260
	movq	-8(%rbp), %rcx          # 8-byte Reload
	movl	-4(%rcx,%rax,4), %edx
	movq	-640(%rbp), %rax        # 8-byte Reload
	addq	$608, %rax              # imm = 0x260
	addl	(%rcx,%rax,4), %edx
	movl	%edx, (%rcx,%rax,4)
	movq	-640(%rbp), %rax        # 8-byte Reload
	addq	$1, %rax
	movq	%rax, -632(%rbp)        # 8-byte Spill
	jmp	.LBB1_116
.LBB1_119:                              # %for.body3.39
                                        # =>This Inner Loop Header: Depth=1
	movq	-648(%rbp), %rax        # 8-byte Reload
	movq	%rax, %rcx
	addq	$624, %rcx              # imm = 0x270
	movq	-8(%rbp), %rdx          # 8-byte Reload
	movl	-4(%rdx,%rcx,4), %esi
	movq	%rax, %rcx
	addq	$624, %rcx              # imm = 0x270
	addl	(%rdx,%rcx,4), %esi
	movl	%esi, (%rdx,%rcx,4)
	addq	$1, %rax
	movq	%rax, %rcx
	addq	$624, %rcx              # imm = 0x270
	movl	-4(%rdx,%rcx,4), %esi
	movq	%rax, %rcx
	addq	$624, %rcx              # imm = 0x270
	addl	(%rdx,%rcx,4), %esi
	movl	%esi, (%rdx,%rcx,4)
	addq	$1, %rax
	movq	%rax, %rcx
	addq	$624, %rcx              # imm = 0x270
	movl	-4(%rdx,%rcx,4), %esi
	movq	%rax, %rcx
	addq	$624, %rcx              # imm = 0x270
	addl	(%rdx,%rcx,4), %esi
	movl	%esi, (%rdx,%rcx,4)
	addq	$1, %rax
	cmpq	$16, %rax
	movq	%rax, -656(%rbp)        # 8-byte Spill
	jne	.LBB1_121
# %bb.120:                              # %for.inc9.39
	movl	$1, %eax
	movq	%rax, -664(%rbp)        # 8-byte Spill
	jmp	.LBB1_122
.LBB1_121:                              # %for.body3.3.39
                                        #   in Loop: Header=BB1_119 Depth=1
	movq	-656(%rbp), %rax        # 8-byte Reload
	addq	$624, %rax              # imm = 0x270
	movq	-8(%rbp), %rcx          # 8-byte Reload
	movl	-4(%rcx,%rax,4), %edx
	movq	-656(%rbp), %rax        # 8-byte Reload
	addq	$624, %rax              # imm = 0x270
	addl	(%rcx,%rax,4), %edx
	movl	%edx, (%rcx,%rax,4)
	movq	-656(%rbp), %rax        # 8-byte Reload
	addq	$1, %rax
	movq	%rax, -648(%rbp)        # 8-byte Spill
	jmp	.LBB1_119
.LBB1_122:                              # %for.body3.40
                                        # =>This Inner Loop Header: Depth=1
	movq	-664(%rbp), %rax        # 8-byte Reload
	movq	%rax, %rcx
	addq	$640, %rcx              # imm = 0x280
	movq	-8(%rbp), %rdx          # 8-byte Reload
	movl	-4(%rdx,%rcx,4), %esi
	movq	%rax, %rcx
	addq	$640, %rcx              # imm = 0x280
	addl	(%rdx,%rcx,4), %esi
	movl	%esi, (%rdx,%rcx,4)
	addq	$1, %rax
	movq	%rax, %rcx
	addq	$640, %rcx              # imm = 0x280
	movl	-4(%rdx,%rcx,4), %esi
	movq	%rax, %rcx
	addq	$640, %rcx              # imm = 0x280
	addl	(%rdx,%rcx,4), %esi
	movl	%esi, (%rdx,%rcx,4)
	addq	$1, %rax
	movq	%rax, %rcx
	addq	$640, %rcx              # imm = 0x280
	movl	-4(%rdx,%rcx,4), %esi
	movq	%rax, %rcx
	addq	$640, %rcx              # imm = 0x280
	addl	(%rdx,%rcx,4), %esi
	movl	%esi, (%rdx,%rcx,4)
	addq	$1, %rax
	cmpq	$16, %rax
	movq	%rax, -672(%rbp)        # 8-byte Spill
	jne	.LBB1_124
# %bb.123:                              # %for.inc9.40
	movl	$1, %eax
	movq	%rax, -680(%rbp)        # 8-byte Spill
	jmp	.LBB1_125
.LBB1_124:                              # %for.body3.3.40
                                        #   in Loop: Header=BB1_122 Depth=1
	movq	-672(%rbp), %rax        # 8-byte Reload
	addq	$640, %rax              # imm = 0x280
	movq	-8(%rbp), %rcx          # 8-byte Reload
	movl	-4(%rcx,%rax,4), %edx
	movq	-672(%rbp), %rax        # 8-byte Reload
	addq	$640, %rax              # imm = 0x280
	addl	(%rcx,%rax,4), %edx
	movl	%edx, (%rcx,%rax,4)
	movq	-672(%rbp), %rax        # 8-byte Reload
	addq	$1, %rax
	movq	%rax, -664(%rbp)        # 8-byte Spill
	jmp	.LBB1_122
.LBB1_125:                              # %for.body3.41
                                        # =>This Inner Loop Header: Depth=1
	movq	-680(%rbp), %rax        # 8-byte Reload
	movq	%rax, %rcx
	addq	$656, %rcx              # imm = 0x290
	movq	-8(%rbp), %rdx          # 8-byte Reload
	movl	-4(%rdx,%rcx,4), %esi
	movq	%rax, %rcx
	addq	$656, %rcx              # imm = 0x290
	addl	(%rdx,%rcx,4), %esi
	movl	%esi, (%rdx,%rcx,4)
	addq	$1, %rax
	movq	%rax, %rcx
	addq	$656, %rcx              # imm = 0x290
	movl	-4(%rdx,%rcx,4), %esi
	movq	%rax, %rcx
	addq	$656, %rcx              # imm = 0x290
	addl	(%rdx,%rcx,4), %esi
	movl	%esi, (%rdx,%rcx,4)
	addq	$1, %rax
	movq	%rax, %rcx
	addq	$656, %rcx              # imm = 0x290
	movl	-4(%rdx,%rcx,4), %esi
	movq	%rax, %rcx
	addq	$656, %rcx              # imm = 0x290
	addl	(%rdx,%rcx,4), %esi
	movl	%esi, (%rdx,%rcx,4)
	addq	$1, %rax
	cmpq	$16, %rax
	movq	%rax, -688(%rbp)        # 8-byte Spill
	jne	.LBB1_127
# %bb.126:                              # %for.inc9.41
	movl	$1, %eax
	movq	%rax, -696(%rbp)        # 8-byte Spill
	jmp	.LBB1_128
.LBB1_127:                              # %for.body3.3.41
                                        #   in Loop: Header=BB1_125 Depth=1
	movq	-688(%rbp), %rax        # 8-byte Reload
	addq	$656, %rax              # imm = 0x290
	movq	-8(%rbp), %rcx          # 8-byte Reload
	movl	-4(%rcx,%rax,4), %edx
	movq	-688(%rbp), %rax        # 8-byte Reload
	addq	$656, %rax              # imm = 0x290
	addl	(%rcx,%rax,4), %edx
	movl	%edx, (%rcx,%rax,4)
	movq	-688(%rbp), %rax        # 8-byte Reload
	addq	$1, %rax
	movq	%rax, -680(%rbp)        # 8-byte Spill
	jmp	.LBB1_125
.LBB1_128:                              # %for.body3.42
                                        # =>This Inner Loop Header: Depth=1
	movq	-696(%rbp), %rax        # 8-byte Reload
	movq	%rax, %rcx
	addq	$672, %rcx              # imm = 0x2A0
	movq	-8(%rbp), %rdx          # 8-byte Reload
	movl	-4(%rdx,%rcx,4), %esi
	movq	%rax, %rcx
	addq	$672, %rcx              # imm = 0x2A0
	addl	(%rdx,%rcx,4), %esi
	movl	%esi, (%rdx,%rcx,4)
	addq	$1, %rax
	movq	%rax, %rcx
	addq	$672, %rcx              # imm = 0x2A0
	movl	-4(%rdx,%rcx,4), %esi
	movq	%rax, %rcx
	addq	$672, %rcx              # imm = 0x2A0
	addl	(%rdx,%rcx,4), %esi
	movl	%esi, (%rdx,%rcx,4)
	addq	$1, %rax
	movq	%rax, %rcx
	addq	$672, %rcx              # imm = 0x2A0
	movl	-4(%rdx,%rcx,4), %esi
	movq	%rax, %rcx
	addq	$672, %rcx              # imm = 0x2A0
	addl	(%rdx,%rcx,4), %esi
	movl	%esi, (%rdx,%rcx,4)
	addq	$1, %rax
	cmpq	$16, %rax
	movq	%rax, -704(%rbp)        # 8-byte Spill
	jne	.LBB1_130
# %bb.129:                              # %for.inc9.42
	movl	$1, %eax
	movq	%rax, -712(%rbp)        # 8-byte Spill
	jmp	.LBB1_131
.LBB1_130:                              # %for.body3.3.42
                                        #   in Loop: Header=BB1_128 Depth=1
	movq	-704(%rbp), %rax        # 8-byte Reload
	addq	$672, %rax              # imm = 0x2A0
	movq	-8(%rbp), %rcx          # 8-byte Reload
	movl	-4(%rcx,%rax,4), %edx
	movq	-704(%rbp), %rax        # 8-byte Reload
	addq	$672, %rax              # imm = 0x2A0
	addl	(%rcx,%rax,4), %edx
	movl	%edx, (%rcx,%rax,4)
	movq	-704(%rbp), %rax        # 8-byte Reload
	addq	$1, %rax
	movq	%rax, -696(%rbp)        # 8-byte Spill
	jmp	.LBB1_128
.LBB1_131:                              # %for.body3.43
                                        # =>This Inner Loop Header: Depth=1
	movq	-712(%rbp), %rax        # 8-byte Reload
	movq	%rax, %rcx
	addq	$688, %rcx              # imm = 0x2B0
	movq	-8(%rbp), %rdx          # 8-byte Reload
	movl	-4(%rdx,%rcx,4), %esi
	movq	%rax, %rcx
	addq	$688, %rcx              # imm = 0x2B0
	addl	(%rdx,%rcx,4), %esi
	movl	%esi, (%rdx,%rcx,4)
	addq	$1, %rax
	movq	%rax, %rcx
	addq	$688, %rcx              # imm = 0x2B0
	movl	-4(%rdx,%rcx,4), %esi
	movq	%rax, %rcx
	addq	$688, %rcx              # imm = 0x2B0
	addl	(%rdx,%rcx,4), %esi
	movl	%esi, (%rdx,%rcx,4)
	addq	$1, %rax
	movq	%rax, %rcx
	addq	$688, %rcx              # imm = 0x2B0
	movl	-4(%rdx,%rcx,4), %esi
	movq	%rax, %rcx
	addq	$688, %rcx              # imm = 0x2B0
	addl	(%rdx,%rcx,4), %esi
	movl	%esi, (%rdx,%rcx,4)
	addq	$1, %rax
	cmpq	$16, %rax
	movq	%rax, -720(%rbp)        # 8-byte Spill
	jne	.LBB1_133
# %bb.132:                              # %for.inc9.43
	movl	$1, %eax
	movq	%rax, -728(%rbp)        # 8-byte Spill
	jmp	.LBB1_134
.LBB1_133:                              # %for.body3.3.43
                                        #   in Loop: Header=BB1_131 Depth=1
	movq	-720(%rbp), %rax        # 8-byte Reload
	addq	$688, %rax              # imm = 0x2B0
	movq	-8(%rbp), %rcx          # 8-byte Reload
	movl	-4(%rcx,%rax,4), %edx
	movq	-720(%rbp), %rax        # 8-byte Reload
	addq	$688, %rax              # imm = 0x2B0
	addl	(%rcx,%rax,4), %edx
	movl	%edx, (%rcx,%rax,4)
	movq	-720(%rbp), %rax        # 8-byte Reload
	addq	$1, %rax
	movq	%rax, -712(%rbp)        # 8-byte Spill
	jmp	.LBB1_131
.LBB1_134:                              # %for.body3.44
                                        # =>This Inner Loop Header: Depth=1
	movq	-728(%rbp), %rax        # 8-byte Reload
	movq	%rax, %rcx
	addq	$704, %rcx              # imm = 0x2C0
	movq	-8(%rbp), %rdx          # 8-byte Reload
	movl	-4(%rdx,%rcx,4), %esi
	movq	%rax, %rcx
	addq	$704, %rcx              # imm = 0x2C0
	addl	(%rdx,%rcx,4), %esi
	movl	%esi, (%rdx,%rcx,4)
	addq	$1, %rax
	movq	%rax, %rcx
	addq	$704, %rcx              # imm = 0x2C0
	movl	-4(%rdx,%rcx,4), %esi
	movq	%rax, %rcx
	addq	$704, %rcx              # imm = 0x2C0
	addl	(%rdx,%rcx,4), %esi
	movl	%esi, (%rdx,%rcx,4)
	addq	$1, %rax
	movq	%rax, %rcx
	addq	$704, %rcx              # imm = 0x2C0
	movl	-4(%rdx,%rcx,4), %esi
	movq	%rax, %rcx
	addq	$704, %rcx              # imm = 0x2C0
	addl	(%rdx,%rcx,4), %esi
	movl	%esi, (%rdx,%rcx,4)
	addq	$1, %rax
	cmpq	$16, %rax
	movq	%rax, -736(%rbp)        # 8-byte Spill
	jne	.LBB1_136
# %bb.135:                              # %for.inc9.44
	movl	$1, %eax
	movq	%rax, -744(%rbp)        # 8-byte Spill
	jmp	.LBB1_137
.LBB1_136:                              # %for.body3.3.44
                                        #   in Loop: Header=BB1_134 Depth=1
	movq	-736(%rbp), %rax        # 8-byte Reload
	addq	$704, %rax              # imm = 0x2C0
	movq	-8(%rbp), %rcx          # 8-byte Reload
	movl	-4(%rcx,%rax,4), %edx
	movq	-736(%rbp), %rax        # 8-byte Reload
	addq	$704, %rax              # imm = 0x2C0
	addl	(%rcx,%rax,4), %edx
	movl	%edx, (%rcx,%rax,4)
	movq	-736(%rbp), %rax        # 8-byte Reload
	addq	$1, %rax
	movq	%rax, -728(%rbp)        # 8-byte Spill
	jmp	.LBB1_134
.LBB1_137:                              # %for.body3.45
                                        # =>This Inner Loop Header: Depth=1
	movq	-744(%rbp), %rax        # 8-byte Reload
	movq	%rax, %rcx
	addq	$720, %rcx              # imm = 0x2D0
	movq	-8(%rbp), %rdx          # 8-byte Reload
	movl	-4(%rdx,%rcx,4), %esi
	movq	%rax, %rcx
	addq	$720, %rcx              # imm = 0x2D0
	addl	(%rdx,%rcx,4), %esi
	movl	%esi, (%rdx,%rcx,4)
	addq	$1, %rax
	movq	%rax, %rcx
	addq	$720, %rcx              # imm = 0x2D0
	movl	-4(%rdx,%rcx,4), %esi
	movq	%rax, %rcx
	addq	$720, %rcx              # imm = 0x2D0
	addl	(%rdx,%rcx,4), %esi
	movl	%esi, (%rdx,%rcx,4)
	addq	$1, %rax
	movq	%rax, %rcx
	addq	$720, %rcx              # imm = 0x2D0
	movl	-4(%rdx,%rcx,4), %esi
	movq	%rax, %rcx
	addq	$720, %rcx              # imm = 0x2D0
	addl	(%rdx,%rcx,4), %esi
	movl	%esi, (%rdx,%rcx,4)
	addq	$1, %rax
	cmpq	$16, %rax
	movq	%rax, -752(%rbp)        # 8-byte Spill
	jne	.LBB1_139
# %bb.138:                              # %for.inc9.45
	movl	$1, %eax
	movq	%rax, -760(%rbp)        # 8-byte Spill
	jmp	.LBB1_140
.LBB1_139:                              # %for.body3.3.45
                                        #   in Loop: Header=BB1_137 Depth=1
	movq	-752(%rbp), %rax        # 8-byte Reload
	addq	$720, %rax              # imm = 0x2D0
	movq	-8(%rbp), %rcx          # 8-byte Reload
	movl	-4(%rcx,%rax,4), %edx
	movq	-752(%rbp), %rax        # 8-byte Reload
	addq	$720, %rax              # imm = 0x2D0
	addl	(%rcx,%rax,4), %edx
	movl	%edx, (%rcx,%rax,4)
	movq	-752(%rbp), %rax        # 8-byte Reload
	addq	$1, %rax
	movq	%rax, -744(%rbp)        # 8-byte Spill
	jmp	.LBB1_137
.LBB1_140:                              # %for.body3.46
                                        # =>This Inner Loop Header: Depth=1
	movq	-760(%rbp), %rax        # 8-byte Reload
	movq	%rax, %rcx
	addq	$736, %rcx              # imm = 0x2E0
	movq	-8(%rbp), %rdx          # 8-byte Reload
	movl	-4(%rdx,%rcx,4), %esi
	movq	%rax, %rcx
	addq	$736, %rcx              # imm = 0x2E0
	addl	(%rdx,%rcx,4), %esi
	movl	%esi, (%rdx,%rcx,4)
	addq	$1, %rax
	movq	%rax, %rcx
	addq	$736, %rcx              # imm = 0x2E0
	movl	-4(%rdx,%rcx,4), %esi
	movq	%rax, %rcx
	addq	$736, %rcx              # imm = 0x2E0
	addl	(%rdx,%rcx,4), %esi
	movl	%esi, (%rdx,%rcx,4)
	addq	$1, %rax
	movq	%rax, %rcx
	addq	$736, %rcx              # imm = 0x2E0
	movl	-4(%rdx,%rcx,4), %esi
	movq	%rax, %rcx
	addq	$736, %rcx              # imm = 0x2E0
	addl	(%rdx,%rcx,4), %esi
	movl	%esi, (%rdx,%rcx,4)
	addq	$1, %rax
	cmpq	$16, %rax
	movq	%rax, -768(%rbp)        # 8-byte Spill
	jne	.LBB1_142
# %bb.141:                              # %for.inc9.46
	movl	$1, %eax
	movq	%rax, -776(%rbp)        # 8-byte Spill
	jmp	.LBB1_143
.LBB1_142:                              # %for.body3.3.46
                                        #   in Loop: Header=BB1_140 Depth=1
	movq	-768(%rbp), %rax        # 8-byte Reload
	addq	$736, %rax              # imm = 0x2E0
	movq	-8(%rbp), %rcx          # 8-byte Reload
	movl	-4(%rcx,%rax,4), %edx
	movq	-768(%rbp), %rax        # 8-byte Reload
	addq	$736, %rax              # imm = 0x2E0
	addl	(%rcx,%rax,4), %edx
	movl	%edx, (%rcx,%rax,4)
	movq	-768(%rbp), %rax        # 8-byte Reload
	addq	$1, %rax
	movq	%rax, -760(%rbp)        # 8-byte Spill
	jmp	.LBB1_140
.LBB1_143:                              # %for.body3.47
                                        # =>This Inner Loop Header: Depth=1
	movq	-776(%rbp), %rax        # 8-byte Reload
	movq	%rax, %rcx
	addq	$752, %rcx              # imm = 0x2F0
	movq	-8(%rbp), %rdx          # 8-byte Reload
	movl	-4(%rdx,%rcx,4), %esi
	movq	%rax, %rcx
	addq	$752, %rcx              # imm = 0x2F0
	addl	(%rdx,%rcx,4), %esi
	movl	%esi, (%rdx,%rcx,4)
	addq	$1, %rax
	movq	%rax, %rcx
	addq	$752, %rcx              # imm = 0x2F0
	movl	-4(%rdx,%rcx,4), %esi
	movq	%rax, %rcx
	addq	$752, %rcx              # imm = 0x2F0
	addl	(%rdx,%rcx,4), %esi
	movl	%esi, (%rdx,%rcx,4)
	addq	$1, %rax
	movq	%rax, %rcx
	addq	$752, %rcx              # imm = 0x2F0
	movl	-4(%rdx,%rcx,4), %esi
	movq	%rax, %rcx
	addq	$752, %rcx              # imm = 0x2F0
	addl	(%rdx,%rcx,4), %esi
	movl	%esi, (%rdx,%rcx,4)
	addq	$1, %rax
	cmpq	$16, %rax
	movq	%rax, -784(%rbp)        # 8-byte Spill
	jne	.LBB1_145
# %bb.144:                              # %for.inc9.47
	movl	$1, %eax
	movq	%rax, -792(%rbp)        # 8-byte Spill
	jmp	.LBB1_146
.LBB1_145:                              # %for.body3.3.47
                                        #   in Loop: Header=BB1_143 Depth=1
	movq	-784(%rbp), %rax        # 8-byte Reload
	addq	$752, %rax              # imm = 0x2F0
	movq	-8(%rbp), %rcx          # 8-byte Reload
	movl	-4(%rcx,%rax,4), %edx
	movq	-784(%rbp), %rax        # 8-byte Reload
	addq	$752, %rax              # imm = 0x2F0
	addl	(%rcx,%rax,4), %edx
	movl	%edx, (%rcx,%rax,4)
	movq	-784(%rbp), %rax        # 8-byte Reload
	addq	$1, %rax
	movq	%rax, -776(%rbp)        # 8-byte Spill
	jmp	.LBB1_143
.LBB1_146:                              # %for.body3.48
                                        # =>This Inner Loop Header: Depth=1
	movq	-792(%rbp), %rax        # 8-byte Reload
	movq	%rax, %rcx
	addq	$768, %rcx              # imm = 0x300
	movq	-8(%rbp), %rdx          # 8-byte Reload
	movl	-4(%rdx,%rcx,4), %esi
	movq	%rax, %rcx
	addq	$768, %rcx              # imm = 0x300
	addl	(%rdx,%rcx,4), %esi
	movl	%esi, (%rdx,%rcx,4)
	addq	$1, %rax
	movq	%rax, %rcx
	addq	$768, %rcx              # imm = 0x300
	movl	-4(%rdx,%rcx,4), %esi
	movq	%rax, %rcx
	addq	$768, %rcx              # imm = 0x300
	addl	(%rdx,%rcx,4), %esi
	movl	%esi, (%rdx,%rcx,4)
	addq	$1, %rax
	movq	%rax, %rcx
	addq	$768, %rcx              # imm = 0x300
	movl	-4(%rdx,%rcx,4), %esi
	movq	%rax, %rcx
	addq	$768, %rcx              # imm = 0x300
	addl	(%rdx,%rcx,4), %esi
	movl	%esi, (%rdx,%rcx,4)
	addq	$1, %rax
	cmpq	$16, %rax
	movq	%rax, -800(%rbp)        # 8-byte Spill
	jne	.LBB1_148
# %bb.147:                              # %for.inc9.48
	movl	$1, %eax
	movq	%rax, -808(%rbp)        # 8-byte Spill
	jmp	.LBB1_149
.LBB1_148:                              # %for.body3.3.48
                                        #   in Loop: Header=BB1_146 Depth=1
	movq	-800(%rbp), %rax        # 8-byte Reload
	addq	$768, %rax              # imm = 0x300
	movq	-8(%rbp), %rcx          # 8-byte Reload
	movl	-4(%rcx,%rax,4), %edx
	movq	-800(%rbp), %rax        # 8-byte Reload
	addq	$768, %rax              # imm = 0x300
	addl	(%rcx,%rax,4), %edx
	movl	%edx, (%rcx,%rax,4)
	movq	-800(%rbp), %rax        # 8-byte Reload
	addq	$1, %rax
	movq	%rax, -792(%rbp)        # 8-byte Spill
	jmp	.LBB1_146
.LBB1_149:                              # %for.body3.49
                                        # =>This Inner Loop Header: Depth=1
	movq	-808(%rbp), %rax        # 8-byte Reload
	movq	%rax, %rcx
	addq	$784, %rcx              # imm = 0x310
	movq	-8(%rbp), %rdx          # 8-byte Reload
	movl	-4(%rdx,%rcx,4), %esi
	movq	%rax, %rcx
	addq	$784, %rcx              # imm = 0x310
	addl	(%rdx,%rcx,4), %esi
	movl	%esi, (%rdx,%rcx,4)
	addq	$1, %rax
	movq	%rax, %rcx
	addq	$784, %rcx              # imm = 0x310
	movl	-4(%rdx,%rcx,4), %esi
	movq	%rax, %rcx
	addq	$784, %rcx              # imm = 0x310
	addl	(%rdx,%rcx,4), %esi
	movl	%esi, (%rdx,%rcx,4)
	addq	$1, %rax
	movq	%rax, %rcx
	addq	$784, %rcx              # imm = 0x310
	movl	-4(%rdx,%rcx,4), %esi
	movq	%rax, %rcx
	addq	$784, %rcx              # imm = 0x310
	addl	(%rdx,%rcx,4), %esi
	movl	%esi, (%rdx,%rcx,4)
	addq	$1, %rax
	cmpq	$16, %rax
	movq	%rax, -816(%rbp)        # 8-byte Spill
	jne	.LBB1_151
# %bb.150:                              # %for.inc9.49
	movl	$1, %eax
	movq	%rax, -824(%rbp)        # 8-byte Spill
	jmp	.LBB1_152
.LBB1_151:                              # %for.body3.3.49
                                        #   in Loop: Header=BB1_149 Depth=1
	movq	-816(%rbp), %rax        # 8-byte Reload
	addq	$784, %rax              # imm = 0x310
	movq	-8(%rbp), %rcx          # 8-byte Reload
	movl	-4(%rcx,%rax,4), %edx
	movq	-816(%rbp), %rax        # 8-byte Reload
	addq	$784, %rax              # imm = 0x310
	addl	(%rcx,%rax,4), %edx
	movl	%edx, (%rcx,%rax,4)
	movq	-816(%rbp), %rax        # 8-byte Reload
	addq	$1, %rax
	movq	%rax, -808(%rbp)        # 8-byte Spill
	jmp	.LBB1_149
.LBB1_152:                              # %for.body3.50
                                        # =>This Inner Loop Header: Depth=1
	movq	-824(%rbp), %rax        # 8-byte Reload
	movq	%rax, %rcx
	addq	$800, %rcx              # imm = 0x320
	movq	-8(%rbp), %rdx          # 8-byte Reload
	movl	-4(%rdx,%rcx,4), %esi
	movq	%rax, %rcx
	addq	$800, %rcx              # imm = 0x320
	addl	(%rdx,%rcx,4), %esi
	movl	%esi, (%rdx,%rcx,4)
	addq	$1, %rax
	movq	%rax, %rcx
	addq	$800, %rcx              # imm = 0x320
	movl	-4(%rdx,%rcx,4), %esi
	movq	%rax, %rcx
	addq	$800, %rcx              # imm = 0x320
	addl	(%rdx,%rcx,4), %esi
	movl	%esi, (%rdx,%rcx,4)
	addq	$1, %rax
	movq	%rax, %rcx
	addq	$800, %rcx              # imm = 0x320
	movl	-4(%rdx,%rcx,4), %esi
	movq	%rax, %rcx
	addq	$800, %rcx              # imm = 0x320
	addl	(%rdx,%rcx,4), %esi
	movl	%esi, (%rdx,%rcx,4)
	addq	$1, %rax
	cmpq	$16, %rax
	movq	%rax, -832(%rbp)        # 8-byte Spill
	jne	.LBB1_154
# %bb.153:                              # %for.inc9.50
	movl	$1, %eax
	movq	%rax, -840(%rbp)        # 8-byte Spill
	jmp	.LBB1_155
.LBB1_154:                              # %for.body3.3.50
                                        #   in Loop: Header=BB1_152 Depth=1
	movq	-832(%rbp), %rax        # 8-byte Reload
	addq	$800, %rax              # imm = 0x320
	movq	-8(%rbp), %rcx          # 8-byte Reload
	movl	-4(%rcx,%rax,4), %edx
	movq	-832(%rbp), %rax        # 8-byte Reload
	addq	$800, %rax              # imm = 0x320
	addl	(%rcx,%rax,4), %edx
	movl	%edx, (%rcx,%rax,4)
	movq	-832(%rbp), %rax        # 8-byte Reload
	addq	$1, %rax
	movq	%rax, -824(%rbp)        # 8-byte Spill
	jmp	.LBB1_152
.LBB1_155:                              # %for.body3.51
                                        # =>This Inner Loop Header: Depth=1
	movq	-840(%rbp), %rax        # 8-byte Reload
	movq	%rax, %rcx
	addq	$816, %rcx              # imm = 0x330
	movq	-8(%rbp), %rdx          # 8-byte Reload
	movl	-4(%rdx,%rcx,4), %esi
	movq	%rax, %rcx
	addq	$816, %rcx              # imm = 0x330
	addl	(%rdx,%rcx,4), %esi
	movl	%esi, (%rdx,%rcx,4)
	addq	$1, %rax
	movq	%rax, %rcx
	addq	$816, %rcx              # imm = 0x330
	movl	-4(%rdx,%rcx,4), %esi
	movq	%rax, %rcx
	addq	$816, %rcx              # imm = 0x330
	addl	(%rdx,%rcx,4), %esi
	movl	%esi, (%rdx,%rcx,4)
	addq	$1, %rax
	movq	%rax, %rcx
	addq	$816, %rcx              # imm = 0x330
	movl	-4(%rdx,%rcx,4), %esi
	movq	%rax, %rcx
	addq	$816, %rcx              # imm = 0x330
	addl	(%rdx,%rcx,4), %esi
	movl	%esi, (%rdx,%rcx,4)
	addq	$1, %rax
	cmpq	$16, %rax
	movq	%rax, -848(%rbp)        # 8-byte Spill
	jne	.LBB1_157
# %bb.156:                              # %for.inc9.51
	movl	$1, %eax
	movq	%rax, -856(%rbp)        # 8-byte Spill
	jmp	.LBB1_158
.LBB1_157:                              # %for.body3.3.51
                                        #   in Loop: Header=BB1_155 Depth=1
	movq	-848(%rbp), %rax        # 8-byte Reload
	addq	$816, %rax              # imm = 0x330
	movq	-8(%rbp), %rcx          # 8-byte Reload
	movl	-4(%rcx,%rax,4), %edx
	movq	-848(%rbp), %rax        # 8-byte Reload
	addq	$816, %rax              # imm = 0x330
	addl	(%rcx,%rax,4), %edx
	movl	%edx, (%rcx,%rax,4)
	movq	-848(%rbp), %rax        # 8-byte Reload
	addq	$1, %rax
	movq	%rax, -840(%rbp)        # 8-byte Spill
	jmp	.LBB1_155
.LBB1_158:                              # %for.body3.52
                                        # =>This Inner Loop Header: Depth=1
	movq	-856(%rbp), %rax        # 8-byte Reload
	movq	%rax, %rcx
	addq	$832, %rcx              # imm = 0x340
	movq	-8(%rbp), %rdx          # 8-byte Reload
	movl	-4(%rdx,%rcx,4), %esi
	movq	%rax, %rcx
	addq	$832, %rcx              # imm = 0x340
	addl	(%rdx,%rcx,4), %esi
	movl	%esi, (%rdx,%rcx,4)
	addq	$1, %rax
	movq	%rax, %rcx
	addq	$832, %rcx              # imm = 0x340
	movl	-4(%rdx,%rcx,4), %esi
	movq	%rax, %rcx
	addq	$832, %rcx              # imm = 0x340
	addl	(%rdx,%rcx,4), %esi
	movl	%esi, (%rdx,%rcx,4)
	addq	$1, %rax
	movq	%rax, %rcx
	addq	$832, %rcx              # imm = 0x340
	movl	-4(%rdx,%rcx,4), %esi
	movq	%rax, %rcx
	addq	$832, %rcx              # imm = 0x340
	addl	(%rdx,%rcx,4), %esi
	movl	%esi, (%rdx,%rcx,4)
	addq	$1, %rax
	cmpq	$16, %rax
	movq	%rax, -864(%rbp)        # 8-byte Spill
	jne	.LBB1_160
# %bb.159:                              # %for.inc9.52
	movl	$1, %eax
	movq	%rax, -872(%rbp)        # 8-byte Spill
	jmp	.LBB1_161
.LBB1_160:                              # %for.body3.3.52
                                        #   in Loop: Header=BB1_158 Depth=1
	movq	-864(%rbp), %rax        # 8-byte Reload
	addq	$832, %rax              # imm = 0x340
	movq	-8(%rbp), %rcx          # 8-byte Reload
	movl	-4(%rcx,%rax,4), %edx
	movq	-864(%rbp), %rax        # 8-byte Reload
	addq	$832, %rax              # imm = 0x340
	addl	(%rcx,%rax,4), %edx
	movl	%edx, (%rcx,%rax,4)
	movq	-864(%rbp), %rax        # 8-byte Reload
	addq	$1, %rax
	movq	%rax, -856(%rbp)        # 8-byte Spill
	jmp	.LBB1_158
.LBB1_161:                              # %for.body3.53
                                        # =>This Inner Loop Header: Depth=1
	movq	-872(%rbp), %rax        # 8-byte Reload
	movq	%rax, %rcx
	addq	$848, %rcx              # imm = 0x350
	movq	-8(%rbp), %rdx          # 8-byte Reload
	movl	-4(%rdx,%rcx,4), %esi
	movq	%rax, %rcx
	addq	$848, %rcx              # imm = 0x350
	addl	(%rdx,%rcx,4), %esi
	movl	%esi, (%rdx,%rcx,4)
	addq	$1, %rax
	movq	%rax, %rcx
	addq	$848, %rcx              # imm = 0x350
	movl	-4(%rdx,%rcx,4), %esi
	movq	%rax, %rcx
	addq	$848, %rcx              # imm = 0x350
	addl	(%rdx,%rcx,4), %esi
	movl	%esi, (%rdx,%rcx,4)
	addq	$1, %rax
	movq	%rax, %rcx
	addq	$848, %rcx              # imm = 0x350
	movl	-4(%rdx,%rcx,4), %esi
	movq	%rax, %rcx
	addq	$848, %rcx              # imm = 0x350
	addl	(%rdx,%rcx,4), %esi
	movl	%esi, (%rdx,%rcx,4)
	addq	$1, %rax
	cmpq	$16, %rax
	movq	%rax, -880(%rbp)        # 8-byte Spill
	jne	.LBB1_163
# %bb.162:                              # %for.inc9.53
	movl	$1, %eax
	movq	%rax, -888(%rbp)        # 8-byte Spill
	jmp	.LBB1_164
.LBB1_163:                              # %for.body3.3.53
                                        #   in Loop: Header=BB1_161 Depth=1
	movq	-880(%rbp), %rax        # 8-byte Reload
	addq	$848, %rax              # imm = 0x350
	movq	-8(%rbp), %rcx          # 8-byte Reload
	movl	-4(%rcx,%rax,4), %edx
	movq	-880(%rbp), %rax        # 8-byte Reload
	addq	$848, %rax              # imm = 0x350
	addl	(%rcx,%rax,4), %edx
	movl	%edx, (%rcx,%rax,4)
	movq	-880(%rbp), %rax        # 8-byte Reload
	addq	$1, %rax
	movq	%rax, -872(%rbp)        # 8-byte Spill
	jmp	.LBB1_161
.LBB1_164:                              # %for.body3.54
                                        # =>This Inner Loop Header: Depth=1
	movq	-888(%rbp), %rax        # 8-byte Reload
	movq	%rax, %rcx
	addq	$864, %rcx              # imm = 0x360
	movq	-8(%rbp), %rdx          # 8-byte Reload
	movl	-4(%rdx,%rcx,4), %esi
	movq	%rax, %rcx
	addq	$864, %rcx              # imm = 0x360
	addl	(%rdx,%rcx,4), %esi
	movl	%esi, (%rdx,%rcx,4)
	addq	$1, %rax
	movq	%rax, %rcx
	addq	$864, %rcx              # imm = 0x360
	movl	-4(%rdx,%rcx,4), %esi
	movq	%rax, %rcx
	addq	$864, %rcx              # imm = 0x360
	addl	(%rdx,%rcx,4), %esi
	movl	%esi, (%rdx,%rcx,4)
	addq	$1, %rax
	movq	%rax, %rcx
	addq	$864, %rcx              # imm = 0x360
	movl	-4(%rdx,%rcx,4), %esi
	movq	%rax, %rcx
	addq	$864, %rcx              # imm = 0x360
	addl	(%rdx,%rcx,4), %esi
	movl	%esi, (%rdx,%rcx,4)
	addq	$1, %rax
	cmpq	$16, %rax
	movq	%rax, -896(%rbp)        # 8-byte Spill
	jne	.LBB1_166
# %bb.165:                              # %for.inc9.54
	movl	$1, %eax
	movq	%rax, -904(%rbp)        # 8-byte Spill
	jmp	.LBB1_167
.LBB1_166:                              # %for.body3.3.54
                                        #   in Loop: Header=BB1_164 Depth=1
	movq	-896(%rbp), %rax        # 8-byte Reload
	addq	$864, %rax              # imm = 0x360
	movq	-8(%rbp), %rcx          # 8-byte Reload
	movl	-4(%rcx,%rax,4), %edx
	movq	-896(%rbp), %rax        # 8-byte Reload
	addq	$864, %rax              # imm = 0x360
	addl	(%rcx,%rax,4), %edx
	movl	%edx, (%rcx,%rax,4)
	movq	-896(%rbp), %rax        # 8-byte Reload
	addq	$1, %rax
	movq	%rax, -888(%rbp)        # 8-byte Spill
	jmp	.LBB1_164
.LBB1_167:                              # %for.body3.55
                                        # =>This Inner Loop Header: Depth=1
	movq	-904(%rbp), %rax        # 8-byte Reload
	movq	%rax, %rcx
	addq	$880, %rcx              # imm = 0x370
	movq	-8(%rbp), %rdx          # 8-byte Reload
	movl	-4(%rdx,%rcx,4), %esi
	movq	%rax, %rcx
	addq	$880, %rcx              # imm = 0x370
	addl	(%rdx,%rcx,4), %esi
	movl	%esi, (%rdx,%rcx,4)
	addq	$1, %rax
	movq	%rax, %rcx
	addq	$880, %rcx              # imm = 0x370
	movl	-4(%rdx,%rcx,4), %esi
	movq	%rax, %rcx
	addq	$880, %rcx              # imm = 0x370
	addl	(%rdx,%rcx,4), %esi
	movl	%esi, (%rdx,%rcx,4)
	addq	$1, %rax
	movq	%rax, %rcx
	addq	$880, %rcx              # imm = 0x370
	movl	-4(%rdx,%rcx,4), %esi
	movq	%rax, %rcx
	addq	$880, %rcx              # imm = 0x370
	addl	(%rdx,%rcx,4), %esi
	movl	%esi, (%rdx,%rcx,4)
	addq	$1, %rax
	cmpq	$16, %rax
	movq	%rax, -912(%rbp)        # 8-byte Spill
	jne	.LBB1_169
# %bb.168:                              # %for.inc9.55
	movl	$1, %eax
	movq	%rax, -920(%rbp)        # 8-byte Spill
	jmp	.LBB1_170
.LBB1_169:                              # %for.body3.3.55
                                        #   in Loop: Header=BB1_167 Depth=1
	movq	-912(%rbp), %rax        # 8-byte Reload
	addq	$880, %rax              # imm = 0x370
	movq	-8(%rbp), %rcx          # 8-byte Reload
	movl	-4(%rcx,%rax,4), %edx
	movq	-912(%rbp), %rax        # 8-byte Reload
	addq	$880, %rax              # imm = 0x370
	addl	(%rcx,%rax,4), %edx
	movl	%edx, (%rcx,%rax,4)
	movq	-912(%rbp), %rax        # 8-byte Reload
	addq	$1, %rax
	movq	%rax, -904(%rbp)        # 8-byte Spill
	jmp	.LBB1_167
.LBB1_170:                              # %for.body3.56
                                        # =>This Inner Loop Header: Depth=1
	movq	-920(%rbp), %rax        # 8-byte Reload
	movq	%rax, %rcx
	addq	$896, %rcx              # imm = 0x380
	movq	-8(%rbp), %rdx          # 8-byte Reload
	movl	-4(%rdx,%rcx,4), %esi
	movq	%rax, %rcx
	addq	$896, %rcx              # imm = 0x380
	addl	(%rdx,%rcx,4), %esi
	movl	%esi, (%rdx,%rcx,4)
	addq	$1, %rax
	movq	%rax, %rcx
	addq	$896, %rcx              # imm = 0x380
	movl	-4(%rdx,%rcx,4), %esi
	movq	%rax, %rcx
	addq	$896, %rcx              # imm = 0x380
	addl	(%rdx,%rcx,4), %esi
	movl	%esi, (%rdx,%rcx,4)
	addq	$1, %rax
	movq	%rax, %rcx
	addq	$896, %rcx              # imm = 0x380
	movl	-4(%rdx,%rcx,4), %esi
	movq	%rax, %rcx
	addq	$896, %rcx              # imm = 0x380
	addl	(%rdx,%rcx,4), %esi
	movl	%esi, (%rdx,%rcx,4)
	addq	$1, %rax
	cmpq	$16, %rax
	movq	%rax, -928(%rbp)        # 8-byte Spill
	jne	.LBB1_172
# %bb.171:                              # %for.inc9.56
	movl	$1, %eax
	movq	%rax, -936(%rbp)        # 8-byte Spill
	jmp	.LBB1_173
.LBB1_172:                              # %for.body3.3.56
                                        #   in Loop: Header=BB1_170 Depth=1
	movq	-928(%rbp), %rax        # 8-byte Reload
	addq	$896, %rax              # imm = 0x380
	movq	-8(%rbp), %rcx          # 8-byte Reload
	movl	-4(%rcx,%rax,4), %edx
	movq	-928(%rbp), %rax        # 8-byte Reload
	addq	$896, %rax              # imm = 0x380
	addl	(%rcx,%rax,4), %edx
	movl	%edx, (%rcx,%rax,4)
	movq	-928(%rbp), %rax        # 8-byte Reload
	addq	$1, %rax
	movq	%rax, -920(%rbp)        # 8-byte Spill
	jmp	.LBB1_170
.LBB1_173:                              # %for.body3.57
                                        # =>This Inner Loop Header: Depth=1
	movq	-936(%rbp), %rax        # 8-byte Reload
	movq	%rax, %rcx
	addq	$912, %rcx              # imm = 0x390
	movq	-8(%rbp), %rdx          # 8-byte Reload
	movl	-4(%rdx,%rcx,4), %esi
	movq	%rax, %rcx
	addq	$912, %rcx              # imm = 0x390
	addl	(%rdx,%rcx,4), %esi
	movl	%esi, (%rdx,%rcx,4)
	addq	$1, %rax
	movq	%rax, %rcx
	addq	$912, %rcx              # imm = 0x390
	movl	-4(%rdx,%rcx,4), %esi
	movq	%rax, %rcx
	addq	$912, %rcx              # imm = 0x390
	addl	(%rdx,%rcx,4), %esi
	movl	%esi, (%rdx,%rcx,4)
	addq	$1, %rax
	movq	%rax, %rcx
	addq	$912, %rcx              # imm = 0x390
	movl	-4(%rdx,%rcx,4), %esi
	movq	%rax, %rcx
	addq	$912, %rcx              # imm = 0x390
	addl	(%rdx,%rcx,4), %esi
	movl	%esi, (%rdx,%rcx,4)
	addq	$1, %rax
	cmpq	$16, %rax
	movq	%rax, -944(%rbp)        # 8-byte Spill
	jne	.LBB1_175
# %bb.174:                              # %for.inc9.57
	movl	$1, %eax
	movq	%rax, -952(%rbp)        # 8-byte Spill
	jmp	.LBB1_176
.LBB1_175:                              # %for.body3.3.57
                                        #   in Loop: Header=BB1_173 Depth=1
	movq	-944(%rbp), %rax        # 8-byte Reload
	addq	$912, %rax              # imm = 0x390
	movq	-8(%rbp), %rcx          # 8-byte Reload
	movl	-4(%rcx,%rax,4), %edx
	movq	-944(%rbp), %rax        # 8-byte Reload
	addq	$912, %rax              # imm = 0x390
	addl	(%rcx,%rax,4), %edx
	movl	%edx, (%rcx,%rax,4)
	movq	-944(%rbp), %rax        # 8-byte Reload
	addq	$1, %rax
	movq	%rax, -936(%rbp)        # 8-byte Spill
	jmp	.LBB1_173
.LBB1_176:                              # %for.body3.58
                                        # =>This Inner Loop Header: Depth=1
	movq	-952(%rbp), %rax        # 8-byte Reload
	movq	%rax, %rcx
	addq	$928, %rcx              # imm = 0x3A0
	movq	-8(%rbp), %rdx          # 8-byte Reload
	movl	-4(%rdx,%rcx,4), %esi
	movq	%rax, %rcx
	addq	$928, %rcx              # imm = 0x3A0
	addl	(%rdx,%rcx,4), %esi
	movl	%esi, (%rdx,%rcx,4)
	addq	$1, %rax
	movq	%rax, %rcx
	addq	$928, %rcx              # imm = 0x3A0
	movl	-4(%rdx,%rcx,4), %esi
	movq	%rax, %rcx
	addq	$928, %rcx              # imm = 0x3A0
	addl	(%rdx,%rcx,4), %esi
	movl	%esi, (%rdx,%rcx,4)
	addq	$1, %rax
	movq	%rax, %rcx
	addq	$928, %rcx              # imm = 0x3A0
	movl	-4(%rdx,%rcx,4), %esi
	movq	%rax, %rcx
	addq	$928, %rcx              # imm = 0x3A0
	addl	(%rdx,%rcx,4), %esi
	movl	%esi, (%rdx,%rcx,4)
	addq	$1, %rax
	cmpq	$16, %rax
	movq	%rax, -960(%rbp)        # 8-byte Spill
	jne	.LBB1_178
# %bb.177:                              # %for.inc9.58
	movl	$1, %eax
	movq	%rax, -968(%rbp)        # 8-byte Spill
	jmp	.LBB1_179
.LBB1_178:                              # %for.body3.3.58
                                        #   in Loop: Header=BB1_176 Depth=1
	movq	-960(%rbp), %rax        # 8-byte Reload
	addq	$928, %rax              # imm = 0x3A0
	movq	-8(%rbp), %rcx          # 8-byte Reload
	movl	-4(%rcx,%rax,4), %edx
	movq	-960(%rbp), %rax        # 8-byte Reload
	addq	$928, %rax              # imm = 0x3A0
	addl	(%rcx,%rax,4), %edx
	movl	%edx, (%rcx,%rax,4)
	movq	-960(%rbp), %rax        # 8-byte Reload
	addq	$1, %rax
	movq	%rax, -952(%rbp)        # 8-byte Spill
	jmp	.LBB1_176
.LBB1_179:                              # %for.body3.59
                                        # =>This Inner Loop Header: Depth=1
	movq	-968(%rbp), %rax        # 8-byte Reload
	movq	%rax, %rcx
	addq	$944, %rcx              # imm = 0x3B0
	movq	-8(%rbp), %rdx          # 8-byte Reload
	movl	-4(%rdx,%rcx,4), %esi
	movq	%rax, %rcx
	addq	$944, %rcx              # imm = 0x3B0
	addl	(%rdx,%rcx,4), %esi
	movl	%esi, (%rdx,%rcx,4)
	addq	$1, %rax
	movq	%rax, %rcx
	addq	$944, %rcx              # imm = 0x3B0
	movl	-4(%rdx,%rcx,4), %esi
	movq	%rax, %rcx
	addq	$944, %rcx              # imm = 0x3B0
	addl	(%rdx,%rcx,4), %esi
	movl	%esi, (%rdx,%rcx,4)
	addq	$1, %rax
	movq	%rax, %rcx
	addq	$944, %rcx              # imm = 0x3B0
	movl	-4(%rdx,%rcx,4), %esi
	movq	%rax, %rcx
	addq	$944, %rcx              # imm = 0x3B0
	addl	(%rdx,%rcx,4), %esi
	movl	%esi, (%rdx,%rcx,4)
	addq	$1, %rax
	cmpq	$16, %rax
	movq	%rax, -976(%rbp)        # 8-byte Spill
	jne	.LBB1_181
# %bb.180:                              # %for.inc9.59
	movl	$1, %eax
	movq	%rax, -984(%rbp)        # 8-byte Spill
	jmp	.LBB1_182
.LBB1_181:                              # %for.body3.3.59
                                        #   in Loop: Header=BB1_179 Depth=1
	movq	-976(%rbp), %rax        # 8-byte Reload
	addq	$944, %rax              # imm = 0x3B0
	movq	-8(%rbp), %rcx          # 8-byte Reload
	movl	-4(%rcx,%rax,4), %edx
	movq	-976(%rbp), %rax        # 8-byte Reload
	addq	$944, %rax              # imm = 0x3B0
	addl	(%rcx,%rax,4), %edx
	movl	%edx, (%rcx,%rax,4)
	movq	-976(%rbp), %rax        # 8-byte Reload
	addq	$1, %rax
	movq	%rax, -968(%rbp)        # 8-byte Spill
	jmp	.LBB1_179
.LBB1_182:                              # %for.body3.60
                                        # =>This Inner Loop Header: Depth=1
	movq	-984(%rbp), %rax        # 8-byte Reload
	movq	%rax, %rcx
	addq	$960, %rcx              # imm = 0x3C0
	movq	-8(%rbp), %rdx          # 8-byte Reload
	movl	-4(%rdx,%rcx,4), %esi
	movq	%rax, %rcx
	addq	$960, %rcx              # imm = 0x3C0
	addl	(%rdx,%rcx,4), %esi
	movl	%esi, (%rdx,%rcx,4)
	addq	$1, %rax
	movq	%rax, %rcx
	addq	$960, %rcx              # imm = 0x3C0
	movl	-4(%rdx,%rcx,4), %esi
	movq	%rax, %rcx
	addq	$960, %rcx              # imm = 0x3C0
	addl	(%rdx,%rcx,4), %esi
	movl	%esi, (%rdx,%rcx,4)
	addq	$1, %rax
	movq	%rax, %rcx
	addq	$960, %rcx              # imm = 0x3C0
	movl	-4(%rdx,%rcx,4), %esi
	movq	%rax, %rcx
	addq	$960, %rcx              # imm = 0x3C0
	addl	(%rdx,%rcx,4), %esi
	movl	%esi, (%rdx,%rcx,4)
	addq	$1, %rax
	cmpq	$16, %rax
	movq	%rax, -992(%rbp)        # 8-byte Spill
	jne	.LBB1_184
# %bb.183:                              # %for.inc9.60
	movl	$1, %eax
	movq	%rax, -1000(%rbp)       # 8-byte Spill
	jmp	.LBB1_185
.LBB1_184:                              # %for.body3.3.60
                                        #   in Loop: Header=BB1_182 Depth=1
	movq	-992(%rbp), %rax        # 8-byte Reload
	addq	$960, %rax              # imm = 0x3C0
	movq	-8(%rbp), %rcx          # 8-byte Reload
	movl	-4(%rcx,%rax,4), %edx
	movq	-992(%rbp), %rax        # 8-byte Reload
	addq	$960, %rax              # imm = 0x3C0
	addl	(%rcx,%rax,4), %edx
	movl	%edx, (%rcx,%rax,4)
	movq	-992(%rbp), %rax        # 8-byte Reload
	addq	$1, %rax
	movq	%rax, -984(%rbp)        # 8-byte Spill
	jmp	.LBB1_182
.LBB1_185:                              # %for.body3.61
                                        # =>This Inner Loop Header: Depth=1
	movq	-1000(%rbp), %rax       # 8-byte Reload
	movq	%rax, %rcx
	addq	$976, %rcx              # imm = 0x3D0
	movq	-8(%rbp), %rdx          # 8-byte Reload
	movl	-4(%rdx,%rcx,4), %esi
	movq	%rax, %rcx
	addq	$976, %rcx              # imm = 0x3D0
	addl	(%rdx,%rcx,4), %esi
	movl	%esi, (%rdx,%rcx,4)
	addq	$1, %rax
	movq	%rax, %rcx
	addq	$976, %rcx              # imm = 0x3D0
	movl	-4(%rdx,%rcx,4), %esi
	movq	%rax, %rcx
	addq	$976, %rcx              # imm = 0x3D0
	addl	(%rdx,%rcx,4), %esi
	movl	%esi, (%rdx,%rcx,4)
	addq	$1, %rax
	movq	%rax, %rcx
	addq	$976, %rcx              # imm = 0x3D0
	movl	-4(%rdx,%rcx,4), %esi
	movq	%rax, %rcx
	addq	$976, %rcx              # imm = 0x3D0
	addl	(%rdx,%rcx,4), %esi
	movl	%esi, (%rdx,%rcx,4)
	addq	$1, %rax
	cmpq	$16, %rax
	movq	%rax, -1008(%rbp)       # 8-byte Spill
	jne	.LBB1_187
# %bb.186:                              # %for.inc9.61
	movl	$1, %eax
	movq	%rax, -1016(%rbp)       # 8-byte Spill
	jmp	.LBB1_188
.LBB1_187:                              # %for.body3.3.61
                                        #   in Loop: Header=BB1_185 Depth=1
	movq	-1008(%rbp), %rax       # 8-byte Reload
	addq	$976, %rax              # imm = 0x3D0
	movq	-8(%rbp), %rcx          # 8-byte Reload
	movl	-4(%rcx,%rax,4), %edx
	movq	-1008(%rbp), %rax       # 8-byte Reload
	addq	$976, %rax              # imm = 0x3D0
	addl	(%rcx,%rax,4), %edx
	movl	%edx, (%rcx,%rax,4)
	movq	-1008(%rbp), %rax       # 8-byte Reload
	addq	$1, %rax
	movq	%rax, -1000(%rbp)       # 8-byte Spill
	jmp	.LBB1_185
.LBB1_188:                              # %for.body3.62
                                        # =>This Inner Loop Header: Depth=1
	movq	-1016(%rbp), %rax       # 8-byte Reload
	movq	%rax, %rcx
	addq	$992, %rcx              # imm = 0x3E0
	movq	-8(%rbp), %rdx          # 8-byte Reload
	movl	-4(%rdx,%rcx,4), %esi
	movq	%rax, %rcx
	addq	$992, %rcx              # imm = 0x3E0
	addl	(%rdx,%rcx,4), %esi
	movl	%esi, (%rdx,%rcx,4)
	addq	$1, %rax
	movq	%rax, %rcx
	addq	$992, %rcx              # imm = 0x3E0
	movl	-4(%rdx,%rcx,4), %esi
	movq	%rax, %rcx
	addq	$992, %rcx              # imm = 0x3E0
	addl	(%rdx,%rcx,4), %esi
	movl	%esi, (%rdx,%rcx,4)
	addq	$1, %rax
	movq	%rax, %rcx
	addq	$992, %rcx              # imm = 0x3E0
	movl	-4(%rdx,%rcx,4), %esi
	movq	%rax, %rcx
	addq	$992, %rcx              # imm = 0x3E0
	addl	(%rdx,%rcx,4), %esi
	movl	%esi, (%rdx,%rcx,4)
	addq	$1, %rax
	cmpq	$16, %rax
	movq	%rax, -1024(%rbp)       # 8-byte Spill
	jne	.LBB1_190
# %bb.189:                              # %for.inc9.62
	movl	$1, %eax
	movq	%rax, -1032(%rbp)       # 8-byte Spill
	jmp	.LBB1_191
.LBB1_190:                              # %for.body3.3.62
                                        #   in Loop: Header=BB1_188 Depth=1
	movq	-1024(%rbp), %rax       # 8-byte Reload
	addq	$992, %rax              # imm = 0x3E0
	movq	-8(%rbp), %rcx          # 8-byte Reload
	movl	-4(%rcx,%rax,4), %edx
	movq	-1024(%rbp), %rax       # 8-byte Reload
	addq	$992, %rax              # imm = 0x3E0
	addl	(%rcx,%rax,4), %edx
	movl	%edx, (%rcx,%rax,4)
	movq	-1024(%rbp), %rax       # 8-byte Reload
	addq	$1, %rax
	movq	%rax, -1016(%rbp)       # 8-byte Spill
	jmp	.LBB1_188
.LBB1_191:                              # %for.body3.63
                                        # =>This Inner Loop Header: Depth=1
	movq	-1032(%rbp), %rax       # 8-byte Reload
	movq	%rax, %rcx
	addq	$1008, %rcx             # imm = 0x3F0
	movq	-8(%rbp), %rdx          # 8-byte Reload
	movl	-4(%rdx,%rcx,4), %esi
	movq	%rax, %rcx
	addq	$1008, %rcx             # imm = 0x3F0
	addl	(%rdx,%rcx,4), %esi
	movl	%esi, (%rdx,%rcx,4)
	addq	$1, %rax
	movq	%rax, %rcx
	addq	$1008, %rcx             # imm = 0x3F0
	movl	-4(%rdx,%rcx,4), %esi
	movq	%rax, %rcx
	addq	$1008, %rcx             # imm = 0x3F0
	addl	(%rdx,%rcx,4), %esi
	movl	%esi, (%rdx,%rcx,4)
	addq	$1, %rax
	movq	%rax, %rcx
	addq	$1008, %rcx             # imm = 0x3F0
	movl	-4(%rdx,%rcx,4), %esi
	movq	%rax, %rcx
	addq	$1008, %rcx             # imm = 0x3F0
	addl	(%rdx,%rcx,4), %esi
	movl	%esi, (%rdx,%rcx,4)
	addq	$1, %rax
	cmpq	$16, %rax
	movq	%rax, -1040(%rbp)       # 8-byte Spill
	jne	.LBB1_193
# %bb.192:                              # %for.inc9.63
	movl	$1, %eax
	movq	%rax, -1048(%rbp)       # 8-byte Spill
	jmp	.LBB1_194
.LBB1_193:                              # %for.body3.3.63
                                        #   in Loop: Header=BB1_191 Depth=1
	movq	-1040(%rbp), %rax       # 8-byte Reload
	addq	$1008, %rax             # imm = 0x3F0
	movq	-8(%rbp), %rcx          # 8-byte Reload
	movl	-4(%rcx,%rax,4), %edx
	movq	-1040(%rbp), %rax       # 8-byte Reload
	addq	$1008, %rax             # imm = 0x3F0
	addl	(%rcx,%rax,4), %edx
	movl	%edx, (%rcx,%rax,4)
	movq	-1040(%rbp), %rax       # 8-byte Reload
	addq	$1, %rax
	movq	%rax, -1032(%rbp)       # 8-byte Spill
	jmp	.LBB1_191
.LBB1_194:                              # %for.body3.64
                                        # =>This Inner Loop Header: Depth=1
	movq	-1048(%rbp), %rax       # 8-byte Reload
	movq	%rax, %rcx
	addq	$1024, %rcx             # imm = 0x400
	movq	-8(%rbp), %rdx          # 8-byte Reload
	movl	-4(%rdx,%rcx,4), %esi
	movq	%rax, %rcx
	addq	$1024, %rcx             # imm = 0x400
	addl	(%rdx,%rcx,4), %esi
	movl	%esi, (%rdx,%rcx,4)
	addq	$1, %rax
	movq	%rax, %rcx
	addq	$1024, %rcx             # imm = 0x400
	movl	-4(%rdx,%rcx,4), %esi
	movq	%rax, %rcx
	addq	$1024, %rcx             # imm = 0x400
	addl	(%rdx,%rcx,4), %esi
	movl	%esi, (%rdx,%rcx,4)
	addq	$1, %rax
	movq	%rax, %rcx
	addq	$1024, %rcx             # imm = 0x400
	movl	-4(%rdx,%rcx,4), %esi
	movq	%rax, %rcx
	addq	$1024, %rcx             # imm = 0x400
	addl	(%rdx,%rcx,4), %esi
	movl	%esi, (%rdx,%rcx,4)
	addq	$1, %rax
	cmpq	$16, %rax
	movq	%rax, -1056(%rbp)       # 8-byte Spill
	jne	.LBB1_196
# %bb.195:                              # %for.inc9.64
	movl	$1, %eax
	movq	%rax, -1064(%rbp)       # 8-byte Spill
	jmp	.LBB1_197
.LBB1_196:                              # %for.body3.3.64
                                        #   in Loop: Header=BB1_194 Depth=1
	movq	-1056(%rbp), %rax       # 8-byte Reload
	addq	$1024, %rax             # imm = 0x400
	movq	-8(%rbp), %rcx          # 8-byte Reload
	movl	-4(%rcx,%rax,4), %edx
	movq	-1056(%rbp), %rax       # 8-byte Reload
	addq	$1024, %rax             # imm = 0x400
	addl	(%rcx,%rax,4), %edx
	movl	%edx, (%rcx,%rax,4)
	movq	-1056(%rbp), %rax       # 8-byte Reload
	addq	$1, %rax
	movq	%rax, -1048(%rbp)       # 8-byte Spill
	jmp	.LBB1_194
.LBB1_197:                              # %for.body3.65
                                        # =>This Inner Loop Header: Depth=1
	movq	-1064(%rbp), %rax       # 8-byte Reload
	movq	%rax, %rcx
	addq	$1040, %rcx             # imm = 0x410
	movq	-8(%rbp), %rdx          # 8-byte Reload
	movl	-4(%rdx,%rcx,4), %esi
	movq	%rax, %rcx
	addq	$1040, %rcx             # imm = 0x410
	addl	(%rdx,%rcx,4), %esi
	movl	%esi, (%rdx,%rcx,4)
	addq	$1, %rax
	movq	%rax, %rcx
	addq	$1040, %rcx             # imm = 0x410
	movl	-4(%rdx,%rcx,4), %esi
	movq	%rax, %rcx
	addq	$1040, %rcx             # imm = 0x410
	addl	(%rdx,%rcx,4), %esi
	movl	%esi, (%rdx,%rcx,4)
	addq	$1, %rax
	movq	%rax, %rcx
	addq	$1040, %rcx             # imm = 0x410
	movl	-4(%rdx,%rcx,4), %esi
	movq	%rax, %rcx
	addq	$1040, %rcx             # imm = 0x410
	addl	(%rdx,%rcx,4), %esi
	movl	%esi, (%rdx,%rcx,4)
	addq	$1, %rax
	cmpq	$16, %rax
	movq	%rax, -1072(%rbp)       # 8-byte Spill
	jne	.LBB1_199
# %bb.198:                              # %for.inc9.65
	movl	$1, %eax
	movq	%rax, -1080(%rbp)       # 8-byte Spill
	jmp	.LBB1_200
.LBB1_199:                              # %for.body3.3.65
                                        #   in Loop: Header=BB1_197 Depth=1
	movq	-1072(%rbp), %rax       # 8-byte Reload
	addq	$1040, %rax             # imm = 0x410
	movq	-8(%rbp), %rcx          # 8-byte Reload
	movl	-4(%rcx,%rax,4), %edx
	movq	-1072(%rbp), %rax       # 8-byte Reload
	addq	$1040, %rax             # imm = 0x410
	addl	(%rcx,%rax,4), %edx
	movl	%edx, (%rcx,%rax,4)
	movq	-1072(%rbp), %rax       # 8-byte Reload
	addq	$1, %rax
	movq	%rax, -1064(%rbp)       # 8-byte Spill
	jmp	.LBB1_197
.LBB1_200:                              # %for.body3.66
                                        # =>This Inner Loop Header: Depth=1
	movq	-1080(%rbp), %rax       # 8-byte Reload
	movq	%rax, %rcx
	addq	$1056, %rcx             # imm = 0x420
	movq	-8(%rbp), %rdx          # 8-byte Reload
	movl	-4(%rdx,%rcx,4), %esi
	movq	%rax, %rcx
	addq	$1056, %rcx             # imm = 0x420
	addl	(%rdx,%rcx,4), %esi
	movl	%esi, (%rdx,%rcx,4)
	addq	$1, %rax
	movq	%rax, %rcx
	addq	$1056, %rcx             # imm = 0x420
	movl	-4(%rdx,%rcx,4), %esi
	movq	%rax, %rcx
	addq	$1056, %rcx             # imm = 0x420
	addl	(%rdx,%rcx,4), %esi
	movl	%esi, (%rdx,%rcx,4)
	addq	$1, %rax
	movq	%rax, %rcx
	addq	$1056, %rcx             # imm = 0x420
	movl	-4(%rdx,%rcx,4), %esi
	movq	%rax, %rcx
	addq	$1056, %rcx             # imm = 0x420
	addl	(%rdx,%rcx,4), %esi
	movl	%esi, (%rdx,%rcx,4)
	addq	$1, %rax
	cmpq	$16, %rax
	movq	%rax, -1088(%rbp)       # 8-byte Spill
	jne	.LBB1_202
# %bb.201:                              # %for.inc9.66
	movl	$1, %eax
	movq	%rax, -1096(%rbp)       # 8-byte Spill
	jmp	.LBB1_203
.LBB1_202:                              # %for.body3.3.66
                                        #   in Loop: Header=BB1_200 Depth=1
	movq	-1088(%rbp), %rax       # 8-byte Reload
	addq	$1056, %rax             # imm = 0x420
	movq	-8(%rbp), %rcx          # 8-byte Reload
	movl	-4(%rcx,%rax,4), %edx
	movq	-1088(%rbp), %rax       # 8-byte Reload
	addq	$1056, %rax             # imm = 0x420
	addl	(%rcx,%rax,4), %edx
	movl	%edx, (%rcx,%rax,4)
	movq	-1088(%rbp), %rax       # 8-byte Reload
	addq	$1, %rax
	movq	%rax, -1080(%rbp)       # 8-byte Spill
	jmp	.LBB1_200
.LBB1_203:                              # %for.body3.67
                                        # =>This Inner Loop Header: Depth=1
	movq	-1096(%rbp), %rax       # 8-byte Reload
	movq	%rax, %rcx
	addq	$1072, %rcx             # imm = 0x430
	movq	-8(%rbp), %rdx          # 8-byte Reload
	movl	-4(%rdx,%rcx,4), %esi
	movq	%rax, %rcx
	addq	$1072, %rcx             # imm = 0x430
	addl	(%rdx,%rcx,4), %esi
	movl	%esi, (%rdx,%rcx,4)
	addq	$1, %rax
	movq	%rax, %rcx
	addq	$1072, %rcx             # imm = 0x430
	movl	-4(%rdx,%rcx,4), %esi
	movq	%rax, %rcx
	addq	$1072, %rcx             # imm = 0x430
	addl	(%rdx,%rcx,4), %esi
	movl	%esi, (%rdx,%rcx,4)
	addq	$1, %rax
	movq	%rax, %rcx
	addq	$1072, %rcx             # imm = 0x430
	movl	-4(%rdx,%rcx,4), %esi
	movq	%rax, %rcx
	addq	$1072, %rcx             # imm = 0x430
	addl	(%rdx,%rcx,4), %esi
	movl	%esi, (%rdx,%rcx,4)
	addq	$1, %rax
	cmpq	$16, %rax
	movq	%rax, -1104(%rbp)       # 8-byte Spill
	jne	.LBB1_205
# %bb.204:                              # %for.inc9.67
	movl	$1, %eax
	movq	%rax, -1112(%rbp)       # 8-byte Spill
	jmp	.LBB1_206
.LBB1_205:                              # %for.body3.3.67
                                        #   in Loop: Header=BB1_203 Depth=1
	movq	-1104(%rbp), %rax       # 8-byte Reload
	addq	$1072, %rax             # imm = 0x430
	movq	-8(%rbp), %rcx          # 8-byte Reload
	movl	-4(%rcx,%rax,4), %edx
	movq	-1104(%rbp), %rax       # 8-byte Reload
	addq	$1072, %rax             # imm = 0x430
	addl	(%rcx,%rax,4), %edx
	movl	%edx, (%rcx,%rax,4)
	movq	-1104(%rbp), %rax       # 8-byte Reload
	addq	$1, %rax
	movq	%rax, -1096(%rbp)       # 8-byte Spill
	jmp	.LBB1_203
.LBB1_206:                              # %for.body3.68
                                        # =>This Inner Loop Header: Depth=1
	movq	-1112(%rbp), %rax       # 8-byte Reload
	movq	%rax, %rcx
	addq	$1088, %rcx             # imm = 0x440
	movq	-8(%rbp), %rdx          # 8-byte Reload
	movl	-4(%rdx,%rcx,4), %esi
	movq	%rax, %rcx
	addq	$1088, %rcx             # imm = 0x440
	addl	(%rdx,%rcx,4), %esi
	movl	%esi, (%rdx,%rcx,4)
	addq	$1, %rax
	movq	%rax, %rcx
	addq	$1088, %rcx             # imm = 0x440
	movl	-4(%rdx,%rcx,4), %esi
	movq	%rax, %rcx
	addq	$1088, %rcx             # imm = 0x440
	addl	(%rdx,%rcx,4), %esi
	movl	%esi, (%rdx,%rcx,4)
	addq	$1, %rax
	movq	%rax, %rcx
	addq	$1088, %rcx             # imm = 0x440
	movl	-4(%rdx,%rcx,4), %esi
	movq	%rax, %rcx
	addq	$1088, %rcx             # imm = 0x440
	addl	(%rdx,%rcx,4), %esi
	movl	%esi, (%rdx,%rcx,4)
	addq	$1, %rax
	cmpq	$16, %rax
	movq	%rax, -1120(%rbp)       # 8-byte Spill
	jne	.LBB1_208
# %bb.207:                              # %for.inc9.68
	movl	$1, %eax
	movq	%rax, -1128(%rbp)       # 8-byte Spill
	jmp	.LBB1_209
.LBB1_208:                              # %for.body3.3.68
                                        #   in Loop: Header=BB1_206 Depth=1
	movq	-1120(%rbp), %rax       # 8-byte Reload
	addq	$1088, %rax             # imm = 0x440
	movq	-8(%rbp), %rcx          # 8-byte Reload
	movl	-4(%rcx,%rax,4), %edx
	movq	-1120(%rbp), %rax       # 8-byte Reload
	addq	$1088, %rax             # imm = 0x440
	addl	(%rcx,%rax,4), %edx
	movl	%edx, (%rcx,%rax,4)
	movq	-1120(%rbp), %rax       # 8-byte Reload
	addq	$1, %rax
	movq	%rax, -1112(%rbp)       # 8-byte Spill
	jmp	.LBB1_206
.LBB1_209:                              # %for.body3.69
                                        # =>This Inner Loop Header: Depth=1
	movq	-1128(%rbp), %rax       # 8-byte Reload
	movq	%rax, %rcx
	addq	$1104, %rcx             # imm = 0x450
	movq	-8(%rbp), %rdx          # 8-byte Reload
	movl	-4(%rdx,%rcx,4), %esi
	movq	%rax, %rcx
	addq	$1104, %rcx             # imm = 0x450
	addl	(%rdx,%rcx,4), %esi
	movl	%esi, (%rdx,%rcx,4)
	addq	$1, %rax
	movq	%rax, %rcx
	addq	$1104, %rcx             # imm = 0x450
	movl	-4(%rdx,%rcx,4), %esi
	movq	%rax, %rcx
	addq	$1104, %rcx             # imm = 0x450
	addl	(%rdx,%rcx,4), %esi
	movl	%esi, (%rdx,%rcx,4)
	addq	$1, %rax
	movq	%rax, %rcx
	addq	$1104, %rcx             # imm = 0x450
	movl	-4(%rdx,%rcx,4), %esi
	movq	%rax, %rcx
	addq	$1104, %rcx             # imm = 0x450
	addl	(%rdx,%rcx,4), %esi
	movl	%esi, (%rdx,%rcx,4)
	addq	$1, %rax
	cmpq	$16, %rax
	movq	%rax, -1136(%rbp)       # 8-byte Spill
	jne	.LBB1_211
# %bb.210:                              # %for.inc9.69
	movl	$1, %eax
	movq	%rax, -1144(%rbp)       # 8-byte Spill
	jmp	.LBB1_212
.LBB1_211:                              # %for.body3.3.69
                                        #   in Loop: Header=BB1_209 Depth=1
	movq	-1136(%rbp), %rax       # 8-byte Reload
	addq	$1104, %rax             # imm = 0x450
	movq	-8(%rbp), %rcx          # 8-byte Reload
	movl	-4(%rcx,%rax,4), %edx
	movq	-1136(%rbp), %rax       # 8-byte Reload
	addq	$1104, %rax             # imm = 0x450
	addl	(%rcx,%rax,4), %edx
	movl	%edx, (%rcx,%rax,4)
	movq	-1136(%rbp), %rax       # 8-byte Reload
	addq	$1, %rax
	movq	%rax, -1128(%rbp)       # 8-byte Spill
	jmp	.LBB1_209
.LBB1_212:                              # %for.body3.70
                                        # =>This Inner Loop Header: Depth=1
	movq	-1144(%rbp), %rax       # 8-byte Reload
	movq	%rax, %rcx
	addq	$1120, %rcx             # imm = 0x460
	movq	-8(%rbp), %rdx          # 8-byte Reload
	movl	-4(%rdx,%rcx,4), %esi
	movq	%rax, %rcx
	addq	$1120, %rcx             # imm = 0x460
	addl	(%rdx,%rcx,4), %esi
	movl	%esi, (%rdx,%rcx,4)
	addq	$1, %rax
	movq	%rax, %rcx
	addq	$1120, %rcx             # imm = 0x460
	movl	-4(%rdx,%rcx,4), %esi
	movq	%rax, %rcx
	addq	$1120, %rcx             # imm = 0x460
	addl	(%rdx,%rcx,4), %esi
	movl	%esi, (%rdx,%rcx,4)
	addq	$1, %rax
	movq	%rax, %rcx
	addq	$1120, %rcx             # imm = 0x460
	movl	-4(%rdx,%rcx,4), %esi
	movq	%rax, %rcx
	addq	$1120, %rcx             # imm = 0x460
	addl	(%rdx,%rcx,4), %esi
	movl	%esi, (%rdx,%rcx,4)
	addq	$1, %rax
	cmpq	$16, %rax
	movq	%rax, -1152(%rbp)       # 8-byte Spill
	jne	.LBB1_214
# %bb.213:                              # %for.inc9.70
	movl	$1, %eax
	movq	%rax, -1160(%rbp)       # 8-byte Spill
	jmp	.LBB1_215
.LBB1_214:                              # %for.body3.3.70
                                        #   in Loop: Header=BB1_212 Depth=1
	movq	-1152(%rbp), %rax       # 8-byte Reload
	addq	$1120, %rax             # imm = 0x460
	movq	-8(%rbp), %rcx          # 8-byte Reload
	movl	-4(%rcx,%rax,4), %edx
	movq	-1152(%rbp), %rax       # 8-byte Reload
	addq	$1120, %rax             # imm = 0x460
	addl	(%rcx,%rax,4), %edx
	movl	%edx, (%rcx,%rax,4)
	movq	-1152(%rbp), %rax       # 8-byte Reload
	addq	$1, %rax
	movq	%rax, -1144(%rbp)       # 8-byte Spill
	jmp	.LBB1_212
.LBB1_215:                              # %for.body3.71
                                        # =>This Inner Loop Header: Depth=1
	movq	-1160(%rbp), %rax       # 8-byte Reload
	movq	%rax, %rcx
	addq	$1136, %rcx             # imm = 0x470
	movq	-8(%rbp), %rdx          # 8-byte Reload
	movl	-4(%rdx,%rcx,4), %esi
	movq	%rax, %rcx
	addq	$1136, %rcx             # imm = 0x470
	addl	(%rdx,%rcx,4), %esi
	movl	%esi, (%rdx,%rcx,4)
	addq	$1, %rax
	movq	%rax, %rcx
	addq	$1136, %rcx             # imm = 0x470
	movl	-4(%rdx,%rcx,4), %esi
	movq	%rax, %rcx
	addq	$1136, %rcx             # imm = 0x470
	addl	(%rdx,%rcx,4), %esi
	movl	%esi, (%rdx,%rcx,4)
	addq	$1, %rax
	movq	%rax, %rcx
	addq	$1136, %rcx             # imm = 0x470
	movl	-4(%rdx,%rcx,4), %esi
	movq	%rax, %rcx
	addq	$1136, %rcx             # imm = 0x470
	addl	(%rdx,%rcx,4), %esi
	movl	%esi, (%rdx,%rcx,4)
	addq	$1, %rax
	cmpq	$16, %rax
	movq	%rax, -1168(%rbp)       # 8-byte Spill
	jne	.LBB1_217
# %bb.216:                              # %for.inc9.71
	movl	$1, %eax
	movq	%rax, -1176(%rbp)       # 8-byte Spill
	jmp	.LBB1_218
.LBB1_217:                              # %for.body3.3.71
                                        #   in Loop: Header=BB1_215 Depth=1
	movq	-1168(%rbp), %rax       # 8-byte Reload
	addq	$1136, %rax             # imm = 0x470
	movq	-8(%rbp), %rcx          # 8-byte Reload
	movl	-4(%rcx,%rax,4), %edx
	movq	-1168(%rbp), %rax       # 8-byte Reload
	addq	$1136, %rax             # imm = 0x470
	addl	(%rcx,%rax,4), %edx
	movl	%edx, (%rcx,%rax,4)
	movq	-1168(%rbp), %rax       # 8-byte Reload
	addq	$1, %rax
	movq	%rax, -1160(%rbp)       # 8-byte Spill
	jmp	.LBB1_215
.LBB1_218:                              # %for.body3.72
                                        # =>This Inner Loop Header: Depth=1
	movq	-1176(%rbp), %rax       # 8-byte Reload
	movq	%rax, %rcx
	addq	$1152, %rcx             # imm = 0x480
	movq	-8(%rbp), %rdx          # 8-byte Reload
	movl	-4(%rdx,%rcx,4), %esi
	movq	%rax, %rcx
	addq	$1152, %rcx             # imm = 0x480
	addl	(%rdx,%rcx,4), %esi
	movl	%esi, (%rdx,%rcx,4)
	addq	$1, %rax
	movq	%rax, %rcx
	addq	$1152, %rcx             # imm = 0x480
	movl	-4(%rdx,%rcx,4), %esi
	movq	%rax, %rcx
	addq	$1152, %rcx             # imm = 0x480
	addl	(%rdx,%rcx,4), %esi
	movl	%esi, (%rdx,%rcx,4)
	addq	$1, %rax
	movq	%rax, %rcx
	addq	$1152, %rcx             # imm = 0x480
	movl	-4(%rdx,%rcx,4), %esi
	movq	%rax, %rcx
	addq	$1152, %rcx             # imm = 0x480
	addl	(%rdx,%rcx,4), %esi
	movl	%esi, (%rdx,%rcx,4)
	addq	$1, %rax
	cmpq	$16, %rax
	movq	%rax, -1184(%rbp)       # 8-byte Spill
	jne	.LBB1_220
# %bb.219:                              # %for.inc9.72
	movl	$1, %eax
	movq	%rax, -1192(%rbp)       # 8-byte Spill
	jmp	.LBB1_221
.LBB1_220:                              # %for.body3.3.72
                                        #   in Loop: Header=BB1_218 Depth=1
	movq	-1184(%rbp), %rax       # 8-byte Reload
	addq	$1152, %rax             # imm = 0x480
	movq	-8(%rbp), %rcx          # 8-byte Reload
	movl	-4(%rcx,%rax,4), %edx
	movq	-1184(%rbp), %rax       # 8-byte Reload
	addq	$1152, %rax             # imm = 0x480
	addl	(%rcx,%rax,4), %edx
	movl	%edx, (%rcx,%rax,4)
	movq	-1184(%rbp), %rax       # 8-byte Reload
	addq	$1, %rax
	movq	%rax, -1176(%rbp)       # 8-byte Spill
	jmp	.LBB1_218
.LBB1_221:                              # %for.body3.73
                                        # =>This Inner Loop Header: Depth=1
	movq	-1192(%rbp), %rax       # 8-byte Reload
	movq	%rax, %rcx
	addq	$1168, %rcx             # imm = 0x490
	movq	-8(%rbp), %rdx          # 8-byte Reload
	movl	-4(%rdx,%rcx,4), %esi
	movq	%rax, %rcx
	addq	$1168, %rcx             # imm = 0x490
	addl	(%rdx,%rcx,4), %esi
	movl	%esi, (%rdx,%rcx,4)
	addq	$1, %rax
	movq	%rax, %rcx
	addq	$1168, %rcx             # imm = 0x490
	movl	-4(%rdx,%rcx,4), %esi
	movq	%rax, %rcx
	addq	$1168, %rcx             # imm = 0x490
	addl	(%rdx,%rcx,4), %esi
	movl	%esi, (%rdx,%rcx,4)
	addq	$1, %rax
	movq	%rax, %rcx
	addq	$1168, %rcx             # imm = 0x490
	movl	-4(%rdx,%rcx,4), %esi
	movq	%rax, %rcx
	addq	$1168, %rcx             # imm = 0x490
	addl	(%rdx,%rcx,4), %esi
	movl	%esi, (%rdx,%rcx,4)
	addq	$1, %rax
	cmpq	$16, %rax
	movq	%rax, -1200(%rbp)       # 8-byte Spill
	jne	.LBB1_223
# %bb.222:                              # %for.inc9.73
	movl	$1, %eax
	movq	%rax, -1208(%rbp)       # 8-byte Spill
	jmp	.LBB1_224
.LBB1_223:                              # %for.body3.3.73
                                        #   in Loop: Header=BB1_221 Depth=1
	movq	-1200(%rbp), %rax       # 8-byte Reload
	addq	$1168, %rax             # imm = 0x490
	movq	-8(%rbp), %rcx          # 8-byte Reload
	movl	-4(%rcx,%rax,4), %edx
	movq	-1200(%rbp), %rax       # 8-byte Reload
	addq	$1168, %rax             # imm = 0x490
	addl	(%rcx,%rax,4), %edx
	movl	%edx, (%rcx,%rax,4)
	movq	-1200(%rbp), %rax       # 8-byte Reload
	addq	$1, %rax
	movq	%rax, -1192(%rbp)       # 8-byte Spill
	jmp	.LBB1_221
.LBB1_224:                              # %for.body3.74
                                        # =>This Inner Loop Header: Depth=1
	movq	-1208(%rbp), %rax       # 8-byte Reload
	movq	%rax, %rcx
	addq	$1184, %rcx             # imm = 0x4A0
	movq	-8(%rbp), %rdx          # 8-byte Reload
	movl	-4(%rdx,%rcx,4), %esi
	movq	%rax, %rcx
	addq	$1184, %rcx             # imm = 0x4A0
	addl	(%rdx,%rcx,4), %esi
	movl	%esi, (%rdx,%rcx,4)
	addq	$1, %rax
	movq	%rax, %rcx
	addq	$1184, %rcx             # imm = 0x4A0
	movl	-4(%rdx,%rcx,4), %esi
	movq	%rax, %rcx
	addq	$1184, %rcx             # imm = 0x4A0
	addl	(%rdx,%rcx,4), %esi
	movl	%esi, (%rdx,%rcx,4)
	addq	$1, %rax
	movq	%rax, %rcx
	addq	$1184, %rcx             # imm = 0x4A0
	movl	-4(%rdx,%rcx,4), %esi
	movq	%rax, %rcx
	addq	$1184, %rcx             # imm = 0x4A0
	addl	(%rdx,%rcx,4), %esi
	movl	%esi, (%rdx,%rcx,4)
	addq	$1, %rax
	cmpq	$16, %rax
	movq	%rax, -1216(%rbp)       # 8-byte Spill
	jne	.LBB1_226
# %bb.225:                              # %for.inc9.74
	movl	$1, %eax
	movq	%rax, -1224(%rbp)       # 8-byte Spill
	jmp	.LBB1_227
.LBB1_226:                              # %for.body3.3.74
                                        #   in Loop: Header=BB1_224 Depth=1
	movq	-1216(%rbp), %rax       # 8-byte Reload
	addq	$1184, %rax             # imm = 0x4A0
	movq	-8(%rbp), %rcx          # 8-byte Reload
	movl	-4(%rcx,%rax,4), %edx
	movq	-1216(%rbp), %rax       # 8-byte Reload
	addq	$1184, %rax             # imm = 0x4A0
	addl	(%rcx,%rax,4), %edx
	movl	%edx, (%rcx,%rax,4)
	movq	-1216(%rbp), %rax       # 8-byte Reload
	addq	$1, %rax
	movq	%rax, -1208(%rbp)       # 8-byte Spill
	jmp	.LBB1_224
.LBB1_227:                              # %for.body3.75
                                        # =>This Inner Loop Header: Depth=1
	movq	-1224(%rbp), %rax       # 8-byte Reload
	movq	%rax, %rcx
	addq	$1200, %rcx             # imm = 0x4B0
	movq	-8(%rbp), %rdx          # 8-byte Reload
	movl	-4(%rdx,%rcx,4), %esi
	movq	%rax, %rcx
	addq	$1200, %rcx             # imm = 0x4B0
	addl	(%rdx,%rcx,4), %esi
	movl	%esi, (%rdx,%rcx,4)
	addq	$1, %rax
	movq	%rax, %rcx
	addq	$1200, %rcx             # imm = 0x4B0
	movl	-4(%rdx,%rcx,4), %esi
	movq	%rax, %rcx
	addq	$1200, %rcx             # imm = 0x4B0
	addl	(%rdx,%rcx,4), %esi
	movl	%esi, (%rdx,%rcx,4)
	addq	$1, %rax
	movq	%rax, %rcx
	addq	$1200, %rcx             # imm = 0x4B0
	movl	-4(%rdx,%rcx,4), %esi
	movq	%rax, %rcx
	addq	$1200, %rcx             # imm = 0x4B0
	addl	(%rdx,%rcx,4), %esi
	movl	%esi, (%rdx,%rcx,4)
	addq	$1, %rax
	cmpq	$16, %rax
	movq	%rax, -1232(%rbp)       # 8-byte Spill
	jne	.LBB1_229
# %bb.228:                              # %for.inc9.75
	movl	$1, %eax
	movq	%rax, -1240(%rbp)       # 8-byte Spill
	jmp	.LBB1_230
.LBB1_229:                              # %for.body3.3.75
                                        #   in Loop: Header=BB1_227 Depth=1
	movq	-1232(%rbp), %rax       # 8-byte Reload
	addq	$1200, %rax             # imm = 0x4B0
	movq	-8(%rbp), %rcx          # 8-byte Reload
	movl	-4(%rcx,%rax,4), %edx
	movq	-1232(%rbp), %rax       # 8-byte Reload
	addq	$1200, %rax             # imm = 0x4B0
	addl	(%rcx,%rax,4), %edx
	movl	%edx, (%rcx,%rax,4)
	movq	-1232(%rbp), %rax       # 8-byte Reload
	addq	$1, %rax
	movq	%rax, -1224(%rbp)       # 8-byte Spill
	jmp	.LBB1_227
.LBB1_230:                              # %for.body3.76
                                        # =>This Inner Loop Header: Depth=1
	movq	-1240(%rbp), %rax       # 8-byte Reload
	movq	%rax, %rcx
	addq	$1216, %rcx             # imm = 0x4C0
	movq	-8(%rbp), %rdx          # 8-byte Reload
	movl	-4(%rdx,%rcx,4), %esi
	movq	%rax, %rcx
	addq	$1216, %rcx             # imm = 0x4C0
	addl	(%rdx,%rcx,4), %esi
	movl	%esi, (%rdx,%rcx,4)
	addq	$1, %rax
	movq	%rax, %rcx
	addq	$1216, %rcx             # imm = 0x4C0
	movl	-4(%rdx,%rcx,4), %esi
	movq	%rax, %rcx
	addq	$1216, %rcx             # imm = 0x4C0
	addl	(%rdx,%rcx,4), %esi
	movl	%esi, (%rdx,%rcx,4)
	addq	$1, %rax
	movq	%rax, %rcx
	addq	$1216, %rcx             # imm = 0x4C0
	movl	-4(%rdx,%rcx,4), %esi
	movq	%rax, %rcx
	addq	$1216, %rcx             # imm = 0x4C0
	addl	(%rdx,%rcx,4), %esi
	movl	%esi, (%rdx,%rcx,4)
	addq	$1, %rax
	cmpq	$16, %rax
	movq	%rax, -1248(%rbp)       # 8-byte Spill
	jne	.LBB1_232
# %bb.231:                              # %for.inc9.76
	movl	$1, %eax
	movq	%rax, -1256(%rbp)       # 8-byte Spill
	jmp	.LBB1_233
.LBB1_232:                              # %for.body3.3.76
                                        #   in Loop: Header=BB1_230 Depth=1
	movq	-1248(%rbp), %rax       # 8-byte Reload
	addq	$1216, %rax             # imm = 0x4C0
	movq	-8(%rbp), %rcx          # 8-byte Reload
	movl	-4(%rcx,%rax,4), %edx
	movq	-1248(%rbp), %rax       # 8-byte Reload
	addq	$1216, %rax             # imm = 0x4C0
	addl	(%rcx,%rax,4), %edx
	movl	%edx, (%rcx,%rax,4)
	movq	-1248(%rbp), %rax       # 8-byte Reload
	addq	$1, %rax
	movq	%rax, -1240(%rbp)       # 8-byte Spill
	jmp	.LBB1_230
.LBB1_233:                              # %for.body3.77
                                        # =>This Inner Loop Header: Depth=1
	movq	-1256(%rbp), %rax       # 8-byte Reload
	movq	%rax, %rcx
	addq	$1232, %rcx             # imm = 0x4D0
	movq	-8(%rbp), %rdx          # 8-byte Reload
	movl	-4(%rdx,%rcx,4), %esi
	movq	%rax, %rcx
	addq	$1232, %rcx             # imm = 0x4D0
	addl	(%rdx,%rcx,4), %esi
	movl	%esi, (%rdx,%rcx,4)
	addq	$1, %rax
	movq	%rax, %rcx
	addq	$1232, %rcx             # imm = 0x4D0
	movl	-4(%rdx,%rcx,4), %esi
	movq	%rax, %rcx
	addq	$1232, %rcx             # imm = 0x4D0
	addl	(%rdx,%rcx,4), %esi
	movl	%esi, (%rdx,%rcx,4)
	addq	$1, %rax
	movq	%rax, %rcx
	addq	$1232, %rcx             # imm = 0x4D0
	movl	-4(%rdx,%rcx,4), %esi
	movq	%rax, %rcx
	addq	$1232, %rcx             # imm = 0x4D0
	addl	(%rdx,%rcx,4), %esi
	movl	%esi, (%rdx,%rcx,4)
	addq	$1, %rax
	cmpq	$16, %rax
	movq	%rax, -1264(%rbp)       # 8-byte Spill
	jne	.LBB1_235
# %bb.234:                              # %for.inc9.77
	movl	$1, %eax
	movq	%rax, -1272(%rbp)       # 8-byte Spill
	jmp	.LBB1_236
.LBB1_235:                              # %for.body3.3.77
                                        #   in Loop: Header=BB1_233 Depth=1
	movq	-1264(%rbp), %rax       # 8-byte Reload
	addq	$1232, %rax             # imm = 0x4D0
	movq	-8(%rbp), %rcx          # 8-byte Reload
	movl	-4(%rcx,%rax,4), %edx
	movq	-1264(%rbp), %rax       # 8-byte Reload
	addq	$1232, %rax             # imm = 0x4D0
	addl	(%rcx,%rax,4), %edx
	movl	%edx, (%rcx,%rax,4)
	movq	-1264(%rbp), %rax       # 8-byte Reload
	addq	$1, %rax
	movq	%rax, -1256(%rbp)       # 8-byte Spill
	jmp	.LBB1_233
.LBB1_236:                              # %for.body3.78
                                        # =>This Inner Loop Header: Depth=1
	movq	-1272(%rbp), %rax       # 8-byte Reload
	movq	%rax, %rcx
	addq	$1248, %rcx             # imm = 0x4E0
	movq	-8(%rbp), %rdx          # 8-byte Reload
	movl	-4(%rdx,%rcx,4), %esi
	movq	%rax, %rcx
	addq	$1248, %rcx             # imm = 0x4E0
	addl	(%rdx,%rcx,4), %esi
	movl	%esi, (%rdx,%rcx,4)
	addq	$1, %rax
	movq	%rax, %rcx
	addq	$1248, %rcx             # imm = 0x4E0
	movl	-4(%rdx,%rcx,4), %esi
	movq	%rax, %rcx
	addq	$1248, %rcx             # imm = 0x4E0
	addl	(%rdx,%rcx,4), %esi
	movl	%esi, (%rdx,%rcx,4)
	addq	$1, %rax
	movq	%rax, %rcx
	addq	$1248, %rcx             # imm = 0x4E0
	movl	-4(%rdx,%rcx,4), %esi
	movq	%rax, %rcx
	addq	$1248, %rcx             # imm = 0x4E0
	addl	(%rdx,%rcx,4), %esi
	movl	%esi, (%rdx,%rcx,4)
	addq	$1, %rax
	cmpq	$16, %rax
	movq	%rax, -1280(%rbp)       # 8-byte Spill
	jne	.LBB1_238
# %bb.237:                              # %for.inc9.78
	movl	$1, %eax
	movq	%rax, -1288(%rbp)       # 8-byte Spill
	jmp	.LBB1_239
.LBB1_238:                              # %for.body3.3.78
                                        #   in Loop: Header=BB1_236 Depth=1
	movq	-1280(%rbp), %rax       # 8-byte Reload
	addq	$1248, %rax             # imm = 0x4E0
	movq	-8(%rbp), %rcx          # 8-byte Reload
	movl	-4(%rcx,%rax,4), %edx
	movq	-1280(%rbp), %rax       # 8-byte Reload
	addq	$1248, %rax             # imm = 0x4E0
	addl	(%rcx,%rax,4), %edx
	movl	%edx, (%rcx,%rax,4)
	movq	-1280(%rbp), %rax       # 8-byte Reload
	addq	$1, %rax
	movq	%rax, -1272(%rbp)       # 8-byte Spill
	jmp	.LBB1_236
.LBB1_239:                              # %for.body3.79
                                        # =>This Inner Loop Header: Depth=1
	movq	-1288(%rbp), %rax       # 8-byte Reload
	movq	%rax, %rcx
	addq	$1264, %rcx             # imm = 0x4F0
	movq	-8(%rbp), %rdx          # 8-byte Reload
	movl	-4(%rdx,%rcx,4), %esi
	movq	%rax, %rcx
	addq	$1264, %rcx             # imm = 0x4F0
	addl	(%rdx,%rcx,4), %esi
	movl	%esi, (%rdx,%rcx,4)
	addq	$1, %rax
	movq	%rax, %rcx
	addq	$1264, %rcx             # imm = 0x4F0
	movl	-4(%rdx,%rcx,4), %esi
	movq	%rax, %rcx
	addq	$1264, %rcx             # imm = 0x4F0
	addl	(%rdx,%rcx,4), %esi
	movl	%esi, (%rdx,%rcx,4)
	addq	$1, %rax
	movq	%rax, %rcx
	addq	$1264, %rcx             # imm = 0x4F0
	movl	-4(%rdx,%rcx,4), %esi
	movq	%rax, %rcx
	addq	$1264, %rcx             # imm = 0x4F0
	addl	(%rdx,%rcx,4), %esi
	movl	%esi, (%rdx,%rcx,4)
	addq	$1, %rax
	cmpq	$16, %rax
	movq	%rax, -1296(%rbp)       # 8-byte Spill
	jne	.LBB1_241
# %bb.240:                              # %for.inc9.79
	movl	$1, %eax
	movq	%rax, -1304(%rbp)       # 8-byte Spill
	jmp	.LBB1_242
.LBB1_241:                              # %for.body3.3.79
                                        #   in Loop: Header=BB1_239 Depth=1
	movq	-1296(%rbp), %rax       # 8-byte Reload
	addq	$1264, %rax             # imm = 0x4F0
	movq	-8(%rbp), %rcx          # 8-byte Reload
	movl	-4(%rcx,%rax,4), %edx
	movq	-1296(%rbp), %rax       # 8-byte Reload
	addq	$1264, %rax             # imm = 0x4F0
	addl	(%rcx,%rax,4), %edx
	movl	%edx, (%rcx,%rax,4)
	movq	-1296(%rbp), %rax       # 8-byte Reload
	addq	$1, %rax
	movq	%rax, -1288(%rbp)       # 8-byte Spill
	jmp	.LBB1_239
.LBB1_242:                              # %for.body3.80
                                        # =>This Inner Loop Header: Depth=1
	movq	-1304(%rbp), %rax       # 8-byte Reload
	movq	%rax, %rcx
	addq	$1280, %rcx             # imm = 0x500
	movq	-8(%rbp), %rdx          # 8-byte Reload
	movl	-4(%rdx,%rcx,4), %esi
	movq	%rax, %rcx
	addq	$1280, %rcx             # imm = 0x500
	addl	(%rdx,%rcx,4), %esi
	movl	%esi, (%rdx,%rcx,4)
	addq	$1, %rax
	movq	%rax, %rcx
	addq	$1280, %rcx             # imm = 0x500
	movl	-4(%rdx,%rcx,4), %esi
	movq	%rax, %rcx
	addq	$1280, %rcx             # imm = 0x500
	addl	(%rdx,%rcx,4), %esi
	movl	%esi, (%rdx,%rcx,4)
	addq	$1, %rax
	movq	%rax, %rcx
	addq	$1280, %rcx             # imm = 0x500
	movl	-4(%rdx,%rcx,4), %esi
	movq	%rax, %rcx
	addq	$1280, %rcx             # imm = 0x500
	addl	(%rdx,%rcx,4), %esi
	movl	%esi, (%rdx,%rcx,4)
	addq	$1, %rax
	cmpq	$16, %rax
	movq	%rax, -1312(%rbp)       # 8-byte Spill
	jne	.LBB1_244
# %bb.243:                              # %for.inc9.80
	movl	$1, %eax
	movq	%rax, -1320(%rbp)       # 8-byte Spill
	jmp	.LBB1_245
.LBB1_244:                              # %for.body3.3.80
                                        #   in Loop: Header=BB1_242 Depth=1
	movq	-1312(%rbp), %rax       # 8-byte Reload
	addq	$1280, %rax             # imm = 0x500
	movq	-8(%rbp), %rcx          # 8-byte Reload
	movl	-4(%rcx,%rax,4), %edx
	movq	-1312(%rbp), %rax       # 8-byte Reload
	addq	$1280, %rax             # imm = 0x500
	addl	(%rcx,%rax,4), %edx
	movl	%edx, (%rcx,%rax,4)
	movq	-1312(%rbp), %rax       # 8-byte Reload
	addq	$1, %rax
	movq	%rax, -1304(%rbp)       # 8-byte Spill
	jmp	.LBB1_242
.LBB1_245:                              # %for.body3.81
                                        # =>This Inner Loop Header: Depth=1
	movq	-1320(%rbp), %rax       # 8-byte Reload
	movq	%rax, %rcx
	addq	$1296, %rcx             # imm = 0x510
	movq	-8(%rbp), %rdx          # 8-byte Reload
	movl	-4(%rdx,%rcx,4), %esi
	movq	%rax, %rcx
	addq	$1296, %rcx             # imm = 0x510
	addl	(%rdx,%rcx,4), %esi
	movl	%esi, (%rdx,%rcx,4)
	addq	$1, %rax
	movq	%rax, %rcx
	addq	$1296, %rcx             # imm = 0x510
	movl	-4(%rdx,%rcx,4), %esi
	movq	%rax, %rcx
	addq	$1296, %rcx             # imm = 0x510
	addl	(%rdx,%rcx,4), %esi
	movl	%esi, (%rdx,%rcx,4)
	addq	$1, %rax
	movq	%rax, %rcx
	addq	$1296, %rcx             # imm = 0x510
	movl	-4(%rdx,%rcx,4), %esi
	movq	%rax, %rcx
	addq	$1296, %rcx             # imm = 0x510
	addl	(%rdx,%rcx,4), %esi
	movl	%esi, (%rdx,%rcx,4)
	addq	$1, %rax
	cmpq	$16, %rax
	movq	%rax, -1328(%rbp)       # 8-byte Spill
	jne	.LBB1_247
# %bb.246:                              # %for.inc9.81
	movl	$1, %eax
	movq	%rax, -1336(%rbp)       # 8-byte Spill
	jmp	.LBB1_248
.LBB1_247:                              # %for.body3.3.81
                                        #   in Loop: Header=BB1_245 Depth=1
	movq	-1328(%rbp), %rax       # 8-byte Reload
	addq	$1296, %rax             # imm = 0x510
	movq	-8(%rbp), %rcx          # 8-byte Reload
	movl	-4(%rcx,%rax,4), %edx
	movq	-1328(%rbp), %rax       # 8-byte Reload
	addq	$1296, %rax             # imm = 0x510
	addl	(%rcx,%rax,4), %edx
	movl	%edx, (%rcx,%rax,4)
	movq	-1328(%rbp), %rax       # 8-byte Reload
	addq	$1, %rax
	movq	%rax, -1320(%rbp)       # 8-byte Spill
	jmp	.LBB1_245
.LBB1_248:                              # %for.body3.82
                                        # =>This Inner Loop Header: Depth=1
	movq	-1336(%rbp), %rax       # 8-byte Reload
	movq	%rax, %rcx
	addq	$1312, %rcx             # imm = 0x520
	movq	-8(%rbp), %rdx          # 8-byte Reload
	movl	-4(%rdx,%rcx,4), %esi
	movq	%rax, %rcx
	addq	$1312, %rcx             # imm = 0x520
	addl	(%rdx,%rcx,4), %esi
	movl	%esi, (%rdx,%rcx,4)
	addq	$1, %rax
	movq	%rax, %rcx
	addq	$1312, %rcx             # imm = 0x520
	movl	-4(%rdx,%rcx,4), %esi
	movq	%rax, %rcx
	addq	$1312, %rcx             # imm = 0x520
	addl	(%rdx,%rcx,4), %esi
	movl	%esi, (%rdx,%rcx,4)
	addq	$1, %rax
	movq	%rax, %rcx
	addq	$1312, %rcx             # imm = 0x520
	movl	-4(%rdx,%rcx,4), %esi
	movq	%rax, %rcx
	addq	$1312, %rcx             # imm = 0x520
	addl	(%rdx,%rcx,4), %esi
	movl	%esi, (%rdx,%rcx,4)
	addq	$1, %rax
	cmpq	$16, %rax
	movq	%rax, -1344(%rbp)       # 8-byte Spill
	jne	.LBB1_250
# %bb.249:                              # %for.inc9.82
	movl	$1, %eax
	movq	%rax, -1352(%rbp)       # 8-byte Spill
	jmp	.LBB1_251
.LBB1_250:                              # %for.body3.3.82
                                        #   in Loop: Header=BB1_248 Depth=1
	movq	-1344(%rbp), %rax       # 8-byte Reload
	addq	$1312, %rax             # imm = 0x520
	movq	-8(%rbp), %rcx          # 8-byte Reload
	movl	-4(%rcx,%rax,4), %edx
	movq	-1344(%rbp), %rax       # 8-byte Reload
	addq	$1312, %rax             # imm = 0x520
	addl	(%rcx,%rax,4), %edx
	movl	%edx, (%rcx,%rax,4)
	movq	-1344(%rbp), %rax       # 8-byte Reload
	addq	$1, %rax
	movq	%rax, -1336(%rbp)       # 8-byte Spill
	jmp	.LBB1_248
.LBB1_251:                              # %for.body3.83
                                        # =>This Inner Loop Header: Depth=1
	movq	-1352(%rbp), %rax       # 8-byte Reload
	movq	%rax, %rcx
	addq	$1328, %rcx             # imm = 0x530
	movq	-8(%rbp), %rdx          # 8-byte Reload
	movl	-4(%rdx,%rcx,4), %esi
	movq	%rax, %rcx
	addq	$1328, %rcx             # imm = 0x530
	addl	(%rdx,%rcx,4), %esi
	movl	%esi, (%rdx,%rcx,4)
	addq	$1, %rax
	movq	%rax, %rcx
	addq	$1328, %rcx             # imm = 0x530
	movl	-4(%rdx,%rcx,4), %esi
	movq	%rax, %rcx
	addq	$1328, %rcx             # imm = 0x530
	addl	(%rdx,%rcx,4), %esi
	movl	%esi, (%rdx,%rcx,4)
	addq	$1, %rax
	movq	%rax, %rcx
	addq	$1328, %rcx             # imm = 0x530
	movl	-4(%rdx,%rcx,4), %esi
	movq	%rax, %rcx
	addq	$1328, %rcx             # imm = 0x530
	addl	(%rdx,%rcx,4), %esi
	movl	%esi, (%rdx,%rcx,4)
	addq	$1, %rax
	cmpq	$16, %rax
	movq	%rax, -1360(%rbp)       # 8-byte Spill
	jne	.LBB1_253
# %bb.252:                              # %for.inc9.83
	movl	$1, %eax
	movq	%rax, -1368(%rbp)       # 8-byte Spill
	jmp	.LBB1_254
.LBB1_253:                              # %for.body3.3.83
                                        #   in Loop: Header=BB1_251 Depth=1
	movq	-1360(%rbp), %rax       # 8-byte Reload
	addq	$1328, %rax             # imm = 0x530
	movq	-8(%rbp), %rcx          # 8-byte Reload
	movl	-4(%rcx,%rax,4), %edx
	movq	-1360(%rbp), %rax       # 8-byte Reload
	addq	$1328, %rax             # imm = 0x530
	addl	(%rcx,%rax,4), %edx
	movl	%edx, (%rcx,%rax,4)
	movq	-1360(%rbp), %rax       # 8-byte Reload
	addq	$1, %rax
	movq	%rax, -1352(%rbp)       # 8-byte Spill
	jmp	.LBB1_251
.LBB1_254:                              # %for.body3.84
                                        # =>This Inner Loop Header: Depth=1
	movq	-1368(%rbp), %rax       # 8-byte Reload
	movq	%rax, %rcx
	addq	$1344, %rcx             # imm = 0x540
	movq	-8(%rbp), %rdx          # 8-byte Reload
	movl	-4(%rdx,%rcx,4), %esi
	movq	%rax, %rcx
	addq	$1344, %rcx             # imm = 0x540
	addl	(%rdx,%rcx,4), %esi
	movl	%esi, (%rdx,%rcx,4)
	addq	$1, %rax
	movq	%rax, %rcx
	addq	$1344, %rcx             # imm = 0x540
	movl	-4(%rdx,%rcx,4), %esi
	movq	%rax, %rcx
	addq	$1344, %rcx             # imm = 0x540
	addl	(%rdx,%rcx,4), %esi
	movl	%esi, (%rdx,%rcx,4)
	addq	$1, %rax
	movq	%rax, %rcx
	addq	$1344, %rcx             # imm = 0x540
	movl	-4(%rdx,%rcx,4), %esi
	movq	%rax, %rcx
	addq	$1344, %rcx             # imm = 0x540
	addl	(%rdx,%rcx,4), %esi
	movl	%esi, (%rdx,%rcx,4)
	addq	$1, %rax
	cmpq	$16, %rax
	movq	%rax, -1376(%rbp)       # 8-byte Spill
	jne	.LBB1_256
# %bb.255:                              # %for.inc9.84
	movl	$1, %eax
	movq	%rax, -1384(%rbp)       # 8-byte Spill
	jmp	.LBB1_257
.LBB1_256:                              # %for.body3.3.84
                                        #   in Loop: Header=BB1_254 Depth=1
	movq	-1376(%rbp), %rax       # 8-byte Reload
	addq	$1344, %rax             # imm = 0x540
	movq	-8(%rbp), %rcx          # 8-byte Reload
	movl	-4(%rcx,%rax,4), %edx
	movq	-1376(%rbp), %rax       # 8-byte Reload
	addq	$1344, %rax             # imm = 0x540
	addl	(%rcx,%rax,4), %edx
	movl	%edx, (%rcx,%rax,4)
	movq	-1376(%rbp), %rax       # 8-byte Reload
	addq	$1, %rax
	movq	%rax, -1368(%rbp)       # 8-byte Spill
	jmp	.LBB1_254
.LBB1_257:                              # %for.body3.85
                                        # =>This Inner Loop Header: Depth=1
	movq	-1384(%rbp), %rax       # 8-byte Reload
	movq	%rax, %rcx
	addq	$1360, %rcx             # imm = 0x550
	movq	-8(%rbp), %rdx          # 8-byte Reload
	movl	-4(%rdx,%rcx,4), %esi
	movq	%rax, %rcx
	addq	$1360, %rcx             # imm = 0x550
	addl	(%rdx,%rcx,4), %esi
	movl	%esi, (%rdx,%rcx,4)
	addq	$1, %rax
	movq	%rax, %rcx
	addq	$1360, %rcx             # imm = 0x550
	movl	-4(%rdx,%rcx,4), %esi
	movq	%rax, %rcx
	addq	$1360, %rcx             # imm = 0x550
	addl	(%rdx,%rcx,4), %esi
	movl	%esi, (%rdx,%rcx,4)
	addq	$1, %rax
	movq	%rax, %rcx
	addq	$1360, %rcx             # imm = 0x550
	movl	-4(%rdx,%rcx,4), %esi
	movq	%rax, %rcx
	addq	$1360, %rcx             # imm = 0x550
	addl	(%rdx,%rcx,4), %esi
	movl	%esi, (%rdx,%rcx,4)
	addq	$1, %rax
	cmpq	$16, %rax
	movq	%rax, -1392(%rbp)       # 8-byte Spill
	jne	.LBB1_259
# %bb.258:                              # %for.inc9.85
	movl	$1, %eax
	movq	%rax, -1400(%rbp)       # 8-byte Spill
	jmp	.LBB1_260
.LBB1_259:                              # %for.body3.3.85
                                        #   in Loop: Header=BB1_257 Depth=1
	movq	-1392(%rbp), %rax       # 8-byte Reload
	addq	$1360, %rax             # imm = 0x550
	movq	-8(%rbp), %rcx          # 8-byte Reload
	movl	-4(%rcx,%rax,4), %edx
	movq	-1392(%rbp), %rax       # 8-byte Reload
	addq	$1360, %rax             # imm = 0x550
	addl	(%rcx,%rax,4), %edx
	movl	%edx, (%rcx,%rax,4)
	movq	-1392(%rbp), %rax       # 8-byte Reload
	addq	$1, %rax
	movq	%rax, -1384(%rbp)       # 8-byte Spill
	jmp	.LBB1_257
.LBB1_260:                              # %for.body3.86
                                        # =>This Inner Loop Header: Depth=1
	movq	-1400(%rbp), %rax       # 8-byte Reload
	movq	%rax, %rcx
	addq	$1376, %rcx             # imm = 0x560
	movq	-8(%rbp), %rdx          # 8-byte Reload
	movl	-4(%rdx,%rcx,4), %esi
	movq	%rax, %rcx
	addq	$1376, %rcx             # imm = 0x560
	addl	(%rdx,%rcx,4), %esi
	movl	%esi, (%rdx,%rcx,4)
	addq	$1, %rax
	movq	%rax, %rcx
	addq	$1376, %rcx             # imm = 0x560
	movl	-4(%rdx,%rcx,4), %esi
	movq	%rax, %rcx
	addq	$1376, %rcx             # imm = 0x560
	addl	(%rdx,%rcx,4), %esi
	movl	%esi, (%rdx,%rcx,4)
	addq	$1, %rax
	movq	%rax, %rcx
	addq	$1376, %rcx             # imm = 0x560
	movl	-4(%rdx,%rcx,4), %esi
	movq	%rax, %rcx
	addq	$1376, %rcx             # imm = 0x560
	addl	(%rdx,%rcx,4), %esi
	movl	%esi, (%rdx,%rcx,4)
	addq	$1, %rax
	cmpq	$16, %rax
	movq	%rax, -1408(%rbp)       # 8-byte Spill
	jne	.LBB1_262
# %bb.261:                              # %for.inc9.86
	movl	$1, %eax
	movq	%rax, -1416(%rbp)       # 8-byte Spill
	jmp	.LBB1_263
.LBB1_262:                              # %for.body3.3.86
                                        #   in Loop: Header=BB1_260 Depth=1
	movq	-1408(%rbp), %rax       # 8-byte Reload
	addq	$1376, %rax             # imm = 0x560
	movq	-8(%rbp), %rcx          # 8-byte Reload
	movl	-4(%rcx,%rax,4), %edx
	movq	-1408(%rbp), %rax       # 8-byte Reload
	addq	$1376, %rax             # imm = 0x560
	addl	(%rcx,%rax,4), %edx
	movl	%edx, (%rcx,%rax,4)
	movq	-1408(%rbp), %rax       # 8-byte Reload
	addq	$1, %rax
	movq	%rax, -1400(%rbp)       # 8-byte Spill
	jmp	.LBB1_260
.LBB1_263:                              # %for.body3.87
                                        # =>This Inner Loop Header: Depth=1
	movq	-1416(%rbp), %rax       # 8-byte Reload
	movq	%rax, %rcx
	addq	$1392, %rcx             # imm = 0x570
	movq	-8(%rbp), %rdx          # 8-byte Reload
	movl	-4(%rdx,%rcx,4), %esi
	movq	%rax, %rcx
	addq	$1392, %rcx             # imm = 0x570
	addl	(%rdx,%rcx,4), %esi
	movl	%esi, (%rdx,%rcx,4)
	addq	$1, %rax
	movq	%rax, %rcx
	addq	$1392, %rcx             # imm = 0x570
	movl	-4(%rdx,%rcx,4), %esi
	movq	%rax, %rcx
	addq	$1392, %rcx             # imm = 0x570
	addl	(%rdx,%rcx,4), %esi
	movl	%esi, (%rdx,%rcx,4)
	addq	$1, %rax
	movq	%rax, %rcx
	addq	$1392, %rcx             # imm = 0x570
	movl	-4(%rdx,%rcx,4), %esi
	movq	%rax, %rcx
	addq	$1392, %rcx             # imm = 0x570
	addl	(%rdx,%rcx,4), %esi
	movl	%esi, (%rdx,%rcx,4)
	addq	$1, %rax
	cmpq	$16, %rax
	movq	%rax, -1424(%rbp)       # 8-byte Spill
	jne	.LBB1_265
# %bb.264:                              # %for.inc9.87
	movl	$1, %eax
	movq	%rax, -1432(%rbp)       # 8-byte Spill
	jmp	.LBB1_266
.LBB1_265:                              # %for.body3.3.87
                                        #   in Loop: Header=BB1_263 Depth=1
	movq	-1424(%rbp), %rax       # 8-byte Reload
	addq	$1392, %rax             # imm = 0x570
	movq	-8(%rbp), %rcx          # 8-byte Reload
	movl	-4(%rcx,%rax,4), %edx
	movq	-1424(%rbp), %rax       # 8-byte Reload
	addq	$1392, %rax             # imm = 0x570
	addl	(%rcx,%rax,4), %edx
	movl	%edx, (%rcx,%rax,4)
	movq	-1424(%rbp), %rax       # 8-byte Reload
	addq	$1, %rax
	movq	%rax, -1416(%rbp)       # 8-byte Spill
	jmp	.LBB1_263
.LBB1_266:                              # %for.body3.88
                                        # =>This Inner Loop Header: Depth=1
	movq	-1432(%rbp), %rax       # 8-byte Reload
	movq	%rax, %rcx
	addq	$1408, %rcx             # imm = 0x580
	movq	-8(%rbp), %rdx          # 8-byte Reload
	movl	-4(%rdx,%rcx,4), %esi
	movq	%rax, %rcx
	addq	$1408, %rcx             # imm = 0x580
	addl	(%rdx,%rcx,4), %esi
	movl	%esi, (%rdx,%rcx,4)
	addq	$1, %rax
	movq	%rax, %rcx
	addq	$1408, %rcx             # imm = 0x580
	movl	-4(%rdx,%rcx,4), %esi
	movq	%rax, %rcx
	addq	$1408, %rcx             # imm = 0x580
	addl	(%rdx,%rcx,4), %esi
	movl	%esi, (%rdx,%rcx,4)
	addq	$1, %rax
	movq	%rax, %rcx
	addq	$1408, %rcx             # imm = 0x580
	movl	-4(%rdx,%rcx,4), %esi
	movq	%rax, %rcx
	addq	$1408, %rcx             # imm = 0x580
	addl	(%rdx,%rcx,4), %esi
	movl	%esi, (%rdx,%rcx,4)
	addq	$1, %rax
	cmpq	$16, %rax
	movq	%rax, -1440(%rbp)       # 8-byte Spill
	jne	.LBB1_268
# %bb.267:                              # %for.inc9.88
	movl	$1, %eax
	movq	%rax, -1448(%rbp)       # 8-byte Spill
	jmp	.LBB1_269
.LBB1_268:                              # %for.body3.3.88
                                        #   in Loop: Header=BB1_266 Depth=1
	movq	-1440(%rbp), %rax       # 8-byte Reload
	addq	$1408, %rax             # imm = 0x580
	movq	-8(%rbp), %rcx          # 8-byte Reload
	movl	-4(%rcx,%rax,4), %edx
	movq	-1440(%rbp), %rax       # 8-byte Reload
	addq	$1408, %rax             # imm = 0x580
	addl	(%rcx,%rax,4), %edx
	movl	%edx, (%rcx,%rax,4)
	movq	-1440(%rbp), %rax       # 8-byte Reload
	addq	$1, %rax
	movq	%rax, -1432(%rbp)       # 8-byte Spill
	jmp	.LBB1_266
.LBB1_269:                              # %for.body3.89
                                        # =>This Inner Loop Header: Depth=1
	movq	-1448(%rbp), %rax       # 8-byte Reload
	movq	%rax, %rcx
	addq	$1424, %rcx             # imm = 0x590
	movq	-8(%rbp), %rdx          # 8-byte Reload
	movl	-4(%rdx,%rcx,4), %esi
	movq	%rax, %rcx
	addq	$1424, %rcx             # imm = 0x590
	addl	(%rdx,%rcx,4), %esi
	movl	%esi, (%rdx,%rcx,4)
	addq	$1, %rax
	movq	%rax, %rcx
	addq	$1424, %rcx             # imm = 0x590
	movl	-4(%rdx,%rcx,4), %esi
	movq	%rax, %rcx
	addq	$1424, %rcx             # imm = 0x590
	addl	(%rdx,%rcx,4), %esi
	movl	%esi, (%rdx,%rcx,4)
	addq	$1, %rax
	movq	%rax, %rcx
	addq	$1424, %rcx             # imm = 0x590
	movl	-4(%rdx,%rcx,4), %esi
	movq	%rax, %rcx
	addq	$1424, %rcx             # imm = 0x590
	addl	(%rdx,%rcx,4), %esi
	movl	%esi, (%rdx,%rcx,4)
	addq	$1, %rax
	cmpq	$16, %rax
	movq	%rax, -1456(%rbp)       # 8-byte Spill
	jne	.LBB1_271
# %bb.270:                              # %for.inc9.89
	movl	$1, %eax
	movq	%rax, -1464(%rbp)       # 8-byte Spill
	jmp	.LBB1_272
.LBB1_271:                              # %for.body3.3.89
                                        #   in Loop: Header=BB1_269 Depth=1
	movq	-1456(%rbp), %rax       # 8-byte Reload
	addq	$1424, %rax             # imm = 0x590
	movq	-8(%rbp), %rcx          # 8-byte Reload
	movl	-4(%rcx,%rax,4), %edx
	movq	-1456(%rbp), %rax       # 8-byte Reload
	addq	$1424, %rax             # imm = 0x590
	addl	(%rcx,%rax,4), %edx
	movl	%edx, (%rcx,%rax,4)
	movq	-1456(%rbp), %rax       # 8-byte Reload
	addq	$1, %rax
	movq	%rax, -1448(%rbp)       # 8-byte Spill
	jmp	.LBB1_269
.LBB1_272:                              # %for.body3.90
                                        # =>This Inner Loop Header: Depth=1
	movq	-1464(%rbp), %rax       # 8-byte Reload
	movq	%rax, %rcx
	addq	$1440, %rcx             # imm = 0x5A0
	movq	-8(%rbp), %rdx          # 8-byte Reload
	movl	-4(%rdx,%rcx,4), %esi
	movq	%rax, %rcx
	addq	$1440, %rcx             # imm = 0x5A0
	addl	(%rdx,%rcx,4), %esi
	movl	%esi, (%rdx,%rcx,4)
	addq	$1, %rax
	movq	%rax, %rcx
	addq	$1440, %rcx             # imm = 0x5A0
	movl	-4(%rdx,%rcx,4), %esi
	movq	%rax, %rcx
	addq	$1440, %rcx             # imm = 0x5A0
	addl	(%rdx,%rcx,4), %esi
	movl	%esi, (%rdx,%rcx,4)
	addq	$1, %rax
	movq	%rax, %rcx
	addq	$1440, %rcx             # imm = 0x5A0
	movl	-4(%rdx,%rcx,4), %esi
	movq	%rax, %rcx
	addq	$1440, %rcx             # imm = 0x5A0
	addl	(%rdx,%rcx,4), %esi
	movl	%esi, (%rdx,%rcx,4)
	addq	$1, %rax
	cmpq	$16, %rax
	movq	%rax, -1472(%rbp)       # 8-byte Spill
	jne	.LBB1_274
# %bb.273:                              # %for.inc9.90
	movl	$1, %eax
	movq	%rax, -1480(%rbp)       # 8-byte Spill
	jmp	.LBB1_275
.LBB1_274:                              # %for.body3.3.90
                                        #   in Loop: Header=BB1_272 Depth=1
	movq	-1472(%rbp), %rax       # 8-byte Reload
	addq	$1440, %rax             # imm = 0x5A0
	movq	-8(%rbp), %rcx          # 8-byte Reload
	movl	-4(%rcx,%rax,4), %edx
	movq	-1472(%rbp), %rax       # 8-byte Reload
	addq	$1440, %rax             # imm = 0x5A0
	addl	(%rcx,%rax,4), %edx
	movl	%edx, (%rcx,%rax,4)
	movq	-1472(%rbp), %rax       # 8-byte Reload
	addq	$1, %rax
	movq	%rax, -1464(%rbp)       # 8-byte Spill
	jmp	.LBB1_272
.LBB1_275:                              # %for.body3.91
                                        # =>This Inner Loop Header: Depth=1
	movq	-1480(%rbp), %rax       # 8-byte Reload
	movq	%rax, %rcx
	addq	$1456, %rcx             # imm = 0x5B0
	movq	-8(%rbp), %rdx          # 8-byte Reload
	movl	-4(%rdx,%rcx,4), %esi
	movq	%rax, %rcx
	addq	$1456, %rcx             # imm = 0x5B0
	addl	(%rdx,%rcx,4), %esi
	movl	%esi, (%rdx,%rcx,4)
	addq	$1, %rax
	movq	%rax, %rcx
	addq	$1456, %rcx             # imm = 0x5B0
	movl	-4(%rdx,%rcx,4), %esi
	movq	%rax, %rcx
	addq	$1456, %rcx             # imm = 0x5B0
	addl	(%rdx,%rcx,4), %esi
	movl	%esi, (%rdx,%rcx,4)
	addq	$1, %rax
	movq	%rax, %rcx
	addq	$1456, %rcx             # imm = 0x5B0
	movl	-4(%rdx,%rcx,4), %esi
	movq	%rax, %rcx
	addq	$1456, %rcx             # imm = 0x5B0
	addl	(%rdx,%rcx,4), %esi
	movl	%esi, (%rdx,%rcx,4)
	addq	$1, %rax
	cmpq	$16, %rax
	movq	%rax, -1488(%rbp)       # 8-byte Spill
	jne	.LBB1_277
# %bb.276:                              # %for.inc9.91
	movl	$1, %eax
	movq	%rax, -1496(%rbp)       # 8-byte Spill
	jmp	.LBB1_278
.LBB1_277:                              # %for.body3.3.91
                                        #   in Loop: Header=BB1_275 Depth=1
	movq	-1488(%rbp), %rax       # 8-byte Reload
	addq	$1456, %rax             # imm = 0x5B0
	movq	-8(%rbp), %rcx          # 8-byte Reload
	movl	-4(%rcx,%rax,4), %edx
	movq	-1488(%rbp), %rax       # 8-byte Reload
	addq	$1456, %rax             # imm = 0x5B0
	addl	(%rcx,%rax,4), %edx
	movl	%edx, (%rcx,%rax,4)
	movq	-1488(%rbp), %rax       # 8-byte Reload
	addq	$1, %rax
	movq	%rax, -1480(%rbp)       # 8-byte Spill
	jmp	.LBB1_275
.LBB1_278:                              # %for.body3.92
                                        # =>This Inner Loop Header: Depth=1
	movq	-1496(%rbp), %rax       # 8-byte Reload
	movq	%rax, %rcx
	addq	$1472, %rcx             # imm = 0x5C0
	movq	-8(%rbp), %rdx          # 8-byte Reload
	movl	-4(%rdx,%rcx,4), %esi
	movq	%rax, %rcx
	addq	$1472, %rcx             # imm = 0x5C0
	addl	(%rdx,%rcx,4), %esi
	movl	%esi, (%rdx,%rcx,4)
	addq	$1, %rax
	movq	%rax, %rcx
	addq	$1472, %rcx             # imm = 0x5C0
	movl	-4(%rdx,%rcx,4), %esi
	movq	%rax, %rcx
	addq	$1472, %rcx             # imm = 0x5C0
	addl	(%rdx,%rcx,4), %esi
	movl	%esi, (%rdx,%rcx,4)
	addq	$1, %rax
	movq	%rax, %rcx
	addq	$1472, %rcx             # imm = 0x5C0
	movl	-4(%rdx,%rcx,4), %esi
	movq	%rax, %rcx
	addq	$1472, %rcx             # imm = 0x5C0
	addl	(%rdx,%rcx,4), %esi
	movl	%esi, (%rdx,%rcx,4)
	addq	$1, %rax
	cmpq	$16, %rax
	movq	%rax, -1504(%rbp)       # 8-byte Spill
	jne	.LBB1_280
# %bb.279:                              # %for.inc9.92
	movl	$1, %eax
	movq	%rax, -1512(%rbp)       # 8-byte Spill
	jmp	.LBB1_281
.LBB1_280:                              # %for.body3.3.92
                                        #   in Loop: Header=BB1_278 Depth=1
	movq	-1504(%rbp), %rax       # 8-byte Reload
	addq	$1472, %rax             # imm = 0x5C0
	movq	-8(%rbp), %rcx          # 8-byte Reload
	movl	-4(%rcx,%rax,4), %edx
	movq	-1504(%rbp), %rax       # 8-byte Reload
	addq	$1472, %rax             # imm = 0x5C0
	addl	(%rcx,%rax,4), %edx
	movl	%edx, (%rcx,%rax,4)
	movq	-1504(%rbp), %rax       # 8-byte Reload
	addq	$1, %rax
	movq	%rax, -1496(%rbp)       # 8-byte Spill
	jmp	.LBB1_278
.LBB1_281:                              # %for.body3.93
                                        # =>This Inner Loop Header: Depth=1
	movq	-1512(%rbp), %rax       # 8-byte Reload
	movq	%rax, %rcx
	addq	$1488, %rcx             # imm = 0x5D0
	movq	-8(%rbp), %rdx          # 8-byte Reload
	movl	-4(%rdx,%rcx,4), %esi
	movq	%rax, %rcx
	addq	$1488, %rcx             # imm = 0x5D0
	addl	(%rdx,%rcx,4), %esi
	movl	%esi, (%rdx,%rcx,4)
	addq	$1, %rax
	movq	%rax, %rcx
	addq	$1488, %rcx             # imm = 0x5D0
	movl	-4(%rdx,%rcx,4), %esi
	movq	%rax, %rcx
	addq	$1488, %rcx             # imm = 0x5D0
	addl	(%rdx,%rcx,4), %esi
	movl	%esi, (%rdx,%rcx,4)
	addq	$1, %rax
	movq	%rax, %rcx
	addq	$1488, %rcx             # imm = 0x5D0
	movl	-4(%rdx,%rcx,4), %esi
	movq	%rax, %rcx
	addq	$1488, %rcx             # imm = 0x5D0
	addl	(%rdx,%rcx,4), %esi
	movl	%esi, (%rdx,%rcx,4)
	addq	$1, %rax
	cmpq	$16, %rax
	movq	%rax, -1520(%rbp)       # 8-byte Spill
	jne	.LBB1_283
# %bb.282:                              # %for.inc9.93
	movl	$1, %eax
	movq	%rax, -1528(%rbp)       # 8-byte Spill
	jmp	.LBB1_284
.LBB1_283:                              # %for.body3.3.93
                                        #   in Loop: Header=BB1_281 Depth=1
	movq	-1520(%rbp), %rax       # 8-byte Reload
	addq	$1488, %rax             # imm = 0x5D0
	movq	-8(%rbp), %rcx          # 8-byte Reload
	movl	-4(%rcx,%rax,4), %edx
	movq	-1520(%rbp), %rax       # 8-byte Reload
	addq	$1488, %rax             # imm = 0x5D0
	addl	(%rcx,%rax,4), %edx
	movl	%edx, (%rcx,%rax,4)
	movq	-1520(%rbp), %rax       # 8-byte Reload
	addq	$1, %rax
	movq	%rax, -1512(%rbp)       # 8-byte Spill
	jmp	.LBB1_281
.LBB1_284:                              # %for.body3.94
                                        # =>This Inner Loop Header: Depth=1
	movq	-1528(%rbp), %rax       # 8-byte Reload
	movq	%rax, %rcx
	addq	$1504, %rcx             # imm = 0x5E0
	movq	-8(%rbp), %rdx          # 8-byte Reload
	movl	-4(%rdx,%rcx,4), %esi
	movq	%rax, %rcx
	addq	$1504, %rcx             # imm = 0x5E0
	addl	(%rdx,%rcx,4), %esi
	movl	%esi, (%rdx,%rcx,4)
	addq	$1, %rax
	movq	%rax, %rcx
	addq	$1504, %rcx             # imm = 0x5E0
	movl	-4(%rdx,%rcx,4), %esi
	movq	%rax, %rcx
	addq	$1504, %rcx             # imm = 0x5E0
	addl	(%rdx,%rcx,4), %esi
	movl	%esi, (%rdx,%rcx,4)
	addq	$1, %rax
	movq	%rax, %rcx
	addq	$1504, %rcx             # imm = 0x5E0
	movl	-4(%rdx,%rcx,4), %esi
	movq	%rax, %rcx
	addq	$1504, %rcx             # imm = 0x5E0
	addl	(%rdx,%rcx,4), %esi
	movl	%esi, (%rdx,%rcx,4)
	addq	$1, %rax
	cmpq	$16, %rax
	movq	%rax, -1536(%rbp)       # 8-byte Spill
	jne	.LBB1_286
# %bb.285:                              # %for.inc9.94
	movl	$1, %eax
	movq	%rax, -1544(%rbp)       # 8-byte Spill
	jmp	.LBB1_287
.LBB1_286:                              # %for.body3.3.94
                                        #   in Loop: Header=BB1_284 Depth=1
	movq	-1536(%rbp), %rax       # 8-byte Reload
	addq	$1504, %rax             # imm = 0x5E0
	movq	-8(%rbp), %rcx          # 8-byte Reload
	movl	-4(%rcx,%rax,4), %edx
	movq	-1536(%rbp), %rax       # 8-byte Reload
	addq	$1504, %rax             # imm = 0x5E0
	addl	(%rcx,%rax,4), %edx
	movl	%edx, (%rcx,%rax,4)
	movq	-1536(%rbp), %rax       # 8-byte Reload
	addq	$1, %rax
	movq	%rax, -1528(%rbp)       # 8-byte Spill
	jmp	.LBB1_284
.LBB1_287:                              # %for.body3.95
                                        # =>This Inner Loop Header: Depth=1
	movq	-1544(%rbp), %rax       # 8-byte Reload
	movq	%rax, %rcx
	addq	$1520, %rcx             # imm = 0x5F0
	movq	-8(%rbp), %rdx          # 8-byte Reload
	movl	-4(%rdx,%rcx,4), %esi
	movq	%rax, %rcx
	addq	$1520, %rcx             # imm = 0x5F0
	addl	(%rdx,%rcx,4), %esi
	movl	%esi, (%rdx,%rcx,4)
	addq	$1, %rax
	movq	%rax, %rcx
	addq	$1520, %rcx             # imm = 0x5F0
	movl	-4(%rdx,%rcx,4), %esi
	movq	%rax, %rcx
	addq	$1520, %rcx             # imm = 0x5F0
	addl	(%rdx,%rcx,4), %esi
	movl	%esi, (%rdx,%rcx,4)
	addq	$1, %rax
	movq	%rax, %rcx
	addq	$1520, %rcx             # imm = 0x5F0
	movl	-4(%rdx,%rcx,4), %esi
	movq	%rax, %rcx
	addq	$1520, %rcx             # imm = 0x5F0
	addl	(%rdx,%rcx,4), %esi
	movl	%esi, (%rdx,%rcx,4)
	addq	$1, %rax
	cmpq	$16, %rax
	movq	%rax, -1552(%rbp)       # 8-byte Spill
	jne	.LBB1_289
# %bb.288:                              # %for.inc9.95
	movl	$1, %eax
	movq	%rax, -1560(%rbp)       # 8-byte Spill
	jmp	.LBB1_290
.LBB1_289:                              # %for.body3.3.95
                                        #   in Loop: Header=BB1_287 Depth=1
	movq	-1552(%rbp), %rax       # 8-byte Reload
	addq	$1520, %rax             # imm = 0x5F0
	movq	-8(%rbp), %rcx          # 8-byte Reload
	movl	-4(%rcx,%rax,4), %edx
	movq	-1552(%rbp), %rax       # 8-byte Reload
	addq	$1520, %rax             # imm = 0x5F0
	addl	(%rcx,%rax,4), %edx
	movl	%edx, (%rcx,%rax,4)
	movq	-1552(%rbp), %rax       # 8-byte Reload
	addq	$1, %rax
	movq	%rax, -1544(%rbp)       # 8-byte Spill
	jmp	.LBB1_287
.LBB1_290:                              # %for.body3.96
                                        # =>This Inner Loop Header: Depth=1
	movq	-1560(%rbp), %rax       # 8-byte Reload
	movq	%rax, %rcx
	addq	$1536, %rcx             # imm = 0x600
	movq	-8(%rbp), %rdx          # 8-byte Reload
	movl	-4(%rdx,%rcx,4), %esi
	movq	%rax, %rcx
	addq	$1536, %rcx             # imm = 0x600
	addl	(%rdx,%rcx,4), %esi
	movl	%esi, (%rdx,%rcx,4)
	addq	$1, %rax
	movq	%rax, %rcx
	addq	$1536, %rcx             # imm = 0x600
	movl	-4(%rdx,%rcx,4), %esi
	movq	%rax, %rcx
	addq	$1536, %rcx             # imm = 0x600
	addl	(%rdx,%rcx,4), %esi
	movl	%esi, (%rdx,%rcx,4)
	addq	$1, %rax
	movq	%rax, %rcx
	addq	$1536, %rcx             # imm = 0x600
	movl	-4(%rdx,%rcx,4), %esi
	movq	%rax, %rcx
	addq	$1536, %rcx             # imm = 0x600
	addl	(%rdx,%rcx,4), %esi
	movl	%esi, (%rdx,%rcx,4)
	addq	$1, %rax
	cmpq	$16, %rax
	movq	%rax, -1568(%rbp)       # 8-byte Spill
	jne	.LBB1_292
# %bb.291:                              # %for.inc9.96
	movl	$1, %eax
	movq	%rax, -1576(%rbp)       # 8-byte Spill
	jmp	.LBB1_293
.LBB1_292:                              # %for.body3.3.96
                                        #   in Loop: Header=BB1_290 Depth=1
	movq	-1568(%rbp), %rax       # 8-byte Reload
	addq	$1536, %rax             # imm = 0x600
	movq	-8(%rbp), %rcx          # 8-byte Reload
	movl	-4(%rcx,%rax,4), %edx
	movq	-1568(%rbp), %rax       # 8-byte Reload
	addq	$1536, %rax             # imm = 0x600
	addl	(%rcx,%rax,4), %edx
	movl	%edx, (%rcx,%rax,4)
	movq	-1568(%rbp), %rax       # 8-byte Reload
	addq	$1, %rax
	movq	%rax, -1560(%rbp)       # 8-byte Spill
	jmp	.LBB1_290
.LBB1_293:                              # %for.body3.97
                                        # =>This Inner Loop Header: Depth=1
	movq	-1576(%rbp), %rax       # 8-byte Reload
	movq	%rax, %rcx
	addq	$1552, %rcx             # imm = 0x610
	movq	-8(%rbp), %rdx          # 8-byte Reload
	movl	-4(%rdx,%rcx,4), %esi
	movq	%rax, %rcx
	addq	$1552, %rcx             # imm = 0x610
	addl	(%rdx,%rcx,4), %esi
	movl	%esi, (%rdx,%rcx,4)
	addq	$1, %rax
	movq	%rax, %rcx
	addq	$1552, %rcx             # imm = 0x610
	movl	-4(%rdx,%rcx,4), %esi
	movq	%rax, %rcx
	addq	$1552, %rcx             # imm = 0x610
	addl	(%rdx,%rcx,4), %esi
	movl	%esi, (%rdx,%rcx,4)
	addq	$1, %rax
	movq	%rax, %rcx
	addq	$1552, %rcx             # imm = 0x610
	movl	-4(%rdx,%rcx,4), %esi
	movq	%rax, %rcx
	addq	$1552, %rcx             # imm = 0x610
	addl	(%rdx,%rcx,4), %esi
	movl	%esi, (%rdx,%rcx,4)
	addq	$1, %rax
	cmpq	$16, %rax
	movq	%rax, -1584(%rbp)       # 8-byte Spill
	jne	.LBB1_295
# %bb.294:                              # %for.inc9.97
	movl	$1, %eax
	movq	%rax, -1592(%rbp)       # 8-byte Spill
	jmp	.LBB1_296
.LBB1_295:                              # %for.body3.3.97
                                        #   in Loop: Header=BB1_293 Depth=1
	movq	-1584(%rbp), %rax       # 8-byte Reload
	addq	$1552, %rax             # imm = 0x610
	movq	-8(%rbp), %rcx          # 8-byte Reload
	movl	-4(%rcx,%rax,4), %edx
	movq	-1584(%rbp), %rax       # 8-byte Reload
	addq	$1552, %rax             # imm = 0x610
	addl	(%rcx,%rax,4), %edx
	movl	%edx, (%rcx,%rax,4)
	movq	-1584(%rbp), %rax       # 8-byte Reload
	addq	$1, %rax
	movq	%rax, -1576(%rbp)       # 8-byte Spill
	jmp	.LBB1_293
.LBB1_296:                              # %for.body3.98
                                        # =>This Inner Loop Header: Depth=1
	movq	-1592(%rbp), %rax       # 8-byte Reload
	movq	%rax, %rcx
	addq	$1568, %rcx             # imm = 0x620
	movq	-8(%rbp), %rdx          # 8-byte Reload
	movl	-4(%rdx,%rcx,4), %esi
	movq	%rax, %rcx
	addq	$1568, %rcx             # imm = 0x620
	addl	(%rdx,%rcx,4), %esi
	movl	%esi, (%rdx,%rcx,4)
	addq	$1, %rax
	movq	%rax, %rcx
	addq	$1568, %rcx             # imm = 0x620
	movl	-4(%rdx,%rcx,4), %esi
	movq	%rax, %rcx
	addq	$1568, %rcx             # imm = 0x620
	addl	(%rdx,%rcx,4), %esi
	movl	%esi, (%rdx,%rcx,4)
	addq	$1, %rax
	movq	%rax, %rcx
	addq	$1568, %rcx             # imm = 0x620
	movl	-4(%rdx,%rcx,4), %esi
	movq	%rax, %rcx
	addq	$1568, %rcx             # imm = 0x620
	addl	(%rdx,%rcx,4), %esi
	movl	%esi, (%rdx,%rcx,4)
	addq	$1, %rax
	cmpq	$16, %rax
	movq	%rax, -1600(%rbp)       # 8-byte Spill
	jne	.LBB1_298
# %bb.297:                              # %for.inc9.98
	movl	$1, %eax
	movq	%rax, -1608(%rbp)       # 8-byte Spill
	jmp	.LBB1_299
.LBB1_298:                              # %for.body3.3.98
                                        #   in Loop: Header=BB1_296 Depth=1
	movq	-1600(%rbp), %rax       # 8-byte Reload
	addq	$1568, %rax             # imm = 0x620
	movq	-8(%rbp), %rcx          # 8-byte Reload
	movl	-4(%rcx,%rax,4), %edx
	movq	-1600(%rbp), %rax       # 8-byte Reload
	addq	$1568, %rax             # imm = 0x620
	addl	(%rcx,%rax,4), %edx
	movl	%edx, (%rcx,%rax,4)
	movq	-1600(%rbp), %rax       # 8-byte Reload
	addq	$1, %rax
	movq	%rax, -1592(%rbp)       # 8-byte Spill
	jmp	.LBB1_296
.LBB1_299:                              # %for.body3.99
                                        # =>This Inner Loop Header: Depth=1
	movq	-1608(%rbp), %rax       # 8-byte Reload
	movq	%rax, %rcx
	addq	$1584, %rcx             # imm = 0x630
	movq	-8(%rbp), %rdx          # 8-byte Reload
	movl	-4(%rdx,%rcx,4), %esi
	movq	%rax, %rcx
	addq	$1584, %rcx             # imm = 0x630
	addl	(%rdx,%rcx,4), %esi
	movl	%esi, (%rdx,%rcx,4)
	addq	$1, %rax
	movq	%rax, %rcx
	addq	$1584, %rcx             # imm = 0x630
	movl	-4(%rdx,%rcx,4), %esi
	movq	%rax, %rcx
	addq	$1584, %rcx             # imm = 0x630
	addl	(%rdx,%rcx,4), %esi
	movl	%esi, (%rdx,%rcx,4)
	addq	$1, %rax
	movq	%rax, %rcx
	addq	$1584, %rcx             # imm = 0x630
	movl	-4(%rdx,%rcx,4), %esi
	movq	%rax, %rcx
	addq	$1584, %rcx             # imm = 0x630
	addl	(%rdx,%rcx,4), %esi
	movl	%esi, (%rdx,%rcx,4)
	addq	$1, %rax
	cmpq	$16, %rax
	movq	%rax, -1616(%rbp)       # 8-byte Spill
	jne	.LBB1_301
# %bb.300:                              # %for.inc9.99
	movl	$1, %eax
	movq	%rax, -1624(%rbp)       # 8-byte Spill
	jmp	.LBB1_302
.LBB1_301:                              # %for.body3.3.99
                                        #   in Loop: Header=BB1_299 Depth=1
	movq	-1616(%rbp), %rax       # 8-byte Reload
	addq	$1584, %rax             # imm = 0x630
	movq	-8(%rbp), %rcx          # 8-byte Reload
	movl	-4(%rcx,%rax,4), %edx
	movq	-1616(%rbp), %rax       # 8-byte Reload
	addq	$1584, %rax             # imm = 0x630
	addl	(%rcx,%rax,4), %edx
	movl	%edx, (%rcx,%rax,4)
	movq	-1616(%rbp), %rax       # 8-byte Reload
	addq	$1, %rax
	movq	%rax, -1608(%rbp)       # 8-byte Spill
	jmp	.LBB1_299
.LBB1_302:                              # %for.body3.100
                                        # =>This Inner Loop Header: Depth=1
	movq	-1624(%rbp), %rax       # 8-byte Reload
	movq	%rax, %rcx
	addq	$1600, %rcx             # imm = 0x640
	movq	-8(%rbp), %rdx          # 8-byte Reload
	movl	-4(%rdx,%rcx,4), %esi
	movq	%rax, %rcx
	addq	$1600, %rcx             # imm = 0x640
	addl	(%rdx,%rcx,4), %esi
	movl	%esi, (%rdx,%rcx,4)
	addq	$1, %rax
	movq	%rax, %rcx
	addq	$1600, %rcx             # imm = 0x640
	movl	-4(%rdx,%rcx,4), %esi
	movq	%rax, %rcx
	addq	$1600, %rcx             # imm = 0x640
	addl	(%rdx,%rcx,4), %esi
	movl	%esi, (%rdx,%rcx,4)
	addq	$1, %rax
	movq	%rax, %rcx
	addq	$1600, %rcx             # imm = 0x640
	movl	-4(%rdx,%rcx,4), %esi
	movq	%rax, %rcx
	addq	$1600, %rcx             # imm = 0x640
	addl	(%rdx,%rcx,4), %esi
	movl	%esi, (%rdx,%rcx,4)
	addq	$1, %rax
	cmpq	$16, %rax
	movq	%rax, -1632(%rbp)       # 8-byte Spill
	jne	.LBB1_304
# %bb.303:                              # %for.inc9.100
	movl	$1, %eax
	movq	%rax, -1640(%rbp)       # 8-byte Spill
	jmp	.LBB1_305
.LBB1_304:                              # %for.body3.3.100
                                        #   in Loop: Header=BB1_302 Depth=1
	movq	-1632(%rbp), %rax       # 8-byte Reload
	addq	$1600, %rax             # imm = 0x640
	movq	-8(%rbp), %rcx          # 8-byte Reload
	movl	-4(%rcx,%rax,4), %edx
	movq	-1632(%rbp), %rax       # 8-byte Reload
	addq	$1600, %rax             # imm = 0x640
	addl	(%rcx,%rax,4), %edx
	movl	%edx, (%rcx,%rax,4)
	movq	-1632(%rbp), %rax       # 8-byte Reload
	addq	$1, %rax
	movq	%rax, -1624(%rbp)       # 8-byte Spill
	jmp	.LBB1_302
.LBB1_305:                              # %for.body3.101
                                        # =>This Inner Loop Header: Depth=1
	movq	-1640(%rbp), %rax       # 8-byte Reload
	movq	%rax, %rcx
	addq	$1616, %rcx             # imm = 0x650
	movq	-8(%rbp), %rdx          # 8-byte Reload
	movl	-4(%rdx,%rcx,4), %esi
	movq	%rax, %rcx
	addq	$1616, %rcx             # imm = 0x650
	addl	(%rdx,%rcx,4), %esi
	movl	%esi, (%rdx,%rcx,4)
	addq	$1, %rax
	movq	%rax, %rcx
	addq	$1616, %rcx             # imm = 0x650
	movl	-4(%rdx,%rcx,4), %esi
	movq	%rax, %rcx
	addq	$1616, %rcx             # imm = 0x650
	addl	(%rdx,%rcx,4), %esi
	movl	%esi, (%rdx,%rcx,4)
	addq	$1, %rax
	movq	%rax, %rcx
	addq	$1616, %rcx             # imm = 0x650
	movl	-4(%rdx,%rcx,4), %esi
	movq	%rax, %rcx
	addq	$1616, %rcx             # imm = 0x650
	addl	(%rdx,%rcx,4), %esi
	movl	%esi, (%rdx,%rcx,4)
	addq	$1, %rax
	cmpq	$16, %rax
	movq	%rax, -1648(%rbp)       # 8-byte Spill
	jne	.LBB1_307
# %bb.306:                              # %for.inc9.101
	movl	$1, %eax
	movq	%rax, -1656(%rbp)       # 8-byte Spill
	jmp	.LBB1_308
.LBB1_307:                              # %for.body3.3.101
                                        #   in Loop: Header=BB1_305 Depth=1
	movq	-1648(%rbp), %rax       # 8-byte Reload
	addq	$1616, %rax             # imm = 0x650
	movq	-8(%rbp), %rcx          # 8-byte Reload
	movl	-4(%rcx,%rax,4), %edx
	movq	-1648(%rbp), %rax       # 8-byte Reload
	addq	$1616, %rax             # imm = 0x650
	addl	(%rcx,%rax,4), %edx
	movl	%edx, (%rcx,%rax,4)
	movq	-1648(%rbp), %rax       # 8-byte Reload
	addq	$1, %rax
	movq	%rax, -1640(%rbp)       # 8-byte Spill
	jmp	.LBB1_305
.LBB1_308:                              # %for.body3.102
                                        # =>This Inner Loop Header: Depth=1
	movq	-1656(%rbp), %rax       # 8-byte Reload
	movq	%rax, %rcx
	addq	$1632, %rcx             # imm = 0x660
	movq	-8(%rbp), %rdx          # 8-byte Reload
	movl	-4(%rdx,%rcx,4), %esi
	movq	%rax, %rcx
	addq	$1632, %rcx             # imm = 0x660
	addl	(%rdx,%rcx,4), %esi
	movl	%esi, (%rdx,%rcx,4)
	addq	$1, %rax
	movq	%rax, %rcx
	addq	$1632, %rcx             # imm = 0x660
	movl	-4(%rdx,%rcx,4), %esi
	movq	%rax, %rcx
	addq	$1632, %rcx             # imm = 0x660
	addl	(%rdx,%rcx,4), %esi
	movl	%esi, (%rdx,%rcx,4)
	addq	$1, %rax
	movq	%rax, %rcx
	addq	$1632, %rcx             # imm = 0x660
	movl	-4(%rdx,%rcx,4), %esi
	movq	%rax, %rcx
	addq	$1632, %rcx             # imm = 0x660
	addl	(%rdx,%rcx,4), %esi
	movl	%esi, (%rdx,%rcx,4)
	addq	$1, %rax
	cmpq	$16, %rax
	movq	%rax, -1664(%rbp)       # 8-byte Spill
	jne	.LBB1_310
# %bb.309:                              # %for.inc9.102
	movl	$1, %eax
	movq	%rax, -1672(%rbp)       # 8-byte Spill
	jmp	.LBB1_311
.LBB1_310:                              # %for.body3.3.102
                                        #   in Loop: Header=BB1_308 Depth=1
	movq	-1664(%rbp), %rax       # 8-byte Reload
	addq	$1632, %rax             # imm = 0x660
	movq	-8(%rbp), %rcx          # 8-byte Reload
	movl	-4(%rcx,%rax,4), %edx
	movq	-1664(%rbp), %rax       # 8-byte Reload
	addq	$1632, %rax             # imm = 0x660
	addl	(%rcx,%rax,4), %edx
	movl	%edx, (%rcx,%rax,4)
	movq	-1664(%rbp), %rax       # 8-byte Reload
	addq	$1, %rax
	movq	%rax, -1656(%rbp)       # 8-byte Spill
	jmp	.LBB1_308
.LBB1_311:                              # %for.body3.103
                                        # =>This Inner Loop Header: Depth=1
	movq	-1672(%rbp), %rax       # 8-byte Reload
	movq	%rax, %rcx
	addq	$1648, %rcx             # imm = 0x670
	movq	-8(%rbp), %rdx          # 8-byte Reload
	movl	-4(%rdx,%rcx,4), %esi
	movq	%rax, %rcx
	addq	$1648, %rcx             # imm = 0x670
	addl	(%rdx,%rcx,4), %esi
	movl	%esi, (%rdx,%rcx,4)
	addq	$1, %rax
	movq	%rax, %rcx
	addq	$1648, %rcx             # imm = 0x670
	movl	-4(%rdx,%rcx,4), %esi
	movq	%rax, %rcx
	addq	$1648, %rcx             # imm = 0x670
	addl	(%rdx,%rcx,4), %esi
	movl	%esi, (%rdx,%rcx,4)
	addq	$1, %rax
	movq	%rax, %rcx
	addq	$1648, %rcx             # imm = 0x670
	movl	-4(%rdx,%rcx,4), %esi
	movq	%rax, %rcx
	addq	$1648, %rcx             # imm = 0x670
	addl	(%rdx,%rcx,4), %esi
	movl	%esi, (%rdx,%rcx,4)
	addq	$1, %rax
	cmpq	$16, %rax
	movq	%rax, -1680(%rbp)       # 8-byte Spill
	jne	.LBB1_313
# %bb.312:                              # %for.inc9.103
	movl	$1, %eax
	movq	%rax, -1688(%rbp)       # 8-byte Spill
	jmp	.LBB1_314
.LBB1_313:                              # %for.body3.3.103
                                        #   in Loop: Header=BB1_311 Depth=1
	movq	-1680(%rbp), %rax       # 8-byte Reload
	addq	$1648, %rax             # imm = 0x670
	movq	-8(%rbp), %rcx          # 8-byte Reload
	movl	-4(%rcx,%rax,4), %edx
	movq	-1680(%rbp), %rax       # 8-byte Reload
	addq	$1648, %rax             # imm = 0x670
	addl	(%rcx,%rax,4), %edx
	movl	%edx, (%rcx,%rax,4)
	movq	-1680(%rbp), %rax       # 8-byte Reload
	addq	$1, %rax
	movq	%rax, -1672(%rbp)       # 8-byte Spill
	jmp	.LBB1_311
.LBB1_314:                              # %for.body3.104
                                        # =>This Inner Loop Header: Depth=1
	movq	-1688(%rbp), %rax       # 8-byte Reload
	movq	%rax, %rcx
	addq	$1664, %rcx             # imm = 0x680
	movq	-8(%rbp), %rdx          # 8-byte Reload
	movl	-4(%rdx,%rcx,4), %esi
	movq	%rax, %rcx
	addq	$1664, %rcx             # imm = 0x680
	addl	(%rdx,%rcx,4), %esi
	movl	%esi, (%rdx,%rcx,4)
	addq	$1, %rax
	movq	%rax, %rcx
	addq	$1664, %rcx             # imm = 0x680
	movl	-4(%rdx,%rcx,4), %esi
	movq	%rax, %rcx
	addq	$1664, %rcx             # imm = 0x680
	addl	(%rdx,%rcx,4), %esi
	movl	%esi, (%rdx,%rcx,4)
	addq	$1, %rax
	movq	%rax, %rcx
	addq	$1664, %rcx             # imm = 0x680
	movl	-4(%rdx,%rcx,4), %esi
	movq	%rax, %rcx
	addq	$1664, %rcx             # imm = 0x680
	addl	(%rdx,%rcx,4), %esi
	movl	%esi, (%rdx,%rcx,4)
	addq	$1, %rax
	cmpq	$16, %rax
	movq	%rax, -1696(%rbp)       # 8-byte Spill
	jne	.LBB1_316
# %bb.315:                              # %for.inc9.104
	movl	$1, %eax
	movq	%rax, -1704(%rbp)       # 8-byte Spill
	jmp	.LBB1_317
.LBB1_316:                              # %for.body3.3.104
                                        #   in Loop: Header=BB1_314 Depth=1
	movq	-1696(%rbp), %rax       # 8-byte Reload
	addq	$1664, %rax             # imm = 0x680
	movq	-8(%rbp), %rcx          # 8-byte Reload
	movl	-4(%rcx,%rax,4), %edx
	movq	-1696(%rbp), %rax       # 8-byte Reload
	addq	$1664, %rax             # imm = 0x680
	addl	(%rcx,%rax,4), %edx
	movl	%edx, (%rcx,%rax,4)
	movq	-1696(%rbp), %rax       # 8-byte Reload
	addq	$1, %rax
	movq	%rax, -1688(%rbp)       # 8-byte Spill
	jmp	.LBB1_314
.LBB1_317:                              # %for.body3.105
                                        # =>This Inner Loop Header: Depth=1
	movq	-1704(%rbp), %rax       # 8-byte Reload
	movq	%rax, %rcx
	addq	$1680, %rcx             # imm = 0x690
	movq	-8(%rbp), %rdx          # 8-byte Reload
	movl	-4(%rdx,%rcx,4), %esi
	movq	%rax, %rcx
	addq	$1680, %rcx             # imm = 0x690
	addl	(%rdx,%rcx,4), %esi
	movl	%esi, (%rdx,%rcx,4)
	addq	$1, %rax
	movq	%rax, %rcx
	addq	$1680, %rcx             # imm = 0x690
	movl	-4(%rdx,%rcx,4), %esi
	movq	%rax, %rcx
	addq	$1680, %rcx             # imm = 0x690
	addl	(%rdx,%rcx,4), %esi
	movl	%esi, (%rdx,%rcx,4)
	addq	$1, %rax
	movq	%rax, %rcx
	addq	$1680, %rcx             # imm = 0x690
	movl	-4(%rdx,%rcx,4), %esi
	movq	%rax, %rcx
	addq	$1680, %rcx             # imm = 0x690
	addl	(%rdx,%rcx,4), %esi
	movl	%esi, (%rdx,%rcx,4)
	addq	$1, %rax
	cmpq	$16, %rax
	movq	%rax, -1712(%rbp)       # 8-byte Spill
	jne	.LBB1_319
# %bb.318:                              # %for.inc9.105
	movl	$1, %eax
	movq	%rax, -1720(%rbp)       # 8-byte Spill
	jmp	.LBB1_320
.LBB1_319:                              # %for.body3.3.105
                                        #   in Loop: Header=BB1_317 Depth=1
	movq	-1712(%rbp), %rax       # 8-byte Reload
	addq	$1680, %rax             # imm = 0x690
	movq	-8(%rbp), %rcx          # 8-byte Reload
	movl	-4(%rcx,%rax,4), %edx
	movq	-1712(%rbp), %rax       # 8-byte Reload
	addq	$1680, %rax             # imm = 0x690
	addl	(%rcx,%rax,4), %edx
	movl	%edx, (%rcx,%rax,4)
	movq	-1712(%rbp), %rax       # 8-byte Reload
	addq	$1, %rax
	movq	%rax, -1704(%rbp)       # 8-byte Spill
	jmp	.LBB1_317
.LBB1_320:                              # %for.body3.106
                                        # =>This Inner Loop Header: Depth=1
	movq	-1720(%rbp), %rax       # 8-byte Reload
	movq	%rax, %rcx
	addq	$1696, %rcx             # imm = 0x6A0
	movq	-8(%rbp), %rdx          # 8-byte Reload
	movl	-4(%rdx,%rcx,4), %esi
	movq	%rax, %rcx
	addq	$1696, %rcx             # imm = 0x6A0
	addl	(%rdx,%rcx,4), %esi
	movl	%esi, (%rdx,%rcx,4)
	addq	$1, %rax
	movq	%rax, %rcx
	addq	$1696, %rcx             # imm = 0x6A0
	movl	-4(%rdx,%rcx,4), %esi
	movq	%rax, %rcx
	addq	$1696, %rcx             # imm = 0x6A0
	addl	(%rdx,%rcx,4), %esi
	movl	%esi, (%rdx,%rcx,4)
	addq	$1, %rax
	movq	%rax, %rcx
	addq	$1696, %rcx             # imm = 0x6A0
	movl	-4(%rdx,%rcx,4), %esi
	movq	%rax, %rcx
	addq	$1696, %rcx             # imm = 0x6A0
	addl	(%rdx,%rcx,4), %esi
	movl	%esi, (%rdx,%rcx,4)
	addq	$1, %rax
	cmpq	$16, %rax
	movq	%rax, -1728(%rbp)       # 8-byte Spill
	jne	.LBB1_322
# %bb.321:                              # %for.inc9.106
	movl	$1, %eax
	movq	%rax, -1736(%rbp)       # 8-byte Spill
	jmp	.LBB1_323
.LBB1_322:                              # %for.body3.3.106
                                        #   in Loop: Header=BB1_320 Depth=1
	movq	-1728(%rbp), %rax       # 8-byte Reload
	addq	$1696, %rax             # imm = 0x6A0
	movq	-8(%rbp), %rcx          # 8-byte Reload
	movl	-4(%rcx,%rax,4), %edx
	movq	-1728(%rbp), %rax       # 8-byte Reload
	addq	$1696, %rax             # imm = 0x6A0
	addl	(%rcx,%rax,4), %edx
	movl	%edx, (%rcx,%rax,4)
	movq	-1728(%rbp), %rax       # 8-byte Reload
	addq	$1, %rax
	movq	%rax, -1720(%rbp)       # 8-byte Spill
	jmp	.LBB1_320
.LBB1_323:                              # %for.body3.107
                                        # =>This Inner Loop Header: Depth=1
	movq	-1736(%rbp), %rax       # 8-byte Reload
	movq	%rax, %rcx
	addq	$1712, %rcx             # imm = 0x6B0
	movq	-8(%rbp), %rdx          # 8-byte Reload
	movl	-4(%rdx,%rcx,4), %esi
	movq	%rax, %rcx
	addq	$1712, %rcx             # imm = 0x6B0
	addl	(%rdx,%rcx,4), %esi
	movl	%esi, (%rdx,%rcx,4)
	addq	$1, %rax
	movq	%rax, %rcx
	addq	$1712, %rcx             # imm = 0x6B0
	movl	-4(%rdx,%rcx,4), %esi
	movq	%rax, %rcx
	addq	$1712, %rcx             # imm = 0x6B0
	addl	(%rdx,%rcx,4), %esi
	movl	%esi, (%rdx,%rcx,4)
	addq	$1, %rax
	movq	%rax, %rcx
	addq	$1712, %rcx             # imm = 0x6B0
	movl	-4(%rdx,%rcx,4), %esi
	movq	%rax, %rcx
	addq	$1712, %rcx             # imm = 0x6B0
	addl	(%rdx,%rcx,4), %esi
	movl	%esi, (%rdx,%rcx,4)
	addq	$1, %rax
	cmpq	$16, %rax
	movq	%rax, -1744(%rbp)       # 8-byte Spill
	jne	.LBB1_325
# %bb.324:                              # %for.inc9.107
	movl	$1, %eax
	movq	%rax, -1752(%rbp)       # 8-byte Spill
	jmp	.LBB1_326
.LBB1_325:                              # %for.body3.3.107
                                        #   in Loop: Header=BB1_323 Depth=1
	movq	-1744(%rbp), %rax       # 8-byte Reload
	addq	$1712, %rax             # imm = 0x6B0
	movq	-8(%rbp), %rcx          # 8-byte Reload
	movl	-4(%rcx,%rax,4), %edx
	movq	-1744(%rbp), %rax       # 8-byte Reload
	addq	$1712, %rax             # imm = 0x6B0
	addl	(%rcx,%rax,4), %edx
	movl	%edx, (%rcx,%rax,4)
	movq	-1744(%rbp), %rax       # 8-byte Reload
	addq	$1, %rax
	movq	%rax, -1736(%rbp)       # 8-byte Spill
	jmp	.LBB1_323
.LBB1_326:                              # %for.body3.108
                                        # =>This Inner Loop Header: Depth=1
	movq	-1752(%rbp), %rax       # 8-byte Reload
	movq	%rax, %rcx
	addq	$1728, %rcx             # imm = 0x6C0
	movq	-8(%rbp), %rdx          # 8-byte Reload
	movl	-4(%rdx,%rcx,4), %esi
	movq	%rax, %rcx
	addq	$1728, %rcx             # imm = 0x6C0
	addl	(%rdx,%rcx,4), %esi
	movl	%esi, (%rdx,%rcx,4)
	addq	$1, %rax
	movq	%rax, %rcx
	addq	$1728, %rcx             # imm = 0x6C0
	movl	-4(%rdx,%rcx,4), %esi
	movq	%rax, %rcx
	addq	$1728, %rcx             # imm = 0x6C0
	addl	(%rdx,%rcx,4), %esi
	movl	%esi, (%rdx,%rcx,4)
	addq	$1, %rax
	movq	%rax, %rcx
	addq	$1728, %rcx             # imm = 0x6C0
	movl	-4(%rdx,%rcx,4), %esi
	movq	%rax, %rcx
	addq	$1728, %rcx             # imm = 0x6C0
	addl	(%rdx,%rcx,4), %esi
	movl	%esi, (%rdx,%rcx,4)
	addq	$1, %rax
	cmpq	$16, %rax
	movq	%rax, -1760(%rbp)       # 8-byte Spill
	jne	.LBB1_328
# %bb.327:                              # %for.inc9.108
	movl	$1, %eax
	movq	%rax, -1768(%rbp)       # 8-byte Spill
	jmp	.LBB1_329
.LBB1_328:                              # %for.body3.3.108
                                        #   in Loop: Header=BB1_326 Depth=1
	movq	-1760(%rbp), %rax       # 8-byte Reload
	addq	$1728, %rax             # imm = 0x6C0
	movq	-8(%rbp), %rcx          # 8-byte Reload
	movl	-4(%rcx,%rax,4), %edx
	movq	-1760(%rbp), %rax       # 8-byte Reload
	addq	$1728, %rax             # imm = 0x6C0
	addl	(%rcx,%rax,4), %edx
	movl	%edx, (%rcx,%rax,4)
	movq	-1760(%rbp), %rax       # 8-byte Reload
	addq	$1, %rax
	movq	%rax, -1752(%rbp)       # 8-byte Spill
	jmp	.LBB1_326
.LBB1_329:                              # %for.body3.109
                                        # =>This Inner Loop Header: Depth=1
	movq	-1768(%rbp), %rax       # 8-byte Reload
	movq	%rax, %rcx
	addq	$1744, %rcx             # imm = 0x6D0
	movq	-8(%rbp), %rdx          # 8-byte Reload
	movl	-4(%rdx,%rcx,4), %esi
	movq	%rax, %rcx
	addq	$1744, %rcx             # imm = 0x6D0
	addl	(%rdx,%rcx,4), %esi
	movl	%esi, (%rdx,%rcx,4)
	addq	$1, %rax
	movq	%rax, %rcx
	addq	$1744, %rcx             # imm = 0x6D0
	movl	-4(%rdx,%rcx,4), %esi
	movq	%rax, %rcx
	addq	$1744, %rcx             # imm = 0x6D0
	addl	(%rdx,%rcx,4), %esi
	movl	%esi, (%rdx,%rcx,4)
	addq	$1, %rax
	movq	%rax, %rcx
	addq	$1744, %rcx             # imm = 0x6D0
	movl	-4(%rdx,%rcx,4), %esi
	movq	%rax, %rcx
	addq	$1744, %rcx             # imm = 0x6D0
	addl	(%rdx,%rcx,4), %esi
	movl	%esi, (%rdx,%rcx,4)
	addq	$1, %rax
	cmpq	$16, %rax
	movq	%rax, -1776(%rbp)       # 8-byte Spill
	jne	.LBB1_331
# %bb.330:                              # %for.inc9.109
	movl	$1, %eax
	movq	%rax, -1784(%rbp)       # 8-byte Spill
	jmp	.LBB1_332
.LBB1_331:                              # %for.body3.3.109
                                        #   in Loop: Header=BB1_329 Depth=1
	movq	-1776(%rbp), %rax       # 8-byte Reload
	addq	$1744, %rax             # imm = 0x6D0
	movq	-8(%rbp), %rcx          # 8-byte Reload
	movl	-4(%rcx,%rax,4), %edx
	movq	-1776(%rbp), %rax       # 8-byte Reload
	addq	$1744, %rax             # imm = 0x6D0
	addl	(%rcx,%rax,4), %edx
	movl	%edx, (%rcx,%rax,4)
	movq	-1776(%rbp), %rax       # 8-byte Reload
	addq	$1, %rax
	movq	%rax, -1768(%rbp)       # 8-byte Spill
	jmp	.LBB1_329
.LBB1_332:                              # %for.body3.110
                                        # =>This Inner Loop Header: Depth=1
	movq	-1784(%rbp), %rax       # 8-byte Reload
	movq	%rax, %rcx
	addq	$1760, %rcx             # imm = 0x6E0
	movq	-8(%rbp), %rdx          # 8-byte Reload
	movl	-4(%rdx,%rcx,4), %esi
	movq	%rax, %rcx
	addq	$1760, %rcx             # imm = 0x6E0
	addl	(%rdx,%rcx,4), %esi
	movl	%esi, (%rdx,%rcx,4)
	addq	$1, %rax
	movq	%rax, %rcx
	addq	$1760, %rcx             # imm = 0x6E0
	movl	-4(%rdx,%rcx,4), %esi
	movq	%rax, %rcx
	addq	$1760, %rcx             # imm = 0x6E0
	addl	(%rdx,%rcx,4), %esi
	movl	%esi, (%rdx,%rcx,4)
	addq	$1, %rax
	movq	%rax, %rcx
	addq	$1760, %rcx             # imm = 0x6E0
	movl	-4(%rdx,%rcx,4), %esi
	movq	%rax, %rcx
	addq	$1760, %rcx             # imm = 0x6E0
	addl	(%rdx,%rcx,4), %esi
	movl	%esi, (%rdx,%rcx,4)
	addq	$1, %rax
	cmpq	$16, %rax
	movq	%rax, -1792(%rbp)       # 8-byte Spill
	jne	.LBB1_334
# %bb.333:                              # %for.inc9.110
	movl	$1, %eax
	movq	%rax, -1800(%rbp)       # 8-byte Spill
	jmp	.LBB1_335
.LBB1_334:                              # %for.body3.3.110
                                        #   in Loop: Header=BB1_332 Depth=1
	movq	-1792(%rbp), %rax       # 8-byte Reload
	addq	$1760, %rax             # imm = 0x6E0
	movq	-8(%rbp), %rcx          # 8-byte Reload
	movl	-4(%rcx,%rax,4), %edx
	movq	-1792(%rbp), %rax       # 8-byte Reload
	addq	$1760, %rax             # imm = 0x6E0
	addl	(%rcx,%rax,4), %edx
	movl	%edx, (%rcx,%rax,4)
	movq	-1792(%rbp), %rax       # 8-byte Reload
	addq	$1, %rax
	movq	%rax, -1784(%rbp)       # 8-byte Spill
	jmp	.LBB1_332
.LBB1_335:                              # %for.body3.111
                                        # =>This Inner Loop Header: Depth=1
	movq	-1800(%rbp), %rax       # 8-byte Reload
	movq	%rax, %rcx
	addq	$1776, %rcx             # imm = 0x6F0
	movq	-8(%rbp), %rdx          # 8-byte Reload
	movl	-4(%rdx,%rcx,4), %esi
	movq	%rax, %rcx
	addq	$1776, %rcx             # imm = 0x6F0
	addl	(%rdx,%rcx,4), %esi
	movl	%esi, (%rdx,%rcx,4)
	addq	$1, %rax
	movq	%rax, %rcx
	addq	$1776, %rcx             # imm = 0x6F0
	movl	-4(%rdx,%rcx,4), %esi
	movq	%rax, %rcx
	addq	$1776, %rcx             # imm = 0x6F0
	addl	(%rdx,%rcx,4), %esi
	movl	%esi, (%rdx,%rcx,4)
	addq	$1, %rax
	movq	%rax, %rcx
	addq	$1776, %rcx             # imm = 0x6F0
	movl	-4(%rdx,%rcx,4), %esi
	movq	%rax, %rcx
	addq	$1776, %rcx             # imm = 0x6F0
	addl	(%rdx,%rcx,4), %esi
	movl	%esi, (%rdx,%rcx,4)
	addq	$1, %rax
	cmpq	$16, %rax
	movq	%rax, -1808(%rbp)       # 8-byte Spill
	jne	.LBB1_337
# %bb.336:                              # %for.inc9.111
	movl	$1, %eax
	movq	%rax, -1816(%rbp)       # 8-byte Spill
	jmp	.LBB1_338
.LBB1_337:                              # %for.body3.3.111
                                        #   in Loop: Header=BB1_335 Depth=1
	movq	-1808(%rbp), %rax       # 8-byte Reload
	addq	$1776, %rax             # imm = 0x6F0
	movq	-8(%rbp), %rcx          # 8-byte Reload
	movl	-4(%rcx,%rax,4), %edx
	movq	-1808(%rbp), %rax       # 8-byte Reload
	addq	$1776, %rax             # imm = 0x6F0
	addl	(%rcx,%rax,4), %edx
	movl	%edx, (%rcx,%rax,4)
	movq	-1808(%rbp), %rax       # 8-byte Reload
	addq	$1, %rax
	movq	%rax, -1800(%rbp)       # 8-byte Spill
	jmp	.LBB1_335
.LBB1_338:                              # %for.body3.112
                                        # =>This Inner Loop Header: Depth=1
	movq	-1816(%rbp), %rax       # 8-byte Reload
	movq	%rax, %rcx
	addq	$1792, %rcx             # imm = 0x700
	movq	-8(%rbp), %rdx          # 8-byte Reload
	movl	-4(%rdx,%rcx,4), %esi
	movq	%rax, %rcx
	addq	$1792, %rcx             # imm = 0x700
	addl	(%rdx,%rcx,4), %esi
	movl	%esi, (%rdx,%rcx,4)
	addq	$1, %rax
	movq	%rax, %rcx
	addq	$1792, %rcx             # imm = 0x700
	movl	-4(%rdx,%rcx,4), %esi
	movq	%rax, %rcx
	addq	$1792, %rcx             # imm = 0x700
	addl	(%rdx,%rcx,4), %esi
	movl	%esi, (%rdx,%rcx,4)
	addq	$1, %rax
	movq	%rax, %rcx
	addq	$1792, %rcx             # imm = 0x700
	movl	-4(%rdx,%rcx,4), %esi
	movq	%rax, %rcx
	addq	$1792, %rcx             # imm = 0x700
	addl	(%rdx,%rcx,4), %esi
	movl	%esi, (%rdx,%rcx,4)
	addq	$1, %rax
	cmpq	$16, %rax
	movq	%rax, -1824(%rbp)       # 8-byte Spill
	jne	.LBB1_340
# %bb.339:                              # %for.inc9.112
	movl	$1, %eax
	movq	%rax, -1832(%rbp)       # 8-byte Spill
	jmp	.LBB1_341
.LBB1_340:                              # %for.body3.3.112
                                        #   in Loop: Header=BB1_338 Depth=1
	movq	-1824(%rbp), %rax       # 8-byte Reload
	addq	$1792, %rax             # imm = 0x700
	movq	-8(%rbp), %rcx          # 8-byte Reload
	movl	-4(%rcx,%rax,4), %edx
	movq	-1824(%rbp), %rax       # 8-byte Reload
	addq	$1792, %rax             # imm = 0x700
	addl	(%rcx,%rax,4), %edx
	movl	%edx, (%rcx,%rax,4)
	movq	-1824(%rbp), %rax       # 8-byte Reload
	addq	$1, %rax
	movq	%rax, -1816(%rbp)       # 8-byte Spill
	jmp	.LBB1_338
.LBB1_341:                              # %for.body3.113
                                        # =>This Inner Loop Header: Depth=1
	movq	-1832(%rbp), %rax       # 8-byte Reload
	movq	%rax, %rcx
	addq	$1808, %rcx             # imm = 0x710
	movq	-8(%rbp), %rdx          # 8-byte Reload
	movl	-4(%rdx,%rcx,4), %esi
	movq	%rax, %rcx
	addq	$1808, %rcx             # imm = 0x710
	addl	(%rdx,%rcx,4), %esi
	movl	%esi, (%rdx,%rcx,4)
	addq	$1, %rax
	movq	%rax, %rcx
	addq	$1808, %rcx             # imm = 0x710
	movl	-4(%rdx,%rcx,4), %esi
	movq	%rax, %rcx
	addq	$1808, %rcx             # imm = 0x710
	addl	(%rdx,%rcx,4), %esi
	movl	%esi, (%rdx,%rcx,4)
	addq	$1, %rax
	movq	%rax, %rcx
	addq	$1808, %rcx             # imm = 0x710
	movl	-4(%rdx,%rcx,4), %esi
	movq	%rax, %rcx
	addq	$1808, %rcx             # imm = 0x710
	addl	(%rdx,%rcx,4), %esi
	movl	%esi, (%rdx,%rcx,4)
	addq	$1, %rax
	cmpq	$16, %rax
	movq	%rax, -1840(%rbp)       # 8-byte Spill
	jne	.LBB1_343
# %bb.342:                              # %for.inc9.113
	movl	$1, %eax
	movq	%rax, -1848(%rbp)       # 8-byte Spill
	jmp	.LBB1_344
.LBB1_343:                              # %for.body3.3.113
                                        #   in Loop: Header=BB1_341 Depth=1
	movq	-1840(%rbp), %rax       # 8-byte Reload
	addq	$1808, %rax             # imm = 0x710
	movq	-8(%rbp), %rcx          # 8-byte Reload
	movl	-4(%rcx,%rax,4), %edx
	movq	-1840(%rbp), %rax       # 8-byte Reload
	addq	$1808, %rax             # imm = 0x710
	addl	(%rcx,%rax,4), %edx
	movl	%edx, (%rcx,%rax,4)
	movq	-1840(%rbp), %rax       # 8-byte Reload
	addq	$1, %rax
	movq	%rax, -1832(%rbp)       # 8-byte Spill
	jmp	.LBB1_341
.LBB1_344:                              # %for.body3.114
                                        # =>This Inner Loop Header: Depth=1
	movq	-1848(%rbp), %rax       # 8-byte Reload
	movq	%rax, %rcx
	addq	$1824, %rcx             # imm = 0x720
	movq	-8(%rbp), %rdx          # 8-byte Reload
	movl	-4(%rdx,%rcx,4), %esi
	movq	%rax, %rcx
	addq	$1824, %rcx             # imm = 0x720
	addl	(%rdx,%rcx,4), %esi
	movl	%esi, (%rdx,%rcx,4)
	addq	$1, %rax
	movq	%rax, %rcx
	addq	$1824, %rcx             # imm = 0x720
	movl	-4(%rdx,%rcx,4), %esi
	movq	%rax, %rcx
	addq	$1824, %rcx             # imm = 0x720
	addl	(%rdx,%rcx,4), %esi
	movl	%esi, (%rdx,%rcx,4)
	addq	$1, %rax
	movq	%rax, %rcx
	addq	$1824, %rcx             # imm = 0x720
	movl	-4(%rdx,%rcx,4), %esi
	movq	%rax, %rcx
	addq	$1824, %rcx             # imm = 0x720
	addl	(%rdx,%rcx,4), %esi
	movl	%esi, (%rdx,%rcx,4)
	addq	$1, %rax
	cmpq	$16, %rax
	movq	%rax, -1856(%rbp)       # 8-byte Spill
	jne	.LBB1_346
# %bb.345:                              # %for.inc9.114
	movl	$1, %eax
	movq	%rax, -1864(%rbp)       # 8-byte Spill
	jmp	.LBB1_347
.LBB1_346:                              # %for.body3.3.114
                                        #   in Loop: Header=BB1_344 Depth=1
	movq	-1856(%rbp), %rax       # 8-byte Reload
	addq	$1824, %rax             # imm = 0x720
	movq	-8(%rbp), %rcx          # 8-byte Reload
	movl	-4(%rcx,%rax,4), %edx
	movq	-1856(%rbp), %rax       # 8-byte Reload
	addq	$1824, %rax             # imm = 0x720
	addl	(%rcx,%rax,4), %edx
	movl	%edx, (%rcx,%rax,4)
	movq	-1856(%rbp), %rax       # 8-byte Reload
	addq	$1, %rax
	movq	%rax, -1848(%rbp)       # 8-byte Spill
	jmp	.LBB1_344
.LBB1_347:                              # %for.body3.115
                                        # =>This Inner Loop Header: Depth=1
	movq	-1864(%rbp), %rax       # 8-byte Reload
	movq	%rax, %rcx
	addq	$1840, %rcx             # imm = 0x730
	movq	-8(%rbp), %rdx          # 8-byte Reload
	movl	-4(%rdx,%rcx,4), %esi
	movq	%rax, %rcx
	addq	$1840, %rcx             # imm = 0x730
	addl	(%rdx,%rcx,4), %esi
	movl	%esi, (%rdx,%rcx,4)
	addq	$1, %rax
	movq	%rax, %rcx
	addq	$1840, %rcx             # imm = 0x730
	movl	-4(%rdx,%rcx,4), %esi
	movq	%rax, %rcx
	addq	$1840, %rcx             # imm = 0x730
	addl	(%rdx,%rcx,4), %esi
	movl	%esi, (%rdx,%rcx,4)
	addq	$1, %rax
	movq	%rax, %rcx
	addq	$1840, %rcx             # imm = 0x730
	movl	-4(%rdx,%rcx,4), %esi
	movq	%rax, %rcx
	addq	$1840, %rcx             # imm = 0x730
	addl	(%rdx,%rcx,4), %esi
	movl	%esi, (%rdx,%rcx,4)
	addq	$1, %rax
	cmpq	$16, %rax
	movq	%rax, -1872(%rbp)       # 8-byte Spill
	jne	.LBB1_349
# %bb.348:                              # %for.inc9.115
	movl	$1, %eax
	movq	%rax, -1880(%rbp)       # 8-byte Spill
	jmp	.LBB1_350
.LBB1_349:                              # %for.body3.3.115
                                        #   in Loop: Header=BB1_347 Depth=1
	movq	-1872(%rbp), %rax       # 8-byte Reload
	addq	$1840, %rax             # imm = 0x730
	movq	-8(%rbp), %rcx          # 8-byte Reload
	movl	-4(%rcx,%rax,4), %edx
	movq	-1872(%rbp), %rax       # 8-byte Reload
	addq	$1840, %rax             # imm = 0x730
	addl	(%rcx,%rax,4), %edx
	movl	%edx, (%rcx,%rax,4)
	movq	-1872(%rbp), %rax       # 8-byte Reload
	addq	$1, %rax
	movq	%rax, -1864(%rbp)       # 8-byte Spill
	jmp	.LBB1_347
.LBB1_350:                              # %for.body3.116
                                        # =>This Inner Loop Header: Depth=1
	movq	-1880(%rbp), %rax       # 8-byte Reload
	movq	%rax, %rcx
	addq	$1856, %rcx             # imm = 0x740
	movq	-8(%rbp), %rdx          # 8-byte Reload
	movl	-4(%rdx,%rcx,4), %esi
	movq	%rax, %rcx
	addq	$1856, %rcx             # imm = 0x740
	addl	(%rdx,%rcx,4), %esi
	movl	%esi, (%rdx,%rcx,4)
	addq	$1, %rax
	movq	%rax, %rcx
	addq	$1856, %rcx             # imm = 0x740
	movl	-4(%rdx,%rcx,4), %esi
	movq	%rax, %rcx
	addq	$1856, %rcx             # imm = 0x740
	addl	(%rdx,%rcx,4), %esi
	movl	%esi, (%rdx,%rcx,4)
	addq	$1, %rax
	movq	%rax, %rcx
	addq	$1856, %rcx             # imm = 0x740
	movl	-4(%rdx,%rcx,4), %esi
	movq	%rax, %rcx
	addq	$1856, %rcx             # imm = 0x740
	addl	(%rdx,%rcx,4), %esi
	movl	%esi, (%rdx,%rcx,4)
	addq	$1, %rax
	cmpq	$16, %rax
	movq	%rax, -1888(%rbp)       # 8-byte Spill
	jne	.LBB1_352
# %bb.351:                              # %for.inc9.116
	movl	$1, %eax
	movq	%rax, -1896(%rbp)       # 8-byte Spill
	jmp	.LBB1_353
.LBB1_352:                              # %for.body3.3.116
                                        #   in Loop: Header=BB1_350 Depth=1
	movq	-1888(%rbp), %rax       # 8-byte Reload
	addq	$1856, %rax             # imm = 0x740
	movq	-8(%rbp), %rcx          # 8-byte Reload
	movl	-4(%rcx,%rax,4), %edx
	movq	-1888(%rbp), %rax       # 8-byte Reload
	addq	$1856, %rax             # imm = 0x740
	addl	(%rcx,%rax,4), %edx
	movl	%edx, (%rcx,%rax,4)
	movq	-1888(%rbp), %rax       # 8-byte Reload
	addq	$1, %rax
	movq	%rax, -1880(%rbp)       # 8-byte Spill
	jmp	.LBB1_350
.LBB1_353:                              # %for.body3.117
                                        # =>This Inner Loop Header: Depth=1
	movq	-1896(%rbp), %rax       # 8-byte Reload
	movq	%rax, %rcx
	addq	$1872, %rcx             # imm = 0x750
	movq	-8(%rbp), %rdx          # 8-byte Reload
	movl	-4(%rdx,%rcx,4), %esi
	movq	%rax, %rcx
	addq	$1872, %rcx             # imm = 0x750
	addl	(%rdx,%rcx,4), %esi
	movl	%esi, (%rdx,%rcx,4)
	addq	$1, %rax
	movq	%rax, %rcx
	addq	$1872, %rcx             # imm = 0x750
	movl	-4(%rdx,%rcx,4), %esi
	movq	%rax, %rcx
	addq	$1872, %rcx             # imm = 0x750
	addl	(%rdx,%rcx,4), %esi
	movl	%esi, (%rdx,%rcx,4)
	addq	$1, %rax
	movq	%rax, %rcx
	addq	$1872, %rcx             # imm = 0x750
	movl	-4(%rdx,%rcx,4), %esi
	movq	%rax, %rcx
	addq	$1872, %rcx             # imm = 0x750
	addl	(%rdx,%rcx,4), %esi
	movl	%esi, (%rdx,%rcx,4)
	addq	$1, %rax
	cmpq	$16, %rax
	movq	%rax, -1904(%rbp)       # 8-byte Spill
	jne	.LBB1_355
# %bb.354:                              # %for.inc9.117
	movl	$1, %eax
	movq	%rax, -1912(%rbp)       # 8-byte Spill
	jmp	.LBB1_356
.LBB1_355:                              # %for.body3.3.117
                                        #   in Loop: Header=BB1_353 Depth=1
	movq	-1904(%rbp), %rax       # 8-byte Reload
	addq	$1872, %rax             # imm = 0x750
	movq	-8(%rbp), %rcx          # 8-byte Reload
	movl	-4(%rcx,%rax,4), %edx
	movq	-1904(%rbp), %rax       # 8-byte Reload
	addq	$1872, %rax             # imm = 0x750
	addl	(%rcx,%rax,4), %edx
	movl	%edx, (%rcx,%rax,4)
	movq	-1904(%rbp), %rax       # 8-byte Reload
	addq	$1, %rax
	movq	%rax, -1896(%rbp)       # 8-byte Spill
	jmp	.LBB1_353
.LBB1_356:                              # %for.body3.118
                                        # =>This Inner Loop Header: Depth=1
	movq	-1912(%rbp), %rax       # 8-byte Reload
	movq	%rax, %rcx
	addq	$1888, %rcx             # imm = 0x760
	movq	-8(%rbp), %rdx          # 8-byte Reload
	movl	-4(%rdx,%rcx,4), %esi
	movq	%rax, %rcx
	addq	$1888, %rcx             # imm = 0x760
	addl	(%rdx,%rcx,4), %esi
	movl	%esi, (%rdx,%rcx,4)
	addq	$1, %rax
	movq	%rax, %rcx
	addq	$1888, %rcx             # imm = 0x760
	movl	-4(%rdx,%rcx,4), %esi
	movq	%rax, %rcx
	addq	$1888, %rcx             # imm = 0x760
	addl	(%rdx,%rcx,4), %esi
	movl	%esi, (%rdx,%rcx,4)
	addq	$1, %rax
	movq	%rax, %rcx
	addq	$1888, %rcx             # imm = 0x760
	movl	-4(%rdx,%rcx,4), %esi
	movq	%rax, %rcx
	addq	$1888, %rcx             # imm = 0x760
	addl	(%rdx,%rcx,4), %esi
	movl	%esi, (%rdx,%rcx,4)
	addq	$1, %rax
	cmpq	$16, %rax
	movq	%rax, -1920(%rbp)       # 8-byte Spill
	jne	.LBB1_358
# %bb.357:                              # %for.inc9.118
	movl	$1, %eax
	movq	%rax, -1928(%rbp)       # 8-byte Spill
	jmp	.LBB1_359
.LBB1_358:                              # %for.body3.3.118
                                        #   in Loop: Header=BB1_356 Depth=1
	movq	-1920(%rbp), %rax       # 8-byte Reload
	addq	$1888, %rax             # imm = 0x760
	movq	-8(%rbp), %rcx          # 8-byte Reload
	movl	-4(%rcx,%rax,4), %edx
	movq	-1920(%rbp), %rax       # 8-byte Reload
	addq	$1888, %rax             # imm = 0x760
	addl	(%rcx,%rax,4), %edx
	movl	%edx, (%rcx,%rax,4)
	movq	-1920(%rbp), %rax       # 8-byte Reload
	addq	$1, %rax
	movq	%rax, -1912(%rbp)       # 8-byte Spill
	jmp	.LBB1_356
.LBB1_359:                              # %for.body3.119
                                        # =>This Inner Loop Header: Depth=1
	movq	-1928(%rbp), %rax       # 8-byte Reload
	movq	%rax, %rcx
	addq	$1904, %rcx             # imm = 0x770
	movq	-8(%rbp), %rdx          # 8-byte Reload
	movl	-4(%rdx,%rcx,4), %esi
	movq	%rax, %rcx
	addq	$1904, %rcx             # imm = 0x770
	addl	(%rdx,%rcx,4), %esi
	movl	%esi, (%rdx,%rcx,4)
	addq	$1, %rax
	movq	%rax, %rcx
	addq	$1904, %rcx             # imm = 0x770
	movl	-4(%rdx,%rcx,4), %esi
	movq	%rax, %rcx
	addq	$1904, %rcx             # imm = 0x770
	addl	(%rdx,%rcx,4), %esi
	movl	%esi, (%rdx,%rcx,4)
	addq	$1, %rax
	movq	%rax, %rcx
	addq	$1904, %rcx             # imm = 0x770
	movl	-4(%rdx,%rcx,4), %esi
	movq	%rax, %rcx
	addq	$1904, %rcx             # imm = 0x770
	addl	(%rdx,%rcx,4), %esi
	movl	%esi, (%rdx,%rcx,4)
	addq	$1, %rax
	cmpq	$16, %rax
	movq	%rax, -1936(%rbp)       # 8-byte Spill
	jne	.LBB1_361
# %bb.360:                              # %for.inc9.119
	movl	$1, %eax
	movq	%rax, -1944(%rbp)       # 8-byte Spill
	jmp	.LBB1_362
.LBB1_361:                              # %for.body3.3.119
                                        #   in Loop: Header=BB1_359 Depth=1
	movq	-1936(%rbp), %rax       # 8-byte Reload
	addq	$1904, %rax             # imm = 0x770
	movq	-8(%rbp), %rcx          # 8-byte Reload
	movl	-4(%rcx,%rax,4), %edx
	movq	-1936(%rbp), %rax       # 8-byte Reload
	addq	$1904, %rax             # imm = 0x770
	addl	(%rcx,%rax,4), %edx
	movl	%edx, (%rcx,%rax,4)
	movq	-1936(%rbp), %rax       # 8-byte Reload
	addq	$1, %rax
	movq	%rax, -1928(%rbp)       # 8-byte Spill
	jmp	.LBB1_359
.LBB1_362:                              # %for.body3.120
                                        # =>This Inner Loop Header: Depth=1
	movq	-1944(%rbp), %rax       # 8-byte Reload
	movq	%rax, %rcx
	addq	$1920, %rcx             # imm = 0x780
	movq	-8(%rbp), %rdx          # 8-byte Reload
	movl	-4(%rdx,%rcx,4), %esi
	movq	%rax, %rcx
	addq	$1920, %rcx             # imm = 0x780
	addl	(%rdx,%rcx,4), %esi
	movl	%esi, (%rdx,%rcx,4)
	addq	$1, %rax
	movq	%rax, %rcx
	addq	$1920, %rcx             # imm = 0x780
	movl	-4(%rdx,%rcx,4), %esi
	movq	%rax, %rcx
	addq	$1920, %rcx             # imm = 0x780
	addl	(%rdx,%rcx,4), %esi
	movl	%esi, (%rdx,%rcx,4)
	addq	$1, %rax
	movq	%rax, %rcx
	addq	$1920, %rcx             # imm = 0x780
	movl	-4(%rdx,%rcx,4), %esi
	movq	%rax, %rcx
	addq	$1920, %rcx             # imm = 0x780
	addl	(%rdx,%rcx,4), %esi
	movl	%esi, (%rdx,%rcx,4)
	addq	$1, %rax
	cmpq	$16, %rax
	movq	%rax, -1952(%rbp)       # 8-byte Spill
	jne	.LBB1_364
# %bb.363:                              # %for.inc9.120
	movl	$1, %eax
	movq	%rax, -1960(%rbp)       # 8-byte Spill
	jmp	.LBB1_365
.LBB1_364:                              # %for.body3.3.120
                                        #   in Loop: Header=BB1_362 Depth=1
	movq	-1952(%rbp), %rax       # 8-byte Reload
	addq	$1920, %rax             # imm = 0x780
	movq	-8(%rbp), %rcx          # 8-byte Reload
	movl	-4(%rcx,%rax,4), %edx
	movq	-1952(%rbp), %rax       # 8-byte Reload
	addq	$1920, %rax             # imm = 0x780
	addl	(%rcx,%rax,4), %edx
	movl	%edx, (%rcx,%rax,4)
	movq	-1952(%rbp), %rax       # 8-byte Reload
	addq	$1, %rax
	movq	%rax, -1944(%rbp)       # 8-byte Spill
	jmp	.LBB1_362
.LBB1_365:                              # %for.body3.121
                                        # =>This Inner Loop Header: Depth=1
	movq	-1960(%rbp), %rax       # 8-byte Reload
	movq	%rax, %rcx
	addq	$1936, %rcx             # imm = 0x790
	movq	-8(%rbp), %rdx          # 8-byte Reload
	movl	-4(%rdx,%rcx,4), %esi
	movq	%rax, %rcx
	addq	$1936, %rcx             # imm = 0x790
	addl	(%rdx,%rcx,4), %esi
	movl	%esi, (%rdx,%rcx,4)
	addq	$1, %rax
	movq	%rax, %rcx
	addq	$1936, %rcx             # imm = 0x790
	movl	-4(%rdx,%rcx,4), %esi
	movq	%rax, %rcx
	addq	$1936, %rcx             # imm = 0x790
	addl	(%rdx,%rcx,4), %esi
	movl	%esi, (%rdx,%rcx,4)
	addq	$1, %rax
	movq	%rax, %rcx
	addq	$1936, %rcx             # imm = 0x790
	movl	-4(%rdx,%rcx,4), %esi
	movq	%rax, %rcx
	addq	$1936, %rcx             # imm = 0x790
	addl	(%rdx,%rcx,4), %esi
	movl	%esi, (%rdx,%rcx,4)
	addq	$1, %rax
	cmpq	$16, %rax
	movq	%rax, -1968(%rbp)       # 8-byte Spill
	jne	.LBB1_367
# %bb.366:                              # %for.inc9.121
	movl	$1, %eax
	movq	%rax, -1976(%rbp)       # 8-byte Spill
	jmp	.LBB1_368
.LBB1_367:                              # %for.body3.3.121
                                        #   in Loop: Header=BB1_365 Depth=1
	movq	-1968(%rbp), %rax       # 8-byte Reload
	addq	$1936, %rax             # imm = 0x790
	movq	-8(%rbp), %rcx          # 8-byte Reload
	movl	-4(%rcx,%rax,4), %edx
	movq	-1968(%rbp), %rax       # 8-byte Reload
	addq	$1936, %rax             # imm = 0x790
	addl	(%rcx,%rax,4), %edx
	movl	%edx, (%rcx,%rax,4)
	movq	-1968(%rbp), %rax       # 8-byte Reload
	addq	$1, %rax
	movq	%rax, -1960(%rbp)       # 8-byte Spill
	jmp	.LBB1_365
.LBB1_368:                              # %for.body3.122
                                        # =>This Inner Loop Header: Depth=1
	movq	-1976(%rbp), %rax       # 8-byte Reload
	movq	%rax, %rcx
	addq	$1952, %rcx             # imm = 0x7A0
	movq	-8(%rbp), %rdx          # 8-byte Reload
	movl	-4(%rdx,%rcx,4), %esi
	movq	%rax, %rcx
	addq	$1952, %rcx             # imm = 0x7A0
	addl	(%rdx,%rcx,4), %esi
	movl	%esi, (%rdx,%rcx,4)
	addq	$1, %rax
	movq	%rax, %rcx
	addq	$1952, %rcx             # imm = 0x7A0
	movl	-4(%rdx,%rcx,4), %esi
	movq	%rax, %rcx
	addq	$1952, %rcx             # imm = 0x7A0
	addl	(%rdx,%rcx,4), %esi
	movl	%esi, (%rdx,%rcx,4)
	addq	$1, %rax
	movq	%rax, %rcx
	addq	$1952, %rcx             # imm = 0x7A0
	movl	-4(%rdx,%rcx,4), %esi
	movq	%rax, %rcx
	addq	$1952, %rcx             # imm = 0x7A0
	addl	(%rdx,%rcx,4), %esi
	movl	%esi, (%rdx,%rcx,4)
	addq	$1, %rax
	cmpq	$16, %rax
	movq	%rax, -1984(%rbp)       # 8-byte Spill
	jne	.LBB1_370
# %bb.369:                              # %for.inc9.122
	movl	$1, %eax
	movq	%rax, -1992(%rbp)       # 8-byte Spill
	jmp	.LBB1_371
.LBB1_370:                              # %for.body3.3.122
                                        #   in Loop: Header=BB1_368 Depth=1
	movq	-1984(%rbp), %rax       # 8-byte Reload
	addq	$1952, %rax             # imm = 0x7A0
	movq	-8(%rbp), %rcx          # 8-byte Reload
	movl	-4(%rcx,%rax,4), %edx
	movq	-1984(%rbp), %rax       # 8-byte Reload
	addq	$1952, %rax             # imm = 0x7A0
	addl	(%rcx,%rax,4), %edx
	movl	%edx, (%rcx,%rax,4)
	movq	-1984(%rbp), %rax       # 8-byte Reload
	addq	$1, %rax
	movq	%rax, -1976(%rbp)       # 8-byte Spill
	jmp	.LBB1_368
.LBB1_371:                              # %for.body3.123
                                        # =>This Inner Loop Header: Depth=1
	movq	-1992(%rbp), %rax       # 8-byte Reload
	movq	%rax, %rcx
	addq	$1968, %rcx             # imm = 0x7B0
	movq	-8(%rbp), %rdx          # 8-byte Reload
	movl	-4(%rdx,%rcx,4), %esi
	movq	%rax, %rcx
	addq	$1968, %rcx             # imm = 0x7B0
	addl	(%rdx,%rcx,4), %esi
	movl	%esi, (%rdx,%rcx,4)
	addq	$1, %rax
	movq	%rax, %rcx
	addq	$1968, %rcx             # imm = 0x7B0
	movl	-4(%rdx,%rcx,4), %esi
	movq	%rax, %rcx
	addq	$1968, %rcx             # imm = 0x7B0
	addl	(%rdx,%rcx,4), %esi
	movl	%esi, (%rdx,%rcx,4)
	addq	$1, %rax
	movq	%rax, %rcx
	addq	$1968, %rcx             # imm = 0x7B0
	movl	-4(%rdx,%rcx,4), %esi
	movq	%rax, %rcx
	addq	$1968, %rcx             # imm = 0x7B0
	addl	(%rdx,%rcx,4), %esi
	movl	%esi, (%rdx,%rcx,4)
	addq	$1, %rax
	cmpq	$16, %rax
	movq	%rax, -2000(%rbp)       # 8-byte Spill
	jne	.LBB1_373
# %bb.372:                              # %for.inc9.123
	movl	$1, %eax
	movq	%rax, -2008(%rbp)       # 8-byte Spill
	jmp	.LBB1_374
.LBB1_373:                              # %for.body3.3.123
                                        #   in Loop: Header=BB1_371 Depth=1
	movq	-2000(%rbp), %rax       # 8-byte Reload
	addq	$1968, %rax             # imm = 0x7B0
	movq	-8(%rbp), %rcx          # 8-byte Reload
	movl	-4(%rcx,%rax,4), %edx
	movq	-2000(%rbp), %rax       # 8-byte Reload
	addq	$1968, %rax             # imm = 0x7B0
	addl	(%rcx,%rax,4), %edx
	movl	%edx, (%rcx,%rax,4)
	movq	-2000(%rbp), %rax       # 8-byte Reload
	addq	$1, %rax
	movq	%rax, -1992(%rbp)       # 8-byte Spill
	jmp	.LBB1_371
.LBB1_374:                              # %for.body3.124
                                        # =>This Inner Loop Header: Depth=1
	movq	-2008(%rbp), %rax       # 8-byte Reload
	movq	%rax, %rcx
	addq	$1984, %rcx             # imm = 0x7C0
	movq	-8(%rbp), %rdx          # 8-byte Reload
	movl	-4(%rdx,%rcx,4), %esi
	movq	%rax, %rcx
	addq	$1984, %rcx             # imm = 0x7C0
	addl	(%rdx,%rcx,4), %esi
	movl	%esi, (%rdx,%rcx,4)
	addq	$1, %rax
	movq	%rax, %rcx
	addq	$1984, %rcx             # imm = 0x7C0
	movl	-4(%rdx,%rcx,4), %esi
	movq	%rax, %rcx
	addq	$1984, %rcx             # imm = 0x7C0
	addl	(%rdx,%rcx,4), %esi
	movl	%esi, (%rdx,%rcx,4)
	addq	$1, %rax
	movq	%rax, %rcx
	addq	$1984, %rcx             # imm = 0x7C0
	movl	-4(%rdx,%rcx,4), %esi
	movq	%rax, %rcx
	addq	$1984, %rcx             # imm = 0x7C0
	addl	(%rdx,%rcx,4), %esi
	movl	%esi, (%rdx,%rcx,4)
	addq	$1, %rax
	cmpq	$16, %rax
	movq	%rax, -2016(%rbp)       # 8-byte Spill
	jne	.LBB1_376
# %bb.375:                              # %for.inc9.124
	movl	$1, %eax
	movq	%rax, -2024(%rbp)       # 8-byte Spill
	jmp	.LBB1_377
.LBB1_376:                              # %for.body3.3.124
                                        #   in Loop: Header=BB1_374 Depth=1
	movq	-2016(%rbp), %rax       # 8-byte Reload
	addq	$1984, %rax             # imm = 0x7C0
	movq	-8(%rbp), %rcx          # 8-byte Reload
	movl	-4(%rcx,%rax,4), %edx
	movq	-2016(%rbp), %rax       # 8-byte Reload
	addq	$1984, %rax             # imm = 0x7C0
	addl	(%rcx,%rax,4), %edx
	movl	%edx, (%rcx,%rax,4)
	movq	-2016(%rbp), %rax       # 8-byte Reload
	addq	$1, %rax
	movq	%rax, -2008(%rbp)       # 8-byte Spill
	jmp	.LBB1_374
.LBB1_377:                              # %for.body3.125
                                        # =>This Inner Loop Header: Depth=1
	movq	-2024(%rbp), %rax       # 8-byte Reload
	movq	%rax, %rcx
	addq	$2000, %rcx             # imm = 0x7D0
	movq	-8(%rbp), %rdx          # 8-byte Reload
	movl	-4(%rdx,%rcx,4), %esi
	movq	%rax, %rcx
	addq	$2000, %rcx             # imm = 0x7D0
	addl	(%rdx,%rcx,4), %esi
	movl	%esi, (%rdx,%rcx,4)
	addq	$1, %rax
	movq	%rax, %rcx
	addq	$2000, %rcx             # imm = 0x7D0
	movl	-4(%rdx,%rcx,4), %esi
	movq	%rax, %rcx
	addq	$2000, %rcx             # imm = 0x7D0
	addl	(%rdx,%rcx,4), %esi
	movl	%esi, (%rdx,%rcx,4)
	addq	$1, %rax
	movq	%rax, %rcx
	addq	$2000, %rcx             # imm = 0x7D0
	movl	-4(%rdx,%rcx,4), %esi
	movq	%rax, %rcx
	addq	$2000, %rcx             # imm = 0x7D0
	addl	(%rdx,%rcx,4), %esi
	movl	%esi, (%rdx,%rcx,4)
	addq	$1, %rax
	cmpq	$16, %rax
	movq	%rax, -2032(%rbp)       # 8-byte Spill
	jne	.LBB1_379
# %bb.378:                              # %for.inc9.125
	movl	$1, %eax
	movq	%rax, -2040(%rbp)       # 8-byte Spill
	jmp	.LBB1_380
.LBB1_379:                              # %for.body3.3.125
                                        #   in Loop: Header=BB1_377 Depth=1
	movq	-2032(%rbp), %rax       # 8-byte Reload
	addq	$2000, %rax             # imm = 0x7D0
	movq	-8(%rbp), %rcx          # 8-byte Reload
	movl	-4(%rcx,%rax,4), %edx
	movq	-2032(%rbp), %rax       # 8-byte Reload
	addq	$2000, %rax             # imm = 0x7D0
	addl	(%rcx,%rax,4), %edx
	movl	%edx, (%rcx,%rax,4)
	movq	-2032(%rbp), %rax       # 8-byte Reload
	addq	$1, %rax
	movq	%rax, -2024(%rbp)       # 8-byte Spill
	jmp	.LBB1_377
.LBB1_380:                              # %for.body3.126
                                        # =>This Inner Loop Header: Depth=1
	movq	-2040(%rbp), %rax       # 8-byte Reload
	movq	%rax, %rcx
	addq	$2016, %rcx             # imm = 0x7E0
	movq	-8(%rbp), %rdx          # 8-byte Reload
	movl	-4(%rdx,%rcx,4), %esi
	movq	%rax, %rcx
	addq	$2016, %rcx             # imm = 0x7E0
	addl	(%rdx,%rcx,4), %esi
	movl	%esi, (%rdx,%rcx,4)
	addq	$1, %rax
	movq	%rax, %rcx
	addq	$2016, %rcx             # imm = 0x7E0
	movl	-4(%rdx,%rcx,4), %esi
	movq	%rax, %rcx
	addq	$2016, %rcx             # imm = 0x7E0
	addl	(%rdx,%rcx,4), %esi
	movl	%esi, (%rdx,%rcx,4)
	addq	$1, %rax
	movq	%rax, %rcx
	addq	$2016, %rcx             # imm = 0x7E0
	movl	-4(%rdx,%rcx,4), %esi
	movq	%rax, %rcx
	addq	$2016, %rcx             # imm = 0x7E0
	addl	(%rdx,%rcx,4), %esi
	movl	%esi, (%rdx,%rcx,4)
	addq	$1, %rax
	cmpq	$16, %rax
	movq	%rax, -2048(%rbp)       # 8-byte Spill
	jne	.LBB1_382
# %bb.381:                              # %for.inc9.126
	movl	$1, %eax
	movq	%rax, -2056(%rbp)       # 8-byte Spill
	jmp	.LBB1_383
.LBB1_382:                              # %for.body3.3.126
                                        #   in Loop: Header=BB1_380 Depth=1
	movq	-2048(%rbp), %rax       # 8-byte Reload
	addq	$2016, %rax             # imm = 0x7E0
	movq	-8(%rbp), %rcx          # 8-byte Reload
	movl	-4(%rcx,%rax,4), %edx
	movq	-2048(%rbp), %rax       # 8-byte Reload
	addq	$2016, %rax             # imm = 0x7E0
	addl	(%rcx,%rax,4), %edx
	movl	%edx, (%rcx,%rax,4)
	movq	-2048(%rbp), %rax       # 8-byte Reload
	addq	$1, %rax
	movq	%rax, -2040(%rbp)       # 8-byte Spill
	jmp	.LBB1_380
.LBB1_383:                              # %for.body3.127
                                        # =>This Inner Loop Header: Depth=1
	movq	-2056(%rbp), %rax       # 8-byte Reload
	movq	%rax, %rcx
	addq	$2032, %rcx             # imm = 0x7F0
	movq	-8(%rbp), %rdx          # 8-byte Reload
	movl	-4(%rdx,%rcx,4), %esi
	movq	%rax, %rcx
	addq	$2032, %rcx             # imm = 0x7F0
	addl	(%rdx,%rcx,4), %esi
	movl	%esi, (%rdx,%rcx,4)
	addq	$1, %rax
	movq	%rax, %rcx
	addq	$2032, %rcx             # imm = 0x7F0
	movl	-4(%rdx,%rcx,4), %esi
	movq	%rax, %rcx
	addq	$2032, %rcx             # imm = 0x7F0
	addl	(%rdx,%rcx,4), %esi
	movl	%esi, (%rdx,%rcx,4)
	addq	$1, %rax
	movq	%rax, %rcx
	addq	$2032, %rcx             # imm = 0x7F0
	movl	-4(%rdx,%rcx,4), %esi
	movq	%rax, %rcx
	addq	$2032, %rcx             # imm = 0x7F0
	addl	(%rdx,%rcx,4), %esi
	movl	%esi, (%rdx,%rcx,4)
	addq	$1, %rax
	cmpq	$16, %rax
	movq	%rax, -2064(%rbp)       # 8-byte Spill
	jne	.LBB1_385
# %bb.384:                              # %for.inc9.127
	addq	$1936, %rsp             # imm = 0x790
	popq	%rbp
	.cfi_def_cfa %rsp, 8
	retq
.LBB1_385:                              # %for.body3.3.127
                                        #   in Loop: Header=BB1_383 Depth=1
	.cfi_def_cfa %rbp, 16
	movq	-2064(%rbp), %rax       # 8-byte Reload
	addq	$2032, %rax             # imm = 0x7F0
	movq	-8(%rbp), %rcx          # 8-byte Reload
	movl	-4(%rcx,%rax,4), %edx
	movq	-2064(%rbp), %rax       # 8-byte Reload
	addq	$2032, %rax             # imm = 0x7F0
	addl	(%rcx,%rax,4), %edx
	movl	%edx, (%rcx,%rax,4)
	movq	-2064(%rbp), %rax       # 8-byte Reload
	addq	$1, %rax
	movq	%rax, -2056(%rbp)       # 8-byte Spill
	jmp	.LBB1_383
.Lfunc_end1:
	.size	local_scan, .Lfunc_end1-local_scan
	.cfi_endproc
                                        # -- End function
	.globl	sum_scan                # -- Begin function sum_scan
	.p2align	4, 0x90
	.type	sum_scan,@function
sum_scan:                               # @sum_scan
	.cfi_startproc
# %bb.0:                                # %entry
	pushq	%rbp
	.cfi_def_cfa_offset 16
	.cfi_offset %rbp, -16
	movq	%rsp, %rbp
	.cfi_def_cfa_register %rbp
	movl	$0, (%rdi)
	movl	$1, %eax
	movq	%rdi, -8(%rbp)          # 8-byte Spill
	movq	%rsi, -16(%rbp)         # 8-byte Spill
	movq	%rax, -24(%rbp)         # 8-byte Spill
.LBB2_1:                                # %for.body
                                        # =>This Inner Loop Header: Depth=1
	movq	-24(%rbp), %rax         # 8-byte Reload
	movq	-8(%rbp), %rcx          # 8-byte Reload
	movl	-4(%rcx,%rax,4), %edx
	movq	%rax, %rsi
	shlq	$4, %rsi
	movq	-16(%rbp), %rdi         # 8-byte Reload
	addl	-4(%rdi,%rsi,4), %edx
	movl	%edx, (%rcx,%rax,4)
	movq	%rax, %rsi
	addq	$1, %rsi
	movl	(%rcx,%rax,4), %edx
	movq	%rsi, %r8
	shlq	$4, %r8
	addl	-4(%rdi,%r8,4), %edx
	movl	%edx, 4(%rcx,%rax,4)
	addq	$1, %rsi
	movl	4(%rcx,%rax,4), %edx
	movq	%rsi, %r8
	shlq	$4, %r8
	addl	-4(%rdi,%r8,4), %edx
	movl	%edx, 8(%rcx,%rax,4)
	movq	%rsi, %rax
	addq	$1, %rax
	cmpq	$128, %rax
	movq	%rsi, -32(%rbp)         # 8-byte Spill
	movq	%rax, -40(%rbp)         # 8-byte Spill
	jne	.LBB2_3
# %bb.2:                                # %for.end
	popq	%rbp
	.cfi_def_cfa %rsp, 8
	retq
.LBB2_3:                                # %for.body.3
                                        #   in Loop: Header=BB2_1 Depth=1
	.cfi_def_cfa %rbp, 16
	movq	-8(%rbp), %rax          # 8-byte Reload
	movq	-32(%rbp), %rcx         # 8-byte Reload
	movl	(%rax,%rcx,4), %edx
	movq	-40(%rbp), %rsi         # 8-byte Reload
	shlq	$4, %rsi
	movq	-16(%rbp), %rdi         # 8-byte Reload
	addl	-4(%rdi,%rsi,4), %edx
	movq	-40(%rbp), %rsi         # 8-byte Reload
	movl	%edx, (%rax,%rsi,4)
	addq	$1, %rsi
	movq	%rsi, -24(%rbp)         # 8-byte Spill
	jmp	.LBB2_1
.Lfunc_end2:
	.size	sum_scan, .Lfunc_end2-sum_scan
	.cfi_endproc
                                        # -- End function
	.globl	last_step_scan          # -- Begin function last_step_scan
	.p2align	4, 0x90
	.type	last_step_scan,@function
last_step_scan:                         # @last_step_scan
	.cfi_startproc
# %bb.0:                                # %entry
	pushq	%rbp
	.cfi_def_cfa_offset 16
	.cfi_offset %rbp, -16
	movq	%rsp, %rbp
	.cfi_def_cfa_register %rbp
	subq	$912, %rsp              # imm = 0x390
	movq	%rdi, -8(%rbp)          # 8-byte Spill
	movq	%rsi, -16(%rbp)         # 8-byte Spill
	jmp	.LBB3_1
.LBB3_1:                                # %for.body
	xorl	%eax, %eax
	movl	%eax, %ecx
	movq	%rcx, -24(%rbp)         # 8-byte Spill
	jmp	.LBB3_2
.LBB3_2:                                # %for.body3
                                        # =>This Inner Loop Header: Depth=1
	movq	-24(%rbp), %rax         # 8-byte Reload
	movq	-8(%rbp), %rcx          # 8-byte Reload
	movl	(%rcx,%rax,4), %edx
	movq	-16(%rbp), %rsi         # 8-byte Reload
	addl	(%rsi), %edx
	movl	%edx, (%rcx,%rax,4)
	movq	%rax, %rdi
	addq	$1, %rdi
	movl	4(%rcx,%rax,4), %edx
	addl	(%rsi), %edx
	movl	%edx, 4(%rcx,%rax,4)
	addq	$1, %rdi
	movl	8(%rcx,%rax,4), %edx
	addl	(%rsi), %edx
	movl	%edx, 8(%rcx,%rax,4)
	addq	$1, %rdi
	movl	12(%rcx,%rax,4), %edx
	addl	(%rsi), %edx
	movl	%edx, 12(%rcx,%rax,4)
	addq	$1, %rdi
	cmpq	$16, %rdi
	movq	%rdi, -24(%rbp)         # 8-byte Spill
	jne	.LBB3_2
# %bb.3:                                # %for.inc11
	xorl	%eax, %eax
	movl	%eax, %ecx
	movq	%rcx, -32(%rbp)         # 8-byte Spill
	jmp	.LBB3_4
.LBB3_4:                                # %for.body3.1
                                        # =>This Inner Loop Header: Depth=1
	movq	-32(%rbp), %rax         # 8-byte Reload
	movq	%rax, %rcx
	addq	$16, %rcx
	movq	-8(%rbp), %rdx          # 8-byte Reload
	movl	(%rdx,%rcx,4), %esi
	movq	-16(%rbp), %rcx         # 8-byte Reload
	addl	4(%rcx), %esi
	movq	%rax, %rdi
	addq	$16, %rdi
	movl	%esi, (%rdx,%rdi,4)
	addq	$1, %rax
	movq	%rax, %rdi
	addq	$16, %rdi
	movl	(%rdx,%rdi,4), %esi
	addl	4(%rcx), %esi
	movq	%rax, %rdi
	addq	$16, %rdi
	movl	%esi, (%rdx,%rdi,4)
	addq	$1, %rax
	movq	%rax, %rdi
	addq	$16, %rdi
	movl	(%rdx,%rdi,4), %esi
	addl	4(%rcx), %esi
	movq	%rax, %rdi
	addq	$16, %rdi
	movl	%esi, (%rdx,%rdi,4)
	addq	$1, %rax
	movq	%rax, %rdi
	addq	$16, %rdi
	movl	(%rdx,%rdi,4), %esi
	addl	4(%rcx), %esi
	movq	%rax, %rdi
	addq	$16, %rdi
	movl	%esi, (%rdx,%rdi,4)
	addq	$1, %rax
	cmpq	$16, %rax
	movq	%rax, -32(%rbp)         # 8-byte Spill
	jne	.LBB3_4
# %bb.5:                                # %for.inc11.1
	xorl	%eax, %eax
	movl	%eax, %ecx
	movq	%rcx, -40(%rbp)         # 8-byte Spill
	jmp	.LBB3_6
.LBB3_6:                                # %for.body3.2
                                        # =>This Inner Loop Header: Depth=1
	movq	-40(%rbp), %rax         # 8-byte Reload
	movq	%rax, %rcx
	addq	$32, %rcx
	movq	-8(%rbp), %rdx          # 8-byte Reload
	movl	(%rdx,%rcx,4), %esi
	movq	-16(%rbp), %rcx         # 8-byte Reload
	addl	8(%rcx), %esi
	movq	%rax, %rdi
	addq	$32, %rdi
	movl	%esi, (%rdx,%rdi,4)
	addq	$1, %rax
	movq	%rax, %rdi
	addq	$32, %rdi
	movl	(%rdx,%rdi,4), %esi
	addl	8(%rcx), %esi
	movq	%rax, %rdi
	addq	$32, %rdi
	movl	%esi, (%rdx,%rdi,4)
	addq	$1, %rax
	movq	%rax, %rdi
	addq	$32, %rdi
	movl	(%rdx,%rdi,4), %esi
	addl	8(%rcx), %esi
	movq	%rax, %rdi
	addq	$32, %rdi
	movl	%esi, (%rdx,%rdi,4)
	addq	$1, %rax
	movq	%rax, %rdi
	addq	$32, %rdi
	movl	(%rdx,%rdi,4), %esi
	addl	8(%rcx), %esi
	movq	%rax, %rdi
	addq	$32, %rdi
	movl	%esi, (%rdx,%rdi,4)
	addq	$1, %rax
	cmpq	$16, %rax
	movq	%rax, -40(%rbp)         # 8-byte Spill
	jne	.LBB3_6
# %bb.7:                                # %for.inc11.2
	xorl	%eax, %eax
	movl	%eax, %ecx
	movq	%rcx, -48(%rbp)         # 8-byte Spill
	jmp	.LBB3_8
.LBB3_8:                                # %for.body3.3
                                        # =>This Inner Loop Header: Depth=1
	movq	-48(%rbp), %rax         # 8-byte Reload
	movq	%rax, %rcx
	addq	$48, %rcx
	movq	-8(%rbp), %rdx          # 8-byte Reload
	movl	(%rdx,%rcx,4), %esi
	movq	-16(%rbp), %rcx         # 8-byte Reload
	addl	12(%rcx), %esi
	movq	%rax, %rdi
	addq	$48, %rdi
	movl	%esi, (%rdx,%rdi,4)
	addq	$1, %rax
	movq	%rax, %rdi
	addq	$48, %rdi
	movl	(%rdx,%rdi,4), %esi
	addl	12(%rcx), %esi
	movq	%rax, %rdi
	addq	$48, %rdi
	movl	%esi, (%rdx,%rdi,4)
	addq	$1, %rax
	movq	%rax, %rdi
	addq	$48, %rdi
	movl	(%rdx,%rdi,4), %esi
	addl	12(%rcx), %esi
	movq	%rax, %rdi
	addq	$48, %rdi
	movl	%esi, (%rdx,%rdi,4)
	addq	$1, %rax
	movq	%rax, %rdi
	addq	$48, %rdi
	movl	(%rdx,%rdi,4), %esi
	addl	12(%rcx), %esi
	movq	%rax, %rdi
	addq	$48, %rdi
	movl	%esi, (%rdx,%rdi,4)
	addq	$1, %rax
	cmpq	$16, %rax
	movq	%rax, -48(%rbp)         # 8-byte Spill
	jne	.LBB3_8
# %bb.9:                                # %for.inc11.3
	xorl	%eax, %eax
	movl	%eax, %ecx
	movq	%rcx, -56(%rbp)         # 8-byte Spill
	jmp	.LBB3_10
.LBB3_10:                               # %for.body3.4
                                        # =>This Inner Loop Header: Depth=1
	movq	-56(%rbp), %rax         # 8-byte Reload
	movq	%rax, %rcx
	addq	$64, %rcx
	movq	-8(%rbp), %rdx          # 8-byte Reload
	movl	(%rdx,%rcx,4), %esi
	movq	-16(%rbp), %rcx         # 8-byte Reload
	addl	16(%rcx), %esi
	movq	%rax, %rdi
	addq	$64, %rdi
	movl	%esi, (%rdx,%rdi,4)
	addq	$1, %rax
	movq	%rax, %rdi
	addq	$64, %rdi
	movl	(%rdx,%rdi,4), %esi
	addl	16(%rcx), %esi
	movq	%rax, %rdi
	addq	$64, %rdi
	movl	%esi, (%rdx,%rdi,4)
	addq	$1, %rax
	movq	%rax, %rdi
	addq	$64, %rdi
	movl	(%rdx,%rdi,4), %esi
	addl	16(%rcx), %esi
	movq	%rax, %rdi
	addq	$64, %rdi
	movl	%esi, (%rdx,%rdi,4)
	addq	$1, %rax
	movq	%rax, %rdi
	addq	$64, %rdi
	movl	(%rdx,%rdi,4), %esi
	addl	16(%rcx), %esi
	movq	%rax, %rdi
	addq	$64, %rdi
	movl	%esi, (%rdx,%rdi,4)
	addq	$1, %rax
	cmpq	$16, %rax
	movq	%rax, -56(%rbp)         # 8-byte Spill
	jne	.LBB3_10
# %bb.11:                               # %for.inc11.4
	xorl	%eax, %eax
	movl	%eax, %ecx
	movq	%rcx, -64(%rbp)         # 8-byte Spill
	jmp	.LBB3_12
.LBB3_12:                               # %for.body3.5
                                        # =>This Inner Loop Header: Depth=1
	movq	-64(%rbp), %rax         # 8-byte Reload
	movq	%rax, %rcx
	addq	$80, %rcx
	movq	-8(%rbp), %rdx          # 8-byte Reload
	movl	(%rdx,%rcx,4), %esi
	movq	-16(%rbp), %rcx         # 8-byte Reload
	addl	20(%rcx), %esi
	movq	%rax, %rdi
	addq	$80, %rdi
	movl	%esi, (%rdx,%rdi,4)
	addq	$1, %rax
	movq	%rax, %rdi
	addq	$80, %rdi
	movl	(%rdx,%rdi,4), %esi
	addl	20(%rcx), %esi
	movq	%rax, %rdi
	addq	$80, %rdi
	movl	%esi, (%rdx,%rdi,4)
	addq	$1, %rax
	movq	%rax, %rdi
	addq	$80, %rdi
	movl	(%rdx,%rdi,4), %esi
	addl	20(%rcx), %esi
	movq	%rax, %rdi
	addq	$80, %rdi
	movl	%esi, (%rdx,%rdi,4)
	addq	$1, %rax
	movq	%rax, %rdi
	addq	$80, %rdi
	movl	(%rdx,%rdi,4), %esi
	addl	20(%rcx), %esi
	movq	%rax, %rdi
	addq	$80, %rdi
	movl	%esi, (%rdx,%rdi,4)
	addq	$1, %rax
	cmpq	$16, %rax
	movq	%rax, -64(%rbp)         # 8-byte Spill
	jne	.LBB3_12
# %bb.13:                               # %for.inc11.5
	xorl	%eax, %eax
	movl	%eax, %ecx
	movq	%rcx, -72(%rbp)         # 8-byte Spill
	jmp	.LBB3_14
.LBB3_14:                               # %for.body3.6
                                        # =>This Inner Loop Header: Depth=1
	movq	-72(%rbp), %rax         # 8-byte Reload
	movq	%rax, %rcx
	addq	$96, %rcx
	movq	-8(%rbp), %rdx          # 8-byte Reload
	movl	(%rdx,%rcx,4), %esi
	movq	-16(%rbp), %rcx         # 8-byte Reload
	addl	24(%rcx), %esi
	movq	%rax, %rdi
	addq	$96, %rdi
	movl	%esi, (%rdx,%rdi,4)
	addq	$1, %rax
	movq	%rax, %rdi
	addq	$96, %rdi
	movl	(%rdx,%rdi,4), %esi
	addl	24(%rcx), %esi
	movq	%rax, %rdi
	addq	$96, %rdi
	movl	%esi, (%rdx,%rdi,4)
	addq	$1, %rax
	movq	%rax, %rdi
	addq	$96, %rdi
	movl	(%rdx,%rdi,4), %esi
	addl	24(%rcx), %esi
	movq	%rax, %rdi
	addq	$96, %rdi
	movl	%esi, (%rdx,%rdi,4)
	addq	$1, %rax
	movq	%rax, %rdi
	addq	$96, %rdi
	movl	(%rdx,%rdi,4), %esi
	addl	24(%rcx), %esi
	movq	%rax, %rdi
	addq	$96, %rdi
	movl	%esi, (%rdx,%rdi,4)
	addq	$1, %rax
	cmpq	$16, %rax
	movq	%rax, -72(%rbp)         # 8-byte Spill
	jne	.LBB3_14
# %bb.15:                               # %for.inc11.6
	xorl	%eax, %eax
	movl	%eax, %ecx
	movq	%rcx, -80(%rbp)         # 8-byte Spill
	jmp	.LBB3_16
.LBB3_16:                               # %for.body3.7
                                        # =>This Inner Loop Header: Depth=1
	movq	-80(%rbp), %rax         # 8-byte Reload
	movq	%rax, %rcx
	addq	$112, %rcx
	movq	-8(%rbp), %rdx          # 8-byte Reload
	movl	(%rdx,%rcx,4), %esi
	movq	-16(%rbp), %rcx         # 8-byte Reload
	addl	28(%rcx), %esi
	movq	%rax, %rdi
	addq	$112, %rdi
	movl	%esi, (%rdx,%rdi,4)
	addq	$1, %rax
	movq	%rax, %rdi
	addq	$112, %rdi
	movl	(%rdx,%rdi,4), %esi
	addl	28(%rcx), %esi
	movq	%rax, %rdi
	addq	$112, %rdi
	movl	%esi, (%rdx,%rdi,4)
	addq	$1, %rax
	movq	%rax, %rdi
	addq	$112, %rdi
	movl	(%rdx,%rdi,4), %esi
	addl	28(%rcx), %esi
	movq	%rax, %rdi
	addq	$112, %rdi
	movl	%esi, (%rdx,%rdi,4)
	addq	$1, %rax
	movq	%rax, %rdi
	addq	$112, %rdi
	movl	(%rdx,%rdi,4), %esi
	addl	28(%rcx), %esi
	movq	%rax, %rdi
	addq	$112, %rdi
	movl	%esi, (%rdx,%rdi,4)
	addq	$1, %rax
	cmpq	$16, %rax
	movq	%rax, -80(%rbp)         # 8-byte Spill
	jne	.LBB3_16
# %bb.17:                               # %for.inc11.7
	xorl	%eax, %eax
	movl	%eax, %ecx
	movq	%rcx, -88(%rbp)         # 8-byte Spill
	jmp	.LBB3_18
.LBB3_18:                               # %for.body3.8
                                        # =>This Inner Loop Header: Depth=1
	movq	-88(%rbp), %rax         # 8-byte Reload
	movq	%rax, %rcx
	addq	$128, %rcx
	movq	-8(%rbp), %rdx          # 8-byte Reload
	movl	(%rdx,%rcx,4), %esi
	movq	-16(%rbp), %rcx         # 8-byte Reload
	addl	32(%rcx), %esi
	movq	%rax, %rdi
	addq	$128, %rdi
	movl	%esi, (%rdx,%rdi,4)
	addq	$1, %rax
	movq	%rax, %rdi
	addq	$128, %rdi
	movl	(%rdx,%rdi,4), %esi
	addl	32(%rcx), %esi
	movq	%rax, %rdi
	addq	$128, %rdi
	movl	%esi, (%rdx,%rdi,4)
	addq	$1, %rax
	movq	%rax, %rdi
	addq	$128, %rdi
	movl	(%rdx,%rdi,4), %esi
	addl	32(%rcx), %esi
	movq	%rax, %rdi
	addq	$128, %rdi
	movl	%esi, (%rdx,%rdi,4)
	addq	$1, %rax
	movq	%rax, %rdi
	addq	$128, %rdi
	movl	(%rdx,%rdi,4), %esi
	addl	32(%rcx), %esi
	movq	%rax, %rdi
	addq	$128, %rdi
	movl	%esi, (%rdx,%rdi,4)
	addq	$1, %rax
	cmpq	$16, %rax
	movq	%rax, -88(%rbp)         # 8-byte Spill
	jne	.LBB3_18
# %bb.19:                               # %for.inc11.8
	xorl	%eax, %eax
	movl	%eax, %ecx
	movq	%rcx, -96(%rbp)         # 8-byte Spill
	jmp	.LBB3_20
.LBB3_20:                               # %for.body3.9
                                        # =>This Inner Loop Header: Depth=1
	movq	-96(%rbp), %rax         # 8-byte Reload
	movq	%rax, %rcx
	addq	$144, %rcx
	movq	-8(%rbp), %rdx          # 8-byte Reload
	movl	(%rdx,%rcx,4), %esi
	movq	-16(%rbp), %rcx         # 8-byte Reload
	addl	36(%rcx), %esi
	movq	%rax, %rdi
	addq	$144, %rdi
	movl	%esi, (%rdx,%rdi,4)
	addq	$1, %rax
	movq	%rax, %rdi
	addq	$144, %rdi
	movl	(%rdx,%rdi,4), %esi
	addl	36(%rcx), %esi
	movq	%rax, %rdi
	addq	$144, %rdi
	movl	%esi, (%rdx,%rdi,4)
	addq	$1, %rax
	movq	%rax, %rdi
	addq	$144, %rdi
	movl	(%rdx,%rdi,4), %esi
	addl	36(%rcx), %esi
	movq	%rax, %rdi
	addq	$144, %rdi
	movl	%esi, (%rdx,%rdi,4)
	addq	$1, %rax
	movq	%rax, %rdi
	addq	$144, %rdi
	movl	(%rdx,%rdi,4), %esi
	addl	36(%rcx), %esi
	movq	%rax, %rdi
	addq	$144, %rdi
	movl	%esi, (%rdx,%rdi,4)
	addq	$1, %rax
	cmpq	$16, %rax
	movq	%rax, -96(%rbp)         # 8-byte Spill
	jne	.LBB3_20
# %bb.21:                               # %for.inc11.9
	xorl	%eax, %eax
	movl	%eax, %ecx
	movq	%rcx, -104(%rbp)        # 8-byte Spill
	jmp	.LBB3_22
.LBB3_22:                               # %for.body3.10
                                        # =>This Inner Loop Header: Depth=1
	movq	-104(%rbp), %rax        # 8-byte Reload
	movq	%rax, %rcx
	addq	$160, %rcx
	movq	-8(%rbp), %rdx          # 8-byte Reload
	movl	(%rdx,%rcx,4), %esi
	movq	-16(%rbp), %rcx         # 8-byte Reload
	addl	40(%rcx), %esi
	movq	%rax, %rdi
	addq	$160, %rdi
	movl	%esi, (%rdx,%rdi,4)
	addq	$1, %rax
	movq	%rax, %rdi
	addq	$160, %rdi
	movl	(%rdx,%rdi,4), %esi
	addl	40(%rcx), %esi
	movq	%rax, %rdi
	addq	$160, %rdi
	movl	%esi, (%rdx,%rdi,4)
	addq	$1, %rax
	movq	%rax, %rdi
	addq	$160, %rdi
	movl	(%rdx,%rdi,4), %esi
	addl	40(%rcx), %esi
	movq	%rax, %rdi
	addq	$160, %rdi
	movl	%esi, (%rdx,%rdi,4)
	addq	$1, %rax
	movq	%rax, %rdi
	addq	$160, %rdi
	movl	(%rdx,%rdi,4), %esi
	addl	40(%rcx), %esi
	movq	%rax, %rdi
	addq	$160, %rdi
	movl	%esi, (%rdx,%rdi,4)
	addq	$1, %rax
	cmpq	$16, %rax
	movq	%rax, -104(%rbp)        # 8-byte Spill
	jne	.LBB3_22
# %bb.23:                               # %for.inc11.10
	xorl	%eax, %eax
	movl	%eax, %ecx
	movq	%rcx, -112(%rbp)        # 8-byte Spill
	jmp	.LBB3_24
.LBB3_24:                               # %for.body3.11
                                        # =>This Inner Loop Header: Depth=1
	movq	-112(%rbp), %rax        # 8-byte Reload
	movq	%rax, %rcx
	addq	$176, %rcx
	movq	-8(%rbp), %rdx          # 8-byte Reload
	movl	(%rdx,%rcx,4), %esi
	movq	-16(%rbp), %rcx         # 8-byte Reload
	addl	44(%rcx), %esi
	movq	%rax, %rdi
	addq	$176, %rdi
	movl	%esi, (%rdx,%rdi,4)
	addq	$1, %rax
	movq	%rax, %rdi
	addq	$176, %rdi
	movl	(%rdx,%rdi,4), %esi
	addl	44(%rcx), %esi
	movq	%rax, %rdi
	addq	$176, %rdi
	movl	%esi, (%rdx,%rdi,4)
	addq	$1, %rax
	movq	%rax, %rdi
	addq	$176, %rdi
	movl	(%rdx,%rdi,4), %esi
	addl	44(%rcx), %esi
	movq	%rax, %rdi
	addq	$176, %rdi
	movl	%esi, (%rdx,%rdi,4)
	addq	$1, %rax
	movq	%rax, %rdi
	addq	$176, %rdi
	movl	(%rdx,%rdi,4), %esi
	addl	44(%rcx), %esi
	movq	%rax, %rdi
	addq	$176, %rdi
	movl	%esi, (%rdx,%rdi,4)
	addq	$1, %rax
	cmpq	$16, %rax
	movq	%rax, -112(%rbp)        # 8-byte Spill
	jne	.LBB3_24
# %bb.25:                               # %for.inc11.11
	xorl	%eax, %eax
	movl	%eax, %ecx
	movq	%rcx, -120(%rbp)        # 8-byte Spill
	jmp	.LBB3_26
.LBB3_26:                               # %for.body3.12
                                        # =>This Inner Loop Header: Depth=1
	movq	-120(%rbp), %rax        # 8-byte Reload
	movq	%rax, %rcx
	addq	$192, %rcx
	movq	-8(%rbp), %rdx          # 8-byte Reload
	movl	(%rdx,%rcx,4), %esi
	movq	-16(%rbp), %rcx         # 8-byte Reload
	addl	48(%rcx), %esi
	movq	%rax, %rdi
	addq	$192, %rdi
	movl	%esi, (%rdx,%rdi,4)
	addq	$1, %rax
	movq	%rax, %rdi
	addq	$192, %rdi
	movl	(%rdx,%rdi,4), %esi
	addl	48(%rcx), %esi
	movq	%rax, %rdi
	addq	$192, %rdi
	movl	%esi, (%rdx,%rdi,4)
	addq	$1, %rax
	movq	%rax, %rdi
	addq	$192, %rdi
	movl	(%rdx,%rdi,4), %esi
	addl	48(%rcx), %esi
	movq	%rax, %rdi
	addq	$192, %rdi
	movl	%esi, (%rdx,%rdi,4)
	addq	$1, %rax
	movq	%rax, %rdi
	addq	$192, %rdi
	movl	(%rdx,%rdi,4), %esi
	addl	48(%rcx), %esi
	movq	%rax, %rdi
	addq	$192, %rdi
	movl	%esi, (%rdx,%rdi,4)
	addq	$1, %rax
	cmpq	$16, %rax
	movq	%rax, -120(%rbp)        # 8-byte Spill
	jne	.LBB3_26
# %bb.27:                               # %for.inc11.12
	xorl	%eax, %eax
	movl	%eax, %ecx
	movq	%rcx, -128(%rbp)        # 8-byte Spill
	jmp	.LBB3_28
.LBB3_28:                               # %for.body3.13
                                        # =>This Inner Loop Header: Depth=1
	movq	-128(%rbp), %rax        # 8-byte Reload
	movq	%rax, %rcx
	addq	$208, %rcx
	movq	-8(%rbp), %rdx          # 8-byte Reload
	movl	(%rdx,%rcx,4), %esi
	movq	-16(%rbp), %rcx         # 8-byte Reload
	addl	52(%rcx), %esi
	movq	%rax, %rdi
	addq	$208, %rdi
	movl	%esi, (%rdx,%rdi,4)
	addq	$1, %rax
	movq	%rax, %rdi
	addq	$208, %rdi
	movl	(%rdx,%rdi,4), %esi
	addl	52(%rcx), %esi
	movq	%rax, %rdi
	addq	$208, %rdi
	movl	%esi, (%rdx,%rdi,4)
	addq	$1, %rax
	movq	%rax, %rdi
	addq	$208, %rdi
	movl	(%rdx,%rdi,4), %esi
	addl	52(%rcx), %esi
	movq	%rax, %rdi
	addq	$208, %rdi
	movl	%esi, (%rdx,%rdi,4)
	addq	$1, %rax
	movq	%rax, %rdi
	addq	$208, %rdi
	movl	(%rdx,%rdi,4), %esi
	addl	52(%rcx), %esi
	movq	%rax, %rdi
	addq	$208, %rdi
	movl	%esi, (%rdx,%rdi,4)
	addq	$1, %rax
	cmpq	$16, %rax
	movq	%rax, -128(%rbp)        # 8-byte Spill
	jne	.LBB3_28
# %bb.29:                               # %for.inc11.13
	xorl	%eax, %eax
	movl	%eax, %ecx
	movq	%rcx, -136(%rbp)        # 8-byte Spill
	jmp	.LBB3_30
.LBB3_30:                               # %for.body3.14
                                        # =>This Inner Loop Header: Depth=1
	movq	-136(%rbp), %rax        # 8-byte Reload
	movq	%rax, %rcx
	addq	$224, %rcx
	movq	-8(%rbp), %rdx          # 8-byte Reload
	movl	(%rdx,%rcx,4), %esi
	movq	-16(%rbp), %rcx         # 8-byte Reload
	addl	56(%rcx), %esi
	movq	%rax, %rdi
	addq	$224, %rdi
	movl	%esi, (%rdx,%rdi,4)
	addq	$1, %rax
	movq	%rax, %rdi
	addq	$224, %rdi
	movl	(%rdx,%rdi,4), %esi
	addl	56(%rcx), %esi
	movq	%rax, %rdi
	addq	$224, %rdi
	movl	%esi, (%rdx,%rdi,4)
	addq	$1, %rax
	movq	%rax, %rdi
	addq	$224, %rdi
	movl	(%rdx,%rdi,4), %esi
	addl	56(%rcx), %esi
	movq	%rax, %rdi
	addq	$224, %rdi
	movl	%esi, (%rdx,%rdi,4)
	addq	$1, %rax
	movq	%rax, %rdi
	addq	$224, %rdi
	movl	(%rdx,%rdi,4), %esi
	addl	56(%rcx), %esi
	movq	%rax, %rdi
	addq	$224, %rdi
	movl	%esi, (%rdx,%rdi,4)
	addq	$1, %rax
	cmpq	$16, %rax
	movq	%rax, -136(%rbp)        # 8-byte Spill
	jne	.LBB3_30
# %bb.31:                               # %for.inc11.14
	xorl	%eax, %eax
	movl	%eax, %ecx
	movq	%rcx, -144(%rbp)        # 8-byte Spill
	jmp	.LBB3_32
.LBB3_32:                               # %for.body3.15
                                        # =>This Inner Loop Header: Depth=1
	movq	-144(%rbp), %rax        # 8-byte Reload
	movq	%rax, %rcx
	addq	$240, %rcx
	movq	-8(%rbp), %rdx          # 8-byte Reload
	movl	(%rdx,%rcx,4), %esi
	movq	-16(%rbp), %rcx         # 8-byte Reload
	addl	60(%rcx), %esi
	movq	%rax, %rdi
	addq	$240, %rdi
	movl	%esi, (%rdx,%rdi,4)
	addq	$1, %rax
	movq	%rax, %rdi
	addq	$240, %rdi
	movl	(%rdx,%rdi,4), %esi
	addl	60(%rcx), %esi
	movq	%rax, %rdi
	addq	$240, %rdi
	movl	%esi, (%rdx,%rdi,4)
	addq	$1, %rax
	movq	%rax, %rdi
	addq	$240, %rdi
	movl	(%rdx,%rdi,4), %esi
	addl	60(%rcx), %esi
	movq	%rax, %rdi
	addq	$240, %rdi
	movl	%esi, (%rdx,%rdi,4)
	addq	$1, %rax
	movq	%rax, %rdi
	addq	$240, %rdi
	movl	(%rdx,%rdi,4), %esi
	addl	60(%rcx), %esi
	movq	%rax, %rdi
	addq	$240, %rdi
	movl	%esi, (%rdx,%rdi,4)
	addq	$1, %rax
	cmpq	$16, %rax
	movq	%rax, -144(%rbp)        # 8-byte Spill
	jne	.LBB3_32
# %bb.33:                               # %for.inc11.15
	xorl	%eax, %eax
	movl	%eax, %ecx
	movq	%rcx, -152(%rbp)        # 8-byte Spill
	jmp	.LBB3_34
.LBB3_34:                               # %for.body3.16
                                        # =>This Inner Loop Header: Depth=1
	movq	-152(%rbp), %rax        # 8-byte Reload
	movq	%rax, %rcx
	addq	$256, %rcx              # imm = 0x100
	movq	-8(%rbp), %rdx          # 8-byte Reload
	movl	(%rdx,%rcx,4), %esi
	movq	-16(%rbp), %rcx         # 8-byte Reload
	addl	64(%rcx), %esi
	movq	%rax, %rdi
	addq	$256, %rdi              # imm = 0x100
	movl	%esi, (%rdx,%rdi,4)
	addq	$1, %rax
	movq	%rax, %rdi
	addq	$256, %rdi              # imm = 0x100
	movl	(%rdx,%rdi,4), %esi
	addl	64(%rcx), %esi
	movq	%rax, %rdi
	addq	$256, %rdi              # imm = 0x100
	movl	%esi, (%rdx,%rdi,4)
	addq	$1, %rax
	movq	%rax, %rdi
	addq	$256, %rdi              # imm = 0x100
	movl	(%rdx,%rdi,4), %esi
	addl	64(%rcx), %esi
	movq	%rax, %rdi
	addq	$256, %rdi              # imm = 0x100
	movl	%esi, (%rdx,%rdi,4)
	addq	$1, %rax
	movq	%rax, %rdi
	addq	$256, %rdi              # imm = 0x100
	movl	(%rdx,%rdi,4), %esi
	addl	64(%rcx), %esi
	movq	%rax, %rdi
	addq	$256, %rdi              # imm = 0x100
	movl	%esi, (%rdx,%rdi,4)
	addq	$1, %rax
	cmpq	$16, %rax
	movq	%rax, -152(%rbp)        # 8-byte Spill
	jne	.LBB3_34
# %bb.35:                               # %for.inc11.16
	xorl	%eax, %eax
	movl	%eax, %ecx
	movq	%rcx, -160(%rbp)        # 8-byte Spill
	jmp	.LBB3_36
.LBB3_36:                               # %for.body3.17
                                        # =>This Inner Loop Header: Depth=1
	movq	-160(%rbp), %rax        # 8-byte Reload
	movq	%rax, %rcx
	addq	$272, %rcx              # imm = 0x110
	movq	-8(%rbp), %rdx          # 8-byte Reload
	movl	(%rdx,%rcx,4), %esi
	movq	-16(%rbp), %rcx         # 8-byte Reload
	addl	68(%rcx), %esi
	movq	%rax, %rdi
	addq	$272, %rdi              # imm = 0x110
	movl	%esi, (%rdx,%rdi,4)
	addq	$1, %rax
	movq	%rax, %rdi
	addq	$272, %rdi              # imm = 0x110
	movl	(%rdx,%rdi,4), %esi
	addl	68(%rcx), %esi
	movq	%rax, %rdi
	addq	$272, %rdi              # imm = 0x110
	movl	%esi, (%rdx,%rdi,4)
	addq	$1, %rax
	movq	%rax, %rdi
	addq	$272, %rdi              # imm = 0x110
	movl	(%rdx,%rdi,4), %esi
	addl	68(%rcx), %esi
	movq	%rax, %rdi
	addq	$272, %rdi              # imm = 0x110
	movl	%esi, (%rdx,%rdi,4)
	addq	$1, %rax
	movq	%rax, %rdi
	addq	$272, %rdi              # imm = 0x110
	movl	(%rdx,%rdi,4), %esi
	addl	68(%rcx), %esi
	movq	%rax, %rdi
	addq	$272, %rdi              # imm = 0x110
	movl	%esi, (%rdx,%rdi,4)
	addq	$1, %rax
	cmpq	$16, %rax
	movq	%rax, -160(%rbp)        # 8-byte Spill
	jne	.LBB3_36
# %bb.37:                               # %for.inc11.17
	xorl	%eax, %eax
	movl	%eax, %ecx
	movq	%rcx, -168(%rbp)        # 8-byte Spill
	jmp	.LBB3_38
.LBB3_38:                               # %for.body3.18
                                        # =>This Inner Loop Header: Depth=1
	movq	-168(%rbp), %rax        # 8-byte Reload
	movq	%rax, %rcx
	addq	$288, %rcx              # imm = 0x120
	movq	-8(%rbp), %rdx          # 8-byte Reload
	movl	(%rdx,%rcx,4), %esi
	movq	-16(%rbp), %rcx         # 8-byte Reload
	addl	72(%rcx), %esi
	movq	%rax, %rdi
	addq	$288, %rdi              # imm = 0x120
	movl	%esi, (%rdx,%rdi,4)
	addq	$1, %rax
	movq	%rax, %rdi
	addq	$288, %rdi              # imm = 0x120
	movl	(%rdx,%rdi,4), %esi
	addl	72(%rcx), %esi
	movq	%rax, %rdi
	addq	$288, %rdi              # imm = 0x120
	movl	%esi, (%rdx,%rdi,4)
	addq	$1, %rax
	movq	%rax, %rdi
	addq	$288, %rdi              # imm = 0x120
	movl	(%rdx,%rdi,4), %esi
	addl	72(%rcx), %esi
	movq	%rax, %rdi
	addq	$288, %rdi              # imm = 0x120
	movl	%esi, (%rdx,%rdi,4)
	addq	$1, %rax
	movq	%rax, %rdi
	addq	$288, %rdi              # imm = 0x120
	movl	(%rdx,%rdi,4), %esi
	addl	72(%rcx), %esi
	movq	%rax, %rdi
	addq	$288, %rdi              # imm = 0x120
	movl	%esi, (%rdx,%rdi,4)
	addq	$1, %rax
	cmpq	$16, %rax
	movq	%rax, -168(%rbp)        # 8-byte Spill
	jne	.LBB3_38
# %bb.39:                               # %for.inc11.18
	xorl	%eax, %eax
	movl	%eax, %ecx
	movq	%rcx, -176(%rbp)        # 8-byte Spill
	jmp	.LBB3_40
.LBB3_40:                               # %for.body3.19
                                        # =>This Inner Loop Header: Depth=1
	movq	-176(%rbp), %rax        # 8-byte Reload
	movq	%rax, %rcx
	addq	$304, %rcx              # imm = 0x130
	movq	-8(%rbp), %rdx          # 8-byte Reload
	movl	(%rdx,%rcx,4), %esi
	movq	-16(%rbp), %rcx         # 8-byte Reload
	addl	76(%rcx), %esi
	movq	%rax, %rdi
	addq	$304, %rdi              # imm = 0x130
	movl	%esi, (%rdx,%rdi,4)
	addq	$1, %rax
	movq	%rax, %rdi
	addq	$304, %rdi              # imm = 0x130
	movl	(%rdx,%rdi,4), %esi
	addl	76(%rcx), %esi
	movq	%rax, %rdi
	addq	$304, %rdi              # imm = 0x130
	movl	%esi, (%rdx,%rdi,4)
	addq	$1, %rax
	movq	%rax, %rdi
	addq	$304, %rdi              # imm = 0x130
	movl	(%rdx,%rdi,4), %esi
	addl	76(%rcx), %esi
	movq	%rax, %rdi
	addq	$304, %rdi              # imm = 0x130
	movl	%esi, (%rdx,%rdi,4)
	addq	$1, %rax
	movq	%rax, %rdi
	addq	$304, %rdi              # imm = 0x130
	movl	(%rdx,%rdi,4), %esi
	addl	76(%rcx), %esi
	movq	%rax, %rdi
	addq	$304, %rdi              # imm = 0x130
	movl	%esi, (%rdx,%rdi,4)
	addq	$1, %rax
	cmpq	$16, %rax
	movq	%rax, -176(%rbp)        # 8-byte Spill
	jne	.LBB3_40
# %bb.41:                               # %for.inc11.19
	xorl	%eax, %eax
	movl	%eax, %ecx
	movq	%rcx, -184(%rbp)        # 8-byte Spill
	jmp	.LBB3_42
.LBB3_42:                               # %for.body3.20
                                        # =>This Inner Loop Header: Depth=1
	movq	-184(%rbp), %rax        # 8-byte Reload
	movq	%rax, %rcx
	addq	$320, %rcx              # imm = 0x140
	movq	-8(%rbp), %rdx          # 8-byte Reload
	movl	(%rdx,%rcx,4), %esi
	movq	-16(%rbp), %rcx         # 8-byte Reload
	addl	80(%rcx), %esi
	movq	%rax, %rdi
	addq	$320, %rdi              # imm = 0x140
	movl	%esi, (%rdx,%rdi,4)
	addq	$1, %rax
	movq	%rax, %rdi
	addq	$320, %rdi              # imm = 0x140
	movl	(%rdx,%rdi,4), %esi
	addl	80(%rcx), %esi
	movq	%rax, %rdi
	addq	$320, %rdi              # imm = 0x140
	movl	%esi, (%rdx,%rdi,4)
	addq	$1, %rax
	movq	%rax, %rdi
	addq	$320, %rdi              # imm = 0x140
	movl	(%rdx,%rdi,4), %esi
	addl	80(%rcx), %esi
	movq	%rax, %rdi
	addq	$320, %rdi              # imm = 0x140
	movl	%esi, (%rdx,%rdi,4)
	addq	$1, %rax
	movq	%rax, %rdi
	addq	$320, %rdi              # imm = 0x140
	movl	(%rdx,%rdi,4), %esi
	addl	80(%rcx), %esi
	movq	%rax, %rdi
	addq	$320, %rdi              # imm = 0x140
	movl	%esi, (%rdx,%rdi,4)
	addq	$1, %rax
	cmpq	$16, %rax
	movq	%rax, -184(%rbp)        # 8-byte Spill
	jne	.LBB3_42
# %bb.43:                               # %for.inc11.20
	xorl	%eax, %eax
	movl	%eax, %ecx
	movq	%rcx, -192(%rbp)        # 8-byte Spill
	jmp	.LBB3_44
.LBB3_44:                               # %for.body3.21
                                        # =>This Inner Loop Header: Depth=1
	movq	-192(%rbp), %rax        # 8-byte Reload
	movq	%rax, %rcx
	addq	$336, %rcx              # imm = 0x150
	movq	-8(%rbp), %rdx          # 8-byte Reload
	movl	(%rdx,%rcx,4), %esi
	movq	-16(%rbp), %rcx         # 8-byte Reload
	addl	84(%rcx), %esi
	movq	%rax, %rdi
	addq	$336, %rdi              # imm = 0x150
	movl	%esi, (%rdx,%rdi,4)
	addq	$1, %rax
	movq	%rax, %rdi
	addq	$336, %rdi              # imm = 0x150
	movl	(%rdx,%rdi,4), %esi
	addl	84(%rcx), %esi
	movq	%rax, %rdi
	addq	$336, %rdi              # imm = 0x150
	movl	%esi, (%rdx,%rdi,4)
	addq	$1, %rax
	movq	%rax, %rdi
	addq	$336, %rdi              # imm = 0x150
	movl	(%rdx,%rdi,4), %esi
	addl	84(%rcx), %esi
	movq	%rax, %rdi
	addq	$336, %rdi              # imm = 0x150
	movl	%esi, (%rdx,%rdi,4)
	addq	$1, %rax
	movq	%rax, %rdi
	addq	$336, %rdi              # imm = 0x150
	movl	(%rdx,%rdi,4), %esi
	addl	84(%rcx), %esi
	movq	%rax, %rdi
	addq	$336, %rdi              # imm = 0x150
	movl	%esi, (%rdx,%rdi,4)
	addq	$1, %rax
	cmpq	$16, %rax
	movq	%rax, -192(%rbp)        # 8-byte Spill
	jne	.LBB3_44
# %bb.45:                               # %for.inc11.21
	xorl	%eax, %eax
	movl	%eax, %ecx
	movq	%rcx, -200(%rbp)        # 8-byte Spill
	jmp	.LBB3_46
.LBB3_46:                               # %for.body3.22
                                        # =>This Inner Loop Header: Depth=1
	movq	-200(%rbp), %rax        # 8-byte Reload
	movq	%rax, %rcx
	addq	$352, %rcx              # imm = 0x160
	movq	-8(%rbp), %rdx          # 8-byte Reload
	movl	(%rdx,%rcx,4), %esi
	movq	-16(%rbp), %rcx         # 8-byte Reload
	addl	88(%rcx), %esi
	movq	%rax, %rdi
	addq	$352, %rdi              # imm = 0x160
	movl	%esi, (%rdx,%rdi,4)
	addq	$1, %rax
	movq	%rax, %rdi
	addq	$352, %rdi              # imm = 0x160
	movl	(%rdx,%rdi,4), %esi
	addl	88(%rcx), %esi
	movq	%rax, %rdi
	addq	$352, %rdi              # imm = 0x160
	movl	%esi, (%rdx,%rdi,4)
	addq	$1, %rax
	movq	%rax, %rdi
	addq	$352, %rdi              # imm = 0x160
	movl	(%rdx,%rdi,4), %esi
	addl	88(%rcx), %esi
	movq	%rax, %rdi
	addq	$352, %rdi              # imm = 0x160
	movl	%esi, (%rdx,%rdi,4)
	addq	$1, %rax
	movq	%rax, %rdi
	addq	$352, %rdi              # imm = 0x160
	movl	(%rdx,%rdi,4), %esi
	addl	88(%rcx), %esi
	movq	%rax, %rdi
	addq	$352, %rdi              # imm = 0x160
	movl	%esi, (%rdx,%rdi,4)
	addq	$1, %rax
	cmpq	$16, %rax
	movq	%rax, -200(%rbp)        # 8-byte Spill
	jne	.LBB3_46
# %bb.47:                               # %for.inc11.22
	xorl	%eax, %eax
	movl	%eax, %ecx
	movq	%rcx, -208(%rbp)        # 8-byte Spill
	jmp	.LBB3_48
.LBB3_48:                               # %for.body3.23
                                        # =>This Inner Loop Header: Depth=1
	movq	-208(%rbp), %rax        # 8-byte Reload
	movq	%rax, %rcx
	addq	$368, %rcx              # imm = 0x170
	movq	-8(%rbp), %rdx          # 8-byte Reload
	movl	(%rdx,%rcx,4), %esi
	movq	-16(%rbp), %rcx         # 8-byte Reload
	addl	92(%rcx), %esi
	movq	%rax, %rdi
	addq	$368, %rdi              # imm = 0x170
	movl	%esi, (%rdx,%rdi,4)
	addq	$1, %rax
	movq	%rax, %rdi
	addq	$368, %rdi              # imm = 0x170
	movl	(%rdx,%rdi,4), %esi
	addl	92(%rcx), %esi
	movq	%rax, %rdi
	addq	$368, %rdi              # imm = 0x170
	movl	%esi, (%rdx,%rdi,4)
	addq	$1, %rax
	movq	%rax, %rdi
	addq	$368, %rdi              # imm = 0x170
	movl	(%rdx,%rdi,4), %esi
	addl	92(%rcx), %esi
	movq	%rax, %rdi
	addq	$368, %rdi              # imm = 0x170
	movl	%esi, (%rdx,%rdi,4)
	addq	$1, %rax
	movq	%rax, %rdi
	addq	$368, %rdi              # imm = 0x170
	movl	(%rdx,%rdi,4), %esi
	addl	92(%rcx), %esi
	movq	%rax, %rdi
	addq	$368, %rdi              # imm = 0x170
	movl	%esi, (%rdx,%rdi,4)
	addq	$1, %rax
	cmpq	$16, %rax
	movq	%rax, -208(%rbp)        # 8-byte Spill
	jne	.LBB3_48
# %bb.49:                               # %for.inc11.23
	xorl	%eax, %eax
	movl	%eax, %ecx
	movq	%rcx, -216(%rbp)        # 8-byte Spill
	jmp	.LBB3_50
.LBB3_50:                               # %for.body3.24
                                        # =>This Inner Loop Header: Depth=1
	movq	-216(%rbp), %rax        # 8-byte Reload
	movq	%rax, %rcx
	addq	$384, %rcx              # imm = 0x180
	movq	-8(%rbp), %rdx          # 8-byte Reload
	movl	(%rdx,%rcx,4), %esi
	movq	-16(%rbp), %rcx         # 8-byte Reload
	addl	96(%rcx), %esi
	movq	%rax, %rdi
	addq	$384, %rdi              # imm = 0x180
	movl	%esi, (%rdx,%rdi,4)
	addq	$1, %rax
	movq	%rax, %rdi
	addq	$384, %rdi              # imm = 0x180
	movl	(%rdx,%rdi,4), %esi
	addl	96(%rcx), %esi
	movq	%rax, %rdi
	addq	$384, %rdi              # imm = 0x180
	movl	%esi, (%rdx,%rdi,4)
	addq	$1, %rax
	movq	%rax, %rdi
	addq	$384, %rdi              # imm = 0x180
	movl	(%rdx,%rdi,4), %esi
	addl	96(%rcx), %esi
	movq	%rax, %rdi
	addq	$384, %rdi              # imm = 0x180
	movl	%esi, (%rdx,%rdi,4)
	addq	$1, %rax
	movq	%rax, %rdi
	addq	$384, %rdi              # imm = 0x180
	movl	(%rdx,%rdi,4), %esi
	addl	96(%rcx), %esi
	movq	%rax, %rdi
	addq	$384, %rdi              # imm = 0x180
	movl	%esi, (%rdx,%rdi,4)
	addq	$1, %rax
	cmpq	$16, %rax
	movq	%rax, -216(%rbp)        # 8-byte Spill
	jne	.LBB3_50
# %bb.51:                               # %for.inc11.24
	xorl	%eax, %eax
	movl	%eax, %ecx
	movq	%rcx, -224(%rbp)        # 8-byte Spill
	jmp	.LBB3_52
.LBB3_52:                               # %for.body3.25
                                        # =>This Inner Loop Header: Depth=1
	movq	-224(%rbp), %rax        # 8-byte Reload
	movq	%rax, %rcx
	addq	$400, %rcx              # imm = 0x190
	movq	-8(%rbp), %rdx          # 8-byte Reload
	movl	(%rdx,%rcx,4), %esi
	movq	-16(%rbp), %rcx         # 8-byte Reload
	addl	100(%rcx), %esi
	movq	%rax, %rdi
	addq	$400, %rdi              # imm = 0x190
	movl	%esi, (%rdx,%rdi,4)
	addq	$1, %rax
	movq	%rax, %rdi
	addq	$400, %rdi              # imm = 0x190
	movl	(%rdx,%rdi,4), %esi
	addl	100(%rcx), %esi
	movq	%rax, %rdi
	addq	$400, %rdi              # imm = 0x190
	movl	%esi, (%rdx,%rdi,4)
	addq	$1, %rax
	movq	%rax, %rdi
	addq	$400, %rdi              # imm = 0x190
	movl	(%rdx,%rdi,4), %esi
	addl	100(%rcx), %esi
	movq	%rax, %rdi
	addq	$400, %rdi              # imm = 0x190
	movl	%esi, (%rdx,%rdi,4)
	addq	$1, %rax
	movq	%rax, %rdi
	addq	$400, %rdi              # imm = 0x190
	movl	(%rdx,%rdi,4), %esi
	addl	100(%rcx), %esi
	movq	%rax, %rdi
	addq	$400, %rdi              # imm = 0x190
	movl	%esi, (%rdx,%rdi,4)
	addq	$1, %rax
	cmpq	$16, %rax
	movq	%rax, -224(%rbp)        # 8-byte Spill
	jne	.LBB3_52
# %bb.53:                               # %for.inc11.25
	xorl	%eax, %eax
	movl	%eax, %ecx
	movq	%rcx, -232(%rbp)        # 8-byte Spill
	jmp	.LBB3_54
.LBB3_54:                               # %for.body3.26
                                        # =>This Inner Loop Header: Depth=1
	movq	-232(%rbp), %rax        # 8-byte Reload
	movq	%rax, %rcx
	addq	$416, %rcx              # imm = 0x1A0
	movq	-8(%rbp), %rdx          # 8-byte Reload
	movl	(%rdx,%rcx,4), %esi
	movq	-16(%rbp), %rcx         # 8-byte Reload
	addl	104(%rcx), %esi
	movq	%rax, %rdi
	addq	$416, %rdi              # imm = 0x1A0
	movl	%esi, (%rdx,%rdi,4)
	addq	$1, %rax
	movq	%rax, %rdi
	addq	$416, %rdi              # imm = 0x1A0
	movl	(%rdx,%rdi,4), %esi
	addl	104(%rcx), %esi
	movq	%rax, %rdi
	addq	$416, %rdi              # imm = 0x1A0
	movl	%esi, (%rdx,%rdi,4)
	addq	$1, %rax
	movq	%rax, %rdi
	addq	$416, %rdi              # imm = 0x1A0
	movl	(%rdx,%rdi,4), %esi
	addl	104(%rcx), %esi
	movq	%rax, %rdi
	addq	$416, %rdi              # imm = 0x1A0
	movl	%esi, (%rdx,%rdi,4)
	addq	$1, %rax
	movq	%rax, %rdi
	addq	$416, %rdi              # imm = 0x1A0
	movl	(%rdx,%rdi,4), %esi
	addl	104(%rcx), %esi
	movq	%rax, %rdi
	addq	$416, %rdi              # imm = 0x1A0
	movl	%esi, (%rdx,%rdi,4)
	addq	$1, %rax
	cmpq	$16, %rax
	movq	%rax, -232(%rbp)        # 8-byte Spill
	jne	.LBB3_54
# %bb.55:                               # %for.inc11.26
	xorl	%eax, %eax
	movl	%eax, %ecx
	movq	%rcx, -240(%rbp)        # 8-byte Spill
	jmp	.LBB3_56
.LBB3_56:                               # %for.body3.27
                                        # =>This Inner Loop Header: Depth=1
	movq	-240(%rbp), %rax        # 8-byte Reload
	movq	%rax, %rcx
	addq	$432, %rcx              # imm = 0x1B0
	movq	-8(%rbp), %rdx          # 8-byte Reload
	movl	(%rdx,%rcx,4), %esi
	movq	-16(%rbp), %rcx         # 8-byte Reload
	addl	108(%rcx), %esi
	movq	%rax, %rdi
	addq	$432, %rdi              # imm = 0x1B0
	movl	%esi, (%rdx,%rdi,4)
	addq	$1, %rax
	movq	%rax, %rdi
	addq	$432, %rdi              # imm = 0x1B0
	movl	(%rdx,%rdi,4), %esi
	addl	108(%rcx), %esi
	movq	%rax, %rdi
	addq	$432, %rdi              # imm = 0x1B0
	movl	%esi, (%rdx,%rdi,4)
	addq	$1, %rax
	movq	%rax, %rdi
	addq	$432, %rdi              # imm = 0x1B0
	movl	(%rdx,%rdi,4), %esi
	addl	108(%rcx), %esi
	movq	%rax, %rdi
	addq	$432, %rdi              # imm = 0x1B0
	movl	%esi, (%rdx,%rdi,4)
	addq	$1, %rax
	movq	%rax, %rdi
	addq	$432, %rdi              # imm = 0x1B0
	movl	(%rdx,%rdi,4), %esi
	addl	108(%rcx), %esi
	movq	%rax, %rdi
	addq	$432, %rdi              # imm = 0x1B0
	movl	%esi, (%rdx,%rdi,4)
	addq	$1, %rax
	cmpq	$16, %rax
	movq	%rax, -240(%rbp)        # 8-byte Spill
	jne	.LBB3_56
# %bb.57:                               # %for.inc11.27
	xorl	%eax, %eax
	movl	%eax, %ecx
	movq	%rcx, -248(%rbp)        # 8-byte Spill
	jmp	.LBB3_58
.LBB3_58:                               # %for.body3.28
                                        # =>This Inner Loop Header: Depth=1
	movq	-248(%rbp), %rax        # 8-byte Reload
	movq	%rax, %rcx
	addq	$448, %rcx              # imm = 0x1C0
	movq	-8(%rbp), %rdx          # 8-byte Reload
	movl	(%rdx,%rcx,4), %esi
	movq	-16(%rbp), %rcx         # 8-byte Reload
	addl	112(%rcx), %esi
	movq	%rax, %rdi
	addq	$448, %rdi              # imm = 0x1C0
	movl	%esi, (%rdx,%rdi,4)
	addq	$1, %rax
	movq	%rax, %rdi
	addq	$448, %rdi              # imm = 0x1C0
	movl	(%rdx,%rdi,4), %esi
	addl	112(%rcx), %esi
	movq	%rax, %rdi
	addq	$448, %rdi              # imm = 0x1C0
	movl	%esi, (%rdx,%rdi,4)
	addq	$1, %rax
	movq	%rax, %rdi
	addq	$448, %rdi              # imm = 0x1C0
	movl	(%rdx,%rdi,4), %esi
	addl	112(%rcx), %esi
	movq	%rax, %rdi
	addq	$448, %rdi              # imm = 0x1C0
	movl	%esi, (%rdx,%rdi,4)
	addq	$1, %rax
	movq	%rax, %rdi
	addq	$448, %rdi              # imm = 0x1C0
	movl	(%rdx,%rdi,4), %esi
	addl	112(%rcx), %esi
	movq	%rax, %rdi
	addq	$448, %rdi              # imm = 0x1C0
	movl	%esi, (%rdx,%rdi,4)
	addq	$1, %rax
	cmpq	$16, %rax
	movq	%rax, -248(%rbp)        # 8-byte Spill
	jne	.LBB3_58
# %bb.59:                               # %for.inc11.28
	xorl	%eax, %eax
	movl	%eax, %ecx
	movq	%rcx, -256(%rbp)        # 8-byte Spill
	jmp	.LBB3_60
.LBB3_60:                               # %for.body3.29
                                        # =>This Inner Loop Header: Depth=1
	movq	-256(%rbp), %rax        # 8-byte Reload
	movq	%rax, %rcx
	addq	$464, %rcx              # imm = 0x1D0
	movq	-8(%rbp), %rdx          # 8-byte Reload
	movl	(%rdx,%rcx,4), %esi
	movq	-16(%rbp), %rcx         # 8-byte Reload
	addl	116(%rcx), %esi
	movq	%rax, %rdi
	addq	$464, %rdi              # imm = 0x1D0
	movl	%esi, (%rdx,%rdi,4)
	addq	$1, %rax
	movq	%rax, %rdi
	addq	$464, %rdi              # imm = 0x1D0
	movl	(%rdx,%rdi,4), %esi
	addl	116(%rcx), %esi
	movq	%rax, %rdi
	addq	$464, %rdi              # imm = 0x1D0
	movl	%esi, (%rdx,%rdi,4)
	addq	$1, %rax
	movq	%rax, %rdi
	addq	$464, %rdi              # imm = 0x1D0
	movl	(%rdx,%rdi,4), %esi
	addl	116(%rcx), %esi
	movq	%rax, %rdi
	addq	$464, %rdi              # imm = 0x1D0
	movl	%esi, (%rdx,%rdi,4)
	addq	$1, %rax
	movq	%rax, %rdi
	addq	$464, %rdi              # imm = 0x1D0
	movl	(%rdx,%rdi,4), %esi
	addl	116(%rcx), %esi
	movq	%rax, %rdi
	addq	$464, %rdi              # imm = 0x1D0
	movl	%esi, (%rdx,%rdi,4)
	addq	$1, %rax
	cmpq	$16, %rax
	movq	%rax, -256(%rbp)        # 8-byte Spill
	jne	.LBB3_60
# %bb.61:                               # %for.inc11.29
	xorl	%eax, %eax
	movl	%eax, %ecx
	movq	%rcx, -264(%rbp)        # 8-byte Spill
	jmp	.LBB3_62
.LBB3_62:                               # %for.body3.30
                                        # =>This Inner Loop Header: Depth=1
	movq	-264(%rbp), %rax        # 8-byte Reload
	movq	%rax, %rcx
	addq	$480, %rcx              # imm = 0x1E0
	movq	-8(%rbp), %rdx          # 8-byte Reload
	movl	(%rdx,%rcx,4), %esi
	movq	-16(%rbp), %rcx         # 8-byte Reload
	addl	120(%rcx), %esi
	movq	%rax, %rdi
	addq	$480, %rdi              # imm = 0x1E0
	movl	%esi, (%rdx,%rdi,4)
	addq	$1, %rax
	movq	%rax, %rdi
	addq	$480, %rdi              # imm = 0x1E0
	movl	(%rdx,%rdi,4), %esi
	addl	120(%rcx), %esi
	movq	%rax, %rdi
	addq	$480, %rdi              # imm = 0x1E0
	movl	%esi, (%rdx,%rdi,4)
	addq	$1, %rax
	movq	%rax, %rdi
	addq	$480, %rdi              # imm = 0x1E0
	movl	(%rdx,%rdi,4), %esi
	addl	120(%rcx), %esi
	movq	%rax, %rdi
	addq	$480, %rdi              # imm = 0x1E0
	movl	%esi, (%rdx,%rdi,4)
	addq	$1, %rax
	movq	%rax, %rdi
