	.text
	.file	"pp_scan.c"
	.globl	print                   # -- Begin function print
	.p2align	4, 0x90
	.type	print,@function
print:                                  # @print
	.cfi_startproc
# %bb.0:                                # %entry
	pushq	%rbp
	.cfi_def_cfa_offset 16
	.cfi_offset %rbp, -16
	movq	%rsp, %rbp
	.cfi_def_cfa_register %rbp
	subq	$64, %rsp
	cmpl	$0, %esi
	movq	%rdi, -8(%rbp)          # 8-byte Spill
	movl	%esi, -12(%rbp)         # 4-byte Spill
	jle	.LBB0_4
# %bb.1:                                # %for.body.preheader
	xorl	%eax, %eax
	movl	%eax, %ecx
	movl	-12(%rbp), %eax         # 4-byte Reload
	movl	%eax, %edx
	movl	%edx, %esi
	movq	%rsi, -24(%rbp)         # 8-byte Spill
	movq	%rcx, -32(%rbp)         # 8-byte Spill
.LBB0_2:                                # %for.body
                                        # =>This Inner Loop Header: Depth=1
	movq	-32(%rbp), %rax         # 8-byte Reload
	movq	-8(%rbp), %rcx          # 8-byte Reload
	movl	(%rcx,%rax,4), %esi
	movabsq	$.L.str, %rdi
	movq	%rax, -40(%rbp)         # 8-byte Spill
	movb	$0, %al
	callq	printf
	movq	-40(%rbp), %rcx         # 8-byte Reload
	addq	$1, %rcx
	movq	-24(%rbp), %rdx         # 8-byte Reload
	cmpq	%rdx, %rcx
	movq	%rcx, -48(%rbp)         # 8-byte Spill
	jne	.LBB0_5
.LBB0_3:                                # %for.end.loopexit
	jmp	.LBB0_4
.LBB0_4:                                # %for.end
	addq	$64, %rsp
	popq	%rbp
	.cfi_def_cfa %rsp, 8
	retq
.LBB0_5:                                # %for.body.1
                                        #   in Loop: Header=BB0_2 Depth=1
	.cfi_def_cfa %rbp, 16
	movq	-8(%rbp), %rax          # 8-byte Reload
	movq	-48(%rbp), %rcx         # 8-byte Reload
	movl	(%rax,%rcx,4), %esi
	movabsq	$.L.str, %rdi
	movb	$0, %al
	callq	printf
	movq	-48(%rbp), %rcx         # 8-byte Reload
	addq	$1, %rcx
	movq	-24(%rbp), %rdx         # 8-byte Reload
	cmpq	%rdx, %rcx
	movq	%rcx, -56(%rbp)         # 8-byte Spill
	je	.LBB0_3
# %bb.6:                                # %for.body.2
                                        #   in Loop: Header=BB0_2 Depth=1
	movq	-8(%rbp), %rax          # 8-byte Reload
	movq	-56(%rbp), %rcx         # 8-byte Reload
	movl	(%rax,%rcx,4), %esi
	movabsq	$.L.str, %rdi
	movb	$0, %al
	callq	printf
	movq	-56(%rbp), %rcx         # 8-byte Reload
	addq	$1, %rcx
	movq	-24(%rbp), %rdx         # 8-byte Reload
	cmpq	%rdx, %rcx
	movq	%rcx, -64(%rbp)         # 8-byte Spill
	je	.LBB0_3
# %bb.7:                                # %for.body.3
                                        #   in Loop: Header=BB0_2 Depth=1
	movq	-8(%rbp), %rax          # 8-byte Reload
	movq	-64(%rbp), %rcx         # 8-byte Reload
	movl	(%rax,%rcx,4), %esi
	movabsq	$.L.str, %rdi
	movb	$0, %al
	callq	printf
	movq	-64(%rbp), %rcx         # 8-byte Reload
	addq	$1, %rcx
	movq	-24(%rbp), %rdx         # 8-byte Reload
	cmpq	%rdx, %rcx
	movq	%rcx, -32(%rbp)         # 8-byte Spill
	jne	.LBB0_2
	jmp	.LBB0_3
.Lfunc_end0:
	.size	print, .Lfunc_end0-print
	.cfi_endproc
                                        # -- End function
	.globl	local_scan              # -- Begin function local_scan
	.p2align	4, 0x90
	.type	local_scan,@function
local_scan:                             # @local_scan
	.cfi_startproc
# %bb.0:                                # %entry
	pushq	%rbp
	.cfi_def_cfa_offset 16
	.cfi_offset %rbp, -16
	movq	%rsp, %rbp
	.cfi_def_cfa_register %rbp
	subq	$6032, %rsp             # imm = 0x1790
	xorl	%eax, %eax
	movl	%eax, %ecx
	movq	%rdi, -8(%rbp)          # 8-byte Spill
	movq	%rcx, -16(%rbp)         # 8-byte Spill
	jmp	.LBB1_1
.LBB1_1:                                # %for.body
                                        # =>This Loop Header: Depth=1
                                        #     Child Loop BB1_2 Depth 2
                                        #     Child Loop BB1_6 Depth 2
                                        #     Child Loop BB1_9 Depth 2
                                        #     Child Loop BB1_12 Depth 2
                                        #     Child Loop BB1_15 Depth 2
                                        #     Child Loop BB1_18 Depth 2
                                        #     Child Loop BB1_21 Depth 2
                                        #     Child Loop BB1_24 Depth 2
                                        #     Child Loop BB1_27 Depth 2
                                        #     Child Loop BB1_30 Depth 2
                                        #     Child Loop BB1_33 Depth 2
                                        #     Child Loop BB1_36 Depth 2
                                        #     Child Loop BB1_39 Depth 2
                                        #     Child Loop BB1_42 Depth 2
                                        #     Child Loop BB1_45 Depth 2
                                        #     Child Loop BB1_48 Depth 2
                                        #     Child Loop BB1_51 Depth 2
                                        #     Child Loop BB1_54 Depth 2
                                        #     Child Loop BB1_57 Depth 2
                                        #     Child Loop BB1_60 Depth 2
                                        #     Child Loop BB1_63 Depth 2
                                        #     Child Loop BB1_66 Depth 2
                                        #     Child Loop BB1_69 Depth 2
                                        #     Child Loop BB1_72 Depth 2
                                        #     Child Loop BB1_75 Depth 2
                                        #     Child Loop BB1_78 Depth 2
                                        #     Child Loop BB1_81 Depth 2
                                        #     Child Loop BB1_84 Depth 2
                                        #     Child Loop BB1_87 Depth 2
                                        #     Child Loop BB1_90 Depth 2
                                        #     Child Loop BB1_93 Depth 2
                                        #     Child Loop BB1_96 Depth 2
                                        #     Child Loop BB1_99 Depth 2
                                        #     Child Loop BB1_102 Depth 2
                                        #     Child Loop BB1_105 Depth 2
                                        #     Child Loop BB1_108 Depth 2
                                        #     Child Loop BB1_111 Depth 2
                                        #     Child Loop BB1_114 Depth 2
                                        #     Child Loop BB1_117 Depth 2
                                        #     Child Loop BB1_120 Depth 2
                                        #     Child Loop BB1_123 Depth 2
                                        #     Child Loop BB1_126 Depth 2
                                        #     Child Loop BB1_129 Depth 2
                                        #     Child Loop BB1_132 Depth 2
                                        #     Child Loop BB1_135 Depth 2
                                        #     Child Loop BB1_138 Depth 2
                                        #     Child Loop BB1_141 Depth 2
                                        #     Child Loop BB1_144 Depth 2
                                        #     Child Loop BB1_147 Depth 2
                                        #     Child Loop BB1_150 Depth 2
                                        #     Child Loop BB1_153 Depth 2
                                        #     Child Loop BB1_156 Depth 2
                                        #     Child Loop BB1_159 Depth 2
                                        #     Child Loop BB1_162 Depth 2
                                        #     Child Loop BB1_165 Depth 2
                                        #     Child Loop BB1_168 Depth 2
                                        #     Child Loop BB1_171 Depth 2
                                        #     Child Loop BB1_174 Depth 2
                                        #     Child Loop BB1_177 Depth 2
                                        #     Child Loop BB1_180 Depth 2
                                        #     Child Loop BB1_183 Depth 2
                                        #     Child Loop BB1_186 Depth 2
                                        #     Child Loop BB1_189 Depth 2
                                        #     Child Loop BB1_192 Depth 2
                                        #     Child Loop BB1_195 Depth 2
                                        #     Child Loop BB1_198 Depth 2
                                        #     Child Loop BB1_201 Depth 2
                                        #     Child Loop BB1_204 Depth 2
                                        #     Child Loop BB1_207 Depth 2
                                        #     Child Loop BB1_210 Depth 2
                                        #     Child Loop BB1_213 Depth 2
                                        #     Child Loop BB1_216 Depth 2
                                        #     Child Loop BB1_219 Depth 2
                                        #     Child Loop BB1_222 Depth 2
                                        #     Child Loop BB1_225 Depth 2
                                        #     Child Loop BB1_228 Depth 2
                                        #     Child Loop BB1_231 Depth 2
                                        #     Child Loop BB1_234 Depth 2
                                        #     Child Loop BB1_237 Depth 2
                                        #     Child Loop BB1_240 Depth 2
                                        #     Child Loop BB1_243 Depth 2
                                        #     Child Loop BB1_246 Depth 2
                                        #     Child Loop BB1_249 Depth 2
                                        #     Child Loop BB1_252 Depth 2
                                        #     Child Loop BB1_255 Depth 2
                                        #     Child Loop BB1_258 Depth 2
                                        #     Child Loop BB1_261 Depth 2
                                        #     Child Loop BB1_264 Depth 2
                                        #     Child Loop BB1_267 Depth 2
                                        #     Child Loop BB1_270 Depth 2
                                        #     Child Loop BB1_273 Depth 2
                                        #     Child Loop BB1_276 Depth 2
                                        #     Child Loop BB1_279 Depth 2
                                        #     Child Loop BB1_282 Depth 2
                                        #     Child Loop BB1_285 Depth 2
                                        #     Child Loop BB1_288 Depth 2
                                        #     Child Loop BB1_291 Depth 2
                                        #     Child Loop BB1_294 Depth 2
                                        #     Child Loop BB1_297 Depth 2
                                        #     Child Loop BB1_300 Depth 2
                                        #     Child Loop BB1_303 Depth 2
                                        #     Child Loop BB1_306 Depth 2
                                        #     Child Loop BB1_309 Depth 2
                                        #     Child Loop BB1_312 Depth 2
                                        #     Child Loop BB1_315 Depth 2
                                        #     Child Loop BB1_318 Depth 2
                                        #     Child Loop BB1_321 Depth 2
                                        #     Child Loop BB1_324 Depth 2
                                        #     Child Loop BB1_327 Depth 2
                                        #     Child Loop BB1_330 Depth 2
                                        #     Child Loop BB1_333 Depth 2
                                        #     Child Loop BB1_336 Depth 2
                                        #     Child Loop BB1_339 Depth 2
                                        #     Child Loop BB1_342 Depth 2
                                        #     Child Loop BB1_345 Depth 2
                                        #     Child Loop BB1_348 Depth 2
                                        #     Child Loop BB1_351 Depth 2
                                        #     Child Loop BB1_354 Depth 2
                                        #     Child Loop BB1_357 Depth 2
                                        #     Child Loop BB1_360 Depth 2
                                        #     Child Loop BB1_363 Depth 2
                                        #     Child Loop BB1_366 Depth 2
                                        #     Child Loop BB1_369 Depth 2
                                        #     Child Loop BB1_372 Depth 2
                                        #     Child Loop BB1_375 Depth 2
                                        #     Child Loop BB1_378 Depth 2
                                        #     Child Loop BB1_381 Depth 2
                                        #     Child Loop BB1_384 Depth 2
                                        #     Child Loop BB1_387 Depth 2
                                        #     Child Loop BB1_390 Depth 2
                                        #     Child Loop BB1_393 Depth 2
                                        #     Child Loop BB1_396 Depth 2
                                        #     Child Loop BB1_399 Depth 2
                                        #     Child Loop BB1_402 Depth 2
                                        #     Child Loop BB1_405 Depth 2
                                        #     Child Loop BB1_408 Depth 2
                                        #     Child Loop BB1_411 Depth 2
                                        #     Child Loop BB1_414 Depth 2
                                        #     Child Loop BB1_417 Depth 2
                                        #     Child Loop BB1_420 Depth 2
                                        #     Child Loop BB1_423 Depth 2
                                        #     Child Loop BB1_426 Depth 2
                                        #     Child Loop BB1_429 Depth 2
                                        #     Child Loop BB1_432 Depth 2
                                        #     Child Loop BB1_435 Depth 2
                                        #     Child Loop BB1_438 Depth 2
                                        #     Child Loop BB1_441 Depth 2
                                        #     Child Loop BB1_444 Depth 2
                                        #     Child Loop BB1_447 Depth 2
                                        #     Child Loop BB1_450 Depth 2
                                        #     Child Loop BB1_453 Depth 2
                                        #     Child Loop BB1_456 Depth 2
                                        #     Child Loop BB1_459 Depth 2
                                        #     Child Loop BB1_462 Depth 2
                                        #     Child Loop BB1_465 Depth 2
                                        #     Child Loop BB1_468 Depth 2
                                        #     Child Loop BB1_471 Depth 2
                                        #     Child Loop BB1_474 Depth 2
                                        #     Child Loop BB1_477 Depth 2
                                        #     Child Loop BB1_480 Depth 2
                                        #     Child Loop BB1_483 Depth 2
                                        #     Child Loop BB1_486 Depth 2
                                        #     Child Loop BB1_489 Depth 2
                                        #     Child Loop BB1_492 Depth 2
                                        #     Child Loop BB1_495 Depth 2
                                        #     Child Loop BB1_498 Depth 2
                                        #     Child Loop BB1_501 Depth 2
                                        #     Child Loop BB1_504 Depth 2
                                        #     Child Loop BB1_507 Depth 2
                                        #     Child Loop BB1_510 Depth 2
                                        #     Child Loop BB1_513 Depth 2
                                        #     Child Loop BB1_516 Depth 2
                                        #     Child Loop BB1_519 Depth 2
                                        #     Child Loop BB1_522 Depth 2
                                        #     Child Loop BB1_525 Depth 2
                                        #     Child Loop BB1_528 Depth 2
                                        #     Child Loop BB1_531 Depth 2
                                        #     Child Loop BB1_534 Depth 2
                                        #     Child Loop BB1_537 Depth 2
                                        #     Child Loop BB1_540 Depth 2
                                        #     Child Loop BB1_543 Depth 2
                                        #     Child Loop BB1_546 Depth 2
                                        #     Child Loop BB1_549 Depth 2
                                        #     Child Loop BB1_552 Depth 2
                                        #     Child Loop BB1_555 Depth 2
                                        #     Child Loop BB1_558 Depth 2
                                        #     Child Loop BB1_561 Depth 2
                                        #     Child Loop BB1_564 Depth 2
                                        #     Child Loop BB1_567 Depth 2
                                        #     Child Loop BB1_570 Depth 2
                                        #     Child Loop BB1_573 Depth 2
                                        #     Child Loop BB1_576 Depth 2
                                        #     Child Loop BB1_579 Depth 2
                                        #     Child Loop BB1_582 Depth 2
                                        #     Child Loop BB1_585 Depth 2
                                        #     Child Loop BB1_588 Depth 2
                                        #     Child Loop BB1_591 Depth 2
                                        #     Child Loop BB1_594 Depth 2
                                        #     Child Loop BB1_597 Depth 2
                                        #     Child Loop BB1_600 Depth 2
                                        #     Child Loop BB1_603 Depth 2
                                        #     Child Loop BB1_606 Depth 2
                                        #     Child Loop BB1_609 Depth 2
                                        #     Child Loop BB1_612 Depth 2
                                        #     Child Loop BB1_615 Depth 2
                                        #     Child Loop BB1_618 Depth 2
                                        #     Child Loop BB1_621 Depth 2
                                        #     Child Loop BB1_624 Depth 2
                                        #     Child Loop BB1_627 Depth 2
                                        #     Child Loop BB1_630 Depth 2
                                        #     Child Loop BB1_633 Depth 2
                                        #     Child Loop BB1_636 Depth 2
                                        #     Child Loop BB1_639 Depth 2
                                        #     Child Loop BB1_642 Depth 2
                                        #     Child Loop BB1_645 Depth 2
                                        #     Child Loop BB1_648 Depth 2
                                        #     Child Loop BB1_651 Depth 2
                                        #     Child Loop BB1_654 Depth 2
                                        #     Child Loop BB1_657 Depth 2
                                        #     Child Loop BB1_660 Depth 2
                                        #     Child Loop BB1_663 Depth 2
                                        #     Child Loop BB1_666 Depth 2
                                        #     Child Loop BB1_669 Depth 2
                                        #     Child Loop BB1_672 Depth 2
                                        #     Child Loop BB1_675 Depth 2
                                        #     Child Loop BB1_678 Depth 2
                                        #     Child Loop BB1_681 Depth 2
                                        #     Child Loop BB1_684 Depth 2
                                        #     Child Loop BB1_687 Depth 2
                                        #     Child Loop BB1_690 Depth 2
                                        #     Child Loop BB1_693 Depth 2
                                        #     Child Loop BB1_696 Depth 2
                                        #     Child Loop BB1_699 Depth 2
                                        #     Child Loop BB1_702 Depth 2
                                        #     Child Loop BB1_705 Depth 2
                                        #     Child Loop BB1_708 Depth 2
                                        #     Child Loop BB1_711 Depth 2
                                        #     Child Loop BB1_714 Depth 2
                                        #     Child Loop BB1_717 Depth 2
                                        #     Child Loop BB1_720 Depth 2
                                        #     Child Loop BB1_723 Depth 2
                                        #     Child Loop BB1_726 Depth 2
                                        #     Child Loop BB1_729 Depth 2
                                        #     Child Loop BB1_732 Depth 2
                                        #     Child Loop BB1_735 Depth 2
                                        #     Child Loop BB1_738 Depth 2
                                        #     Child Loop BB1_741 Depth 2
                                        #     Child Loop BB1_744 Depth 2
                                        #     Child Loop BB1_747 Depth 2
                                        #     Child Loop BB1_750 Depth 2
                                        #     Child Loop BB1_753 Depth 2
                                        #     Child Loop BB1_756 Depth 2
                                        #     Child Loop BB1_759 Depth 2
                                        #     Child Loop BB1_762 Depth 2
                                        #     Child Loop BB1_765 Depth 2
                                        #     Child Loop BB1_768 Depth 2
	movq	-16(%rbp), %rax         # 8-byte Reload
	movl	$1, %ecx
	movq	%rax, -24(%rbp)         # 8-byte Spill
	movq	%rcx, -32(%rbp)         # 8-byte Spill
.LBB1_2:                                # %for.body3
                                        #   Parent Loop BB1_1 Depth=1
                                        # =>  This Inner Loop Header: Depth=2
	movq	-32(%rbp), %rax         # 8-byte Reload
	movq	-24(%rbp), %rcx         # 8-byte Reload
	shlq	$4, %rcx
	addq	%rax, %rcx
	movq	-8(%rbp), %rdx          # 8-byte Reload
	movl	-4(%rdx,%rcx,4), %esi
	movq	-24(%rbp), %rcx         # 8-byte Reload
	shlq	$4, %rcx
	addq	%rax, %rcx
	addl	(%rdx,%rcx,4), %esi
	movl	%esi, (%rdx,%rcx,4)
	addq	$1, %rax
	movq	-24(%rbp), %rcx         # 8-byte Reload
	shlq	$4, %rcx
	addq	%rax, %rcx
	movl	-4(%rdx,%rcx,4), %esi
	movq	-24(%rbp), %rcx         # 8-byte Reload
	shlq	$4, %rcx
	addq	%rax, %rcx
	addl	(%rdx,%rcx,4), %esi
	movl	%esi, (%rdx,%rcx,4)
	addq	$1, %rax
	movq	-24(%rbp), %rcx         # 8-byte Reload
	shlq	$4, %rcx
	addq	%rax, %rcx
	movl	-4(%rdx,%rcx,4), %esi
	movq	-24(%rbp), %rcx         # 8-byte Reload
	shlq	$4, %rcx
	addq	%rax, %rcx
	addl	(%rdx,%rcx,4), %esi
	movl	%esi, (%rdx,%rcx,4)
	addq	$1, %rax
	cmpq	$16, %rax
	movq	%rax, -40(%rbp)         # 8-byte Spill
	jne	.LBB1_5
# %bb.3:                                # %for.inc9
                                        #   in Loop: Header=BB1_1 Depth=1
	movq	-24(%rbp), %rax         # 8-byte Reload
	addq	$1, %rax
	movl	$1, %ecx
	movq	%rax, -48(%rbp)         # 8-byte Spill
	movq	%rcx, -56(%rbp)         # 8-byte Spill
	jmp	.LBB1_6
.LBB1_4:                                # %for.end11
	addq	$6032, %rsp             # imm = 0x1790
	popq	%rbp
	.cfi_def_cfa %rsp, 8
	retq
.LBB1_5:                                # %for.body3.3
                                        #   in Loop: Header=BB1_2 Depth=2
	.cfi_def_cfa %rbp, 16
	movq	-24(%rbp), %rax         # 8-byte Reload
	shlq	$4, %rax
	movq	-40(%rbp), %rcx         # 8-byte Reload
	addq	%rcx, %rax
	movq	-8(%rbp), %rdx          # 8-byte Reload
	movl	-4(%rdx,%rax,4), %esi
	movq	-24(%rbp), %rax         # 8-byte Reload
	shlq	$4, %rax
	addq	%rcx, %rax
	addl	(%rdx,%rax,4), %esi
	movl	%esi, (%rdx,%rax,4)
	addq	$1, %rcx
	movq	%rcx, -32(%rbp)         # 8-byte Spill
	jmp	.LBB1_2
.LBB1_6:                                # %for.body3.1
                                        #   Parent Loop BB1_1 Depth=1
                                        # =>  This Inner Loop Header: Depth=2
	movq	-56(%rbp), %rax         # 8-byte Reload
	movq	-48(%rbp), %rcx         # 8-byte Reload
	shlq	$4, %rcx
	addq	%rax, %rcx
	movq	-8(%rbp), %rdx          # 8-byte Reload
	movl	-4(%rdx,%rcx,4), %esi
	movq	-48(%rbp), %rcx         # 8-byte Reload
	shlq	$4, %rcx
	addq	%rax, %rcx
	addl	(%rdx,%rcx,4), %esi
	movl	%esi, (%rdx,%rcx,4)
	addq	$1, %rax
	movq	-48(%rbp), %rcx         # 8-byte Reload
	shlq	$4, %rcx
	addq	%rax, %rcx
	movl	-4(%rdx,%rcx,4), %esi
	movq	-48(%rbp), %rcx         # 8-byte Reload
	shlq	$4, %rcx
	addq	%rax, %rcx
	addl	(%rdx,%rcx,4), %esi
	movl	%esi, (%rdx,%rcx,4)
	addq	$1, %rax
	movq	-48(%rbp), %rcx         # 8-byte Reload
	shlq	$4, %rcx
	addq	%rax, %rcx
	movl	-4(%rdx,%rcx,4), %esi
	movq	-48(%rbp), %rcx         # 8-byte Reload
	shlq	$4, %rcx
	addq	%rax, %rcx
	addl	(%rdx,%rcx,4), %esi
	movl	%esi, (%rdx,%rcx,4)
	addq	$1, %rax
	cmpq	$16, %rax
	movq	%rax, -64(%rbp)         # 8-byte Spill
	jne	.LBB1_8
# %bb.7:                                # %for.inc9.1
                                        #   in Loop: Header=BB1_1 Depth=1
	movq	-48(%rbp), %rax         # 8-byte Reload
	addq	$1, %rax
	movl	$1, %ecx
	movq	%rax, -72(%rbp)         # 8-byte Spill
	movq	%rcx, -80(%rbp)         # 8-byte Spill
	jmp	.LBB1_9
.LBB1_8:                                # %for.body3.3.1
                                        #   in Loop: Header=BB1_6 Depth=2
	movq	-48(%rbp), %rax         # 8-byte Reload
	shlq	$4, %rax
	movq	-64(%rbp), %rcx         # 8-byte Reload
	addq	%rcx, %rax
	movq	-8(%rbp), %rdx          # 8-byte Reload
	movl	-4(%rdx,%rax,4), %esi
	movq	-48(%rbp), %rax         # 8-byte Reload
	shlq	$4, %rax
	addq	%rcx, %rax
	addl	(%rdx,%rax,4), %esi
	movl	%esi, (%rdx,%rax,4)
	addq	$1, %rcx
	movq	%rcx, -56(%rbp)         # 8-byte Spill
	jmp	.LBB1_6
.LBB1_9:                                # %for.body3.2
                                        #   Parent Loop BB1_1 Depth=1
                                        # =>  This Inner Loop Header: Depth=2
	movq	-80(%rbp), %rax         # 8-byte Reload
	movq	-72(%rbp), %rcx         # 8-byte Reload
	shlq	$4, %rcx
	addq	%rax, %rcx
	movq	-8(%rbp), %rdx          # 8-byte Reload
	movl	-4(%rdx,%rcx,4), %esi
	movq	-72(%rbp), %rcx         # 8-byte Reload
	shlq	$4, %rcx
	addq	%rax, %rcx
	addl	(%rdx,%rcx,4), %esi
	movl	%esi, (%rdx,%rcx,4)
	addq	$1, %rax
	movq	-72(%rbp), %rcx         # 8-byte Reload
	shlq	$4, %rcx
	addq	%rax, %rcx
	movl	-4(%rdx,%rcx,4), %esi
	movq	-72(%rbp), %rcx         # 8-byte Reload
	shlq	$4, %rcx
	addq	%rax, %rcx
	addl	(%rdx,%rcx,4), %esi
	movl	%esi, (%rdx,%rcx,4)
	addq	$1, %rax
	movq	-72(%rbp), %rcx         # 8-byte Reload
	shlq	$4, %rcx
	addq	%rax, %rcx
	movl	-4(%rdx,%rcx,4), %esi
	movq	-72(%rbp), %rcx         # 8-byte Reload
	shlq	$4, %rcx
	addq	%rax, %rcx
	addl	(%rdx,%rcx,4), %esi
	movl	%esi, (%rdx,%rcx,4)
	addq	$1, %rax
	cmpq	$16, %rax
	movq	%rax, -88(%rbp)         # 8-byte Spill
	jne	.LBB1_11
# %bb.10:                               # %for.inc9.2
                                        #   in Loop: Header=BB1_1 Depth=1
	movq	-72(%rbp), %rax         # 8-byte Reload
	addq	$1, %rax
	movl	$1, %ecx
	movq	%rax, -96(%rbp)         # 8-byte Spill
	movq	%rcx, -104(%rbp)        # 8-byte Spill
	jmp	.LBB1_12
.LBB1_11:                               # %for.body3.3.2
                                        #   in Loop: Header=BB1_9 Depth=2
	movq	-72(%rbp), %rax         # 8-byte Reload
	shlq	$4, %rax
	movq	-88(%rbp), %rcx         # 8-byte Reload
	addq	%rcx, %rax
	movq	-8(%rbp), %rdx          # 8-byte Reload
	movl	-4(%rdx,%rax,4), %esi
	movq	-72(%rbp), %rax         # 8-byte Reload
	shlq	$4, %rax
	addq	%rcx, %rax
	addl	(%rdx,%rax,4), %esi
	movl	%esi, (%rdx,%rax,4)
	addq	$1, %rcx
	movq	%rcx, -80(%rbp)         # 8-byte Spill
	jmp	.LBB1_9
.LBB1_12:                               # %for.body3.329
                                        #   Parent Loop BB1_1 Depth=1
                                        # =>  This Inner Loop Header: Depth=2
	movq	-104(%rbp), %rax        # 8-byte Reload
	movq	-96(%rbp), %rcx         # 8-byte Reload
	shlq	$4, %rcx
	addq	%rax, %rcx
	movq	-8(%rbp), %rdx          # 8-byte Reload
	movl	-4(%rdx,%rcx,4), %esi
	movq	-96(%rbp), %rcx         # 8-byte Reload
	shlq	$4, %rcx
	addq	%rax, %rcx
	addl	(%rdx,%rcx,4), %esi
	movl	%esi, (%rdx,%rcx,4)
	addq	$1, %rax
	movq	-96(%rbp), %rcx         # 8-byte Reload
	shlq	$4, %rcx
	addq	%rax, %rcx
	movl	-4(%rdx,%rcx,4), %esi
	movq	-96(%rbp), %rcx         # 8-byte Reload
	shlq	$4, %rcx
	addq	%rax, %rcx
	addl	(%rdx,%rcx,4), %esi
	movl	%esi, (%rdx,%rcx,4)
	addq	$1, %rax
	movq	-96(%rbp), %rcx         # 8-byte Reload
	shlq	$4, %rcx
	addq	%rax, %rcx
	movl	-4(%rdx,%rcx,4), %esi
	movq	-96(%rbp), %rcx         # 8-byte Reload
	shlq	$4, %rcx
	addq	%rax, %rcx
	addl	(%rdx,%rcx,4), %esi
	movl	%esi, (%rdx,%rcx,4)
	addq	$1, %rax
	cmpq	$16, %rax
	movq	%rax, -112(%rbp)        # 8-byte Spill
	jne	.LBB1_14
# %bb.13:                               # %for.inc9.3
                                        #   in Loop: Header=BB1_1 Depth=1
	movq	-96(%rbp), %rax         # 8-byte Reload
	addq	$1, %rax
	movl	$1, %ecx
	movq	%rax, -120(%rbp)        # 8-byte Spill
	movq	%rcx, -128(%rbp)        # 8-byte Spill
	jmp	.LBB1_15
.LBB1_14:                               # %for.body3.3.3
                                        #   in Loop: Header=BB1_12 Depth=2
	movq	-96(%rbp), %rax         # 8-byte Reload
	shlq	$4, %rax
	movq	-112(%rbp), %rcx        # 8-byte Reload
	addq	%rcx, %rax
	movq	-8(%rbp), %rdx          # 8-byte Reload
	movl	-4(%rdx,%rax,4), %esi
	movq	-96(%rbp), %rax         # 8-byte Reload
	shlq	$4, %rax
	addq	%rcx, %rax
	addl	(%rdx,%rax,4), %esi
	movl	%esi, (%rdx,%rax,4)
	addq	$1, %rcx
	movq	%rcx, -104(%rbp)        # 8-byte Spill
	jmp	.LBB1_12
.LBB1_15:                               # %for.body3.4
                                        #   Parent Loop BB1_1 Depth=1
                                        # =>  This Inner Loop Header: Depth=2
	movq	-128(%rbp), %rax        # 8-byte Reload
	movq	-120(%rbp), %rcx        # 8-byte Reload
	shlq	$4, %rcx
	addq	%rax, %rcx
	movq	-8(%rbp), %rdx          # 8-byte Reload
	movl	-4(%rdx,%rcx,4), %esi
	movq	-120(%rbp), %rcx        # 8-byte Reload
	shlq	$4, %rcx
	addq	%rax, %rcx
	addl	(%rdx,%rcx,4), %esi
	movl	%esi, (%rdx,%rcx,4)
	addq	$1, %rax
	movq	-120(%rbp), %rcx        # 8-byte Reload
	shlq	$4, %rcx
	addq	%rax, %rcx
	movl	-4(%rdx,%rcx,4), %esi
	movq	-120(%rbp), %rcx        # 8-byte Reload
	shlq	$4, %rcx
	addq	%rax, %rcx
	addl	(%rdx,%rcx,4), %esi
	movl	%esi, (%rdx,%rcx,4)
	addq	$1, %rax
	movq	-120(%rbp), %rcx        # 8-byte Reload
	shlq	$4, %rcx
	addq	%rax, %rcx
	movl	-4(%rdx,%rcx,4), %esi
	movq	-120(%rbp), %rcx        # 8-byte Reload
	shlq	$4, %rcx
	addq	%rax, %rcx
	addl	(%rdx,%rcx,4), %esi
	movl	%esi, (%rdx,%rcx,4)
	addq	$1, %rax
	cmpq	$16, %rax
	movq	%rax, -136(%rbp)        # 8-byte Spill
	jne	.LBB1_17
# %bb.16:                               # %for.inc9.4
                                        #   in Loop: Header=BB1_1 Depth=1
	movq	-120(%rbp), %rax        # 8-byte Reload
	addq	$1, %rax
	movl	$1, %ecx
	movq	%rax, -144(%rbp)        # 8-byte Spill
	movq	%rcx, -152(%rbp)        # 8-byte Spill
	jmp	.LBB1_18
.LBB1_17:                               # %for.body3.3.4
                                        #   in Loop: Header=BB1_15 Depth=2
	movq	-120(%rbp), %rax        # 8-byte Reload
	shlq	$4, %rax
	movq	-136(%rbp), %rcx        # 8-byte Reload
	addq	%rcx, %rax
	movq	-8(%rbp), %rdx          # 8-byte Reload
	movl	-4(%rdx,%rax,4), %esi
	movq	-120(%rbp), %rax        # 8-byte Reload
	shlq	$4, %rax
	addq	%rcx, %rax
	addl	(%rdx,%rax,4), %esi
	movl	%esi, (%rdx,%rax,4)
	addq	$1, %rcx
	movq	%rcx, -128(%rbp)        # 8-byte Spill
	jmp	.LBB1_15
.LBB1_18:                               # %for.body3.5
                                        #   Parent Loop BB1_1 Depth=1
                                        # =>  This Inner Loop Header: Depth=2
	movq	-152(%rbp), %rax        # 8-byte Reload
	movq	-144(%rbp), %rcx        # 8-byte Reload
	shlq	$4, %rcx
	addq	%rax, %rcx
	movq	-8(%rbp), %rdx          # 8-byte Reload
	movl	-4(%rdx,%rcx,4), %esi
	movq	-144(%rbp), %rcx        # 8-byte Reload
	shlq	$4, %rcx
	addq	%rax, %rcx
	addl	(%rdx,%rcx,4), %esi
	movl	%esi, (%rdx,%rcx,4)
	addq	$1, %rax
	movq	-144(%rbp), %rcx        # 8-byte Reload
	shlq	$4, %rcx
	addq	%rax, %rcx
	movl	-4(%rdx,%rcx,4), %esi
	movq	-144(%rbp), %rcx        # 8-byte Reload
	shlq	$4, %rcx
	addq	%rax, %rcx
	addl	(%rdx,%rcx,4), %esi
	movl	%esi, (%rdx,%rcx,4)
	addq	$1, %rax
	movq	-144(%rbp), %rcx        # 8-byte Reload
	shlq	$4, %rcx
	addq	%rax, %rcx
	movl	-4(%rdx,%rcx,4), %esi
	movq	-144(%rbp), %rcx        # 8-byte Reload
	shlq	$4, %rcx
	addq	%rax, %rcx
	addl	(%rdx,%rcx,4), %esi
	movl	%esi, (%rdx,%rcx,4)
	addq	$1, %rax
	cmpq	$16, %rax
	movq	%rax, -160(%rbp)        # 8-byte Spill
	jne	.LBB1_20
# %bb.19:                               # %for.inc9.5
                                        #   in Loop: Header=BB1_1 Depth=1
	movq	-144(%rbp), %rax        # 8-byte Reload
	addq	$1, %rax
	movl	$1, %ecx
	movq	%rax, -168(%rbp)        # 8-byte Spill
	movq	%rcx, -176(%rbp)        # 8-byte Spill
	jmp	.LBB1_21
.LBB1_20:                               # %for.body3.3.5
                                        #   in Loop: Header=BB1_18 Depth=2
	movq	-144(%rbp), %rax        # 8-byte Reload
	shlq	$4, %rax
	movq	-160(%rbp), %rcx        # 8-byte Reload
	addq	%rcx, %rax
	movq	-8(%rbp), %rdx          # 8-byte Reload
	movl	-4(%rdx,%rax,4), %esi
	movq	-144(%rbp), %rax        # 8-byte Reload
	shlq	$4, %rax
	addq	%rcx, %rax
	addl	(%rdx,%rax,4), %esi
	movl	%esi, (%rdx,%rax,4)
	addq	$1, %rcx
	movq	%rcx, -152(%rbp)        # 8-byte Spill
	jmp	.LBB1_18
.LBB1_21:                               # %for.body3.6
                                        #   Parent Loop BB1_1 Depth=1
                                        # =>  This Inner Loop Header: Depth=2
	movq	-176(%rbp), %rax        # 8-byte Reload
	movq	-168(%rbp), %rcx        # 8-byte Reload
	shlq	$4, %rcx
	addq	%rax, %rcx
	movq	-8(%rbp), %rdx          # 8-byte Reload
	movl	-4(%rdx,%rcx,4), %esi
	movq	-168(%rbp), %rcx        # 8-byte Reload
	shlq	$4, %rcx
	addq	%rax, %rcx
	addl	(%rdx,%rcx,4), %esi
	movl	%esi, (%rdx,%rcx,4)
	addq	$1, %rax
	movq	-168(%rbp), %rcx        # 8-byte Reload
	shlq	$4, %rcx
	addq	%rax, %rcx
	movl	-4(%rdx,%rcx,4), %esi
	movq	-168(%rbp), %rcx        # 8-byte Reload
	shlq	$4, %rcx
	addq	%rax, %rcx
	addl	(%rdx,%rcx,4), %esi
	movl	%esi, (%rdx,%rcx,4)
	addq	$1, %rax
	movq	-168(%rbp), %rcx        # 8-byte Reload
	shlq	$4, %rcx
	addq	%rax, %rcx
	movl	-4(%rdx,%rcx,4), %esi
	movq	-168(%rbp), %rcx        # 8-byte Reload
	shlq	$4, %rcx
	addq	%rax, %rcx
	addl	(%rdx,%rcx,4), %esi
	movl	%esi, (%rdx,%rcx,4)
	addq	$1, %rax
	cmpq	$16, %rax
	movq	%rax, -184(%rbp)        # 8-byte Spill
	jne	.LBB1_23
# %bb.22:                               # %for.inc9.6
                                        #   in Loop: Header=BB1_1 Depth=1
	movq	-168(%rbp), %rax        # 8-byte Reload
	addq	$1, %rax
	movl	$1, %ecx
	movq	%rax, -192(%rbp)        # 8-byte Spill
	movq	%rcx, -200(%rbp)        # 8-byte Spill
	jmp	.LBB1_24
.LBB1_23:                               # %for.body3.3.6
                                        #   in Loop: Header=BB1_21 Depth=2
	movq	-168(%rbp), %rax        # 8-byte Reload
	shlq	$4, %rax
	movq	-184(%rbp), %rcx        # 8-byte Reload
	addq	%rcx, %rax
	movq	-8(%rbp), %rdx          # 8-byte Reload
	movl	-4(%rdx,%rax,4), %esi
	movq	-168(%rbp), %rax        # 8-byte Reload
	shlq	$4, %rax
	addq	%rcx, %rax
	addl	(%rdx,%rax,4), %esi
	movl	%esi, (%rdx,%rax,4)
	addq	$1, %rcx
	movq	%rcx, -176(%rbp)        # 8-byte Spill
	jmp	.LBB1_21
.LBB1_24:                               # %for.body3.7
                                        #   Parent Loop BB1_1 Depth=1
                                        # =>  This Inner Loop Header: Depth=2
	movq	-200(%rbp), %rax        # 8-byte Reload
	movq	-192(%rbp), %rcx        # 8-byte Reload
	shlq	$4, %rcx
	addq	%rax, %rcx
	movq	-8(%rbp), %rdx          # 8-byte Reload
	movl	-4(%rdx,%rcx,4), %esi
	movq	-192(%rbp), %rcx        # 8-byte Reload
	shlq	$4, %rcx
	addq	%rax, %rcx
	addl	(%rdx,%rcx,4), %esi
	movl	%esi, (%rdx,%rcx,4)
	addq	$1, %rax
	movq	-192(%rbp), %rcx        # 8-byte Reload
	shlq	$4, %rcx
	addq	%rax, %rcx
	movl	-4(%rdx,%rcx,4), %esi
	movq	-192(%rbp), %rcx        # 8-byte Reload
	shlq	$4, %rcx
	addq	%rax, %rcx
	addl	(%rdx,%rcx,4), %esi
	movl	%esi, (%rdx,%rcx,4)
	addq	$1, %rax
	movq	-192(%rbp), %rcx        # 8-byte Reload
	shlq	$4, %rcx
	addq	%rax, %rcx
	movl	-4(%rdx,%rcx,4), %esi
	movq	-192(%rbp), %rcx        # 8-byte Reload
	shlq	$4, %rcx
	addq	%rax, %rcx
	addl	(%rdx,%rcx,4), %esi
	movl	%esi, (%rdx,%rcx,4)
	addq	$1, %rax
	cmpq	$16, %rax
	movq	%rax, -208(%rbp)        # 8-byte Spill
	jne	.LBB1_26
# %bb.25:                               # %for.inc9.7
                                        #   in Loop: Header=BB1_1 Depth=1
	movq	-192(%rbp), %rax        # 8-byte Reload
	addq	$1, %rax
	movl	$1, %ecx
	movq	%rax, -216(%rbp)        # 8-byte Spill
	movq	%rcx, -224(%rbp)        # 8-byte Spill
	jmp	.LBB1_27
.LBB1_26:                               # %for.body3.3.7
                                        #   in Loop: Header=BB1_24 Depth=2
	movq	-192(%rbp), %rax        # 8-byte Reload
	shlq	$4, %rax
	movq	-208(%rbp), %rcx        # 8-byte Reload
	addq	%rcx, %rax
	movq	-8(%rbp), %rdx          # 8-byte Reload
	movl	-4(%rdx,%rax,4), %esi
	movq	-192(%rbp), %rax        # 8-byte Reload
	shlq	$4, %rax
	addq	%rcx, %rax
	addl	(%rdx,%rax,4), %esi
	movl	%esi, (%rdx,%rax,4)
	addq	$1, %rcx
	movq	%rcx, -200(%rbp)        # 8-byte Spill
	jmp	.LBB1_24
.LBB1_27:                               # %for.body3.8
                                        #   Parent Loop BB1_1 Depth=1
                                        # =>  This Inner Loop Header: Depth=2
	movq	-224(%rbp), %rax        # 8-byte Reload
	movq	-216(%rbp), %rcx        # 8-byte Reload
	shlq	$4, %rcx
	addq	%rax, %rcx
	movq	-8(%rbp), %rdx          # 8-byte Reload
	movl	-4(%rdx,%rcx,4), %esi
	movq	-216(%rbp), %rcx        # 8-byte Reload
	shlq	$4, %rcx
	addq	%rax, %rcx
	addl	(%rdx,%rcx,4), %esi
	movl	%esi, (%rdx,%rcx,4)
	addq	$1, %rax
	movq	-216(%rbp), %rcx        # 8-byte Reload
	shlq	$4, %rcx
	addq	%rax, %rcx
	movl	-4(%rdx,%rcx,4), %esi
	movq	-216(%rbp), %rcx        # 8-byte Reload
	shlq	$4, %rcx
	addq	%rax, %rcx
	addl	(%rdx,%rcx,4), %esi
	movl	%esi, (%rdx,%rcx,4)
	addq	$1, %rax
	movq	-216(%rbp), %rcx        # 8-byte Reload
	shlq	$4, %rcx
	addq	%rax, %rcx
	movl	-4(%rdx,%rcx,4), %esi
	movq	-216(%rbp), %rcx        # 8-byte Reload
	shlq	$4, %rcx
	addq	%rax, %rcx
	addl	(%rdx,%rcx,4), %esi
	movl	%esi, (%rdx,%rcx,4)
	addq	$1, %rax
	cmpq	$16, %rax
	movq	%rax, -232(%rbp)        # 8-byte Spill
	jne	.LBB1_29
# %bb.28:                               # %for.inc9.8
                                        #   in Loop: Header=BB1_1 Depth=1
	movq	-216(%rbp), %rax        # 8-byte Reload
	addq	$1, %rax
	movl	$1, %ecx
	movq	%rax, -240(%rbp)        # 8-byte Spill
	movq	%rcx, -248(%rbp)        # 8-byte Spill
	jmp	.LBB1_30
.LBB1_29:                               # %for.body3.3.8
                                        #   in Loop: Header=BB1_27 Depth=2
	movq	-216(%rbp), %rax        # 8-byte Reload
	shlq	$4, %rax
	movq	-232(%rbp), %rcx        # 8-byte Reload
	addq	%rcx, %rax
	movq	-8(%rbp), %rdx          # 8-byte Reload
	movl	-4(%rdx,%rax,4), %esi
	movq	-216(%rbp), %rax        # 8-byte Reload
	shlq	$4, %rax
	addq	%rcx, %rax
	addl	(%rdx,%rax,4), %esi
	movl	%esi, (%rdx,%rax,4)
	addq	$1, %rcx
	movq	%rcx, -224(%rbp)        # 8-byte Spill
	jmp	.LBB1_27
.LBB1_30:                               # %for.body3.9
                                        #   Parent Loop BB1_1 Depth=1
                                        # =>  This Inner Loop Header: Depth=2
	movq	-248(%rbp), %rax        # 8-byte Reload
	movq	-240(%rbp), %rcx        # 8-byte Reload
	shlq	$4, %rcx
	addq	%rax, %rcx
	movq	-8(%rbp), %rdx          # 8-byte Reload
	movl	-4(%rdx,%rcx,4), %esi
	movq	-240(%rbp), %rcx        # 8-byte Reload
	shlq	$4, %rcx
	addq	%rax, %rcx
	addl	(%rdx,%rcx,4), %esi
	movl	%esi, (%rdx,%rcx,4)
	addq	$1, %rax
	movq	-240(%rbp), %rcx        # 8-byte Reload
	shlq	$4, %rcx
	addq	%rax, %rcx
	movl	-4(%rdx,%rcx,4), %esi
	movq	-240(%rbp), %rcx        # 8-byte Reload
	shlq	$4, %rcx
	addq	%rax, %rcx
	addl	(%rdx,%rcx,4), %esi
	movl	%esi, (%rdx,%rcx,4)
	addq	$1, %rax
	movq	-240(%rbp), %rcx        # 8-byte Reload
	shlq	$4, %rcx
	addq	%rax, %rcx
	movl	-4(%rdx,%rcx,4), %esi
	movq	-240(%rbp), %rcx        # 8-byte Reload
	shlq	$4, %rcx
	addq	%rax, %rcx
	addl	(%rdx,%rcx,4), %esi
	movl	%esi, (%rdx,%rcx,4)
	addq	$1, %rax
	cmpq	$16, %rax
	movq	%rax, -256(%rbp)        # 8-byte Spill
	jne	.LBB1_32
# %bb.31:                               # %for.inc9.9
                                        #   in Loop: Header=BB1_1 Depth=1
	movq	-240(%rbp), %rax        # 8-byte Reload
	addq	$1, %rax
	movl	$1, %ecx
	movq	%rax, -264(%rbp)        # 8-byte Spill
	movq	%rcx, -272(%rbp)        # 8-byte Spill
	jmp	.LBB1_33
.LBB1_32:                               # %for.body3.3.9
                                        #   in Loop: Header=BB1_30 Depth=2
	movq	-240(%rbp), %rax        # 8-byte Reload
	shlq	$4, %rax
	movq	-256(%rbp), %rcx        # 8-byte Reload
	addq	%rcx, %rax
	movq	-8(%rbp), %rdx          # 8-byte Reload
	movl	-4(%rdx,%rax,4), %esi
	movq	-240(%rbp), %rax        # 8-byte Reload
	shlq	$4, %rax
	addq	%rcx, %rax
	addl	(%rdx,%rax,4), %esi
	movl	%esi, (%rdx,%rax,4)
	addq	$1, %rcx
	movq	%rcx, -248(%rbp)        # 8-byte Spill
	jmp	.LBB1_30
.LBB1_33:                               # %for.body3.10
                                        #   Parent Loop BB1_1 Depth=1
                                        # =>  This Inner Loop Header: Depth=2
	movq	-272(%rbp), %rax        # 8-byte Reload
	movq	-264(%rbp), %rcx        # 8-byte Reload
	shlq	$4, %rcx
	addq	%rax, %rcx
	movq	-8(%rbp), %rdx          # 8-byte Reload
	movl	-4(%rdx,%rcx,4), %esi
	movq	-264(%rbp), %rcx        # 8-byte Reload
	shlq	$4, %rcx
	addq	%rax, %rcx
	addl	(%rdx,%rcx,4), %esi
	movl	%esi, (%rdx,%rcx,4)
	addq	$1, %rax
	movq	-264(%rbp), %rcx        # 8-byte Reload
	shlq	$4, %rcx
	addq	%rax, %rcx
	movl	-4(%rdx,%rcx,4), %esi
	movq	-264(%rbp), %rcx        # 8-byte Reload
	shlq	$4, %rcx
	addq	%rax, %rcx
	addl	(%rdx,%rcx,4), %esi
	movl	%esi, (%rdx,%rcx,4)
	addq	$1, %rax
	movq	-264(%rbp), %rcx        # 8-byte Reload
	shlq	$4, %rcx
	addq	%rax, %rcx
	movl	-4(%rdx,%rcx,4), %esi
	movq	-264(%rbp), %rcx        # 8-byte Reload
	shlq	$4, %rcx
	addq	%rax, %rcx
	addl	(%rdx,%rcx,4), %esi
	movl	%esi, (%rdx,%rcx,4)
	addq	$1, %rax
	cmpq	$16, %rax
	movq	%rax, -280(%rbp)        # 8-byte Spill
	jne	.LBB1_35
# %bb.34:                               # %for.inc9.10
                                        #   in Loop: Header=BB1_1 Depth=1
	movq	-264(%rbp), %rax        # 8-byte Reload
	addq	$1, %rax
	movl	$1, %ecx
	movq	%rax, -288(%rbp)        # 8-byte Spill
	movq	%rcx, -296(%rbp)        # 8-byte Spill
	jmp	.LBB1_36
.LBB1_35:                               # %for.body3.3.10
                                        #   in Loop: Header=BB1_33 Depth=2
	movq	-264(%rbp), %rax        # 8-byte Reload
	shlq	$4, %rax
	movq	-280(%rbp), %rcx        # 8-byte Reload
	addq	%rcx, %rax
	movq	-8(%rbp), %rdx          # 8-byte Reload
	movl	-4(%rdx,%rax,4), %esi
	movq	-264(%rbp), %rax        # 8-byte Reload
	shlq	$4, %rax
	addq	%rcx, %rax
	addl	(%rdx,%rax,4), %esi
	movl	%esi, (%rdx,%rax,4)
	addq	$1, %rcx
	movq	%rcx, -272(%rbp)        # 8-byte Spill
	jmp	.LBB1_33
.LBB1_36:                               # %for.body3.11
                                        #   Parent Loop BB1_1 Depth=1
                                        # =>  This Inner Loop Header: Depth=2
	movq	-296(%rbp), %rax        # 8-byte Reload
	movq	-288(%rbp), %rcx        # 8-byte Reload
	shlq	$4, %rcx
	addq	%rax, %rcx
	movq	-8(%rbp), %rdx          # 8-byte Reload
	movl	-4(%rdx,%rcx,4), %esi
	movq	-288(%rbp), %rcx        # 8-byte Reload
	shlq	$4, %rcx
	addq	%rax, %rcx
	addl	(%rdx,%rcx,4), %esi
	movl	%esi, (%rdx,%rcx,4)
	addq	$1, %rax
	movq	-288(%rbp), %rcx        # 8-byte Reload
	shlq	$4, %rcx
	addq	%rax, %rcx
	movl	-4(%rdx,%rcx,4), %esi
	movq	-288(%rbp), %rcx        # 8-byte Reload
	shlq	$4, %rcx
	addq	%rax, %rcx
	addl	(%rdx,%rcx,4), %esi
	movl	%esi, (%rdx,%rcx,4)
	addq	$1, %rax
	movq	-288(%rbp), %rcx        # 8-byte Reload
	shlq	$4, %rcx
	addq	%rax, %rcx
	movl	-4(%rdx,%rcx,4), %esi
	movq	-288(%rbp), %rcx        # 8-byte Reload
	shlq	$4, %rcx
	addq	%rax, %rcx
	addl	(%rdx,%rcx,4), %esi
	movl	%esi, (%rdx,%rcx,4)
	addq	$1, %rax
	cmpq	$16, %rax
	movq	%rax, -304(%rbp)        # 8-byte Spill
	jne	.LBB1_38
# %bb.37:                               # %for.inc9.11
                                        #   in Loop: Header=BB1_1 Depth=1
	movq	-288(%rbp), %rax        # 8-byte Reload
	addq	$1, %rax
	movl	$1, %ecx
	movq	%rax, -312(%rbp)        # 8-byte Spill
	movq	%rcx, -320(%rbp)        # 8-byte Spill
	jmp	.LBB1_39
.LBB1_38:                               # %for.body3.3.11
                                        #   in Loop: Header=BB1_36 Depth=2
	movq	-288(%rbp), %rax        # 8-byte Reload
	shlq	$4, %rax
	movq	-304(%rbp), %rcx        # 8-byte Reload
	addq	%rcx, %rax
	movq	-8(%rbp), %rdx          # 8-byte Reload
	movl	-4(%rdx,%rax,4), %esi
	movq	-288(%rbp), %rax        # 8-byte Reload
	shlq	$4, %rax
	addq	%rcx, %rax
	addl	(%rdx,%rax,4), %esi
	movl	%esi, (%rdx,%rax,4)
	addq	$1, %rcx
	movq	%rcx, -296(%rbp)        # 8-byte Spill
	jmp	.LBB1_36
.LBB1_39:                               # %for.body3.12
                                        #   Parent Loop BB1_1 Depth=1
                                        # =>  This Inner Loop Header: Depth=2
	movq	-320(%rbp), %rax        # 8-byte Reload
	movq	-312(%rbp), %rcx        # 8-byte Reload
	shlq	$4, %rcx
	addq	%rax, %rcx
	movq	-8(%rbp), %rdx          # 8-byte Reload
	movl	-4(%rdx,%rcx,4), %esi
	movq	-312(%rbp), %rcx        # 8-byte Reload
	shlq	$4, %rcx
	addq	%rax, %rcx
	addl	(%rdx,%rcx,4), %esi
	movl	%esi, (%rdx,%rcx,4)
	addq	$1, %rax
	movq	-312(%rbp), %rcx        # 8-byte Reload
	shlq	$4, %rcx
	addq	%rax, %rcx
	movl	-4(%rdx,%rcx,4), %esi
	movq	-312(%rbp), %rcx        # 8-byte Reload
	shlq	$4, %rcx
	addq	%rax, %rcx
	addl	(%rdx,%rcx,4), %esi
	movl	%esi, (%rdx,%rcx,4)
	addq	$1, %rax
	movq	-312(%rbp), %rcx        # 8-byte Reload
	shlq	$4, %rcx
	addq	%rax, %rcx
	movl	-4(%rdx,%rcx,4), %esi
	movq	-312(%rbp), %rcx        # 8-byte Reload
	shlq	$4, %rcx
	addq	%rax, %rcx
	addl	(%rdx,%rcx,4), %esi
	movl	%esi, (%rdx,%rcx,4)
	addq	$1, %rax
	cmpq	$16, %rax
	movq	%rax, -328(%rbp)        # 8-byte Spill
	jne	.LBB1_41
# %bb.40:                               # %for.inc9.12
                                        #   in Loop: Header=BB1_1 Depth=1
	movq	-312(%rbp), %rax        # 8-byte Reload
	addq	$1, %rax
	movl	$1, %ecx
	movq	%rax, -336(%rbp)        # 8-byte Spill
	movq	%rcx, -344(%rbp)        # 8-byte Spill
	jmp	.LBB1_42
.LBB1_41:                               # %for.body3.3.12
                                        #   in Loop: Header=BB1_39 Depth=2
	movq	-312(%rbp), %rax        # 8-byte Reload
	shlq	$4, %rax
	movq	-328(%rbp), %rcx        # 8-byte Reload
	addq	%rcx, %rax
	movq	-8(%rbp), %rdx          # 8-byte Reload
	movl	-4(%rdx,%rax,4), %esi
	movq	-312(%rbp), %rax        # 8-byte Reload
	shlq	$4, %rax
	addq	%rcx, %rax
	addl	(%rdx,%rax,4), %esi
	movl	%esi, (%rdx,%rax,4)
	addq	$1, %rcx
	movq	%rcx, -320(%rbp)        # 8-byte Spill
	jmp	.LBB1_39
.LBB1_42:                               # %for.body3.13
                                        #   Parent Loop BB1_1 Depth=1
                                        # =>  This Inner Loop Header: Depth=2
	movq	-344(%rbp), %rax        # 8-byte Reload
	movq	-336(%rbp), %rcx        # 8-byte Reload
	shlq	$4, %rcx
	addq	%rax, %rcx
	movq	-8(%rbp), %rdx          # 8-byte Reload
	movl	-4(%rdx,%rcx,4), %esi
	movq	-336(%rbp), %rcx        # 8-byte Reload
	shlq	$4, %rcx
	addq	%rax, %rcx
	addl	(%rdx,%rcx,4), %esi
	movl	%esi, (%rdx,%rcx,4)
	addq	$1, %rax
	movq	-336(%rbp), %rcx        # 8-byte Reload
	shlq	$4, %rcx
	addq	%rax, %rcx
	movl	-4(%rdx,%rcx,4), %esi
	movq	-336(%rbp), %rcx        # 8-byte Reload
	shlq	$4, %rcx
	addq	%rax, %rcx
	addl	(%rdx,%rcx,4), %esi
	movl	%esi, (%rdx,%rcx,4)
	addq	$1, %rax
	movq	-336(%rbp), %rcx        # 8-byte Reload
	shlq	$4, %rcx
	addq	%rax, %rcx
	movl	-4(%rdx,%rcx,4), %esi
	movq	-336(%rbp), %rcx        # 8-byte Reload
	shlq	$4, %rcx
	addq	%rax, %rcx
	addl	(%rdx,%rcx,4), %esi
	movl	%esi, (%rdx,%rcx,4)
	addq	$1, %rax
	cmpq	$16, %rax
	movq	%rax, -352(%rbp)        # 8-byte Spill
	jne	.LBB1_44
# %bb.43:                               # %for.inc9.13
                                        #   in Loop: Header=BB1_1 Depth=1
	movq	-336(%rbp), %rax        # 8-byte Reload
	addq	$1, %rax
	movl	$1, %ecx
	movq	%rax, -360(%rbp)        # 8-byte Spill
	movq	%rcx, -368(%rbp)        # 8-byte Spill
	jmp	.LBB1_45
.LBB1_44:                               # %for.body3.3.13
                                        #   in Loop: Header=BB1_42 Depth=2
	movq	-336(%rbp), %rax        # 8-byte Reload
	shlq	$4, %rax
	movq	-352(%rbp), %rcx        # 8-byte Reload
	addq	%rcx, %rax
	movq	-8(%rbp), %rdx          # 8-byte Reload
	movl	-4(%rdx,%rax,4), %esi
	movq	-336(%rbp), %rax        # 8-byte Reload
	shlq	$4, %rax
	addq	%rcx, %rax
	addl	(%rdx,%rax,4), %esi
	movl	%esi, (%rdx,%rax,4)
	addq	$1, %rcx
	movq	%rcx, -344(%rbp)        # 8-byte Spill
	jmp	.LBB1_42
.LBB1_45:                               # %for.body3.14
                                        #   Parent Loop BB1_1 Depth=1
                                        # =>  This Inner Loop Header: Depth=2
	movq	-368(%rbp), %rax        # 8-byte Reload
	movq	-360(%rbp), %rcx        # 8-byte Reload
	shlq	$4, %rcx
	addq	%rax, %rcx
	movq	-8(%rbp), %rdx          # 8-byte Reload
	movl	-4(%rdx,%rcx,4), %esi
	movq	-360(%rbp), %rcx        # 8-byte Reload
	shlq	$4, %rcx
	addq	%rax, %rcx
	addl	(%rdx,%rcx,4), %esi
	movl	%esi, (%rdx,%rcx,4)
	addq	$1, %rax
	movq	-360(%rbp), %rcx        # 8-byte Reload
	shlq	$4, %rcx
	addq	%rax, %rcx
	movl	-4(%rdx,%rcx,4), %esi
	movq	-360(%rbp), %rcx        # 8-byte Reload
	shlq	$4, %rcx
	addq	%rax, %rcx
	addl	(%rdx,%rcx,4), %esi
	movl	%esi, (%rdx,%rcx,4)
	addq	$1, %rax
	movq	-360(%rbp), %rcx        # 8-byte Reload
	shlq	$4, %rcx
	addq	%rax, %rcx
	movl	-4(%rdx,%rcx,4), %esi
	movq	-360(%rbp), %rcx        # 8-byte Reload
	shlq	$4, %rcx
	addq	%rax, %rcx
	addl	(%rdx,%rcx,4), %esi
	movl	%esi, (%rdx,%rcx,4)
	addq	$1, %rax
	cmpq	$16, %rax
	movq	%rax, -376(%rbp)        # 8-byte Spill
	jne	.LBB1_47
# %bb.46:                               # %for.inc9.14
                                        #   in Loop: Header=BB1_1 Depth=1
	movq	-360(%rbp), %rax        # 8-byte Reload
	addq	$1, %rax
	movl	$1, %ecx
	movq	%rax, -384(%rbp)        # 8-byte Spill
	movq	%rcx, -392(%rbp)        # 8-byte Spill
	jmp	.LBB1_48
.LBB1_47:                               # %for.body3.3.14
                                        #   in Loop: Header=BB1_45 Depth=2
	movq	-360(%rbp), %rax        # 8-byte Reload
	shlq	$4, %rax
	movq	-376(%rbp), %rcx        # 8-byte Reload
	addq	%rcx, %rax
	movq	-8(%rbp), %rdx          # 8-byte Reload
	movl	-4(%rdx,%rax,4), %esi
	movq	-360(%rbp), %rax        # 8-byte Reload
	shlq	$4, %rax
	addq	%rcx, %rax
	addl	(%rdx,%rax,4), %esi
	movl	%esi, (%rdx,%rax,4)
	addq	$1, %rcx
	movq	%rcx, -368(%rbp)        # 8-byte Spill
	jmp	.LBB1_45
.LBB1_48:                               # %for.body3.15
                                        #   Parent Loop BB1_1 Depth=1
                                        # =>  This Inner Loop Header: Depth=2
	movq	-392(%rbp), %rax        # 8-byte Reload
	movq	-384(%rbp), %rcx        # 8-byte Reload
	shlq	$4, %rcx
	addq	%rax, %rcx
	movq	-8(%rbp), %rdx          # 8-byte Reload
	movl	-4(%rdx,%rcx,4), %esi
	movq	-384(%rbp), %rcx        # 8-byte Reload
	shlq	$4, %rcx
	addq	%rax, %rcx
	addl	(%rdx,%rcx,4), %esi
	movl	%esi, (%rdx,%rcx,4)
	addq	$1, %rax
	movq	-384(%rbp), %rcx        # 8-byte Reload
	shlq	$4, %rcx
	addq	%rax, %rcx
	movl	-4(%rdx,%rcx,4), %esi
	movq	-384(%rbp), %rcx        # 8-byte Reload
	shlq	$4, %rcx
	addq	%rax, %rcx
	addl	(%rdx,%rcx,4), %esi
	movl	%esi, (%rdx,%rcx,4)
	addq	$1, %rax
	movq	-384(%rbp), %rcx        # 8-byte Reload
	shlq	$4, %rcx
	addq	%rax, %rcx
	movl	-4(%rdx,%rcx,4), %esi
	movq	-384(%rbp), %rcx        # 8-byte Reload
	shlq	$4, %rcx
	addq	%rax, %rcx
	addl	(%rdx,%rcx,4), %esi
	movl	%esi, (%rdx,%rcx,4)
	addq	$1, %rax
	cmpq	$16, %rax
	movq	%rax, -400(%rbp)        # 8-byte Spill
	jne	.LBB1_50
# %bb.49:                               # %for.inc9.15
                                        #   in Loop: Header=BB1_1 Depth=1
	movq	-384(%rbp), %rax        # 8-byte Reload
	addq	$1, %rax
	movl	$1, %ecx
	movq	%rax, -408(%rbp)        # 8-byte Spill
	movq	%rcx, -416(%rbp)        # 8-byte Spill
	jmp	.LBB1_51
.LBB1_50:                               # %for.body3.3.15
                                        #   in Loop: Header=BB1_48 Depth=2
	movq	-384(%rbp), %rax        # 8-byte Reload
	shlq	$4, %rax
	movq	-400(%rbp), %rcx        # 8-byte Reload
	addq	%rcx, %rax
	movq	-8(%rbp), %rdx          # 8-byte Reload
	movl	-4(%rdx,%rax,4), %esi
	movq	-384(%rbp), %rax        # 8-byte Reload
	shlq	$4, %rax
	addq	%rcx, %rax
	addl	(%rdx,%rax,4), %esi
	movl	%esi, (%rdx,%rax,4)
	addq	$1, %rcx
	movq	%rcx, -392(%rbp)        # 8-byte Spill
	jmp	.LBB1_48
.LBB1_51:                               # %for.body3.16
                                        #   Parent Loop BB1_1 Depth=1
                                        # =>  This Inner Loop Header: Depth=2
	movq	-416(%rbp), %rax        # 8-byte Reload
	movq	-408(%rbp), %rcx        # 8-byte Reload
	shlq	$4, %rcx
	addq	%rax, %rcx
	movq	-8(%rbp), %rdx          # 8-byte Reload
	movl	-4(%rdx,%rcx,4), %esi
	movq	-408(%rbp), %rcx        # 8-byte Reload
	shlq	$4, %rcx
	addq	%rax, %rcx
	addl	(%rdx,%rcx,4), %esi
	movl	%esi, (%rdx,%rcx,4)
	addq	$1, %rax
	movq	-408(%rbp), %rcx        # 8-byte Reload
	shlq	$4, %rcx
	addq	%rax, %rcx
	movl	-4(%rdx,%rcx,4), %esi
	movq	-408(%rbp), %rcx        # 8-byte Reload
	shlq	$4, %rcx
	addq	%rax, %rcx
	addl	(%rdx,%rcx,4), %esi
	movl	%esi, (%rdx,%rcx,4)
	addq	$1, %rax
	movq	-408(%rbp), %rcx        # 8-byte Reload
	shlq	$4, %rcx
	addq	%rax, %rcx
	movl	-4(%rdx,%rcx,4), %esi
	movq	-408(%rbp), %rcx        # 8-byte Reload
	shlq	$4, %rcx
	addq	%rax, %rcx
	addl	(%rdx,%rcx,4), %esi
	movl	%esi, (%rdx,%rcx,4)
	addq	$1, %rax
	cmpq	$16, %rax
	movq	%rax, -424(%rbp)        # 8-byte Spill
	jne	.LBB1_53
# %bb.52:                               # %for.inc9.16
                                        #   in Loop: Header=BB1_1 Depth=1
	movq	-408(%rbp), %rax        # 8-byte Reload
	addq	$1, %rax
	movl	$1, %ecx
	movq	%rax, -432(%rbp)        # 8-byte Spill
	movq	%rcx, -440(%rbp)        # 8-byte Spill
	jmp	.LBB1_54
.LBB1_53:                               # %for.body3.3.16
                                        #   in Loop: Header=BB1_51 Depth=2
	movq	-408(%rbp), %rax        # 8-byte Reload
	shlq	$4, %rax
	movq	-424(%rbp), %rcx        # 8-byte Reload
	addq	%rcx, %rax
	movq	-8(%rbp), %rdx          # 8-byte Reload
	movl	-4(%rdx,%rax,4), %esi
	movq	-408(%rbp), %rax        # 8-byte Reload
	shlq	$4, %rax
	addq	%rcx, %rax
	addl	(%rdx,%rax,4), %esi
	movl	%esi, (%rdx,%rax,4)
	addq	$1, %rcx
	movq	%rcx, -416(%rbp)        # 8-byte Spill
	jmp	.LBB1_51
.LBB1_54:                               # %for.body3.17
                                        #   Parent Loop BB1_1 Depth=1
                                        # =>  This Inner Loop Header: Depth=2
	movq	-440(%rbp), %rax        # 8-byte Reload
	movq	-432(%rbp), %rcx        # 8-byte Reload
	shlq	$4, %rcx
	addq	%rax, %rcx
	movq	-8(%rbp), %rdx          # 8-byte Reload
	movl	-4(%rdx,%rcx,4), %esi
	movq	-432(%rbp), %rcx        # 8-byte Reload
	shlq	$4, %rcx
	addq	%rax, %rcx
	addl	(%rdx,%rcx,4), %esi
	movl	%esi, (%rdx,%rcx,4)
	addq	$1, %rax
	movq	-432(%rbp), %rcx        # 8-byte Reload
	shlq	$4, %rcx
	addq	%rax, %rcx
	movl	-4(%rdx,%rcx,4), %esi
	movq	-432(%rbp), %rcx        # 8-byte Reload
	shlq	$4, %rcx
	addq	%rax, %rcx
	addl	(%rdx,%rcx,4), %esi
	movl	%esi, (%rdx,%rcx,4)
	addq	$1, %rax
	movq	-432(%rbp), %rcx        # 8-byte Reload
	shlq	$4, %rcx
	addq	%rax, %rcx
	movl	-4(%rdx,%rcx,4), %esi
	movq	-432(%rbp), %rcx        # 8-byte Reload
	shlq	$4, %rcx
	addq	%rax, %rcx
	addl	(%rdx,%rcx,4), %esi
	movl	%esi, (%rdx,%rcx,4)
	addq	$1, %rax
	cmpq	$16, %rax
	movq	%rax, -448(%rbp)        # 8-byte Spill
	jne	.LBB1_56
# %bb.55:                               # %for.inc9.17
                                        #   in Loop: Header=BB1_1 Depth=1
	movq	-432(%rbp), %rax        # 8-byte Reload
	addq	$1, %rax
	movl	$1, %ecx
	movq	%rax, -456(%rbp)        # 8-byte Spill
	movq	%rcx, -464(%rbp)        # 8-byte Spill
	jmp	.LBB1_57
.LBB1_56:                               # %for.body3.3.17
                                        #   in Loop: Header=BB1_54 Depth=2
	movq	-432(%rbp), %rax        # 8-byte Reload
	shlq	$4, %rax
	movq	-448(%rbp), %rcx        # 8-byte Reload
	addq	%rcx, %rax
	movq	-8(%rbp), %rdx          # 8-byte Reload
	movl	-4(%rdx,%rax,4), %esi
	movq	-432(%rbp), %rax        # 8-byte Reload
	shlq	$4, %rax
	addq	%rcx, %rax
	addl	(%rdx,%rax,4), %esi
	movl	%esi, (%rdx,%rax,4)
	addq	$1, %rcx
	movq	%rcx, -440(%rbp)        # 8-byte Spill
	jmp	.LBB1_54
.LBB1_57:                               # %for.body3.18
                                        #   Parent Loop BB1_1 Depth=1
                                        # =>  This Inner Loop Header: Depth=2
	movq	-464(%rbp), %rax        # 8-byte Reload
	movq	-456(%rbp), %rcx        # 8-byte Reload
	shlq	$4, %rcx
	addq	%rax, %rcx
	movq	-8(%rbp), %rdx          # 8-byte Reload
	movl	-4(%rdx,%rcx,4), %esi
	movq	-456(%rbp), %rcx        # 8-byte Reload
	shlq	$4, %rcx
	addq	%rax, %rcx
	addl	(%rdx,%rcx,4), %esi
	movl	%esi, (%rdx,%rcx,4)
	addq	$1, %rax
	movq	-456(%rbp), %rcx        # 8-byte Reload
	shlq	$4, %rcx
	addq	%rax, %rcx
	movl	-4(%rdx,%rcx,4), %esi
	movq	-456(%rbp), %rcx        # 8-byte Reload
	shlq	$4, %rcx
	addq	%rax, %rcx
	addl	(%rdx,%rcx,4), %esi
	movl	%esi, (%rdx,%rcx,4)
	addq	$1, %rax
	movq	-456(%rbp), %rcx        # 8-byte Reload
	shlq	$4, %rcx
	addq	%rax, %rcx
	movl	-4(%rdx,%rcx,4), %esi
	movq	-456(%rbp), %rcx        # 8-byte Reload
	shlq	$4, %rcx
	addq	%rax, %rcx
	addl	(%rdx,%rcx,4), %esi
	movl	%esi, (%rdx,%rcx,4)
	addq	$1, %rax
	cmpq	$16, %rax
	movq	%rax, -472(%rbp)        # 8-byte Spill
	jne	.LBB1_59
# %bb.58:                               # %for.inc9.18
                                        #   in Loop: Header=BB1_1 Depth=1
	movq	-456(%rbp), %rax        # 8-byte Reload
	addq	$1, %rax
	movl	$1, %ecx
	movq	%rax, -480(%rbp)        # 8-byte Spill
	movq	%rcx, -488(%rbp)        # 8-byte Spill
	jmp	.LBB1_60
.LBB1_59:                               # %for.body3.3.18
                                        #   in Loop: Header=BB1_57 Depth=2
	movq	-456(%rbp), %rax        # 8-byte Reload
	shlq	$4, %rax
	movq	-472(%rbp), %rcx        # 8-byte Reload
	addq	%rcx, %rax
	movq	-8(%rbp), %rdx          # 8-byte Reload
	movl	-4(%rdx,%rax,4), %esi
	movq	-456(%rbp), %rax        # 8-byte Reload
	shlq	$4, %rax
	addq	%rcx, %rax
	addl	(%rdx,%rax,4), %esi
	movl	%esi, (%rdx,%rax,4)
	addq	$1, %rcx
	movq	%rcx, -464(%rbp)        # 8-byte Spill
	jmp	.LBB1_57
.LBB1_60:                               # %for.body3.19
                                        #   Parent Loop BB1_1 Depth=1
                                        # =>  This Inner Loop Header: Depth=2
	movq	-488(%rbp), %rax        # 8-byte Reload
	movq	-480(%rbp), %rcx        # 8-byte Reload
	shlq	$4, %rcx
	addq	%rax, %rcx
	movq	-8(%rbp), %rdx          # 8-byte Reload
	movl	-4(%rdx,%rcx,4), %esi
	movq	-480(%rbp), %rcx        # 8-byte Reload
	shlq	$4, %rcx
	addq	%rax, %rcx
	addl	(%rdx,%rcx,4), %esi
	movl	%esi, (%rdx,%rcx,4)
	addq	$1, %rax
	movq	-480(%rbp), %rcx        # 8-byte Reload
	shlq	$4, %rcx
	addq	%rax, %rcx
	movl	-4(%rdx,%rcx,4), %esi
	movq	-480(%rbp), %rcx        # 8-byte Reload
	shlq	$4, %rcx
	addq	%rax, %rcx
	addl	(%rdx,%rcx,4), %esi
	movl	%esi, (%rdx,%rcx,4)
	addq	$1, %rax
	movq	-480(%rbp), %rcx        # 8-byte Reload
	shlq	$4, %rcx
	addq	%rax, %rcx
	movl	-4(%rdx,%rcx,4), %esi
	movq	-480(%rbp), %rcx        # 8-byte Reload
	shlq	$4, %rcx
	addq	%rax, %rcx
	addl	(%rdx,%rcx,4), %esi
	movl	%esi, (%rdx,%rcx,4)
	addq	$1, %rax
	cmpq	$16, %rax
	movq	%rax, -496(%rbp)        # 8-byte Spill
	jne	.LBB1_62
# %bb.61:                               # %for.inc9.19
                                        #   in Loop: Header=BB1_1 Depth=1
	movq	-480(%rbp), %rax        # 8-byte Reload
	addq	$1, %rax
	movl	$1, %ecx
	movq	%rax, -504(%rbp)        # 8-byte Spill
	movq	%rcx, -512(%rbp)        # 8-byte Spill
	jmp	.LBB1_63
.LBB1_62:                               # %for.body3.3.19
                                        #   in Loop: Header=BB1_60 Depth=2
	movq	-480(%rbp), %rax        # 8-byte Reload
	shlq	$4, %rax
	movq	-496(%rbp), %rcx        # 8-byte Reload
	addq	%rcx, %rax
	movq	-8(%rbp), %rdx          # 8-byte Reload
	movl	-4(%rdx,%rax,4), %esi
	movq	-480(%rbp), %rax        # 8-byte Reload
	shlq	$4, %rax
	addq	%rcx, %rax
	addl	(%rdx,%rax,4), %esi
	movl	%esi, (%rdx,%rax,4)
	addq	$1, %rcx
	movq	%rcx, -488(%rbp)        # 8-byte Spill
	jmp	.LBB1_60
.LBB1_63:                               # %for.body3.20
                                        #   Parent Loop BB1_1 Depth=1
                                        # =>  This Inner Loop Header: Depth=2
	movq	-512(%rbp), %rax        # 8-byte Reload
	movq	-504(%rbp), %rcx        # 8-byte Reload
	shlq	$4, %rcx
	addq	%rax, %rcx
	movq	-8(%rbp), %rdx          # 8-byte Reload
	movl	-4(%rdx,%rcx,4), %esi
	movq	-504(%rbp), %rcx        # 8-byte Reload
	shlq	$4, %rcx
	addq	%rax, %rcx
	addl	(%rdx,%rcx,4), %esi
	movl	%esi, (%rdx,%rcx,4)
	addq	$1, %rax
	movq	-504(%rbp), %rcx        # 8-byte Reload
	shlq	$4, %rcx
	addq	%rax, %rcx
	movl	-4(%rdx,%rcx,4), %esi
	movq	-504(%rbp), %rcx        # 8-byte Reload
	shlq	$4, %rcx
	addq	%rax, %rcx
	addl	(%rdx,%rcx,4), %esi
	movl	%esi, (%rdx,%rcx,4)
	addq	$1, %rax
	movq	-504(%rbp), %rcx        # 8-byte Reload
	shlq	$4, %rcx
	addq	%rax, %rcx
	movl	-4(%rdx,%rcx,4), %esi
	movq	-504(%rbp), %rcx        # 8-byte Reload
	shlq	$4, %rcx
	addq	%rax, %rcx
	addl	(%rdx,%rcx,4), %esi
	movl	%esi, (%rdx,%rcx,4)
	addq	$1, %rax
	cmpq	$16, %rax
	movq	%rax, -520(%rbp)        # 8-byte Spill
	jne	.LBB1_65
# %bb.64:                               # %for.inc9.20
                                        #   in Loop: Header=BB1_1 Depth=1
	movq	-504(%rbp), %rax        # 8-byte Reload
	addq	$1, %rax
	movl	$1, %ecx
	movq	%rax, -528(%rbp)        # 8-byte Spill
	movq	%rcx, -536(%rbp)        # 8-byte Spill
	jmp	.LBB1_66
.LBB1_65:                               # %for.body3.3.20
                                        #   in Loop: Header=BB1_63 Depth=2
	movq	-504(%rbp), %rax        # 8-byte Reload
	shlq	$4, %rax
	movq	-520(%rbp), %rcx        # 8-byte Reload
	addq	%rcx, %rax
	movq	-8(%rbp), %rdx          # 8-byte Reload
	movl	-4(%rdx,%rax,4), %esi
	movq	-504(%rbp), %rax        # 8-byte Reload
	shlq	$4, %rax
	addq	%rcx, %rax
	addl	(%rdx,%rax,4), %esi
	movl	%esi, (%rdx,%rax,4)
	addq	$1, %rcx
	movq	%rcx, -512(%rbp)        # 8-byte Spill
	jmp	.LBB1_63
.LBB1_66:                               # %for.body3.21
                                        #   Parent Loop BB1_1 Depth=1
                                        # =>  This Inner Loop Header: Depth=2
	movq	-536(%rbp), %rax        # 8-byte Reload
	movq	-528(%rbp), %rcx        # 8-byte Reload
	shlq	$4, %rcx
	addq	%rax, %rcx
	movq	-8(%rbp), %rdx          # 8-byte Reload
	movl	-4(%rdx,%rcx,4), %esi
	movq	-528(%rbp), %rcx        # 8-byte Reload
	shlq	$4, %rcx
	addq	%rax, %rcx
	addl	(%rdx,%rcx,4), %esi
	movl	%esi, (%rdx,%rcx,4)
	addq	$1, %rax
	movq	-528(%rbp), %rcx        # 8-byte Reload
	shlq	$4, %rcx
	addq	%rax, %rcx
	movl	-4(%rdx,%rcx,4), %esi
	movq	-528(%rbp), %rcx        # 8-byte Reload
	shlq	$4, %rcx
	addq	%rax, %rcx
	addl	(%rdx,%rcx,4), %esi
	movl	%esi, (%rdx,%rcx,4)
	addq	$1, %rax
	movq	-528(%rbp), %rcx        # 8-byte Reload
	shlq	$4, %rcx
	addq	%rax, %rcx
	movl	-4(%rdx,%rcx,4), %esi
	movq	-528(%rbp), %rcx        # 8-byte Reload
	shlq	$4, %rcx
	addq	%rax, %rcx
	addl	(%rdx,%rcx,4), %esi
	movl	%esi, (%rdx,%rcx,4)
	addq	$1, %rax
	cmpq	$16, %rax
	movq	%rax, -544(%rbp)        # 8-byte Spill
	jne	.LBB1_68
# %bb.67:                               # %for.inc9.21
                                        #   in Loop: Header=BB1_1 Depth=1
	movq	-528(%rbp), %rax        # 8-byte Reload
	addq	$1, %rax
	movl	$1, %ecx
	movq	%rax, -552(%rbp)        # 8-byte Spill
	movq	%rcx, -560(%rbp)        # 8-byte Spill
	jmp	.LBB1_69
.LBB1_68:                               # %for.body3.3.21
                                        #   in Loop: Header=BB1_66 Depth=2
	movq	-528(%rbp), %rax        # 8-byte Reload
	shlq	$4, %rax
	movq	-544(%rbp), %rcx        # 8-byte Reload
	addq	%rcx, %rax
	movq	-8(%rbp), %rdx          # 8-byte Reload
	movl	-4(%rdx,%rax,4), %esi
	movq	-528(%rbp), %rax        # 8-byte Reload
	shlq	$4, %rax
	addq	%rcx, %rax
	addl	(%rdx,%rax,4), %esi
	movl	%esi, (%rdx,%rax,4)
	addq	$1, %rcx
	movq	%rcx, -536(%rbp)        # 8-byte Spill
	jmp	.LBB1_66
.LBB1_69:                               # %for.body3.22
                                        #   Parent Loop BB1_1 Depth=1
                                        # =>  This Inner Loop Header: Depth=2
	movq	-560(%rbp), %rax        # 8-byte Reload
	movq	-552(%rbp), %rcx        # 8-byte Reload
	shlq	$4, %rcx
	addq	%rax, %rcx
	movq	-8(%rbp), %rdx          # 8-byte Reload
	movl	-4(%rdx,%rcx,4), %esi
	movq	-552(%rbp), %rcx        # 8-byte Reload
	shlq	$4, %rcx
	addq	%rax, %rcx
	addl	(%rdx,%rcx,4), %esi
	movl	%esi, (%rdx,%rcx,4)
	addq	$1, %rax
	movq	-552(%rbp), %rcx        # 8-byte Reload
	shlq	$4, %rcx
	addq	%rax, %rcx
	movl	-4(%rdx,%rcx,4), %esi
	movq	-552(%rbp), %rcx        # 8-byte Reload
	shlq	$4, %rcx
	addq	%rax, %rcx
	addl	(%rdx,%rcx,4), %esi
	movl	%esi, (%rdx,%rcx,4)
	addq	$1, %rax
	movq	-552(%rbp), %rcx        # 8-byte Reload
	shlq	$4, %rcx
	addq	%rax, %rcx
	movl	-4(%rdx,%rcx,4), %esi
	movq	-552(%rbp), %rcx        # 8-byte Reload
	shlq	$4, %rcx
	addq	%rax, %rcx
	addl	(%rdx,%rcx,4), %esi
	movl	%esi, (%rdx,%rcx,4)
	addq	$1, %rax
	cmpq	$16, %rax
	movq	%rax, -568(%rbp)        # 8-byte Spill
	jne	.LBB1_71
# %bb.70:                               # %for.inc9.22
                                        #   in Loop: Header=BB1_1 Depth=1
	movq	-552(%rbp), %rax        # 8-byte Reload
	addq	$1, %rax
	movl	$1, %ecx
	movq	%rax, -576(%rbp)        # 8-byte Spill
	movq	%rcx, -584(%rbp)        # 8-byte Spill
	jmp	.LBB1_72
.LBB1_71:                               # %for.body3.3.22
                                        #   in Loop: Header=BB1_69 Depth=2
	movq	-552(%rbp), %rax        # 8-byte Reload
	shlq	$4, %rax
	movq	-568(%rbp), %rcx        # 8-byte Reload
	addq	%rcx, %rax
	movq	-8(%rbp), %rdx          # 8-byte Reload
	movl	-4(%rdx,%rax,4), %esi
	movq	-552(%rbp), %rax        # 8-byte Reload
	shlq	$4, %rax
	addq	%rcx, %rax
	addl	(%rdx,%rax,4), %esi
	movl	%esi, (%rdx,%rax,4)
	addq	$1, %rcx
	movq	%rcx, -560(%rbp)        # 8-byte Spill
	jmp	.LBB1_69
.LBB1_72:                               # %for.body3.23
                                        #   Parent Loop BB1_1 Depth=1
                                        # =>  This Inner Loop Header: Depth=2
	movq	-584(%rbp), %rax        # 8-byte Reload
	movq	-576(%rbp), %rcx        # 8-byte Reload
	shlq	$4, %rcx
	addq	%rax, %rcx
	movq	-8(%rbp), %rdx          # 8-byte Reload
	movl	-4(%rdx,%rcx,4), %esi
	movq	-576(%rbp), %rcx        # 8-byte Reload
	shlq	$4, %rcx
	addq	%rax, %rcx
	addl	(%rdx,%rcx,4), %esi
	movl	%esi, (%rdx,%rcx,4)
	addq	$1, %rax
	movq	-576(%rbp), %rcx        # 8-byte Reload
	shlq	$4, %rcx
	addq	%rax, %rcx
	movl	-4(%rdx,%rcx,4), %esi
	movq	-576(%rbp), %rcx        # 8-byte Reload
	shlq	$4, %rcx
	addq	%rax, %rcx
	addl	(%rdx,%rcx,4), %esi
	movl	%esi, (%rdx,%rcx,4)
	addq	$1, %rax
	movq	-576(%rbp), %rcx        # 8-byte Reload
	shlq	$4, %rcx
	addq	%rax, %rcx
	movl	-4(%rdx,%rcx,4), %esi
	movq	-576(%rbp), %rcx        # 8-byte Reload
	shlq	$4, %rcx
	addq	%rax, %rcx
	addl	(%rdx,%rcx,4), %esi
	movl	%esi, (%rdx,%rcx,4)
	addq	$1, %rax
	cmpq	$16, %rax
	movq	%rax, -592(%rbp)        # 8-byte Spill
	jne	.LBB1_74
# %bb.73:                               # %for.inc9.23
                                        #   in Loop: Header=BB1_1 Depth=1
	movq	-576(%rbp), %rax        # 8-byte Reload
	addq	$1, %rax
	movl	$1, %ecx
	movq	%rax, -600(%rbp)        # 8-byte Spill
	movq	%rcx, -608(%rbp)        # 8-byte Spill
	jmp	.LBB1_75
.LBB1_74:                               # %for.body3.3.23
                                        #   in Loop: Header=BB1_72 Depth=2
	movq	-576(%rbp), %rax        # 8-byte Reload
	shlq	$4, %rax
	movq	-592(%rbp), %rcx        # 8-byte Reload
	addq	%rcx, %rax
	movq	-8(%rbp), %rdx          # 8-byte Reload
	movl	-4(%rdx,%rax,4), %esi
	movq	-576(%rbp), %rax        # 8-byte Reload
	shlq	$4, %rax
	addq	%rcx, %rax
	addl	(%rdx,%rax,4), %esi
	movl	%esi, (%rdx,%rax,4)
	addq	$1, %rcx
	movq	%rcx, -584(%rbp)        # 8-byte Spill
	jmp	.LBB1_72
.LBB1_75:                               # %for.body3.24
                                        #   Parent Loop BB1_1 Depth=1
                                        # =>  This Inner Loop Header: Depth=2
	movq	-608(%rbp), %rax        # 8-byte Reload
	movq	-600(%rbp), %rcx        # 8-byte Reload
	shlq	$4, %rcx
	addq	%rax, %rcx
	movq	-8(%rbp), %rdx          # 8-byte Reload
	movl	-4(%rdx,%rcx,4), %esi
	movq	-600(%rbp), %rcx        # 8-byte Reload
	shlq	$4, %rcx
	addq	%rax, %rcx
	addl	(%rdx,%rcx,4), %esi
	movl	%esi, (%rdx,%rcx,4)
	addq	$1, %rax
	movq	-600(%rbp), %rcx        # 8-byte Reload
	shlq	$4, %rcx
	addq	%rax, %rcx
	movl	-4(%rdx,%rcx,4), %esi
	movq	-600(%rbp), %rcx        # 8-byte Reload
	shlq	$4, %rcx
	addq	%rax, %rcx
	addl	(%rdx,%rcx,4), %esi
	movl	%esi, (%rdx,%rcx,4)
	addq	$1, %rax
	movq	-600(%rbp), %rcx        # 8-byte Reload
	shlq	$4, %rcx
	addq	%rax, %rcx
	movl	-4(%rdx,%rcx,4), %esi
	movq	-600(%rbp), %rcx        # 8-byte Reload
	shlq	$4, %rcx
	addq	%rax, %rcx
	addl	(%rdx,%rcx,4), %esi
	movl	%esi, (%rdx,%rcx,4)
	addq	$1, %rax
	cmpq	$16, %rax
	movq	%rax, -616(%rbp)        # 8-byte Spill
	jne	.LBB1_77
# %bb.76:                               # %for.inc9.24
                                        #   in Loop: Header=BB1_1 Depth=1
	movq	-600(%rbp), %rax        # 8-byte Reload
	addq	$1, %rax
	movl	$1, %ecx
	movq	%rax, -624(%rbp)        # 8-byte Spill
	movq	%rcx, -632(%rbp)        # 8-byte Spill
	jmp	.LBB1_78
.LBB1_77:                               # %for.body3.3.24
                                        #   in Loop: Header=BB1_75 Depth=2
	movq	-600(%rbp), %rax        # 8-byte Reload
	shlq	$4, %rax
	movq	-616(%rbp), %rcx        # 8-byte Reload
	addq	%rcx, %rax
	movq	-8(%rbp), %rdx          # 8-byte Reload
	movl	-4(%rdx,%rax,4), %esi
	movq	-600(%rbp), %rax        # 8-byte Reload
	shlq	$4, %rax
	addq	%rcx, %rax
	addl	(%rdx,%rax,4), %esi
	movl	%esi, (%rdx,%rax,4)
	addq	$1, %rcx
	movq	%rcx, -608(%rbp)        # 8-byte Spill
	jmp	.LBB1_75
.LBB1_78:                               # %for.body3.25
                                        #   Parent Loop BB1_1 Depth=1
                                        # =>  This Inner Loop Header: Depth=2
	movq	-632(%rbp), %rax        # 8-byte Reload
	movq	-624(%rbp), %rcx        # 8-byte Reload
	shlq	$4, %rcx
	addq	%rax, %rcx
	movq	-8(%rbp), %rdx          # 8-byte Reload
	movl	-4(%rdx,%rcx,4), %esi
	movq	-624(%rbp), %rcx        # 8-byte Reload
	shlq	$4, %rcx
	addq	%rax, %rcx
	addl	(%rdx,%rcx,4), %esi
	movl	%esi, (%rdx,%rcx,4)
	addq	$1, %rax
	movq	-624(%rbp), %rcx        # 8-byte Reload
	shlq	$4, %rcx
	addq	%rax, %rcx
	movl	-4(%rdx,%rcx,4), %esi
	movq	-624(%rbp), %rcx        # 8-byte Reload
	shlq	$4, %rcx
	addq	%rax, %rcx
	addl	(%rdx,%rcx,4), %esi
	movl	%esi, (%rdx,%rcx,4)
	addq	$1, %rax
	movq	-624(%rbp), %rcx        # 8-byte Reload
	shlq	$4, %rcx
	addq	%rax, %rcx
	movl	-4(%rdx,%rcx,4), %esi
	movq	-624(%rbp), %rcx        # 8-byte Reload
	shlq	$4, %rcx
	addq	%rax, %rcx
	addl	(%rdx,%rcx,4), %esi
	movl	%esi, (%rdx,%rcx,4)
	addq	$1, %rax
	cmpq	$16, %rax
	movq	%rax, -640(%rbp)        # 8-byte Spill
	jne	.LBB1_80
# %bb.79:                               # %for.inc9.25
                                        #   in Loop: Header=BB1_1 Depth=1
	movq	-624(%rbp), %rax        # 8-byte Reload
	addq	$1, %rax
	movl	$1, %ecx
	movq	%rax, -648(%rbp)        # 8-byte Spill
	movq	%rcx, -656(%rbp)        # 8-byte Spill
	jmp	.LBB1_81
.LBB1_80:                               # %for.body3.3.25
                                        #   in Loop: Header=BB1_78 Depth=2
	movq	-624(%rbp), %rax        # 8-byte Reload
	shlq	$4, %rax
	movq	-640(%rbp), %rcx        # 8-byte Reload
	addq	%rcx, %rax
	movq	-8(%rbp), %rdx          # 8-byte Reload
	movl	-4(%rdx,%rax,4), %esi
	movq	-624(%rbp), %rax        # 8-byte Reload
	shlq	$4, %rax
	addq	%rcx, %rax
	addl	(%rdx,%rax,4), %esi
	movl	%esi, (%rdx,%rax,4)
	addq	$1, %rcx
	movq	%rcx, -632(%rbp)        # 8-byte Spill
	jmp	.LBB1_78
.LBB1_81:                               # %for.body3.26
                                        #   Parent Loop BB1_1 Depth=1
                                        # =>  This Inner Loop Header: Depth=2
	movq	-656(%rbp), %rax        # 8-byte Reload
	movq	-648(%rbp), %rcx        # 8-byte Reload
	shlq	$4, %rcx
	addq	%rax, %rcx
	movq	-8(%rbp), %rdx          # 8-byte Reload
	movl	-4(%rdx,%rcx,4), %esi
	movq	-648(%rbp), %rcx        # 8-byte Reload
	shlq	$4, %rcx
	addq	%rax, %rcx
	addl	(%rdx,%rcx,4), %esi
	movl	%esi, (%rdx,%rcx,4)
	addq	$1, %rax
	movq	-648(%rbp), %rcx        # 8-byte Reload
	shlq	$4, %rcx
	addq	%rax, %rcx
	movl	-4(%rdx,%rcx,4), %esi
	movq	-648(%rbp), %rcx        # 8-byte Reload
	shlq	$4, %rcx
	addq	%rax, %rcx
	addl	(%rdx,%rcx,4), %esi
	movl	%esi, (%rdx,%rcx,4)
	addq	$1, %rax
	movq	-648(%rbp), %rcx        # 8-byte Reload
	shlq	$4, %rcx
	addq	%rax, %rcx
	movl	-4(%rdx,%rcx,4), %esi
	movq	-648(%rbp), %rcx        # 8-byte Reload
	shlq	$4, %rcx
	addq	%rax, %rcx
	addl	(%rdx,%rcx,4), %esi
	movl	%esi, (%rdx,%rcx,4)
	addq	$1, %rax
	cmpq	$16, %rax
	movq	%rax, -664(%rbp)        # 8-byte Spill
	jne	.LBB1_83
# %bb.82:                               # %for.inc9.26
                                        #   in Loop: Header=BB1_1 Depth=1
	movq	-648(%rbp), %rax        # 8-byte Reload
	addq	$1, %rax
	movl	$1, %ecx
	movq	%rax, -672(%rbp)        # 8-byte Spill
	movq	%rcx, -680(%rbp)        # 8-byte Spill
	jmp	.LBB1_84
.LBB1_83:                               # %for.body3.3.26
                                        #   in Loop: Header=BB1_81 Depth=2
	movq	-648(%rbp), %rax        # 8-byte Reload
	shlq	$4, %rax
	movq	-664(%rbp), %rcx        # 8-byte Reload
	addq	%rcx, %rax
	movq	-8(%rbp), %rdx          # 8-byte Reload
	movl	-4(%rdx,%rax,4), %esi
	movq	-648(%rbp), %rax        # 8-byte Reload
	shlq	$4, %rax
	addq	%rcx, %rax
	addl	(%rdx,%rax,4), %esi
	movl	%esi, (%rdx,%rax,4)
	addq	$1, %rcx
	movq	%rcx, -656(%rbp)        # 8-byte Spill
	jmp	.LBB1_81
.LBB1_84:                               # %for.body3.27
                                        #   Parent Loop BB1_1 Depth=1
                                        # =>  This Inner Loop Header: Depth=2
	movq	-680(%rbp), %rax        # 8-byte Reload
	movq	-672(%rbp), %rcx        # 8-byte Reload
	shlq	$4, %rcx
	addq	%rax, %rcx
	movq	-8(%rbp), %rdx          # 8-byte Reload
	movl	-4(%rdx,%rcx,4), %esi
	movq	-672(%rbp), %rcx        # 8-byte Reload
	shlq	$4, %rcx
	addq	%rax, %rcx
	addl	(%rdx,%rcx,4), %esi
	movl	%esi, (%rdx,%rcx,4)
	addq	$1, %rax
	movq	-672(%rbp), %rcx        # 8-byte Reload
	shlq	$4, %rcx
	addq	%rax, %rcx
	movl	-4(%rdx,%rcx,4), %esi
	movq	-672(%rbp), %rcx        # 8-byte Reload
	shlq	$4, %rcx
	addq	%rax, %rcx
	addl	(%rdx,%rcx,4), %esi
	movl	%esi, (%rdx,%rcx,4)
	addq	$1, %rax
	movq	-672(%rbp), %rcx        # 8-byte Reload
	shlq	$4, %rcx
	addq	%rax, %rcx
	movl	-4(%rdx,%rcx,4), %esi
	movq	-672(%rbp), %rcx        # 8-byte Reload
	shlq	$4, %rcx
	addq	%rax, %rcx
	addl	(%rdx,%rcx,4), %esi
	movl	%esi, (%rdx,%rcx,4)
	addq	$1, %rax
	cmpq	$16, %rax
	movq	%rax, -688(%rbp)        # 8-byte Spill
	jne	.LBB1_86
# %bb.85:                               # %for.inc9.27
                                        #   in Loop: Header=BB1_1 Depth=1
	movq	-672(%rbp), %rax        # 8-byte Reload
	addq	$1, %rax
	movl	$1, %ecx
	movq	%rax, -696(%rbp)        # 8-byte Spill
	movq	%rcx, -704(%rbp)        # 8-byte Spill
	jmp	.LBB1_87
.LBB1_86:                               # %for.body3.3.27
                                        #   in Loop: Header=BB1_84 Depth=2
	movq	-672(%rbp), %rax        # 8-byte Reload
	shlq	$4, %rax
	movq	-688(%rbp), %rcx        # 8-byte Reload
	addq	%rcx, %rax
	movq	-8(%rbp), %rdx          # 8-byte Reload
	movl	-4(%rdx,%rax,4), %esi
	movq	-672(%rbp), %rax        # 8-byte Reload
	shlq	$4, %rax
	addq	%rcx, %rax
	addl	(%rdx,%rax,4), %esi
	movl	%esi, (%rdx,%rax,4)
	addq	$1, %rcx
	movq	%rcx, -680(%rbp)        # 8-byte Spill
	jmp	.LBB1_84
.LBB1_87:                               # %for.body3.28
                                        #   Parent Loop BB1_1 Depth=1
                                        # =>  This Inner Loop Header: Depth=2
	movq	-704(%rbp), %rax        # 8-byte Reload
	movq	-696(%rbp), %rcx        # 8-byte Reload
	shlq	$4, %rcx
	addq	%rax, %rcx
	movq	-8(%rbp), %rdx          # 8-byte Reload
	movl	-4(%rdx,%rcx,4), %esi
	movq	-696(%rbp), %rcx        # 8-byte Reload
	shlq	$4, %rcx
	addq	%rax, %rcx
	addl	(%rdx,%rcx,4), %esi
	movl	%esi, (%rdx,%rcx,4)
	addq	$1, %rax
	movq	-696(%rbp), %rcx        # 8-byte Reload
	shlq	$4, %rcx
	addq	%rax, %rcx
	movl	-4(%rdx,%rcx,4), %esi
	movq	-696(%rbp), %rcx        # 8-byte Reload
	shlq	$4, %rcx
	addq	%rax, %rcx
	addl	(%rdx,%rcx,4), %esi
	movl	%esi, (%rdx,%rcx,4)
	addq	$1, %rax
	movq	-696(%rbp), %rcx        # 8-byte Reload
	shlq	$4, %rcx
	addq	%rax, %rcx
	movl	-4(%rdx,%rcx,4), %esi
	movq	-696(%rbp), %rcx        # 8-byte Reload
	shlq	$4, %rcx
	addq	%rax, %rcx
	addl	(%rdx,%rcx,4), %esi
	movl	%esi, (%rdx,%rcx,4)
	addq	$1, %rax
	cmpq	$16, %rax
	movq	%rax, -712(%rbp)        # 8-byte Spill
	jne	.LBB1_89
# %bb.88:                               # %for.inc9.28
                                        #   in Loop: Header=BB1_1 Depth=1
	movq	-696(%rbp), %rax        # 8-byte Reload
	addq	$1, %rax
	movl	$1, %ecx
	movq	%rax, -720(%rbp)        # 8-byte Spill
	movq	%rcx, -728(%rbp)        # 8-byte Spill
	jmp	.LBB1_90
.LBB1_89:                               # %for.body3.3.28
                                        #   in Loop: Header=BB1_87 Depth=2
	movq	-696(%rbp), %rax        # 8-byte Reload
	shlq	$4, %rax
	movq	-712(%rbp), %rcx        # 8-byte Reload
	addq	%rcx, %rax
	movq	-8(%rbp), %rdx          # 8-byte Reload
	movl	-4(%rdx,%rax,4), %esi
	movq	-696(%rbp), %rax        # 8-byte Reload
	shlq	$4, %rax
	addq	%rcx, %rax
	addl	(%rdx,%rax,4), %esi
	movl	%esi, (%rdx,%rax,4)
	addq	$1, %rcx
	movq	%rcx, -704(%rbp)        # 8-byte Spill
	jmp	.LBB1_87
.LBB1_90:                               # %for.body3.29
                                        #   Parent Loop BB1_1 Depth=1
                                        # =>  This Inner Loop Header: Depth=2
	movq	-728(%rbp), %rax        # 8-byte Reload
	movq	-720(%rbp), %rcx        # 8-byte Reload
	shlq	$4, %rcx
	addq	%rax, %rcx
	movq	-8(%rbp), %rdx          # 8-byte Reload
	movl	-4(%rdx,%rcx,4), %esi
	movq	-720(%rbp), %rcx        # 8-byte Reload
	shlq	$4, %rcx
	addq	%rax, %rcx
	addl	(%rdx,%rcx,4), %esi
	movl	%esi, (%rdx,%rcx,4)
	addq	$1, %rax
	movq	-720(%rbp), %rcx        # 8-byte Reload
	shlq	$4, %rcx
	addq	%rax, %rcx
	movl	-4(%rdx,%rcx,4), %esi
	movq	-720(%rbp), %rcx        # 8-byte Reload
	shlq	$4, %rcx
	addq	%rax, %rcx
	addl	(%rdx,%rcx,4), %esi
	movl	%esi, (%rdx,%rcx,4)
	addq	$1, %rax
	movq	-720(%rbp), %rcx        # 8-byte Reload
	shlq	$4, %rcx
	addq	%rax, %rcx
	movl	-4(%rdx,%rcx,4), %esi
	movq	-720(%rbp), %rcx        # 8-byte Reload
	shlq	$4, %rcx
	addq	%rax, %rcx
	addl	(%rdx,%rcx,4), %esi
	movl	%esi, (%rdx,%rcx,4)
	addq	$1, %rax
	cmpq	$16, %rax
	movq	%rax, -736(%rbp)        # 8-byte Spill
	jne	.LBB1_92
# %bb.91:                               # %for.inc9.29
                                        #   in Loop: Header=BB1_1 Depth=1
	movq	-720(%rbp), %rax        # 8-byte Reload
	addq	$1, %rax
	movl	$1, %ecx
	movq	%rax, -744(%rbp)        # 8-byte Spill
	movq	%rcx, -752(%rbp)        # 8-byte Spill
	jmp	.LBB1_93
.LBB1_92:                               # %for.body3.3.29
                                        #   in Loop: Header=BB1_90 Depth=2
	movq	-720(%rbp), %rax        # 8-byte Reload
	shlq	$4, %rax
	movq	-736(%rbp), %rcx        # 8-byte Reload
	addq	%rcx, %rax
	movq	-8(%rbp), %rdx          # 8-byte Reload
	movl	-4(%rdx,%rax,4), %esi
	movq	-720(%rbp), %rax        # 8-byte Reload
	shlq	$4, %rax
	addq	%rcx, %rax
	addl	(%rdx,%rax,4), %esi
	movl	%esi, (%rdx,%rax,4)
	addq	$1, %rcx
	movq	%rcx, -728(%rbp)        # 8-byte Spill
	jmp	.LBB1_90
.LBB1_93:                               # %for.body3.30
                                        #   Parent Loop BB1_1 Depth=1
                                        # =>  This Inner Loop Header: Depth=2
	movq	-752(%rbp), %rax        # 8-byte Reload
	movq	-744(%rbp), %rcx        # 8-byte Reload
	shlq	$4, %rcx
	addq	%rax, %rcx
	movq	-8(%rbp), %rdx          # 8-byte Reload
	movl	-4(%rdx,%rcx,4), %esi
	movq	-744(%rbp), %rcx        # 8-byte Reload
	shlq	$4, %rcx
	addq	%rax, %rcx
	addl	(%rdx,%rcx,4), %esi
	movl	%esi, (%rdx,%rcx,4)
	addq	$1, %rax
	movq	-744(%rbp), %rcx        # 8-byte Reload
	shlq	$4, %rcx
	addq	%rax, %rcx
	movl	-4(%rdx,%rcx,4), %esi
	movq	-744(%rbp), %rcx        # 8-byte Reload
	shlq	$4, %rcx
	addq	%rax, %rcx
	addl	(%rdx,%rcx,4), %esi
	movl	%esi, (%rdx,%rcx,4)
	addq	$1, %rax
	movq	-744(%rbp), %rcx        # 8-byte Reload
	shlq	$4, %rcx
	addq	%rax, %rcx
	movl	-4(%rdx,%rcx,4), %esi
	movq	-744(%rbp), %rcx        # 8-byte Reload
	shlq	$4, %rcx
	addq	%rax, %rcx
	addl	(%rdx,%rcx,4), %esi
	movl	%esi, (%rdx,%rcx,4)
	addq	$1, %rax
	cmpq	$16, %rax
	movq	%rax, -760(%rbp)        # 8-byte Spill
	jne	.LBB1_95
# %bb.94:                               # %for.inc9.30
                                        #   in Loop: Header=BB1_1 Depth=1
	movq	-744(%rbp), %rax        # 8-byte Reload
	addq	$1, %rax
	movl	$1, %ecx
	movq	%rax, -768(%rbp)        # 8-byte Spill
	movq	%rcx, -776(%rbp)        # 8-byte Spill
	jmp	.LBB1_96
.LBB1_95:                               # %for.body3.3.30
                                        #   in Loop: Header=BB1_93 Depth=2
	movq	-744(%rbp), %rax        # 8-byte Reload
	shlq	$4, %rax
	movq	-760(%rbp), %rcx        # 8-byte Reload
	addq	%rcx, %rax
	movq	-8(%rbp), %rdx          # 8-byte Reload
	movl	-4(%rdx,%rax,4), %esi
	movq	-744(%rbp), %rax        # 8-byte Reload
	shlq	$4, %rax
	addq	%rcx, %rax
	addl	(%rdx,%rax,4), %esi
	movl	%esi, (%rdx,%rax,4)
	addq	$1, %rcx
	movq	%rcx, -752(%rbp)        # 8-byte Spill
	jmp	.LBB1_93
.LBB1_96:                               # %for.body3.31
                                        #   Parent Loop BB1_1 Depth=1
                                        # =>  This Inner Loop Header: Depth=2
	movq	-776(%rbp), %rax        # 8-byte Reload
	movq	-768(%rbp), %rcx        # 8-byte Reload
	shlq	$4, %rcx
	addq	%rax, %rcx
	movq	-8(%rbp), %rdx          # 8-byte Reload
	movl	-4(%rdx,%rcx,4), %esi
	movq	-768(%rbp), %rcx        # 8-byte Reload
	shlq	$4, %rcx
	addq	%rax, %rcx
	addl	(%rdx,%rcx,4), %esi
	movl	%esi, (%rdx,%rcx,4)
	addq	$1, %rax
	movq	-768(%rbp), %rcx        # 8-byte Reload
	shlq	$4, %rcx
	addq	%rax, %rcx
	movl	-4(%rdx,%rcx,4), %esi
	movq	-768(%rbp), %rcx        # 8-byte Reload
	shlq	$4, %rcx
	addq	%rax, %rcx
	addl	(%rdx,%rcx,4), %esi
	movl	%esi, (%rdx,%rcx,4)
	addq	$1, %rax
	movq	-768(%rbp), %rcx        # 8-byte Reload
	shlq	$4, %rcx
	addq	%rax, %rcx
	movl	-4(%rdx,%rcx,4), %esi
	movq	-768(%rbp), %rcx        # 8-byte Reload
	shlq	$4, %rcx
	addq	%rax, %rcx
	addl	(%rdx,%rcx,4), %esi
	movl	%esi, (%rdx,%rcx,4)
	addq	$1, %rax
	cmpq	$16, %rax
	movq	%rax, -784(%rbp)        # 8-byte Spill
	jne	.LBB1_98
# %bb.97:                               # %for.inc9.31
                                        #   in Loop: Header=BB1_1 Depth=1
	movq	-768(%rbp), %rax        # 8-byte Reload
	addq	$1, %rax
	movl	$1, %ecx
	movq	%rax, -792(%rbp)        # 8-byte Spill
	movq	%rcx, -800(%rbp)        # 8-byte Spill
	jmp	.LBB1_99
.LBB1_98:                               # %for.body3.3.31
                                        #   in Loop: Header=BB1_96 Depth=2
	movq	-768(%rbp), %rax        # 8-byte Reload
	shlq	$4, %rax
	movq	-784(%rbp), %rcx        # 8-byte Reload
	addq	%rcx, %rax
	movq	-8(%rbp), %rdx          # 8-byte Reload
	movl	-4(%rdx,%rax,4), %esi
	movq	-768(%rbp), %rax        # 8-byte Reload
	shlq	$4, %rax
	addq	%rcx, %rax
	addl	(%rdx,%rax,4), %esi
	movl	%esi, (%rdx,%rax,4)
	addq	$1, %rcx
	movq	%rcx, -776(%rbp)        # 8-byte Spill
	jmp	.LBB1_96
.LBB1_99:                               # %for.body3.32
                                        #   Parent Loop BB1_1 Depth=1
                                        # =>  This Inner Loop Header: Depth=2
	movq	-800(%rbp), %rax        # 8-byte Reload
	movq	-792(%rbp), %rcx        # 8-byte Reload
	shlq	$4, %rcx
	addq	%rax, %rcx
	movq	-8(%rbp), %rdx          # 8-byte Reload
	movl	-4(%rdx,%rcx,4), %esi
	movq	-792(%rbp), %rcx        # 8-byte Reload
	shlq	$4, %rcx
	addq	%rax, %rcx
	addl	(%rdx,%rcx,4), %esi
	movl	%esi, (%rdx,%rcx,4)
	addq	$1, %rax
	movq	-792(%rbp), %rcx        # 8-byte Reload
	shlq	$4, %rcx
	addq	%rax, %rcx
	movl	-4(%rdx,%rcx,4), %esi
	movq	-792(%rbp), %rcx        # 8-byte Reload
	shlq	$4, %rcx
	addq	%rax, %rcx
	addl	(%rdx,%rcx,4), %esi
	movl	%esi, (%rdx,%rcx,4)
	addq	$1, %rax
	movq	-792(%rbp), %rcx        # 8-byte Reload
	shlq	$4, %rcx
	addq	%rax, %rcx
	movl	-4(%rdx,%rcx,4), %esi
	movq	-792(%rbp), %rcx        # 8-byte Reload
	shlq	$4, %rcx
	addq	%rax, %rcx
	addl	(%rdx,%rcx,4), %esi
	movl	%esi, (%rdx,%rcx,4)
	addq	$1, %rax
	cmpq	$16, %rax
	movq	%rax, -808(%rbp)        # 8-byte Spill
	jne	.LBB1_101
# %bb.100:                              # %for.inc9.32
                                        #   in Loop: Header=BB1_1 Depth=1
	movq	-792(%rbp), %rax        # 8-byte Reload
	addq	$1, %rax
	movl	$1, %ecx
	movq	%rax, -816(%rbp)        # 8-byte Spill
	movq	%rcx, -824(%rbp)        # 8-byte Spill
	jmp	.LBB1_102
.LBB1_101:                              # %for.body3.3.32
                                        #   in Loop: Header=BB1_99 Depth=2
	movq	-792(%rbp), %rax        # 8-byte Reload
	shlq	$4, %rax
	movq	-808(%rbp), %rcx        # 8-byte Reload
	addq	%rcx, %rax
	movq	-8(%rbp), %rdx          # 8-byte Reload
	movl	-4(%rdx,%rax,4), %esi
	movq	-792(%rbp), %rax        # 8-byte Reload
	shlq	$4, %rax
	addq	%rcx, %rax
	addl	(%rdx,%rax,4), %esi
	movl	%esi, (%rdx,%rax,4)
	addq	$1, %rcx
	movq	%rcx, -800(%rbp)        # 8-byte Spill
	jmp	.LBB1_99
.LBB1_102:                              # %for.body3.33
                                        #   Parent Loop BB1_1 Depth=1
                                        # =>  This Inner Loop Header: Depth=2
	movq	-824(%rbp), %rax        # 8-byte Reload
	movq	-816(%rbp), %rcx        # 8-byte Reload
	shlq	$4, %rcx
	addq	%rax, %rcx
	movq	-8(%rbp), %rdx          # 8-byte Reload
	movl	-4(%rdx,%rcx,4), %esi
	movq	-816(%rbp), %rcx        # 8-byte Reload
	shlq	$4, %rcx
	addq	%rax, %rcx
	addl	(%rdx,%rcx,4), %esi
	movl	%esi, (%rdx,%rcx,4)
	addq	$1, %rax
	movq	-816(%rbp), %rcx        # 8-byte Reload
	shlq	$4, %rcx
	addq	%rax, %rcx
	movl	-4(%rdx,%rcx,4), %esi
	movq	-816(%rbp), %rcx        # 8-byte Reload
	shlq	$4, %rcx
	addq	%rax, %rcx
	addl	(%rdx,%rcx,4), %esi
	movl	%esi, (%rdx,%rcx,4)
	addq	$1, %rax
	movq	-816(%rbp), %rcx        # 8-byte Reload
	shlq	$4, %rcx
	addq	%rax, %rcx
	movl	-4(%rdx,%rcx,4), %esi
	movq	-816(%rbp), %rcx        # 8-byte Reload
	shlq	$4, %rcx
	addq	%rax, %rcx
	addl	(%rdx,%rcx,4), %esi
	movl	%esi, (%rdx,%rcx,4)
	addq	$1, %rax
	cmpq	$16, %rax
	movq	%rax, -832(%rbp)        # 8-byte Spill
	jne	.LBB1_104
# %bb.103:                              # %for.inc9.33
                                        #   in Loop: Header=BB1_1 Depth=1
	movq	-816(%rbp), %rax        # 8-byte Reload
	addq	$1, %rax
	movl	$1, %ecx
	movq	%rax, -840(%rbp)        # 8-byte Spill
	movq	%rcx, -848(%rbp)        # 8-byte Spill
	jmp	.LBB1_105
.LBB1_104:                              # %for.body3.3.33
                                        #   in Loop: Header=BB1_102 Depth=2
	movq	-816(%rbp), %rax        # 8-byte Reload
	shlq	$4, %rax
	movq	-832(%rbp), %rcx        # 8-byte Reload
	addq	%rcx, %rax
	movq	-8(%rbp), %rdx          # 8-byte Reload
	movl	-4(%rdx,%rax,4), %esi
	movq	-816(%rbp), %rax        # 8-byte Reload
	shlq	$4, %rax
	addq	%rcx, %rax
	addl	(%rdx,%rax,4), %esi
	movl	%esi, (%rdx,%rax,4)
	addq	$1, %rcx
	movq	%rcx, -824(%rbp)        # 8-byte Spill
	jmp	.LBB1_102
.LBB1_105:                              # %for.body3.34
                                        #   Parent Loop BB1_1 Depth=1
                                        # =>  This Inner Loop Header: Depth=2
	movq	-848(%rbp), %rax        # 8-byte Reload
	movq	-840(%rbp), %rcx        # 8-byte Reload
	shlq	$4, %rcx
	addq	%rax, %rcx
	movq	-8(%rbp), %rdx          # 8-byte Reload
	movl	-4(%rdx,%rcx,4), %esi
	movq	-840(%rbp), %rcx        # 8-byte Reload
	shlq	$4, %rcx
	addq	%rax, %rcx
	addl	(%rdx,%rcx,4), %esi
	movl	%esi, (%rdx,%rcx,4)
	addq	$1, %rax
	movq	-840(%rbp), %rcx        # 8-byte Reload
	shlq	$4, %rcx
	addq	%rax, %rcx
	movl	-4(%rdx,%rcx,4), %esi
	movq	-840(%rbp), %rcx        # 8-byte Reload
	shlq	$4, %rcx
	addq	%rax, %rcx
	addl	(%rdx,%rcx,4), %esi
	movl	%esi, (%rdx,%rcx,4)
	addq	$1, %rax
	movq	-840(%rbp), %rcx        # 8-byte Reload
	shlq	$4, %rcx
	addq	%rax, %rcx
	movl	-4(%rdx,%rcx,4), %esi
	movq	-840(%rbp), %rcx        # 8-byte Reload
	shlq	$4, %rcx
	addq	%rax, %rcx
	addl	(%rdx,%rcx,4), %esi
	movl	%esi, (%rdx,%rcx,4)
	addq	$1, %rax
	cmpq	$16, %rax
	movq	%rax, -856(%rbp)        # 8-byte Spill
	jne	.LBB1_107
# %bb.106:                              # %for.inc9.34
                                        #   in Loop: Header=BB1_1 Depth=1
	movq	-840(%rbp), %rax        # 8-byte Reload
	addq	$1, %rax
	movl	$1, %ecx
	movq	%rax, -864(%rbp)        # 8-byte Spill
	movq	%rcx, -872(%rbp)        # 8-byte Spill
	jmp	.LBB1_108
.LBB1_107:                              # %for.body3.3.34
                                        #   in Loop: Header=BB1_105 Depth=2
	movq	-840(%rbp), %rax        # 8-byte Reload
	shlq	$4, %rax
	movq	-856(%rbp), %rcx        # 8-byte Reload
	addq	%rcx, %rax
	movq	-8(%rbp), %rdx          # 8-byte Reload
	movl	-4(%rdx,%rax,4), %esi
	movq	-840(%rbp), %rax        # 8-byte Reload
	shlq	$4, %rax
	addq	%rcx, %rax
	addl	(%rdx,%rax,4), %esi
	movl	%esi, (%rdx,%rax,4)
	addq	$1, %rcx
	movq	%rcx, -848(%rbp)        # 8-byte Spill
	jmp	.LBB1_105
.LBB1_108:                              # %for.body3.35
                                        #   Parent Loop BB1_1 Depth=1
                                        # =>  This Inner Loop Header: Depth=2
	movq	-872(%rbp), %rax        # 8-byte Reload
	movq	-864(%rbp), %rcx        # 8-byte Reload
	shlq	$4, %rcx
	addq	%rax, %rcx
	movq	-8(%rbp), %rdx          # 8-byte Reload
	movl	-4(%rdx,%rcx,4), %esi
	movq	-864(%rbp), %rcx        # 8-byte Reload
	shlq	$4, %rcx
	addq	%rax, %rcx
	addl	(%rdx,%rcx,4), %esi
	movl	%esi, (%rdx,%rcx,4)
	addq	$1, %rax
	movq	-864(%rbp), %rcx        # 8-byte Reload
	shlq	$4, %rcx
	addq	%rax, %rcx
	movl	-4(%rdx,%rcx,4), %esi
	movq	-864(%rbp), %rcx        # 8-byte Reload
	shlq	$4, %rcx
	addq	%rax, %rcx
	addl	(%rdx,%rcx,4), %esi
	movl	%esi, (%rdx,%rcx,4)
	addq	$1, %rax
	movq	-864(%rbp), %rcx        # 8-byte Reload
	shlq	$4, %rcx
	addq	%rax, %rcx
	movl	-4(%rdx,%rcx,4), %esi
	movq	-864(%rbp), %rcx        # 8-byte Reload
	shlq	$4, %rcx
	addq	%rax, %rcx
	addl	(%rdx,%rcx,4), %esi
	movl	%esi, (%rdx,%rcx,4)
	addq	$1, %rax
	cmpq	$16, %rax
	movq	%rax, -880(%rbp)        # 8-byte Spill
	jne	.LBB1_110
# %bb.109:                              # %for.inc9.35
                                        #   in Loop: Header=BB1_1 Depth=1
	movq	-864(%rbp), %rax        # 8-byte Reload
	addq	$1, %rax
	movl	$1, %ecx
	movq	%rax, -888(%rbp)        # 8-byte Spill
	movq	%rcx, -896(%rbp)        # 8-byte Spill
	jmp	.LBB1_111
.LBB1_110:                              # %for.body3.3.35
                                        #   in Loop: Header=BB1_108 Depth=2
	movq	-864(%rbp), %rax        # 8-byte Reload
	shlq	$4, %rax
	movq	-880(%rbp), %rcx        # 8-byte Reload
	addq	%rcx, %rax
	movq	-8(%rbp), %rdx          # 8-byte Reload
	movl	-4(%rdx,%rax,4), %esi
	movq	-864(%rbp), %rax        # 8-byte Reload
	shlq	$4, %rax
	addq	%rcx, %rax
	addl	(%rdx,%rax,4), %esi
	movl	%esi, (%rdx,%rax,4)
	addq	$1, %rcx
	movq	%rcx, -872(%rbp)        # 8-byte Spill
	jmp	.LBB1_108
.LBB1_111:                              # %for.body3.36
                                        #   Parent Loop BB1_1 Depth=1
                                        # =>  This Inner Loop Header: Depth=2
	movq	-896(%rbp), %rax        # 8-byte Reload
	movq	-888(%rbp), %rcx        # 8-byte Reload
	shlq	$4, %rcx
	addq	%rax, %rcx
	movq	-8(%rbp), %rdx          # 8-byte Reload
	movl	-4(%rdx,%rcx,4), %esi
	movq	-888(%rbp), %rcx        # 8-byte Reload
	shlq	$4, %rcx
	addq	%rax, %rcx
	addl	(%rdx,%rcx,4), %esi
	movl	%esi, (%rdx,%rcx,4)
	addq	$1, %rax
	movq	-888(%rbp), %rcx        # 8-byte Reload
	shlq	$4, %rcx
	addq	%rax, %rcx
	movl	-4(%rdx,%rcx,4), %esi
	movq	-888(%rbp), %rcx        # 8-byte Reload
	shlq	$4, %rcx
	addq	%rax, %rcx
	addl	(%rdx,%rcx,4), %esi
	movl	%esi, (%rdx,%rcx,4)
	addq	$1, %rax
	movq	-888(%rbp), %rcx        # 8-byte Reload
	shlq	$4, %rcx
	addq	%rax, %rcx
	movl	-4(%rdx,%rcx,4), %esi
	movq	-888(%rbp), %rcx        # 8-byte Reload
	shlq	$4, %rcx
	addq	%rax, %rcx
	addl	(%rdx,%rcx,4), %esi
	movl	%esi, (%rdx,%rcx,4)
	addq	$1, %rax
	cmpq	$16, %rax
	movq	%rax, -904(%rbp)        # 8-byte Spill
	jne	.LBB1_113
# %bb.112:                              # %for.inc9.36
                                        #   in Loop: Header=BB1_1 Depth=1
	movq	-888(%rbp), %rax        # 8-byte Reload
	addq	$1, %rax
	movl	$1, %ecx
	movq	%rax, -912(%rbp)        # 8-byte Spill
	movq	%rcx, -920(%rbp)        # 8-byte Spill
	jmp	.LBB1_114
.LBB1_113:                              # %for.body3.3.36
                                        #   in Loop: Header=BB1_111 Depth=2
	movq	-888(%rbp), %rax        # 8-byte Reload
	shlq	$4, %rax
	movq	-904(%rbp), %rcx        # 8-byte Reload
	addq	%rcx, %rax
	movq	-8(%rbp), %rdx          # 8-byte Reload
	movl	-4(%rdx,%rax,4), %esi
	movq	-888(%rbp), %rax        # 8-byte Reload
	shlq	$4, %rax
	addq	%rcx, %rax
	addl	(%rdx,%rax,4), %esi
	movl	%esi, (%rdx,%rax,4)
	addq	$1, %rcx
	movq	%rcx, -896(%rbp)        # 8-byte Spill
	jmp	.LBB1_111
.LBB1_114:                              # %for.body3.37
                                        #   Parent Loop BB1_1 Depth=1
                                        # =>  This Inner Loop Header: Depth=2
	movq	-920(%rbp), %rax        # 8-byte Reload
	movq	-912(%rbp), %rcx        # 8-byte Reload
	shlq	$4, %rcx
	addq	%rax, %rcx
	movq	-8(%rbp), %rdx          # 8-byte Reload
	movl	-4(%rdx,%rcx,4), %esi
	movq	-912(%rbp), %rcx        # 8-byte Reload
	shlq	$4, %rcx
	addq	%rax, %rcx
	addl	(%rdx,%rcx,4), %esi
	movl	%esi, (%rdx,%rcx,4)
	addq	$1, %rax
	movq	-912(%rbp), %rcx        # 8-byte Reload
	shlq	$4, %rcx
	addq	%rax, %rcx
	movl	-4(%rdx,%rcx,4), %esi
	movq	-912(%rbp), %rcx        # 8-byte Reload
	shlq	$4, %rcx
	addq	%rax, %rcx
	addl	(%rdx,%rcx,4), %esi
	movl	%esi, (%rdx,%rcx,4)
	addq	$1, %rax
	movq	-912(%rbp), %rcx        # 8-byte Reload
	shlq	$4, %rcx
	addq	%rax, %rcx
	movl	-4(%rdx,%rcx,4), %esi
	movq	-912(%rbp), %rcx        # 8-byte Reload
	shlq	$4, %rcx
	addq	%rax, %rcx
	addl	(%rdx,%rcx,4), %esi
	movl	%esi, (%rdx,%rcx,4)
	addq	$1, %rax
	cmpq	$16, %rax
	movq	%rax, -928(%rbp)        # 8-byte Spill
	jne	.LBB1_116
# %bb.115:                              # %for.inc9.37
                                        #   in Loop: Header=BB1_1 Depth=1
	movq	-912(%rbp), %rax        # 8-byte Reload
	addq	$1, %rax
	movl	$1, %ecx
	movq	%rax, -936(%rbp)        # 8-byte Spill
	movq	%rcx, -944(%rbp)        # 8-byte Spill
	jmp	.LBB1_117
.LBB1_116:                              # %for.body3.3.37
                                        #   in Loop: Header=BB1_114 Depth=2
	movq	-912(%rbp), %rax        # 8-byte Reload
	shlq	$4, %rax
	movq	-928(%rbp), %rcx        # 8-byte Reload
	addq	%rcx, %rax
	movq	-8(%rbp), %rdx          # 8-byte Reload
	movl	-4(%rdx,%rax,4), %esi
	movq	-912(%rbp), %rax        # 8-byte Reload
	shlq	$4, %rax
	addq	%rcx, %rax
	addl	(%rdx,%rax,4), %esi
	movl	%esi, (%rdx,%rax,4)
	addq	$1, %rcx
	movq	%rcx, -920(%rbp)        # 8-byte Spill
	jmp	.LBB1_114
.LBB1_117:                              # %for.body3.38
                                        #   Parent Loop BB1_1 Depth=1
                                        # =>  This Inner Loop Header: Depth=2
	movq	-944(%rbp), %rax        # 8-byte Reload
	movq	-936(%rbp), %rcx        # 8-byte Reload
	shlq	$4, %rcx
	addq	%rax, %rcx
	movq	-8(%rbp), %rdx          # 8-byte Reload
	movl	-4(%rdx,%rcx,4), %esi
	movq	-936(%rbp), %rcx        # 8-byte Reload
	shlq	$4, %rcx
	addq	%rax, %rcx
	addl	(%rdx,%rcx,4), %esi
	movl	%esi, (%rdx,%rcx,4)
	addq	$1, %rax
	movq	-936(%rbp), %rcx        # 8-byte Reload
	shlq	$4, %rcx
	addq	%rax, %rcx
	movl	-4(%rdx,%rcx,4), %esi
	movq	-936(%rbp), %rcx        # 8-byte Reload
	shlq	$4, %rcx
	addq	%rax, %rcx
	addl	(%rdx,%rcx,4), %esi
	movl	%esi, (%rdx,%rcx,4)
	addq	$1, %rax
	movq	-936(%rbp), %rcx        # 8-byte Reload
	shlq	$4, %rcx
	addq	%rax, %rcx
	movl	-4(%rdx,%rcx,4), %esi
	movq	-936(%rbp), %rcx        # 8-byte Reload
	shlq	$4, %rcx
	addq	%rax, %rcx
	addl	(%rdx,%rcx,4), %esi
	movl	%esi, (%rdx,%rcx,4)
	addq	$1, %rax
	cmpq	$16, %rax
	movq	%rax, -952(%rbp)        # 8-byte Spill
	jne	.LBB1_119
# %bb.118:                              # %for.inc9.38
                                        #   in Loop: Header=BB1_1 Depth=1
	movq	-936(%rbp), %rax        # 8-byte Reload
	addq	$1, %rax
	movl	$1, %ecx
	movq	%rax, -960(%rbp)        # 8-byte Spill
	movq	%rcx, -968(%rbp)        # 8-byte Spill
	jmp	.LBB1_120
.LBB1_119:                              # %for.body3.3.38
                                        #   in Loop: Header=BB1_117 Depth=2
	movq	-936(%rbp), %rax        # 8-byte Reload
	shlq	$4, %rax
	movq	-952(%rbp), %rcx        # 8-byte Reload
	addq	%rcx, %rax
	movq	-8(%rbp), %rdx          # 8-byte Reload
	movl	-4(%rdx,%rax,4), %esi
	movq	-936(%rbp), %rax        # 8-byte Reload
	shlq	$4, %rax
	addq	%rcx, %rax
	addl	(%rdx,%rax,4), %esi
	movl	%esi, (%rdx,%rax,4)
	addq	$1, %rcx
	movq	%rcx, -944(%rbp)        # 8-byte Spill
	jmp	.LBB1_117
.LBB1_120:                              # %for.body3.39
                                        #   Parent Loop BB1_1 Depth=1
                                        # =>  This Inner Loop Header: Depth=2
	movq	-968(%rbp), %rax        # 8-byte Reload
	movq	-960(%rbp), %rcx        # 8-byte Reload
	shlq	$4, %rcx
	addq	%rax, %rcx
	movq	-8(%rbp), %rdx          # 8-byte Reload
	movl	-4(%rdx,%rcx,4), %esi
	movq	-960(%rbp), %rcx        # 8-byte Reload
	shlq	$4, %rcx
	addq	%rax, %rcx
	addl	(%rdx,%rcx,4), %esi
	movl	%esi, (%rdx,%rcx,4)
	addq	$1, %rax
	movq	-960(%rbp), %rcx        # 8-byte Reload
	shlq	$4, %rcx
	addq	%rax, %rcx
	movl	-4(%rdx,%rcx,4), %esi
	movq	-960(%rbp), %rcx        # 8-byte Reload
	shlq	$4, %rcx
	addq	%rax, %rcx
	addl	(%rdx,%rcx,4), %esi
	movl	%esi, (%rdx,%rcx,4)
	addq	$1, %rax
	movq	-960(%rbp), %rcx        # 8-byte Reload
	shlq	$4, %rcx
	addq	%rax, %rcx
	movl	-4(%rdx,%rcx,4), %esi
	movq	-960(%rbp), %rcx        # 8-byte Reload
	shlq	$4, %rcx
	addq	%rax, %rcx
	addl	(%rdx,%rcx,4), %esi
	movl	%esi, (%rdx,%rcx,4)
	addq	$1, %rax
	cmpq	$16, %rax
	movq	%rax, -976(%rbp)        # 8-byte Spill
	jne	.LBB1_122
# %bb.121:                              # %for.inc9.39
                                        #   in Loop: Header=BB1_1 Depth=1
	movq	-960(%rbp), %rax        # 8-byte Reload
	addq	$1, %rax
	movl	$1, %ecx
	movq	%rax, -984(%rbp)        # 8-byte Spill
	movq	%rcx, -992(%rbp)        # 8-byte Spill
	jmp	.LBB1_123
.LBB1_122:                              # %for.body3.3.39
                                        #   in Loop: Header=BB1_120 Depth=2
	movq	-960(%rbp), %rax        # 8-byte Reload
	shlq	$4, %rax
	movq	-976(%rbp), %rcx        # 8-byte Reload
	addq	%rcx, %rax
	movq	-8(%rbp), %rdx          # 8-byte Reload
	movl	-4(%rdx,%rax,4), %esi
	movq	-960(%rbp), %rax        # 8-byte Reload
	shlq	$4, %rax
	addq	%rcx, %rax
	addl	(%rdx,%rax,4), %esi
	movl	%esi, (%rdx,%rax,4)
	addq	$1, %rcx
	movq	%rcx, -968(%rbp)        # 8-byte Spill
	jmp	.LBB1_120
.LBB1_123:                              # %for.body3.40
                                        #   Parent Loop BB1_1 Depth=1
                                        # =>  This Inner Loop Header: Depth=2
	movq	-992(%rbp), %rax        # 8-byte Reload
	movq	-984(%rbp), %rcx        # 8-byte Reload
	shlq	$4, %rcx
	addq	%rax, %rcx
	movq	-8(%rbp), %rdx          # 8-byte Reload
	movl	-4(%rdx,%rcx,4), %esi
	movq	-984(%rbp), %rcx        # 8-byte Reload
	shlq	$4, %rcx
	addq	%rax, %rcx
	addl	(%rdx,%rcx,4), %esi
	movl	%esi, (%rdx,%rcx,4)
	addq	$1, %rax
	movq	-984(%rbp), %rcx        # 8-byte Reload
	shlq	$4, %rcx
	addq	%rax, %rcx
	movl	-4(%rdx,%rcx,4), %esi
	movq	-984(%rbp), %rcx        # 8-byte Reload
	shlq	$4, %rcx
	addq	%rax, %rcx
	addl	(%rdx,%rcx,4), %esi
	movl	%esi, (%rdx,%rcx,4)
	addq	$1, %rax
	movq	-984(%rbp), %rcx        # 8-byte Reload
	shlq	$4, %rcx
	addq	%rax, %rcx
	movl	-4(%rdx,%rcx,4), %esi
	movq	-984(%rbp), %rcx        # 8-byte Reload
	shlq	$4, %rcx
	addq	%rax, %rcx
	addl	(%rdx,%rcx,4), %esi
	movl	%esi, (%rdx,%rcx,4)
	addq	$1, %rax
	cmpq	$16, %rax
	movq	%rax, -1000(%rbp)       # 8-byte Spill
	jne	.LBB1_125
# %bb.124:                              # %for.inc9.40
                                        #   in Loop: Header=BB1_1 Depth=1
	movq	-984(%rbp), %rax        # 8-byte Reload
	addq	$1, %rax
	movl	$1, %ecx
	movq	%rax, -1008(%rbp)       # 8-byte Spill
	movq	%rcx, -1016(%rbp)       # 8-byte Spill
	jmp	.LBB1_126
.LBB1_125:                              # %for.body3.3.40
                                        #   in Loop: Header=BB1_123 Depth=2
	movq	-984(%rbp), %rax        # 8-byte Reload
	shlq	$4, %rax
	movq	-1000(%rbp), %rcx       # 8-byte Reload
	addq	%rcx, %rax
	movq	-8(%rbp), %rdx          # 8-byte Reload
	movl	-4(%rdx,%rax,4), %esi
	movq	-984(%rbp), %rax        # 8-byte Reload
	shlq	$4, %rax
	addq	%rcx, %rax
	addl	(%rdx,%rax,4), %esi
	movl	%esi, (%rdx,%rax,4)
	addq	$1, %rcx
	movq	%rcx, -992(%rbp)        # 8-byte Spill
	jmp	.LBB1_123
.LBB1_126:                              # %for.body3.41
                                        #   Parent Loop BB1_1 Depth=1
                                        # =>  This Inner Loop Header: Depth=2
	movq	-1016(%rbp), %rax       # 8-byte Reload
	movq	-1008(%rbp), %rcx       # 8-byte Reload
	shlq	$4, %rcx
	addq	%rax, %rcx
	movq	-8(%rbp), %rdx          # 8-byte Reload
	movl	-4(%rdx,%rcx,4), %esi
	movq	-1008(%rbp), %rcx       # 8-byte Reload
	shlq	$4, %rcx
	addq	%rax, %rcx
	addl	(%rdx,%rcx,4), %esi
	movl	%esi, (%rdx,%rcx,4)
	addq	$1, %rax
	movq	-1008(%rbp), %rcx       # 8-byte Reload
	shlq	$4, %rcx
	addq	%rax, %rcx
	movl	-4(%rdx,%rcx,4), %esi
	movq	-1008(%rbp), %rcx       # 8-byte Reload
	shlq	$4, %rcx
	addq	%rax, %rcx
	addl	(%rdx,%rcx,4), %esi
	movl	%esi, (%rdx,%rcx,4)
	addq	$1, %rax
	movq	-1008(%rbp), %rcx       # 8-byte Reload
	shlq	$4, %rcx
	addq	%rax, %rcx
	movl	-4(%rdx,%rcx,4), %esi
	movq	-1008(%rbp), %rcx       # 8-byte Reload
	shlq	$4, %rcx
	addq	%rax, %rcx
	addl	(%rdx,%rcx,4), %esi
	movl	%esi, (%rdx,%rcx,4)
	addq	$1, %rax
	cmpq	$16, %rax
	movq	%rax, -1024(%rbp)       # 8-byte Spill
	jne	.LBB1_128
# %bb.127:                              # %for.inc9.41
                                        #   in Loop: Header=BB1_1 Depth=1
	movq	-1008(%rbp), %rax       # 8-byte Reload
	addq	$1, %rax
	movl	$1, %ecx
	movq	%rax, -1032(%rbp)       # 8-byte Spill
	movq	%rcx, -1040(%rbp)       # 8-byte Spill
	jmp	.LBB1_129
.LBB1_128:                              # %for.body3.3.41
                                        #   in Loop: Header=BB1_126 Depth=2
	movq	-1008(%rbp), %rax       # 8-byte Reload
	shlq	$4, %rax
	movq	-1024(%rbp), %rcx       # 8-byte Reload
	addq	%rcx, %rax
	movq	-8(%rbp), %rdx          # 8-byte Reload
	movl	-4(%rdx,%rax,4), %esi
	movq	-1008(%rbp), %rax       # 8-byte Reload
	shlq	$4, %rax
	addq	%rcx, %rax
	addl	(%rdx,%rax,4), %esi
	movl	%esi, (%rdx,%rax,4)
	addq	$1, %rcx
	movq	%rcx, -1016(%rbp)       # 8-byte Spill
	jmp	.LBB1_126
.LBB1_129:                              # %for.body3.42
                                        #   Parent Loop BB1_1 Depth=1
                                        # =>  This Inner Loop Header: Depth=2
	movq	-1040(%rbp), %rax       # 8-byte Reload
	movq	-1032(%rbp), %rcx       # 8-byte Reload
	shlq	$4, %rcx
	addq	%rax, %rcx
	movq	-8(%rbp), %rdx          # 8-byte Reload
	movl	-4(%rdx,%rcx,4), %esi
	movq	-1032(%rbp), %rcx       # 8-byte Reload
	shlq	$4, %rcx
	addq	%rax, %rcx
	addl	(%rdx,%rcx,4), %esi
	movl	%esi, (%rdx,%rcx,4)
	addq	$1, %rax
	movq	-1032(%rbp), %rcx       # 8-byte Reload
	shlq	$4, %rcx
	addq	%rax, %rcx
	movl	-4(%rdx,%rcx,4), %esi
	movq	-1032(%rbp), %rcx       # 8-byte Reload
	shlq	$4, %rcx
	addq	%rax, %rcx
	addl	(%rdx,%rcx,4), %esi
	movl	%esi, (%rdx,%rcx,4)
	addq	$1, %rax
	movq	-1032(%rbp), %rcx       # 8-byte Reload
	shlq	$4, %rcx
	addq	%rax, %rcx
	movl	-4(%rdx,%rcx,4), %esi
	movq	-1032(%rbp), %rcx       # 8-byte Reload
	shlq	$4, %rcx
	addq	%rax, %rcx
	addl	(%rdx,%rcx,4), %esi
	movl	%esi, (%rdx,%rcx,4)
	addq	$1, %rax
	cmpq	$16, %rax
	movq	%rax, -1048(%rbp)       # 8-byte Spill
	jne	.LBB1_131
# %bb.130:                              # %for.inc9.42
                                        #   in Loop: Header=BB1_1 Depth=1
	movq	-1032(%rbp), %rax       # 8-byte Reload
	addq	$1, %rax
	movl	$1, %ecx
	movq	%rax, -1056(%rbp)       # 8-byte Spill
	movq	%rcx, -1064(%rbp)       # 8-byte Spill
	jmp	.LBB1_132
.LBB1_131:                              # %for.body3.3.42
                                        #   in Loop: Header=BB1_129 Depth=2
	movq	-1032(%rbp), %rax       # 8-byte Reload
	shlq	$4, %rax
	movq	-1048(%rbp), %rcx       # 8-byte Reload
	addq	%rcx, %rax
	movq	-8(%rbp), %rdx          # 8-byte Reload
	movl	-4(%rdx,%rax,4), %esi
	movq	-1032(%rbp), %rax       # 8-byte Reload
	shlq	$4, %rax
	addq	%rcx, %rax
	addl	(%rdx,%rax,4), %esi
	movl	%esi, (%rdx,%rax,4)
	addq	$1, %rcx
	movq	%rcx, -1040(%rbp)       # 8-byte Spill
	jmp	.LBB1_129
.LBB1_132:                              # %for.body3.43
                                        #   Parent Loop BB1_1 Depth=1
                                        # =>  This Inner Loop Header: Depth=2
	movq	-1064(%rbp), %rax       # 8-byte Reload
	movq	-1056(%rbp), %rcx       # 8-byte Reload
	shlq	$4, %rcx
	addq	%rax, %rcx
	movq	-8(%rbp), %rdx          # 8-byte Reload
	movl	-4(%rdx,%rcx,4), %esi
	movq	-1056(%rbp), %rcx       # 8-byte Reload
	shlq	$4, %rcx
	addq	%rax, %rcx
	addl	(%rdx,%rcx,4), %esi
	movl	%esi, (%rdx,%rcx,4)
	addq	$1, %rax
	movq	-1056(%rbp), %rcx       # 8-byte Reload
	shlq	$4, %rcx
	addq	%rax, %rcx
	movl	-4(%rdx,%rcx,4), %esi
	movq	-1056(%rbp), %rcx       # 8-byte Reload
	shlq	$4, %rcx
	addq	%rax, %rcx
	addl	(%rdx,%rcx,4), %esi
	movl	%esi, (%rdx,%rcx,4)
	addq	$1, %rax
	movq	-1056(%rbp), %rcx       # 8-byte Reload
	shlq	$4, %rcx
	addq	%rax, %rcx
	movl	-4(%rdx,%rcx,4), %esi
	movq	-1056(%rbp), %rcx       # 8-byte Reload
	shlq	$4, %rcx
	addq	%rax, %rcx
	addl	(%rdx,%rcx,4), %esi
	movl	%esi, (%rdx,%rcx,4)
	addq	$1, %rax
	cmpq	$16, %rax
	movq	%rax, -1072(%rbp)       # 8-byte Spill
	jne	.LBB1_134
# %bb.133:                              # %for.inc9.43
                                        #   in Loop: Header=BB1_1 Depth=1
	movq	-1056(%rbp), %rax       # 8-byte Reload
	addq	$1, %rax
	movl	$1, %ecx
	movq	%rax, -1080(%rbp)       # 8-byte Spill
	movq	%rcx, -1088(%rbp)       # 8-byte Spill
	jmp	.LBB1_135
.LBB1_134:                              # %for.body3.3.43
                                        #   in Loop: Header=BB1_132 Depth=2
	movq	-1056(%rbp), %rax       # 8-byte Reload
	shlq	$4, %rax
	movq	-1072(%rbp), %rcx       # 8-byte Reload
	addq	%rcx, %rax
	movq	-8(%rbp), %rdx          # 8-byte Reload
	movl	-4(%rdx,%rax,4), %esi
	movq	-1056(%rbp), %rax       # 8-byte Reload
	shlq	$4, %rax
	addq	%rcx, %rax
	addl	(%rdx,%rax,4), %esi
	movl	%esi, (%rdx,%rax,4)
	addq	$1, %rcx
	movq	%rcx, -1064(%rbp)       # 8-byte Spill
	jmp	.LBB1_132
.LBB1_135:                              # %for.body3.44
                                        #   Parent Loop BB1_1 Depth=1
                                        # =>  This Inner Loop Header: Depth=2
	movq	-1088(%rbp), %rax       # 8-byte Reload
	movq	-1080(%rbp), %rcx       # 8-byte Reload
	shlq	$4, %rcx
	addq	%rax, %rcx
	movq	-8(%rbp), %rdx          # 8-byte Reload
	movl	-4(%rdx,%rcx,4), %esi
	movq	-1080(%rbp), %rcx       # 8-byte Reload
	shlq	$4, %rcx
	addq	%rax, %rcx
	addl	(%rdx,%rcx,4), %esi
	movl	%esi, (%rdx,%rcx,4)
	addq	$1, %rax
	movq	-1080(%rbp), %rcx       # 8-byte Reload
	shlq	$4, %rcx
	addq	%rax, %rcx
	movl	-4(%rdx,%rcx,4), %esi
	movq	-1080(%rbp), %rcx       # 8-byte Reload
	shlq	$4, %rcx
	addq	%rax, %rcx
	addl	(%rdx,%rcx,4), %esi
	movl	%esi, (%rdx,%rcx,4)
	addq	$1, %rax
	movq	-1080(%rbp), %rcx       # 8-byte Reload
	shlq	$4, %rcx
	addq	%rax, %rcx
	movl	-4(%rdx,%rcx,4), %esi
	movq	-1080(%rbp), %rcx       # 8-byte Reload
	shlq	$4, %rcx
	addq	%rax, %rcx
	addl	(%rdx,%rcx,4), %esi
	movl	%esi, (%rdx,%rcx,4)
	addq	$1, %rax
	cmpq	$16, %rax
	movq	%rax, -1096(%rbp)       # 8-byte Spill
	jne	.LBB1_137
# %bb.136:                              # %for.inc9.44
                                        #   in Loop: Header=BB1_1 Depth=1
	movq	-1080(%rbp), %rax       # 8-byte Reload
	addq	$1, %rax
	movl	$1, %ecx
	movq	%rax, -1104(%rbp)       # 8-byte Spill
	movq	%rcx, -1112(%rbp)       # 8-byte Spill
	jmp	.LBB1_138
.LBB1_137:                              # %for.body3.3.44
                                        #   in Loop: Header=BB1_135 Depth=2
	movq	-1080(%rbp), %rax       # 8-byte Reload
	shlq	$4, %rax
	movq	-1096(%rbp), %rcx       # 8-byte Reload
	addq	%rcx, %rax
	movq	-8(%rbp), %rdx          # 8-byte Reload
	movl	-4(%rdx,%rax,4), %esi
	movq	-1080(%rbp), %rax       # 8-byte Reload
	shlq	$4, %rax
	addq	%rcx, %rax
	addl	(%rdx,%rax,4), %esi
	movl	%esi, (%rdx,%rax,4)
	addq	$1, %rcx
	movq	%rcx, -1088(%rbp)       # 8-byte Spill
	jmp	.LBB1_135
.LBB1_138:                              # %for.body3.45
                                        #   Parent Loop BB1_1 Depth=1
                                        # =>  This Inner Loop Header: Depth=2
	movq	-1112(%rbp), %rax       # 8-byte Reload
	movq	-1104(%rbp), %rcx       # 8-byte Reload
	shlq	$4, %rcx
	addq	%rax, %rcx
	movq	-8(%rbp), %rdx          # 8-byte Reload
	movl	-4(%rdx,%rcx,4), %esi
	movq	-1104(%rbp), %rcx       # 8-byte Reload
	shlq	$4, %rcx
	addq	%rax, %rcx
	addl	(%rdx,%rcx,4), %esi
	movl	%esi, (%rdx,%rcx,4)
	addq	$1, %rax
	movq	-1104(%rbp), %rcx       # 8-byte Reload
	shlq	$4, %rcx
	addq	%rax, %rcx
	movl	-4(%rdx,%rcx,4), %esi
	movq	-1104(%rbp), %rcx       # 8-byte Reload
	shlq	$4, %rcx
	addq	%rax, %rcx
	addl	(%rdx,%rcx,4), %esi
	movl	%esi, (%rdx,%rcx,4)
	addq	$1, %rax
	movq	-1104(%rbp), %rcx       # 8-byte Reload
	shlq	$4, %rcx
	addq	%rax, %rcx
	movl	-4(%rdx,%rcx,4), %esi
	movq	-1104(%rbp), %rcx       # 8-byte Reload
	shlq	$4, %rcx
	addq	%rax, %rcx
	addl	(%rdx,%rcx,4), %esi
	movl	%esi, (%rdx,%rcx,4)
	addq	$1, %rax
	cmpq	$16, %rax
	movq	%rax, -1120(%rbp)       # 8-byte Spill
	jne	.LBB1_140
# %bb.139:                              # %for.inc9.45
                                        #   in Loop: Header=BB1_1 Depth=1
	movq	-1104(%rbp), %rax       # 8-byte Reload
	addq	$1, %rax
	movl	$1, %ecx
	movq	%rax, -1128(%rbp)       # 8-byte Spill
	movq	%rcx, -1136(%rbp)       # 8-byte Spill
	jmp	.LBB1_141
.LBB1_140:                              # %for.body3.3.45
                                        #   in Loop: Header=BB1_138 Depth=2
	movq	-1104(%rbp), %rax       # 8-byte Reload
	shlq	$4, %rax
	movq	-1120(%rbp), %rcx       # 8-byte Reload
	addq	%rcx, %rax
	movq	-8(%rbp), %rdx          # 8-byte Reload
	movl	-4(%rdx,%rax,4), %esi
	movq	-1104(%rbp), %rax       # 8-byte Reload
	shlq	$4, %rax
	addq	%rcx, %rax
	addl	(%rdx,%rax,4), %esi
	movl	%esi, (%rdx,%rax,4)
	addq	$1, %rcx
	movq	%rcx, -1112(%rbp)       # 8-byte Spill
	jmp	.LBB1_138
.LBB1_141:                              # %for.body3.46
                                        #   Parent Loop BB1_1 Depth=1
                                        # =>  This Inner Loop Header: Depth=2
	movq	-1136(%rbp), %rax       # 8-byte Reload
	movq	-1128(%rbp), %rcx       # 8-byte Reload
	shlq	$4, %rcx
	addq	%rax, %rcx
	movq	-8(%rbp), %rdx          # 8-byte Reload
	movl	-4(%rdx,%rcx,4), %esi
	movq	-1128(%rbp), %rcx       # 8-byte Reload
	shlq	$4, %rcx
	addq	%rax, %rcx
	addl	(%rdx,%rcx,4), %esi
	movl	%esi, (%rdx,%rcx,4)
	addq	$1, %rax
	movq	-1128(%rbp), %rcx       # 8-byte Reload
	shlq	$4, %rcx
	addq	%rax, %rcx
	movl	-4(%rdx,%rcx,4), %esi
	movq	-1128(%rbp), %rcx       # 8-byte Reload
	shlq	$4, %rcx
	addq	%rax, %rcx
	addl	(%rdx,%rcx,4), %esi
	movl	%esi, (%rdx,%rcx,4)
	addq	$1, %rax
	movq	-1128(%rbp), %rcx       # 8-byte Reload
	shlq	$4, %rcx
	addq	%rax, %rcx
	movl	-4(%rdx,%rcx,4), %esi
	movq	-1128(%rbp), %rcx       # 8-byte Reload
	shlq	$4, %rcx
	addq	%rax, %rcx
	addl	(%rdx,%rcx,4), %esi
	movl	%esi, (%rdx,%rcx,4)
	addq	$1, %rax
	cmpq	$16, %rax
	movq	%rax, -1144(%rbp)       # 8-byte Spill
	jne	.LBB1_143
# %bb.142:                              # %for.inc9.46
                                        #   in Loop: Header=BB1_1 Depth=1
	movq	-1128(%rbp), %rax       # 8-byte Reload
	addq	$1, %rax
	movl	$1, %ecx
	movq	%rax, -1152(%rbp)       # 8-byte Spill
	movq	%rcx, -1160(%rbp)       # 8-byte Spill
	jmp	.LBB1_144
.LBB1_143:                              # %for.body3.3.46
                                        #   in Loop: Header=BB1_141 Depth=2
	movq	-1128(%rbp), %rax       # 8-byte Reload
	shlq	$4, %rax
	movq	-1144(%rbp), %rcx       # 8-byte Reload
	addq	%rcx, %rax
	movq	-8(%rbp), %rdx          # 8-byte Reload
	movl	-4(%rdx,%rax,4), %esi
	movq	-1128(%rbp), %rax       # 8-byte Reload
	shlq	$4, %rax
	addq	%rcx, %rax
	addl	(%rdx,%rax,4), %esi
	movl	%esi, (%rdx,%rax,4)
	addq	$1, %rcx
	movq	%rcx, -1136(%rbp)       # 8-byte Spill
	jmp	.LBB1_141
.LBB1_144:                              # %for.body3.47
                                        #   Parent Loop BB1_1 Depth=1
                                        # =>  This Inner Loop Header: Depth=2
	movq	-1160(%rbp), %rax       # 8-byte Reload
	movq	-1152(%rbp), %rcx       # 8-byte Reload
	shlq	$4, %rcx
	addq	%rax, %rcx
	movq	-8(%rbp), %rdx          # 8-byte Reload
	movl	-4(%rdx,%rcx,4), %esi
	movq	-1152(%rbp), %rcx       # 8-byte Reload
	shlq	$4, %rcx
	addq	%rax, %rcx
	addl	(%rdx,%rcx,4), %esi
	movl	%esi, (%rdx,%rcx,4)
	addq	$1, %rax
	movq	-1152(%rbp), %rcx       # 8-byte Reload
	shlq	$4, %rcx
	addq	%rax, %rcx
	movl	-4(%rdx,%rcx,4), %esi
	movq	-1152(%rbp), %rcx       # 8-byte Reload
	shlq	$4, %rcx
	addq	%rax, %rcx
	addl	(%rdx,%rcx,4), %esi
	movl	%esi, (%rdx,%rcx,4)
	addq	$1, %rax
	movq	-1152(%rbp), %rcx       # 8-byte Reload
	shlq	$4, %rcx
	addq	%rax, %rcx
	movl	-4(%rdx,%rcx,4), %esi
	movq	-1152(%rbp), %rcx       # 8-byte Reload
	shlq	$4, %rcx
	addq	%rax, %rcx
	addl	(%rdx,%rcx,4), %esi
	movl	%esi, (%rdx,%rcx,4)
	addq	$1, %rax
	cmpq	$16, %rax
	movq	%rax, -1168(%rbp)       # 8-byte Spill
	jne	.LBB1_146
# %bb.145:                              # %for.inc9.47
                                        #   in Loop: Header=BB1_1 Depth=1
	movq	-1152(%rbp), %rax       # 8-byte Reload
	addq	$1, %rax
	movl	$1, %ecx
	movq	%rax, -1176(%rbp)       # 8-byte Spill
	movq	%rcx, -1184(%rbp)       # 8-byte Spill
	jmp	.LBB1_147
.LBB1_146:                              # %for.body3.3.47
                                        #   in Loop: Header=BB1_144 Depth=2
	movq	-1152(%rbp), %rax       # 8-byte Reload
	shlq	$4, %rax
	movq	-1168(%rbp), %rcx       # 8-byte Reload
	addq	%rcx, %rax
	movq	-8(%rbp), %rdx          # 8-byte Reload
	movl	-4(%rdx,%rax,4), %esi
	movq	-1152(%rbp), %rax       # 8-byte Reload
	shlq	$4, %rax
	addq	%rcx, %rax
	addl	(%rdx,%rax,4), %esi
	movl	%esi, (%rdx,%rax,4)
	addq	$1, %rcx
	movq	%rcx, -1160(%rbp)       # 8-byte Spill
	jmp	.LBB1_144
.LBB1_147:                              # %for.body3.48
                                        #   Parent Loop BB1_1 Depth=1
                                        # =>  This Inner Loop Header: Depth=2
	movq	-1184(%rbp), %rax       # 8-byte Reload
	movq	-1176(%rbp), %rcx       # 8-byte Reload
	shlq	$4, %rcx
	addq	%rax, %rcx
	movq	-8(%rbp), %rdx          # 8-byte Reload
	movl	-4(%rdx,%rcx,4), %esi
	movq	-1176(%rbp), %rcx       # 8-byte Reload
	shlq	$4, %rcx
	addq	%rax, %rcx
	addl	(%rdx,%rcx,4), %esi
	movl	%esi, (%rdx,%rcx,4)
	addq	$1, %rax
	movq	-1176(%rbp), %rcx       # 8-byte Reload
	shlq	$4, %rcx
	addq	%rax, %rcx
	movl	-4(%rdx,%rcx,4), %esi
	movq	-1176(%rbp), %rcx       # 8-byte Reload
	shlq	$4, %rcx
	addq	%rax, %rcx
	addl	(%rdx,%rcx,4), %esi
	movl	%esi, (%rdx,%rcx,4)
	addq	$1, %rax
	movq	-1176(%rbp), %rcx       # 8-byte Reload
	shlq	$4, %rcx
	addq	%rax, %rcx
	movl	-4(%rdx,%rcx,4), %esi
	movq	-1176(%rbp), %rcx       # 8-byte Reload
	shlq	$4, %rcx
	addq	%rax, %rcx
	addl	(%rdx,%rcx,4), %esi
	movl	%esi, (%rdx,%rcx,4)
	addq	$1, %rax
	cmpq	$16, %rax
	movq	%rax, -1192(%rbp)       # 8-byte Spill
	jne	.LBB1_149
# %bb.148:                              # %for.inc9.48
                                        #   in Loop: Header=BB1_1 Depth=1
	movq	-1176(%rbp), %rax       # 8-byte Reload
	addq	$1, %rax
	movl	$1, %ecx
	movq	%rax, -1200(%rbp)       # 8-byte Spill
	movq	%rcx, -1208(%rbp)       # 8-byte Spill
	jmp	.LBB1_150
.LBB1_149:                              # %for.body3.3.48
                                        #   in Loop: Header=BB1_147 Depth=2
	movq	-1176(%rbp), %rax       # 8-byte Reload
	shlq	$4, %rax
	movq	-1192(%rbp), %rcx       # 8-byte Reload
	addq	%rcx, %rax
	movq	-8(%rbp), %rdx          # 8-byte Reload
	movl	-4(%rdx,%rax,4), %esi
	movq	-1176(%rbp), %rax       # 8-byte Reload
	shlq	$4, %rax
	addq	%rcx, %rax
	addl	(%rdx,%rax,4), %esi
	movl	%esi, (%rdx,%rax,4)
	addq	$1, %rcx
	movq	%rcx, -1184(%rbp)       # 8-byte Spill
	jmp	.LBB1_147
.LBB1_150:                              # %for.body3.49
                                        #   Parent Loop BB1_1 Depth=1
                                        # =>  This Inner Loop Header: Depth=2
	movq	-1208(%rbp), %rax       # 8-byte Reload
	movq	-1200(%rbp), %rcx       # 8-byte Reload
	shlq	$4, %rcx
	addq	%rax, %rcx
	movq	-8(%rbp), %rdx          # 8-byte Reload
	movl	-4(%rdx,%rcx,4), %esi
	movq	-1200(%rbp), %rcx       # 8-byte Reload
	shlq	$4, %rcx
	addq	%rax, %rcx
	addl	(%rdx,%rcx,4), %esi
	movl	%esi, (%rdx,%rcx,4)
	addq	$1, %rax
	movq	-1200(%rbp), %rcx       # 8-byte Reload
	shlq	$4, %rcx
	addq	%rax, %rcx
	movl	-4(%rdx,%rcx,4), %esi
	movq	-1200(%rbp), %rcx       # 8-byte Reload
	shlq	$4, %rcx
	addq	%rax, %rcx
	addl	(%rdx,%rcx,4), %esi
	movl	%esi, (%rdx,%rcx,4)
	addq	$1, %rax
	movq	-1200(%rbp), %rcx       # 8-byte Reload
	shlq	$4, %rcx
	addq	%rax, %rcx
	movl	-4(%rdx,%rcx,4), %esi
	movq	-1200(%rbp), %rcx       # 8-byte Reload
	shlq	$4, %rcx
	addq	%rax, %rcx
	addl	(%rdx,%rcx,4), %esi
	movl	%esi, (%rdx,%rcx,4)
	addq	$1, %rax
	cmpq	$16, %rax
	movq	%rax, -1216(%rbp)       # 8-byte Spill
	jne	.LBB1_152
# %bb.151:                              # %for.inc9.49
                                        #   in Loop: Header=BB1_1 Depth=1
	movq	-1200(%rbp), %rax       # 8-byte Reload
	addq	$1, %rax
	movl	$1, %ecx
	movq	%rax, -1224(%rbp)       # 8-byte Spill
	movq	%rcx, -1232(%rbp)       # 8-byte Spill
	jmp	.LBB1_153
.LBB1_152:                              # %for.body3.3.49
                                        #   in Loop: Header=BB1_150 Depth=2
	movq	-1200(%rbp), %rax       # 8-byte Reload
	shlq	$4, %rax
	movq	-1216(%rbp), %rcx       # 8-byte Reload
	addq	%rcx, %rax
	movq	-8(%rbp), %rdx          # 8-byte Reload
	movl	-4(%rdx,%rax,4), %esi
	movq	-1200(%rbp), %rax       # 8-byte Reload
	shlq	$4, %rax
	addq	%rcx, %rax
	addl	(%rdx,%rax,4), %esi
	movl	%esi, (%rdx,%rax,4)
	addq	$1, %rcx
	movq	%rcx, -1208(%rbp)       # 8-byte Spill
	jmp	.LBB1_150
.LBB1_153:                              # %for.body3.50
                                        #   Parent Loop BB1_1 Depth=1
                                        # =>  This Inner Loop Header: Depth=2
	movq	-1232(%rbp), %rax       # 8-byte Reload
	movq	-1224(%rbp), %rcx       # 8-byte Reload
	shlq	$4, %rcx
	addq	%rax, %rcx
	movq	-8(%rbp), %rdx          # 8-byte Reload
	movl	-4(%rdx,%rcx,4), %esi
	movq	-1224(%rbp), %rcx       # 8-byte Reload
	shlq	$4, %rcx
	addq	%rax, %rcx
	addl	(%rdx,%rcx,4), %esi
	movl	%esi, (%rdx,%rcx,4)
	addq	$1, %rax
	movq	-1224(%rbp), %rcx       # 8-byte Reload
	shlq	$4, %rcx
	addq	%rax, %rcx
	movl	-4(%rdx,%rcx,4), %esi
	movq	-1224(%rbp), %rcx       # 8-byte Reload
	shlq	$4, %rcx
	addq	%rax, %rcx
	addl	(%rdx,%rcx,4), %esi
	movl	%esi, (%rdx,%rcx,4)
	addq	$1, %rax
	movq	-1224(%rbp), %rcx       # 8-byte Reload
	shlq	$4, %rcx
	addq	%rax, %rcx
	movl	-4(%rdx,%rcx,4), %esi
	movq	-1224(%rbp), %rcx       # 8-byte Reload
	shlq	$4, %rcx
	addq	%rax, %rcx
	addl	(%rdx,%rcx,4), %esi
	movl	%esi, (%rdx,%rcx,4)
	addq	$1, %rax
	cmpq	$16, %rax
	movq	%rax, -1240(%rbp)       # 8-byte Spill
	jne	.LBB1_155
# %bb.154:                              # %for.inc9.50
                                        #   in Loop: Header=BB1_1 Depth=1
	movq	-1224(%rbp), %rax       # 8-byte Reload
	addq	$1, %rax
	movl	$1, %ecx
	movq	%rax, -1248(%rbp)       # 8-byte Spill
	movq	%rcx, -1256(%rbp)       # 8-byte Spill
	jmp	.LBB1_156
.LBB1_155:                              # %for.body3.3.50
                                        #   in Loop: Header=BB1_153 Depth=2
	movq	-1224(%rbp), %rax       # 8-byte Reload
	shlq	$4, %rax
	movq	-1240(%rbp), %rcx       # 8-byte Reload
	addq	%rcx, %rax
	movq	-8(%rbp), %rdx          # 8-byte Reload
	movl	-4(%rdx,%rax,4), %esi
	movq	-1224(%rbp), %rax       # 8-byte Reload
	shlq	$4, %rax
	addq	%rcx, %rax
	addl	(%rdx,%rax,4), %esi
	movl	%esi, (%rdx,%rax,4)
	addq	$1, %rcx
	movq	%rcx, -1232(%rbp)       # 8-byte Spill
	jmp	.LBB1_153
.LBB1_156:                              # %for.body3.51
                                        #   Parent Loop BB1_1 Depth=1
                                        # =>  This Inner Loop Header: Depth=2
	movq	-1256(%rbp), %rax       # 8-byte Reload
	movq	-1248(%rbp), %rcx       # 8-byte Reload
	shlq	$4, %rcx
	addq	%rax, %rcx
	movq	-8(%rbp), %rdx          # 8-byte Reload
	movl	-4(%rdx,%rcx,4), %esi
	movq	-1248(%rbp), %rcx       # 8-byte Reload
	shlq	$4, %rcx
	addq	%rax, %rcx
	addl	(%rdx,%rcx,4), %esi
	movl	%esi, (%rdx,%rcx,4)
	addq	$1, %rax
	movq	-1248(%rbp), %rcx       # 8-byte Reload
	shlq	$4, %rcx
	addq	%rax, %rcx
	movl	-4(%rdx,%rcx,4), %esi
	movq	-1248(%rbp), %rcx       # 8-byte Reload
	shlq	$4, %rcx
	addq	%rax, %rcx
	addl	(%rdx,%rcx,4), %esi
	movl	%esi, (%rdx,%rcx,4)
	addq	$1, %rax
	movq	-1248(%rbp), %rcx       # 8-byte Reload
	shlq	$4, %rcx
	addq	%rax, %rcx
	movl	-4(%rdx,%rcx,4), %esi
	movq	-1248(%rbp), %rcx       # 8-byte Reload
	shlq	$4, %rcx
	addq	%rax, %rcx
	addl	(%rdx,%rcx,4), %esi
	movl	%esi, (%rdx,%rcx,4)
	addq	$1, %rax
	cmpq	$16, %rax
	movq	%rax, -1264(%rbp)       # 8-byte Spill
	jne	.LBB1_158
# %bb.157:                              # %for.inc9.51
                                        #   in Loop: Header=BB1_1 Depth=1
	movq	-1248(%rbp), %rax       # 8-byte Reload
	addq	$1, %rax
	movl	$1, %ecx
	movq	%rax, -1272(%rbp)       # 8-byte Spill
	movq	%rcx, -1280(%rbp)       # 8-byte Spill
	jmp	.LBB1_159
.LBB1_158:                              # %for.body3.3.51
                                        #   in Loop: Header=BB1_156 Depth=2
	movq	-1248(%rbp), %rax       # 8-byte Reload
	shlq	$4, %rax
	movq	-1264(%rbp), %rcx       # 8-byte Reload
	addq	%rcx, %rax
	movq	-8(%rbp), %rdx          # 8-byte Reload
	movl	-4(%rdx,%rax,4), %esi
	movq	-1248(%rbp), %rax       # 8-byte Reload
	shlq	$4, %rax
	addq	%rcx, %rax
	addl	(%rdx,%rax,4), %esi
	movl	%esi, (%rdx,%rax,4)
	addq	$1, %rcx
	movq	%rcx, -1256(%rbp)       # 8-byte Spill
	jmp	.LBB1_156
.LBB1_159:                              # %for.body3.52
                                        #   Parent Loop BB1_1 Depth=1
                                        # =>  This Inner Loop Header: Depth=2
	movq	-1280(%rbp), %rax       # 8-byte Reload
	movq	-1272(%rbp), %rcx       # 8-byte Reload
	shlq	$4, %rcx
	addq	%rax, %rcx
	movq	-8(%rbp), %rdx          # 8-byte Reload
	movl	-4(%rdx,%rcx,4), %esi
	movq	-1272(%rbp), %rcx       # 8-byte Reload
	shlq	$4, %rcx
	addq	%rax, %rcx
	addl	(%rdx,%rcx,4), %esi
	movl	%esi, (%rdx,%rcx,4)
	addq	$1, %rax
	movq	-1272(%rbp), %rcx       # 8-byte Reload
	shlq	$4, %rcx
	addq	%rax, %rcx
	movl	-4(%rdx,%rcx,4), %esi
	movq	-1272(%rbp), %rcx       # 8-byte Reload
	shlq	$4, %rcx
	addq	%rax, %rcx
	addl	(%rdx,%rcx,4), %esi
	movl	%esi, (%rdx,%rcx,4)
	addq	$1, %rax
	movq	-1272(%rbp), %rcx       # 8-byte Reload
	shlq	$4, %rcx
	addq	%rax, %rcx
	movl	-4(%rdx,%rcx,4), %esi
	movq	-1272(%rbp), %rcx       # 8-byte Reload
	shlq	$4, %rcx
	addq	%rax, %rcx
	addl	(%rdx,%rcx,4), %esi
	movl	%esi, (%rdx,%rcx,4)
	addq	$1, %rax
	cmpq	$16, %rax
	movq	%rax, -1288(%rbp)       # 8-byte Spill
	jne	.LBB1_161
# %bb.160:                              # %for.inc9.52
                                        #   in Loop: Header=BB1_1 Depth=1
	movq	-1272(%rbp), %rax       # 8-byte Reload
	addq	$1, %rax
	movl	$1, %ecx
	movq	%rax, -1296(%rbp)       # 8-byte Spill
	movq	%rcx, -1304(%rbp)       # 8-byte Spill
	jmp	.LBB1_162
.LBB1_161:                              # %for.body3.3.52
                                        #   in Loop: Header=BB1_159 Depth=2
	movq	-1272(%rbp), %rax       # 8-byte Reload
	shlq	$4, %rax
	movq	-1288(%rbp), %rcx       # 8-byte Reload
	addq	%rcx, %rax
	movq	-8(%rbp), %rdx          # 8-byte Reload
	movl	-4(%rdx,%rax,4), %esi
	movq	-1272(%rbp), %rax       # 8-byte Reload
	shlq	$4, %rax
	addq	%rcx, %rax
	addl	(%rdx,%rax,4), %esi
	movl	%esi, (%rdx,%rax,4)
	addq	$1, %rcx
	movq	%rcx, -1280(%rbp)       # 8-byte Spill
	jmp	.LBB1_159
.LBB1_162:                              # %for.body3.53
                                        #   Parent Loop BB1_1 Depth=1
                                        # =>  This Inner Loop Header: Depth=2
	movq	-1304(%rbp), %rax       # 8-byte Reload
	movq	-1296(%rbp), %rcx       # 8-byte Reload
	shlq	$4, %rcx
	addq	%rax, %rcx
	movq	-8(%rbp), %rdx          # 8-byte Reload
	movl	-4(%rdx,%rcx,4), %esi
	movq	-1296(%rbp), %rcx       # 8-byte Reload
	shlq	$4, %rcx
	addq	%rax, %rcx
	addl	(%rdx,%rcx,4), %esi
	movl	%esi, (%rdx,%rcx,4)
	addq	$1, %rax
	movq	-1296(%rbp), %rcx       # 8-byte Reload
	shlq	$4, %rcx
	addq	%rax, %rcx
	movl	-4(%rdx,%rcx,4), %esi
	movq	-1296(%rbp), %rcx       # 8-byte Reload
	shlq	$4, %rcx
	addq	%rax, %rcx
	addl	(%rdx,%rcx,4), %esi
	movl	%esi, (%rdx,%rcx,4)
	addq	$1, %rax
	movq	-1296(%rbp), %rcx       # 8-byte Reload
	shlq	$4, %rcx
	addq	%rax, %rcx
	movl	-4(%rdx,%rcx,4), %esi
	movq	-1296(%rbp), %rcx       # 8-byte Reload
	shlq	$4, %rcx
	addq	%rax, %rcx
	addl	(%rdx,%rcx,4), %esi
	movl	%esi, (%rdx,%rcx,4)
	addq	$1, %rax
	cmpq	$16, %rax
	movq	%rax, -1312(%rbp)       # 8-byte Spill
	jne	.LBB1_164
# %bb.163:                              # %for.inc9.53
                                        #   in Loop: Header=BB1_1 Depth=1
	movq	-1296(%rbp), %rax       # 8-byte Reload
	addq	$1, %rax
	movl	$1, %ecx
	movq	%rax, -1320(%rbp)       # 8-byte Spill
	movq	%rcx, -1328(%rbp)       # 8-byte Spill
	jmp	.LBB1_165
.LBB1_164:                              # %for.body3.3.53
                                        #   in Loop: Header=BB1_162 Depth=2
	movq	-1296(%rbp), %rax       # 8-byte Reload
	shlq	$4, %rax
	movq	-1312(%rbp), %rcx       # 8-byte Reload
	addq	%rcx, %rax
	movq	-8(%rbp), %rdx          # 8-byte Reload
	movl	-4(%rdx,%rax,4), %esi
	movq	-1296(%rbp), %rax       # 8-byte Reload
	shlq	$4, %rax
	addq	%rcx, %rax
	addl	(%rdx,%rax,4), %esi
	movl	%esi, (%rdx,%rax,4)
	addq	$1, %rcx
	movq	%rcx, -1304(%rbp)       # 8-byte Spill
	jmp	.LBB1_162
.LBB1_165:                              # %for.body3.54
                                        #   Parent Loop BB1_1 Depth=1
                                        # =>  This Inner Loop Header: Depth=2
	movq	-1328(%rbp), %rax       # 8-byte Reload
	movq	-1320(%rbp), %rcx       # 8-byte Reload
	shlq	$4, %rcx
	addq	%rax, %rcx
	movq	-8(%rbp), %rdx          # 8-byte Reload
	movl	-4(%rdx,%rcx,4), %esi
	movq	-1320(%rbp), %rcx       # 8-byte Reload
	shlq	$4, %rcx
	addq	%rax, %rcx
	addl	(%rdx,%rcx,4), %esi
	movl	%esi, (%rdx,%rcx,4)
	addq	$1, %rax
	movq	-1320(%rbp), %rcx       # 8-byte Reload
	shlq	$4, %rcx
	addq	%rax, %rcx
	movl	-4(%rdx,%rcx,4), %esi
	movq	-1320(%rbp), %rcx       # 8-byte Reload
	shlq	$4, %rcx
	addq	%rax, %rcx
	addl	(%rdx,%rcx,4), %esi
	movl	%esi, (%rdx,%rcx,4)
	addq	$1, %rax
	movq	-1320(%rbp), %rcx       # 8-byte Reload
	shlq	$4, %rcx
	addq	%rax, %rcx
	movl	-4(%rdx,%rcx,4), %esi
	movq	-1320(%rbp), %rcx       # 8-byte Reload
	shlq	$4, %rcx
	addq	%rax, %rcx
	addl	(%rdx,%rcx,4), %esi
	movl	%esi, (%rdx,%rcx,4)
	addq	$1, %rax
	cmpq	$16, %rax
	movq	%rax, -1336(%rbp)       # 8-byte Spill
	jne	.LBB1_167
# %bb.166:                              # %for.inc9.54
                                        #   in Loop: Header=BB1_1 Depth=1
	movq	-1320(%rbp), %rax       # 8-byte Reload
	addq	$1, %rax
	movl	$1, %ecx
	movq	%rax, -1344(%rbp)       # 8-byte Spill
	movq	%rcx, -1352(%rbp)       # 8-byte Spill
	jmp	.LBB1_168
.LBB1_167:                              # %for.body3.3.54
                                        #   in Loop: Header=BB1_165 Depth=2
	movq	-1320(%rbp), %rax       # 8-byte Reload
	shlq	$4, %rax
	movq	-1336(%rbp), %rcx       # 8-byte Reload
	addq	%rcx, %rax
	movq	-8(%rbp), %rdx          # 8-byte Reload
	movl	-4(%rdx,%rax,4), %esi
	movq	-1320(%rbp), %rax       # 8-byte Reload
	shlq	$4, %rax
	addq	%rcx, %rax
	addl	(%rdx,%rax,4), %esi
	movl	%esi, (%rdx,%rax,4)
	addq	$1, %rcx
	movq	%rcx, -1328(%rbp)       # 8-byte Spill
	jmp	.LBB1_165
.LBB1_168:                              # %for.body3.55
                                        #   Parent Loop BB1_1 Depth=1
                                        # =>  This Inner Loop Header: Depth=2
	movq	-1352(%rbp), %rax       # 8-byte Reload
	movq	-1344(%rbp), %rcx       # 8-byte Reload
	shlq	$4, %rcx
	addq	%rax, %rcx
	movq	-8(%rbp), %rdx          # 8-byte Reload
	movl	-4(%rdx,%rcx,4), %esi
	movq	-1344(%rbp), %rcx       # 8-byte Reload
	shlq	$4, %rcx
	addq	%rax, %rcx
	addl	(%rdx,%rcx,4), %esi
	movl	%esi, (%rdx,%rcx,4)
	addq	$1, %rax
	movq	-1344(%rbp), %rcx       # 8-byte Reload
	shlq	$4, %rcx
	addq	%rax, %rcx
	movl	-4(%rdx,%rcx,4), %esi
	movq	-1344(%rbp), %rcx       # 8-byte Reload
	shlq	$4, %rcx
	addq	%rax, %rcx
	addl	(%rdx,%rcx,4), %esi
	movl	%esi, (%rdx,%rcx,4)
	addq	$1, %rax
	movq	-1344(%rbp), %rcx       # 8-byte Reload
	shlq	$4, %rcx
	addq	%rax, %rcx
	movl	-4(%rdx,%rcx,4), %esi
	movq	-1344(%rbp), %rcx       # 8-byte Reload
	shlq	$4, %rcx
	addq	%rax, %rcx
	addl	(%rdx,%rcx,4), %esi
	movl	%esi, (%rdx,%rcx,4)
	addq	$1, %rax
	cmpq	$16, %rax
	movq	%rax, -1360(%rbp)       # 8-byte Spill
	jne	.LBB1_170
# %bb.169:                              # %for.inc9.55
                                        #   in Loop: Header=BB1_1 Depth=1
	movq	-1344(%rbp), %rax       # 8-byte Reload
	addq	$1, %rax
	movl	$1, %ecx
	movq	%rax, -1368(%rbp)       # 8-byte Spill
	movq	%rcx, -1376(%rbp)       # 8-byte Spill
	jmp	.LBB1_171
.LBB1_170:                              # %for.body3.3.55
                                        #   in Loop: Header=BB1_168 Depth=2
	movq	-1344(%rbp), %rax       # 8-byte Reload
	shlq	$4, %rax
	movq	-1360(%rbp), %rcx       # 8-byte Reload
	addq	%rcx, %rax
	movq	-8(%rbp), %rdx          # 8-byte Reload
	movl	-4(%rdx,%rax,4), %esi
	movq	-1344(%rbp), %rax       # 8-byte Reload
	shlq	$4, %rax
	addq	%rcx, %rax
	addl	(%rdx,%rax,4), %esi
	movl	%esi, (%rdx,%rax,4)
	addq	$1, %rcx
	movq	%rcx, -1352(%rbp)       # 8-byte Spill
	jmp	.LBB1_168
.LBB1_171:                              # %for.body3.56
                                        #   Parent Loop BB1_1 Depth=1
                                        # =>  This Inner Loop Header: Depth=2
	movq	-1376(%rbp), %rax       # 8-byte Reload
	movq	-1368(%rbp), %rcx       # 8-byte Reload
	shlq	$4, %rcx
	addq	%rax, %rcx
	movq	-8(%rbp), %rdx          # 8-byte Reload
	movl	-4(%rdx,%rcx,4), %esi
	movq	-1368(%rbp), %rcx       # 8-byte Reload
	shlq	$4, %rcx
	addq	%rax, %rcx
	addl	(%rdx,%rcx,4), %esi
	movl	%esi, (%rdx,%rcx,4)
	addq	$1, %rax
	movq	-1368(%rbp), %rcx       # 8-byte Reload
	shlq	$4, %rcx
	addq	%rax, %rcx
	movl	-4(%rdx,%rcx,4), %esi
	movq	-1368(%rbp), %rcx       # 8-byte Reload
	shlq	$4, %rcx
	addq	%rax, %rcx
	addl	(%rdx,%rcx,4), %esi
	movl	%esi, (%rdx,%rcx,4)
	addq	$1, %rax
	movq	-1368(%rbp), %rcx       # 8-byte Reload
	shlq	$4, %rcx
	addq	%rax, %rcx
	movl	-4(%rdx,%rcx,4), %esi
	movq	-1368(%rbp), %rcx       # 8-byte Reload
	shlq	$4, %rcx
	addq	%rax, %rcx
	addl	(%rdx,%rcx,4), %esi
	movl	%esi, (%rdx,%rcx,4)
	addq	$1, %rax
	cmpq	$16, %rax
	movq	%rax, -1384(%rbp)       # 8-byte Spill
	jne	.LBB1_173
# %bb.172:                              # %for.inc9.56
                                        #   in Loop: Header=BB1_1 Depth=1
	movq	-1368(%rbp), %rax       # 8-byte Reload
	addq	$1, %rax
	movl	$1, %ecx
	movq	%rax, -1392(%rbp)       # 8-byte Spill
	movq	%rcx, -1400(%rbp)       # 8-byte Spill
	jmp	.LBB1_174
.LBB1_173:                              # %for.body3.3.56
                                        #   in Loop: Header=BB1_171 Depth=2
	movq	-1368(%rbp), %rax       # 8-byte Reload
	shlq	$4, %rax
	movq	-1384(%rbp), %rcx       # 8-byte Reload
	addq	%rcx, %rax
	movq	-8(%rbp), %rdx          # 8-byte Reload
	movl	-4(%rdx,%rax,4), %esi
	movq	-1368(%rbp), %rax       # 8-byte Reload
	shlq	$4, %rax
	addq	%rcx, %rax
	addl	(%rdx,%rax,4), %esi
	movl	%esi, (%rdx,%rax,4)
	addq	$1, %rcx
	movq	%rcx, -1376(%rbp)       # 8-byte Spill
	jmp	.LBB1_171
.LBB1_174:                              # %for.body3.57
                                        #   Parent Loop BB1_1 Depth=1
                                        # =>  This Inner Loop Header: Depth=2
	movq	-1400(%rbp), %rax       # 8-byte Reload
	movq	-1392(%rbp), %rcx       # 8-byte Reload
	shlq	$4, %rcx
	addq	%rax, %rcx
	movq	-8(%rbp), %rdx          # 8-byte Reload
	movl	-4(%rdx,%rcx,4), %esi
	movq	-1392(%rbp), %rcx       # 8-byte Reload
	shlq	$4, %rcx
	addq	%rax, %rcx
	addl	(%rdx,%rcx,4), %esi
	movl	%esi, (%rdx,%rcx,4)
	addq	$1, %rax
	movq	-1392(%rbp), %rcx       # 8-byte Reload
	shlq	$4, %rcx
	addq	%rax, %rcx
	movl	-4(%rdx,%rcx,4), %esi
	movq	-1392(%rbp), %rcx       # 8-byte Reload
	shlq	$4, %rcx
	addq	%rax, %rcx
	addl	(%rdx,%rcx,4), %esi
	movl	%esi, (%rdx,%rcx,4)
	addq	$1, %rax
	movq	-1392(%rbp), %rcx       # 8-byte Reload
	shlq	$4, %rcx
	addq	%rax, %rcx
	movl	-4(%rdx,%rcx,4), %esi
	movq	-1392(%rbp), %rcx       # 8-byte Reload
	shlq	$4, %rcx
	addq	%rax, %rcx
	addl	(%rdx,%rcx,4), %esi
	movl	%esi, (%rdx,%rcx,4)
	addq	$1, %rax
	cmpq	$16, %rax
	movq	%rax, -1408(%rbp)       # 8-byte Spill
	jne	.LBB1_176
# %bb.175:                              # %for.inc9.57
                                        #   in Loop: Header=BB1_1 Depth=1
	movq	-1392(%rbp), %rax       # 8-byte Reload
	addq	$1, %rax
	movl	$1, %ecx
	movq	%rax, -1416(%rbp)       # 8-byte Spill
	movq	%rcx, -1424(%rbp)       # 8-byte Spill
	jmp	.LBB1_177
.LBB1_176:                              # %for.body3.3.57
                                        #   in Loop: Header=BB1_174 Depth=2
	movq	-1392(%rbp), %rax       # 8-byte Reload
	shlq	$4, %rax
	movq	-1408(%rbp), %rcx       # 8-byte Reload
	addq	%rcx, %rax
	movq	-8(%rbp), %rdx          # 8-byte Reload
	movl	-4(%rdx,%rax,4), %esi
	movq	-1392(%rbp), %rax       # 8-byte Reload
	shlq	$4, %rax
	addq	%rcx, %rax
	addl	(%rdx,%rax,4), %esi
	movl	%esi, (%rdx,%rax,4)
	addq	$1, %rcx
	movq	%rcx, -1400(%rbp)       # 8-byte Spill
	jmp	.LBB1_174
.LBB1_177:                              # %for.body3.58
                                        #   Parent Loop BB1_1 Depth=1
                                        # =>  This Inner Loop Header: Depth=2
	movq	-1424(%rbp), %rax       # 8-byte Reload
	movq	-1416(%rbp), %rcx       # 8-byte Reload
	shlq	$4, %rcx
	addq	%rax, %rcx
	movq	-8(%rbp), %rdx          # 8-byte Reload
	movl	-4(%rdx,%rcx,4), %esi
	movq	-1416(%rbp), %rcx       # 8-byte Reload
	shlq	$4, %rcx
	addq	%rax, %rcx
	addl	(%rdx,%rcx,4), %esi
	movl	%esi, (%rdx,%rcx,4)
	addq	$1, %rax
	movq	-1416(%rbp), %rcx       # 8-byte Reload
	shlq	$4, %rcx
	addq	%rax, %rcx
	movl	-4(%rdx,%rcx,4), %esi
	movq	-1416(%rbp), %rcx       # 8-byte Reload
	shlq	$4, %rcx
	addq	%rax, %rcx
	addl	(%rdx,%rcx,4), %esi
	movl	%esi, (%rdx,%rcx,4)
	addq	$1, %rax
	movq	-1416(%rbp), %rcx       # 8-byte Reload
	shlq	$4, %rcx
	addq	%rax, %rcx
	movl	-4(%rdx,%rcx,4), %esi
	movq	-1416(%rbp), %rcx       # 8-byte Reload
	shlq	$4, %rcx
	addq	%rax, %rcx
	addl	(%rdx,%rcx,4), %esi
	movl	%esi, (%rdx,%rcx,4)
	addq	$1, %rax
	cmpq	$16, %rax
	movq	%rax, -1432(%rbp)       # 8-byte Spill
	jne	.LBB1_179
# %bb.178:                              # %for.inc9.58
                                        #   in Loop: Header=BB1_1 Depth=1
	movq	-1416(%rbp), %rax       # 8-byte Reload
	addq	$1, %rax
	movl	$1, %ecx
	movq	%rax, -1440(%rbp)       # 8-byte Spill
	movq	%rcx, -1448(%rbp)       # 8-byte Spill
	jmp	.LBB1_180
.LBB1_179:                              # %for.body3.3.58
                                        #   in Loop: Header=BB1_177 Depth=2
	movq	-1416(%rbp), %rax       # 8-byte Reload
	shlq	$4, %rax
	movq	-1432(%rbp), %rcx       # 8-byte Reload
	addq	%rcx, %rax
	movq	-8(%rbp), %rdx          # 8-byte Reload
	movl	-4(%rdx,%rax,4), %esi
	movq	-1416(%rbp), %rax       # 8-byte Reload
	shlq	$4, %rax
	addq	%rcx, %rax
	addl	(%rdx,%rax,4), %esi
	movl	%esi, (%rdx,%rax,4)
	addq	$1, %rcx
	movq	%rcx, -1424(%rbp)       # 8-byte Spill
	jmp	.LBB1_177
.LBB1_180:                              # %for.body3.59
                                        #   Parent Loop BB1_1 Depth=1
                                        # =>  This Inner Loop Header: Depth=2
	movq	-1448(%rbp), %rax       # 8-byte Reload
	movq	-1440(%rbp), %rcx       # 8-byte Reload
	shlq	$4, %rcx
	addq	%rax, %rcx
	movq	-8(%rbp), %rdx          # 8-byte Reload
	movl	-4(%rdx,%rcx,4), %esi
	movq	-1440(%rbp), %rcx       # 8-byte Reload
	shlq	$4, %rcx
	addq	%rax, %rcx
	addl	(%rdx,%rcx,4), %esi
	movl	%esi, (%rdx,%rcx,4)
	addq	$1, %rax
	movq	-1440(%rbp), %rcx       # 8-byte Reload
	shlq	$4, %rcx
	addq	%rax, %rcx
	movl	-4(%rdx,%rcx,4), %esi
	movq	-1440(%rbp), %rcx       # 8-byte Reload
	shlq	$4, %rcx
	addq	%rax, %rcx
	addl	(%rdx,%rcx,4), %esi
	movl	%esi, (%rdx,%rcx,4)
	addq	$1, %rax
	movq	-1440(%rbp), %rcx       # 8-byte Reload
	shlq	$4, %rcx
	addq	%rax, %rcx
	movl	-4(%rdx,%rcx,4), %esi
	movq	-1440(%rbp), %rcx       # 8-byte Reload
	shlq	$4, %rcx
	addq	%rax, %rcx
	addl	(%rdx,%rcx,4), %esi
	movl	%esi, (%rdx,%rcx,4)
	addq	$1, %rax
	cmpq	$16, %rax
	movq	%rax, -1456(%rbp)       # 8-byte Spill
	jne	.LBB1_182
# %bb.181:                              # %for.inc9.59
                                        #   in Loop: Header=BB1_1 Depth=1
	movq	-1440(%rbp), %rax       # 8-byte Reload
	addq	$1, %rax
	movl	$1, %ecx
	movq	%rax, -1464(%rbp)       # 8-byte Spill
	movq	%rcx, -1472(%rbp)       # 8-byte Spill
	jmp	.LBB1_183
.LBB1_182:                              # %for.body3.3.59
                                        #   in Loop: Header=BB1_180 Depth=2
	movq	-1440(%rbp), %rax       # 8-byte Reload
	shlq	$4, %rax
	movq	-1456(%rbp), %rcx       # 8-byte Reload
	addq	%rcx, %rax
	movq	-8(%rbp), %rdx          # 8-byte Reload
	movl	-4(%rdx,%rax,4), %esi
	movq	-1440(%rbp), %rax       # 8-byte Reload
	shlq	$4, %rax
	addq	%rcx, %rax
	addl	(%rdx,%rax,4), %esi
	movl	%esi, (%rdx,%rax,4)
	addq	$1, %rcx
	movq	%rcx, -1448(%rbp)       # 8-byte Spill
	jmp	.LBB1_180
.LBB1_183:                              # %for.body3.60
                                        #   Parent Loop BB1_1 Depth=1
                                        # =>  This Inner Loop Header: Depth=2
	movq	-1472(%rbp), %rax       # 8-byte Reload
	movq	-1464(%rbp), %rcx       # 8-byte Reload
	shlq	$4, %rcx
	addq	%rax, %rcx
	movq	-8(%rbp), %rdx          # 8-byte Reload
	movl	-4(%rdx,%rcx,4), %esi
	movq	-1464(%rbp), %rcx       # 8-byte Reload
	shlq	$4, %rcx
	addq	%rax, %rcx
	addl	(%rdx,%rcx,4), %esi
	movl	%esi, (%rdx,%rcx,4)
	addq	$1, %rax
	movq	-1464(%rbp), %rcx       # 8-byte Reload
	shlq	$4, %rcx
	addq	%rax, %rcx
	movl	-4(%rdx,%rcx,4), %esi
	movq	-1464(%rbp), %rcx       # 8-byte Reload
	shlq	$4, %rcx
	addq	%rax, %rcx
	addl	(%rdx,%rcx,4), %esi
	movl	%esi, (%rdx,%rcx,4)
	addq	$1, %rax
	movq	-1464(%rbp), %rcx       # 8-byte Reload
	shlq	$4, %rcx
	addq	%rax, %rcx
	movl	-4(%rdx,%rcx,4), %esi
	movq	-1464(%rbp), %rcx       # 8-byte Reload
	shlq	$4, %rcx
	addq	%rax, %rcx
	addl	(%rdx,%rcx,4), %esi
	movl	%esi, (%rdx,%rcx,4)
	addq	$1, %rax
	cmpq	$16, %rax
	movq	%rax, -1480(%rbp)       # 8-byte Spill
	jne	.LBB1_185
# %bb.184:                              # %for.inc9.60
                                        #   in Loop: Header=BB1_1 Depth=1
	movq	-1464(%rbp), %rax       # 8-byte Reload
	addq	$1, %rax
	movl	$1, %ecx
	movq	%rax, -1488(%rbp)       # 8-byte Spill
	movq	%rcx, -1496(%rbp)       # 8-byte Spill
	jmp	.LBB1_186
.LBB1_185:                              # %for.body3.3.60
                                        #   in Loop: Header=BB1_183 Depth=2
	movq	-1464(%rbp), %rax       # 8-byte Reload
	shlq	$4, %rax
	movq	-1480(%rbp), %rcx       # 8-byte Reload
	addq	%rcx, %rax
	movq	-8(%rbp), %rdx          # 8-byte Reload
	movl	-4(%rdx,%rax,4), %esi
	movq	-1464(%rbp), %rax       # 8-byte Reload
	shlq	$4, %rax
	addq	%rcx, %rax
	addl	(%rdx,%rax,4), %esi
	movl	%esi, (%rdx,%rax,4)
	addq	$1, %rcx
	movq	%rcx, -1472(%rbp)       # 8-byte Spill
	jmp	.LBB1_183
.LBB1_186:                              # %for.body3.61
                                        #   Parent Loop BB1_1 Depth=1
                                        # =>  This Inner Loop Header: Depth=2
	movq	-1496(%rbp), %rax       # 8-byte Reload
	movq	-1488(%rbp), %rcx       # 8-byte Reload
	shlq	$4, %rcx
	addq	%rax, %rcx
	movq	-8(%rbp), %rdx          # 8-byte Reload
	movl	-4(%rdx,%rcx,4), %esi
	movq	-1488(%rbp), %rcx       # 8-byte Reload
	shlq	$4, %rcx
	addq	%rax, %rcx
	addl	(%rdx,%rcx,4), %esi
	movl	%esi, (%rdx,%rcx,4)
	addq	$1, %rax
	movq	-1488(%rbp), %rcx       # 8-byte Reload
	shlq	$4, %rcx
	addq	%rax, %rcx
	movl	-4(%rdx,%rcx,4), %esi
	movq	-1488(%rbp), %rcx       # 8-byte Reload
	shlq	$4, %rcx
	addq	%rax, %rcx
	addl	(%rdx,%rcx,4), %esi
	movl	%esi, (%rdx,%rcx,4)
	addq	$1, %rax
	movq	-1488(%rbp), %rcx       # 8-byte Reload
	shlq	$4, %rcx
	addq	%rax, %rcx
	movl	-4(%rdx,%rcx,4), %esi
	movq	-1488(%rbp), %rcx       # 8-byte Reload
	shlq	$4, %rcx
	addq	%rax, %rcx
	addl	(%rdx,%rcx,4), %esi
	movl	%esi, (%rdx,%rcx,4)
	addq	$1, %rax
	cmpq	$16, %rax
	movq	%rax, -1504(%rbp)       # 8-byte Spill
	jne	.LBB1_188
# %bb.187:                              # %for.inc9.61
                                        #   in Loop: Header=BB1_1 Depth=1
	movq	-1488(%rbp), %rax       # 8-byte Reload
	addq	$1, %rax
	movl	$1, %ecx
	movq	%rax, -1512(%rbp)       # 8-byte Spill
	movq	%rcx, -1520(%rbp)       # 8-byte Spill
	jmp	.LBB1_189
.LBB1_188:                              # %for.body3.3.61
                                        #   in Loop: Header=BB1_186 Depth=2
	movq	-1488(%rbp), %rax       # 8-byte Reload
	shlq	$4, %rax
	movq	-1504(%rbp), %rcx       # 8-byte Reload
	addq	%rcx, %rax
	movq	-8(%rbp), %rdx          # 8-byte Reload
	movl	-4(%rdx,%rax,4), %esi
	movq	-1488(%rbp), %rax       # 8-byte Reload
	shlq	$4, %rax
	addq	%rcx, %rax
	addl	(%rdx,%rax,4), %esi
	movl	%esi, (%rdx,%rax,4)
	addq	$1, %rcx
	movq	%rcx, -1496(%rbp)       # 8-byte Spill
	jmp	.LBB1_186
.LBB1_189:                              # %for.body3.62
                                        #   Parent Loop BB1_1 Depth=1
                                        # =>  This Inner Loop Header: Depth=2
	movq	-1520(%rbp), %rax       # 8-byte Reload
	movq	-1512(%rbp), %rcx       # 8-byte Reload
	shlq	$4, %rcx
	addq	%rax, %rcx
	movq	-8(%rbp), %rdx          # 8-byte Reload
	movl	-4(%rdx,%rcx,4), %esi
	movq	-1512(%rbp), %rcx       # 8-byte Reload
	shlq	$4, %rcx
	addq	%rax, %rcx
	addl	(%rdx,%rcx,4), %esi
	movl	%esi, (%rdx,%rcx,4)
	addq	$1, %rax
	movq	-1512(%rbp), %rcx       # 8-byte Reload
	shlq	$4, %rcx
	addq	%rax, %rcx
	movl	-4(%rdx,%rcx,4), %esi
	movq	-1512(%rbp), %rcx       # 8-byte Reload
	shlq	$4, %rcx
	addq	%rax, %rcx
	addl	(%rdx,%rcx,4), %esi
	movl	%esi, (%rdx,%rcx,4)
	addq	$1, %rax
	movq	-1512(%rbp), %rcx       # 8-byte Reload
	shlq	$4, %rcx
	addq	%rax, %rcx
	movl	-4(%rdx,%rcx,4), %esi
	movq	-1512(%rbp), %rcx       # 8-byte Reload
	shlq	$4, %rcx
	addq	%rax, %rcx
	addl	(%rdx,%rcx,4), %esi
	movl	%esi, (%rdx,%rcx,4)
	addq	$1, %rax
	cmpq	$16, %rax
	movq	%rax, -1528(%rbp)       # 8-byte Spill
	jne	.LBB1_191
# %bb.190:                              # %for.inc9.62
                                        #   in Loop: Header=BB1_1 Depth=1
	movq	-1512(%rbp), %rax       # 8-byte Reload
	addq	$1, %rax
	movl	$1, %ecx
	movq	%rax, -1536(%rbp)       # 8-byte Spill
	movq	%rcx, -1544(%rbp)       # 8-byte Spill
	jmp	.LBB1_192
.LBB1_191:                              # %for.body3.3.62
                                        #   in Loop: Header=BB1_189 Depth=2
	movq	-1512(%rbp), %rax       # 8-byte Reload
	shlq	$4, %rax
	movq	-1528(%rbp), %rcx       # 8-byte Reload
	addq	%rcx, %rax
	movq	-8(%rbp), %rdx          # 8-byte Reload
	movl	-4(%rdx,%rax,4), %esi
	movq	-1512(%rbp), %rax       # 8-byte Reload
	shlq	$4, %rax
	addq	%rcx, %rax
	addl	(%rdx,%rax,4), %esi
	movl	%esi, (%rdx,%rax,4)
	addq	$1, %rcx
	movq	%rcx, -1520(%rbp)       # 8-byte Spill
	jmp	.LBB1_189
.LBB1_192:                              # %for.body3.63
                                        #   Parent Loop BB1_1 Depth=1
                                        # =>  This Inner Loop Header: Depth=2
	movq	-1544(%rbp), %rax       # 8-byte Reload
	movq	-1536(%rbp), %rcx       # 8-byte Reload
	shlq	$4, %rcx
	addq	%rax, %rcx
	movq	-8(%rbp), %rdx          # 8-byte Reload
	movl	-4(%rdx,%rcx,4), %esi
	movq	-1536(%rbp), %rcx       # 8-byte Reload
	shlq	$4, %rcx
	addq	%rax, %rcx
	addl	(%rdx,%rcx,4), %esi
	movl	%esi, (%rdx,%rcx,4)
	addq	$1, %rax
	movq	-1536(%rbp), %rcx       # 8-byte Reload
	shlq	$4, %rcx
	addq	%rax, %rcx
	movl	-4(%rdx,%rcx,4), %esi
	movq	-1536(%rbp), %rcx       # 8-byte Reload
	shlq	$4, %rcx
	addq	%rax, %rcx
	addl	(%rdx,%rcx,4), %esi
	movl	%esi, (%rdx,%rcx,4)
	addq	$1, %rax
	movq	-1536(%rbp), %rcx       # 8-byte Reload
	shlq	$4, %rcx
	addq	%rax, %rcx
	movl	-4(%rdx,%rcx,4), %esi
	movq	-1536(%rbp), %rcx       # 8-byte Reload
	shlq	$4, %rcx
	addq	%rax, %rcx
	addl	(%rdx,%rcx,4), %esi
	movl	%esi, (%rdx,%rcx,4)
	addq	$1, %rax
	cmpq	$16, %rax
	movq	%rax, -1552(%rbp)       # 8-byte Spill
	jne	.LBB1_194
# %bb.193:                              # %for.inc9.63
                                        #   in Loop: Header=BB1_1 Depth=1
	movq	-1536(%rbp), %rax       # 8-byte Reload
	addq	$1, %rax
	movl	$1, %ecx
	movq	%rax, -1560(%rbp)       # 8-byte Spill
	movq	%rcx, -1568(%rbp)       # 8-byte Spill
	jmp	.LBB1_195
.LBB1_194:                              # %for.body3.3.63
                                        #   in Loop: Header=BB1_192 Depth=2
	movq	-1536(%rbp), %rax       # 8-byte Reload
	shlq	$4, %rax
	movq	-1552(%rbp), %rcx       # 8-byte Reload
	addq	%rcx, %rax
	movq	-8(%rbp), %rdx          # 8-byte Reload
	movl	-4(%rdx,%rax,4), %esi
	movq	-1536(%rbp), %rax       # 8-byte Reload
	shlq	$4, %rax
	addq	%rcx, %rax
	addl	(%rdx,%rax,4), %esi
	movl	%esi, (%rdx,%rax,4)
	addq	$1, %rcx
	movq	%rcx, -1544(%rbp)       # 8-byte Spill
	jmp	.LBB1_192
.LBB1_195:                              # %for.body3.64
                                        #   Parent Loop BB1_1 Depth=1
                                        # =>  This Inner Loop Header: Depth=2
	movq	-1568(%rbp), %rax       # 8-byte Reload
	movq	-1560(%rbp), %rcx       # 8-byte Reload
	shlq	$4, %rcx
	addq	%rax, %rcx
	movq	-8(%rbp), %rdx          # 8-byte Reload
	movl	-4(%rdx,%rcx,4), %esi
	movq	-1560(%rbp), %rcx       # 8-byte Reload
	shlq	$4, %rcx
	addq	%rax, %rcx
	addl	(%rdx,%rcx,4), %esi
	movl	%esi, (%rdx,%rcx,4)
	addq	$1, %rax
	movq	-1560(%rbp), %rcx       # 8-byte Reload
	shlq	$4, %rcx
	addq	%rax, %rcx
	movl	-4(%rdx,%rcx,4), %esi
	movq	-1560(%rbp), %rcx       # 8-byte Reload
	shlq	$4, %rcx
	addq	%rax, %rcx
	addl	(%rdx,%rcx,4), %esi
	movl	%esi, (%rdx,%rcx,4)
	addq	$1, %rax
	movq	-1560(%rbp), %rcx       # 8-byte Reload
	shlq	$4, %rcx
	addq	%rax, %rcx
	movl	-4(%rdx,%rcx,4), %esi
	movq	-1560(%rbp), %rcx       # 8-byte Reload
	shlq	$4, %rcx
	addq	%rax, %rcx
	addl	(%rdx,%rcx,4), %esi
	movl	%esi, (%rdx,%rcx,4)
	addq	$1, %rax
	cmpq	$16, %rax
	movq	%rax, -1576(%rbp)       # 8-byte Spill
	jne	.LBB1_197
# %bb.196:                              # %for.inc9.64
                                        #   in Loop: Header=BB1_1 Depth=1
	movq	-1560(%rbp), %rax       # 8-byte Reload
	addq	$1, %rax
	movl	$1, %ecx
	movq	%rax, -1584(%rbp)       # 8-byte Spill
	movq	%rcx, -1592(%rbp)       # 8-byte Spill
	jmp	.LBB1_198
.LBB1_197:                              # %for.body3.3.64
                                        #   in Loop: Header=BB1_195 Depth=2
	movq	-1560(%rbp), %rax       # 8-byte Reload
	shlq	$4, %rax
	movq	-1576(%rbp), %rcx       # 8-byte Reload
	addq	%rcx, %rax
	movq	-8(%rbp), %rdx          # 8-byte Reload
	movl	-4(%rdx,%rax,4), %esi
	movq	-1560(%rbp), %rax       # 8-byte Reload
	shlq	$4, %rax
	addq	%rcx, %rax
	addl	(%rdx,%rax,4), %esi
	movl	%esi, (%rdx,%rax,4)
	addq	$1, %rcx
	movq	%rcx, -1568(%rbp)       # 8-byte Spill
	jmp	.LBB1_195
.LBB1_198:                              # %for.body3.65
                                        #   Parent Loop BB1_1 Depth=1
                                        # =>  This Inner Loop Header: Depth=2
	movq	-1592(%rbp), %rax       # 8-byte Reload
	movq	-1584(%rbp), %rcx       # 8-byte Reload
	shlq	$4, %rcx
	addq	%rax, %rcx
	movq	-8(%rbp), %rdx          # 8-byte Reload
	movl	-4(%rdx,%rcx,4), %esi
	movq	-1584(%rbp), %rcx       # 8-byte Reload
	shlq	$4, %rcx
	addq	%rax, %rcx
	addl	(%rdx,%rcx,4), %esi
	movl	%esi, (%rdx,%rcx,4)
	addq	$1, %rax
	movq	-1584(%rbp), %rcx       # 8-byte Reload
	shlq	$4, %rcx
	addq	%rax, %rcx
	movl	-4(%rdx,%rcx,4), %esi
	movq	-1584(%rbp), %rcx       # 8-byte Reload
	shlq	$4, %rcx
	addq	%rax, %rcx
	addl	(%rdx,%rcx,4), %esi
	movl	%esi, (%rdx,%rcx,4)
	addq	$1, %rax
	movq	-1584(%rbp), %rcx       # 8-byte Reload
	shlq	$4, %rcx
	addq	%rax, %rcx
	movl	-4(%rdx,%rcx,4), %esi
	movq	-1584(%rbp), %rcx       # 8-byte Reload
	shlq	$4, %rcx
	addq	%rax, %rcx
	addl	(%rdx,%rcx,4), %esi
	movl	%esi, (%rdx,%rcx,4)
	addq	$1, %rax
	cmpq	$16, %rax
	movq	%rax, -1600(%rbp)       # 8-byte Spill
	jne	.LBB1_200
# %bb.199:                              # %for.inc9.65
                                        #   in Loop: Header=BB1_1 Depth=1
	movq	-1584(%rbp), %rax       # 8-byte Reload
	addq	$1, %rax
	movl	$1, %ecx
	movq	%rax, -1608(%rbp)       # 8-byte Spill
	movq	%rcx, -1616(%rbp)       # 8-byte Spill
	jmp	.LBB1_201
.LBB1_200:                              # %for.body3.3.65
                                        #   in Loop: Header=BB1_198 Depth=2
	movq	-1584(%rbp), %rax       # 8-byte Reload
	shlq	$4, %rax
	movq	-1600(%rbp), %rcx       # 8-byte Reload
	addq	%rcx, %rax
	movq	-8(%rbp), %rdx          # 8-byte Reload
	movl	-4(%rdx,%rax,4), %esi
	movq	-1584(%rbp), %rax       # 8-byte Reload
	shlq	$4, %rax
	addq	%rcx, %rax
	addl	(%rdx,%rax,4), %esi
	movl	%esi, (%rdx,%rax,4)
	addq	$1, %rcx
	movq	%rcx, -1592(%rbp)       # 8-byte Spill
	jmp	.LBB1_198
.LBB1_201:                              # %for.body3.66
                                        #   Parent Loop BB1_1 Depth=1
                                        # =>  This Inner Loop Header: Depth=2
	movq	-1616(%rbp), %rax       # 8-byte Reload
	movq	-1608(%rbp), %rcx       # 8-byte Reload
	shlq	$4, %rcx
	addq	%rax, %rcx
	movq	-8(%rbp), %rdx          # 8-byte Reload
	movl	-4(%rdx,%rcx,4), %esi
	movq	-1608(%rbp), %rcx       # 8-byte Reload
	shlq	$4, %rcx
	addq	%rax, %rcx
	addl	(%rdx,%rcx,4), %esi
	movl	%esi, (%rdx,%rcx,4)
	addq	$1, %rax
	movq	-1608(%rbp), %rcx       # 8-byte Reload
	shlq	$4, %rcx
	addq	%rax, %rcx
	movl	-4(%rdx,%rcx,4), %esi
	movq	-1608(%rbp), %rcx       # 8-byte Reload
	shlq	$4, %rcx
	addq	%rax, %rcx
	addl	(%rdx,%rcx,4), %esi
	movl	%esi, (%rdx,%rcx,4)
	addq	$1, %rax
	movq	-1608(%rbp), %rcx       # 8-byte Reload
	shlq	$4, %rcx
	addq	%rax, %rcx
	movl	-4(%rdx,%rcx,4), %esi
	movq	-1608(%rbp), %rcx       # 8-byte Reload
	shlq	$4, %rcx
	addq	%rax, %rcx
	addl	(%rdx,%rcx,4), %esi
	movl	%esi, (%rdx,%rcx,4)
	addq	$1, %rax
	cmpq	$16, %rax
	movq	%rax, -1624(%rbp)       # 8-byte Spill
	jne	.LBB1_203
# %bb.202:                              # %for.inc9.66
                                        #   in Loop: Header=BB1_1 Depth=1
	movq	-1608(%rbp), %rax       # 8-byte Reload
	addq	$1, %rax
	movl	$1, %ecx
	movq	%rax, -1632(%rbp)       # 8-byte Spill
	movq	%rcx, -1640(%rbp)       # 8-byte Spill
	jmp	.LBB1_204
.LBB1_203:                              # %for.body3.3.66
                                        #   in Loop: Header=BB1_201 Depth=2
	movq	-1608(%rbp), %rax       # 8-byte Reload
	shlq	$4, %rax
	movq	-1624(%rbp), %rcx       # 8-byte Reload
	addq	%rcx, %rax
	movq	-8(%rbp), %rdx          # 8-byte Reload
	movl	-4(%rdx,%rax,4), %esi
	movq	-1608(%rbp), %rax       # 8-byte Reload
	shlq	$4, %rax
	addq	%rcx, %rax
	addl	(%rdx,%rax,4), %esi
	movl	%esi, (%rdx,%rax,4)
	addq	$1, %rcx
	movq	%rcx, -1616(%rbp)       # 8-byte Spill
	jmp	.LBB1_201
.LBB1_204:                              # %for.body3.67
                                        #   Parent Loop BB1_1 Depth=1
                                        # =>  This Inner Loop Header: Depth=2
	movq	-1640(%rbp), %rax       # 8-byte Reload
	movq	-1632(%rbp), %rcx       # 8-byte Reload
	shlq	$4, %rcx
	addq	%rax, %rcx
	movq	-8(%rbp), %rdx          # 8-byte Reload
	movl	-4(%rdx,%rcx,4), %esi
	movq	-1632(%rbp), %rcx       # 8-byte Reload
	shlq	$4, %rcx
	addq	%rax, %rcx
	addl	(%rdx,%rcx,4), %esi
	movl	%esi, (%rdx,%rcx,4)
	addq	$1, %rax
	movq	-1632(%rbp), %rcx       # 8-byte Reload
	shlq	$4, %rcx
	addq	%rax, %rcx
	movl	-4(%rdx,%rcx,4), %esi
	movq	-1632(%rbp), %rcx       # 8-byte Reload
	shlq	$4, %rcx
	addq	%rax, %rcx
	addl	(%rdx,%rcx,4), %esi
	movl	%esi, (%rdx,%rcx,4)
	addq	$1, %rax
	movq	-1632(%rbp), %rcx       # 8-byte Reload
	shlq	$4, %rcx
	addq	%rax, %rcx
	movl	-4(%rdx,%rcx,4), %esi
	movq	-1632(%rbp), %rcx       # 8-byte Reload
	shlq	$4, %rcx
	addq	%rax, %rcx
	addl	(%rdx,%rcx,4), %esi
	movl	%esi, (%rdx,%rcx,4)
	addq	$1, %rax
	cmpq	$16, %rax
	movq	%rax, -1648(%rbp)       # 8-byte Spill
	jne	.LBB1_206
# %bb.205:                              # %for.inc9.67
                                        #   in Loop: Header=BB1_1 Depth=1
	movq	-1632(%rbp), %rax       # 8-byte Reload
	addq	$1, %rax
	movl	$1, %ecx
	movq	%rax, -1656(%rbp)       # 8-byte Spill
	movq	%rcx, -1664(%rbp)       # 8-byte Spill
	jmp	.LBB1_207
.LBB1_206:                              # %for.body3.3.67
                                        #   in Loop: Header=BB1_204 Depth=2
	movq	-1632(%rbp), %rax       # 8-byte Reload
	shlq	$4, %rax
	movq	-1648(%rbp), %rcx       # 8-byte Reload
	addq	%rcx, %rax
	movq	-8(%rbp), %rdx          # 8-byte Reload
	movl	-4(%rdx,%rax,4), %esi
	movq	-1632(%rbp), %rax       # 8-byte Reload
	shlq	$4, %rax
	addq	%rcx, %rax
	addl	(%rdx,%rax,4), %esi
	movl	%esi, (%rdx,%rax,4)
	addq	$1, %rcx
	movq	%rcx, -1640(%rbp)       # 8-byte Spill
	jmp	.LBB1_204
.LBB1_207:                              # %for.body3.68
                                        #   Parent Loop BB1_1 Depth=1
                                        # =>  This Inner Loop Header: Depth=2
	movq	-1664(%rbp), %rax       # 8-byte Reload
	movq	-1656(%rbp), %rcx       # 8-byte Reload
	shlq	$4, %rcx
	addq	%rax, %rcx
	movq	-8(%rbp), %rdx          # 8-byte Reload
	movl	-4(%rdx,%rcx,4), %esi
	movq	-1656(%rbp), %rcx       # 8-byte Reload
	shlq	$4, %rcx
	addq	%rax, %rcx
	addl	(%rdx,%rcx,4), %esi
	movl	%esi, (%rdx,%rcx,4)
	addq	$1, %rax
	movq	-1656(%rbp), %rcx       # 8-byte Reload
	shlq	$4, %rcx
	addq	%rax, %rcx
	movl	-4(%rdx,%rcx,4), %esi
	movq	-1656(%rbp), %rcx       # 8-byte Reload
	shlq	$4, %rcx
	addq	%rax, %rcx
	addl	(%rdx,%rcx,4), %esi
	movl	%esi, (%rdx,%rcx,4)
	addq	$1, %rax
	movq	-1656(%rbp), %rcx       # 8-byte Reload
	shlq	$4, %rcx
	addq	%rax, %rcx
	movl	-4(%rdx,%rcx,4), %esi
	movq	-1656(%rbp), %rcx       # 8-byte Reload
	shlq	$4, %rcx
	addq	%rax, %rcx
	addl	(%rdx,%rcx,4), %esi
	movl	%esi, (%rdx,%rcx,4)
	addq	$1, %rax
	cmpq	$16, %rax
	movq	%rax, -1672(%rbp)       # 8-byte Spill
	jne	.LBB1_209
# %bb.208:                              # %for.inc9.68
                                        #   in Loop: Header=BB1_1 Depth=1
	movq	-1656(%rbp), %rax       # 8-byte Reload
	addq	$1, %rax
	movl	$1, %ecx
	movq	%rax, -1680(%rbp)       # 8-byte Spill
	movq	%rcx, -1688(%rbp)       # 8-byte Spill
	jmp	.LBB1_210
.LBB1_209:                              # %for.body3.3.68
                                        #   in Loop: Header=BB1_207 Depth=2
	movq	-1656(%rbp), %rax       # 8-byte Reload
	shlq	$4, %rax
	movq	-1672(%rbp), %rcx       # 8-byte Reload
	addq	%rcx, %rax
	movq	-8(%rbp), %rdx          # 8-byte Reload
	movl	-4(%rdx,%rax,4), %esi
	movq	-1656(%rbp), %rax       # 8-byte Reload
	shlq	$4, %rax
	addq	%rcx, %rax
	addl	(%rdx,%rax,4), %esi
	movl	%esi, (%rdx,%rax,4)
	addq	$1, %rcx
	movq	%rcx, -1664(%rbp)       # 8-byte Spill
	jmp	.LBB1_207
.LBB1_210:                              # %for.body3.69
                                        #   Parent Loop BB1_1 Depth=1
                                        # =>  This Inner Loop Header: Depth=2
	movq	-1688(%rbp), %rax       # 8-byte Reload
	movq	-1680(%rbp), %rcx       # 8-byte Reload
	shlq	$4, %rcx
	addq	%rax, %rcx
	movq	-8(%rbp), %rdx          # 8-byte Reload
	movl	-4(%rdx,%rcx,4), %esi
	movq	-1680(%rbp), %rcx       # 8-byte Reload
	shlq	$4, %rcx
	addq	%rax, %rcx
	addl	(%rdx,%rcx,4), %esi
	movl	%esi, (%rdx,%rcx,4)
	addq	$1, %rax
	movq	-1680(%rbp), %rcx       # 8-byte Reload
	shlq	$4, %rcx
	addq	%rax, %rcx
	movl	-4(%rdx,%rcx,4), %esi
	movq	-1680(%rbp), %rcx       # 8-byte Reload
	shlq	$4, %rcx
	addq	%rax, %rcx
	addl	(%rdx,%rcx,4), %esi
	movl	%esi, (%rdx,%rcx,4)
	addq	$1, %rax
	movq	-1680(%rbp), %rcx       # 8-byte Reload
	shlq	$4, %rcx
	addq	%rax, %rcx
	movl	-4(%rdx,%rcx,4), %esi
	movq	-1680(%rbp), %rcx       # 8-byte Reload
	shlq	$4, %rcx
	addq	%rax, %rcx
	addl	(%rdx,%rcx,4), %esi
	movl	%esi, (%rdx,%rcx,4)
	addq	$1, %rax
	cmpq	$16, %rax
	movq	%rax, -1696(%rbp)       # 8-byte Spill
	jne	.LBB1_212
# %bb.211:                              # %for.inc9.69
                                        #   in Loop: Header=BB1_1 Depth=1
	movq	-1680(%rbp), %rax       # 8-byte Reload
	addq	$1, %rax
	movl	$1, %ecx
	movq	%rax, -1704(%rbp)       # 8-byte Spill
	movq	%rcx, -1712(%rbp)       # 8-byte Spill
	jmp	.LBB1_213
.LBB1_212:                              # %for.body3.3.69
                                        #   in Loop: Header=BB1_210 Depth=2
	movq	-1680(%rbp), %rax       # 8-byte Reload
	shlq	$4, %rax
	movq	-1696(%rbp), %rcx       # 8-byte Reload
	addq	%rcx, %rax
	movq	-8(%rbp), %rdx          # 8-byte Reload
	movl	-4(%rdx,%rax,4), %esi
	movq	-1680(%rbp), %rax       # 8-byte Reload
	shlq	$4, %rax
	addq	%rcx, %rax
	addl	(%rdx,%rax,4), %esi
	movl	%esi, (%rdx,%rax,4)
	addq	$1, %rcx
	movq	%rcx, -1688(%rbp)       # 8-byte Spill
	jmp	.LBB1_210
.LBB1_213:                              # %for.body3.70
                                        #   Parent Loop BB1_1 Depth=1
                                        # =>  This Inner Loop Header: Depth=2
	movq	-1712(%rbp), %rax       # 8-byte Reload
	movq	-1704(%rbp), %rcx       # 8-byte Reload
	shlq	$4, %rcx
	addq	%rax, %rcx
	movq	-8(%rbp), %rdx          # 8-byte Reload
	movl	-4(%rdx,%rcx,4), %esi
	movq	-1704(%rbp), %rcx       # 8-byte Reload
	shlq	$4, %rcx
	addq	%rax, %rcx
	addl	(%rdx,%rcx,4), %esi
	movl	%esi, (%rdx,%rcx,4)
	addq	$1, %rax
	movq	-1704(%rbp), %rcx       # 8-byte Reload
	shlq	$4, %rcx
	addq	%rax, %rcx
	movl	-4(%rdx,%rcx,4), %esi
	movq	-1704(%rbp), %rcx       # 8-byte Reload
	shlq	$4, %rcx
	addq	%rax, %rcx
	addl	(%rdx,%rcx,4), %esi
	movl	%esi, (%rdx,%rcx,4)
	addq	$1, %rax
	movq	-1704(%rbp), %rcx       # 8-byte Reload
	shlq	$4, %rcx
	addq	%rax, %rcx
	movl	-4(%rdx,%rcx,4), %esi
	movq	-1704(%rbp), %rcx       # 8-byte Reload
	shlq	$4, %rcx
	addq	%rax, %rcx
	addl	(%rdx,%rcx,4), %esi
	movl	%esi, (%rdx,%rcx,4)
	addq	$1, %rax
	cmpq	$16, %rax
	movq	%rax, -1720(%rbp)       # 8-byte Spill
	jne	.LBB1_215
# %bb.214:                              # %for.inc9.70
                                        #   in Loop: Header=BB1_1 Depth=1
	movq	-1704(%rbp), %rax       # 8-byte Reload
	addq	$1, %rax
	movl	$1, %ecx
	movq	%rax, -1728(%rbp)       # 8-byte Spill
	movq	%rcx, -1736(%rbp)       # 8-byte Spill
	jmp	.LBB1_216
.LBB1_215:                              # %for.body3.3.70
                                        #   in Loop: Header=BB1_213 Depth=2
	movq	-1704(%rbp), %rax       # 8-byte Reload
	shlq	$4, %rax
	movq	-1720(%rbp), %rcx       # 8-byte Reload
	addq	%rcx, %rax
	movq	-8(%rbp), %rdx          # 8-byte Reload
	movl	-4(%rdx,%rax,4), %esi
	movq	-1704(%rbp), %rax       # 8-byte Reload
	shlq	$4, %rax
	addq	%rcx, %rax
	addl	(%rdx,%rax,4), %esi
	movl	%esi, (%rdx,%rax,4)
	addq	$1, %rcx
	movq	%rcx, -1712(%rbp)       # 8-byte Spill
	jmp	.LBB1_213
.LBB1_216:                              # %for.body3.71
                                        #   Parent Loop BB1_1 Depth=1
                                        # =>  This Inner Loop Header: Depth=2
	movq	-1736(%rbp), %rax       # 8-byte Reload
	movq	-1728(%rbp), %rcx       # 8-byte Reload
	shlq	$4, %rcx
	addq	%rax, %rcx
	movq	-8(%rbp), %rdx          # 8-byte Reload
	movl	-4(%rdx,%rcx,4), %esi
	movq	-1728(%rbp), %rcx       # 8-byte Reload
	shlq	$4, %rcx
	addq	%rax, %rcx
	addl	(%rdx,%rcx,4), %esi
	movl	%esi, (%rdx,%rcx,4)
	addq	$1, %rax
	movq	-1728(%rbp), %rcx       # 8-byte Reload
	shlq	$4, %rcx
	addq	%rax, %rcx
	movl	-4(%rdx,%rcx,4), %esi
	movq	-1728(%rbp), %rcx       # 8-byte Reload
	shlq	$4, %rcx
	addq	%rax, %rcx
	addl	(%rdx,%rcx,4), %esi
	movl	%esi, (%rdx,%rcx,4)
	addq	$1, %rax
	movq	-1728(%rbp), %rcx       # 8-byte Reload
	shlq	$4, %rcx
	addq	%rax, %rcx
	movl	-4(%rdx,%rcx,4), %esi
	movq	-1728(%rbp), %rcx       # 8-byte Reload
	shlq	$4, %rcx
	addq	%rax, %rcx
	addl	(%rdx,%rcx,4), %esi
	movl	%esi, (%rdx,%rcx,4)
	addq	$1, %rax
	cmpq	$16, %rax
	movq	%rax, -1744(%rbp)       # 8-byte Spill
	jne	.LBB1_218
# %bb.217:                              # %for.inc9.71
                                        #   in Loop: Header=BB1_1 Depth=1
	movq	-1728(%rbp), %rax       # 8-byte Reload
	addq	$1, %rax
	movl	$1, %ecx
	movq	%rax, -1752(%rbp)       # 8-byte Spill
	movq	%rcx, -1760(%rbp)       # 8-byte Spill
	jmp	.LBB1_219
.LBB1_218:                              # %for.body3.3.71
                                        #   in Loop: Header=BB1_216 Depth=2
	movq	-1728(%rbp), %rax       # 8-byte Reload
	shlq	$4, %rax
	movq	-1744(%rbp), %rcx       # 8-byte Reload
	addq	%rcx, %rax
	movq	-8(%rbp), %rdx          # 8-byte Reload
	movl	-4(%rdx,%rax,4), %esi
	movq	-1728(%rbp), %rax       # 8-byte Reload
	shlq	$4, %rax
	addq	%rcx, %rax
	addl	(%rdx,%rax,4), %esi
	movl	%esi, (%rdx,%rax,4)
	addq	$1, %rcx
	movq	%rcx, -1736(%rbp)       # 8-byte Spill
	jmp	.LBB1_216
.LBB1_219:                              # %for.body3.72
                                        #   Parent Loop BB1_1 Depth=1
                                        # =>  This Inner Loop Header: Depth=2
	movq	-1760(%rbp), %rax       # 8-byte Reload
	movq	-1752(%rbp), %rcx       # 8-byte Reload
	shlq	$4, %rcx
	addq	%rax, %rcx
	movq	-8(%rbp), %rdx          # 8-byte Reload
	movl	-4(%rdx,%rcx,4), %esi
	movq	-1752(%rbp), %rcx       # 8-byte Reload
	shlq	$4, %rcx
	addq	%rax, %rcx
	addl	(%rdx,%rcx,4), %esi
	movl	%esi, (%rdx,%rcx,4)
	addq	$1, %rax
	movq	-1752(%rbp), %rcx       # 8-byte Reload
	shlq	$4, %rcx
	addq	%rax, %rcx
	movl	-4(%rdx,%rcx,4), %esi
	movq	-1752(%rbp), %rcx       # 8-byte Reload
	shlq	$4, %rcx
	addq	%rax, %rcx
	addl	(%rdx,%rcx,4), %esi
	movl	%esi, (%rdx,%rcx,4)
	addq	$1, %rax
	movq	-1752(%rbp), %rcx       # 8-byte Reload
	shlq	$4, %rcx
	addq	%rax, %rcx
	movl	-4(%rdx,%rcx,4), %esi
	movq	-1752(%rbp), %rcx       # 8-byte Reload
	shlq	$4, %rcx
	addq	%rax, %rcx
	addl	(%rdx,%rcx,4), %esi
	movl	%esi, (%rdx,%rcx,4)
	addq	$1, %rax
	cmpq	$16, %rax
	movq	%rax, -1768(%rbp)       # 8-byte Spill
	jne	.LBB1_221
# %bb.220:                              # %for.inc9.72
                                        #   in Loop: Header=BB1_1 Depth=1
	movq	-1752(%rbp), %rax       # 8-byte Reload
	addq	$1, %rax
	movl	$1, %ecx
	movq	%rax, -1776(%rbp)       # 8-byte Spill
	movq	%rcx, -1784(%rbp)       # 8-byte Spill
	jmp	.LBB1_222
.LBB1_221:                              # %for.body3.3.72
                                        #   in Loop: Header=BB1_219 Depth=2
	movq	-1752(%rbp), %rax       # 8-byte Reload
	shlq	$4, %rax
	movq	-1768(%rbp), %rcx       # 8-byte Reload
	addq	%rcx, %rax
	movq	-8(%rbp), %rdx          # 8-byte Reload
	movl	-4(%rdx,%rax,4), %esi
	movq	-1752(%rbp), %rax       # 8-byte Reload
	shlq	$4, %rax
	addq	%rcx, %rax
	addl	(%rdx,%rax,4), %esi
	movl	%esi, (%rdx,%rax,4)
	addq	$1, %rcx
	movq	%rcx, -1760(%rbp)       # 8-byte Spill
	jmp	.LBB1_219
.LBB1_222:                              # %for.body3.73
                                        #   Parent Loop BB1_1 Depth=1
                                        # =>  This Inner Loop Header: Depth=2
	movq	-1784(%rbp), %rax       # 8-byte Reload
	movq	-1776(%rbp), %rcx       # 8-byte Reload
	shlq	$4, %rcx
	addq	%rax, %rcx
	movq	-8(%rbp), %rdx          # 8-byte Reload
	movl	-4(%rdx,%rcx,4), %esi
	movq	-1776(%rbp), %rcx       # 8-byte Reload
	shlq	$4, %rcx
	addq	%rax, %rcx
	addl	(%rdx,%rcx,4), %esi
	movl	%esi, (%rdx,%rcx,4)
	addq	$1, %rax
	movq	-1776(%rbp), %rcx       # 8-byte Reload
	shlq	$4, %rcx
	addq	%rax, %rcx
	movl	-4(%rdx,%rcx,4), %esi
	movq	-1776(%rbp), %rcx       # 8-byte Reload
	shlq	$4, %rcx
	addq	%rax, %rcx
	addl	(%rdx,%rcx,4), %esi
	movl	%esi, (%rdx,%rcx,4)
	addq	$1, %rax
	movq	-1776(%rbp), %rcx       # 8-byte Reload
	shlq	$4, %rcx
	addq	%rax, %rcx
	movl	-4(%rdx,%rcx,4), %esi
	movq	-1776(%rbp), %rcx       # 8-byte Reload
	shlq	$4, %rcx
	addq	%rax, %rcx
	addl	(%rdx,%rcx,4), %esi
	movl	%esi, (%rdx,%rcx,4)
	addq	$1, %rax
	cmpq	$16, %rax
	movq	%rax, -1792(%rbp)       # 8-byte Spill
	jne	.LBB1_224
# %bb.223:                              # %for.inc9.73
                                        #   in Loop: Header=BB1_1 Depth=1
	movq	-1776(%rbp), %rax       # 8-byte Reload
	addq	$1, %rax
	movl	$1, %ecx
	movq	%rax, -1800(%rbp)       # 8-byte Spill
	movq	%rcx, -1808(%rbp)       # 8-byte Spill
	jmp	.LBB1_225
.LBB1_224:                              # %for.body3.3.73
                                        #   in Loop: Header=BB1_222 Depth=2
	movq	-1776(%rbp), %rax       # 8-byte Reload
	shlq	$4, %rax
	movq	-1792(%rbp), %rcx       # 8-byte Reload
	addq	%rcx, %rax
	movq	-8(%rbp), %rdx          # 8-byte Reload
	movl	-4(%rdx,%rax,4), %esi
	movq	-1776(%rbp), %rax       # 8-byte Reload
	shlq	$4, %rax
	addq	%rcx, %rax
	addl	(%rdx,%rax,4), %esi
	movl	%esi, (%rdx,%rax,4)
	addq	$1, %rcx
	movq	%rcx, -1784(%rbp)       # 8-byte Spill
	jmp	.LBB1_222
.LBB1_225:                              # %for.body3.74
                                        #   Parent Loop BB1_1 Depth=1
                                        # =>  This Inner Loop Header: Depth=2
	movq	-1808(%rbp), %rax       # 8-byte Reload
	movq	-1800(%rbp), %rcx       # 8-byte Reload
	shlq	$4, %rcx
	addq	%rax, %rcx
	movq	-8(%rbp), %rdx          # 8-byte Reload
	movl	-4(%rdx,%rcx,4), %esi
	movq	-1800(%rbp), %rcx       # 8-byte Reload
	shlq	$4, %rcx
	addq	%rax, %rcx
	addl	(%rdx,%rcx,4), %esi
	movl	%esi, (%rdx,%rcx,4)
	addq	$1, %rax
	movq	-1800(%rbp), %rcx       # 8-byte Reload
	shlq	$4, %rcx
	addq	%rax, %rcx
	movl	-4(%rdx,%rcx,4), %esi
	movq	-1800(%rbp), %rcx       # 8-byte Reload
	shlq	$4, %rcx
	addq	%rax, %rcx
	addl	(%rdx,%rcx,4), %esi
	movl	%esi, (%rdx,%rcx,4)
	addq	$1, %rax
	movq	-1800(%rbp), %rcx       # 8-byte Reload
	shlq	$4, %rcx
	addq	%rax, %rcx
	movl	-4(%rdx,%rcx,4), %esi
	movq	-1800(%rbp), %rcx       # 8-byte Reload
	shlq	$4, %rcx
	addq	%rax, %rcx
	addl	(%rdx,%rcx,4), %esi
	movl	%esi, (%rdx,%rcx,4)
	addq	$1, %rax
	cmpq	$16, %rax
	movq	%rax, -1816(%rbp)       # 8-byte Spill
	jne	.LBB1_227
# %bb.226:                              # %for.inc9.74
                                        #   in Loop: Header=BB1_1 Depth=1
	movq	-1800(%rbp), %rax       # 8-byte Reload
	addq	$1, %rax
	movl	$1, %ecx
	movq	%rax, -1824(%rbp)       # 8-byte Spill
	movq	%rcx, -1832(%rbp)       # 8-byte Spill
	jmp	.LBB1_228
.LBB1_227:                              # %for.body3.3.74
                                        #   in Loop: Header=BB1_225 Depth=2
	movq	-1800(%rbp), %rax       # 8-byte Reload
	shlq	$4, %rax
	movq	-1816(%rbp), %rcx       # 8-byte Reload
	addq	%rcx, %rax
	movq	-8(%rbp), %rdx          # 8-byte Reload
	movl	-4(%rdx,%rax,4), %esi
	movq	-1800(%rbp), %rax       # 8-byte Reload
	shlq	$4, %rax
	addq	%rcx, %rax
	addl	(%rdx,%rax,4), %esi
	movl	%esi, (%rdx,%rax,4)
	addq	$1, %rcx
	movq	%rcx, -1808(%rbp)       # 8-byte Spill
	jmp	.LBB1_225
.LBB1_228:                              # %for.body3.75
                                        #   Parent Loop BB1_1 Depth=1
                                        # =>  This Inner Loop Header: Depth=2
	movq	-1832(%rbp), %rax       # 8-byte Reload
	movq	-1824(%rbp), %rcx       # 8-byte Reload
	shlq	$4, %rcx
	addq	%rax, %rcx
	movq	-8(%rbp), %rdx          # 8-byte Reload
	movl	-4(%rdx,%rcx,4), %esi
	movq	-1824(%rbp), %rcx       # 8-byte Reload
	shlq	$4, %rcx
	addq	%rax, %rcx
	addl	(%rdx,%rcx,4), %esi
	movl	%esi, (%rdx,%rcx,4)
	addq	$1, %rax
	movq	-1824(%rbp), %rcx       # 8-byte Reload
	shlq	$4, %rcx
	addq	%rax, %rcx
	movl	-4(%rdx,%rcx,4), %esi
	movq	-1824(%rbp), %rcx       # 8-byte Reload
	shlq	$4, %rcx
	addq	%rax, %rcx
	addl	(%rdx,%rcx,4), %esi
	movl	%esi, (%rdx,%rcx,4)
	addq	$1, %rax
	movq	-1824(%rbp), %rcx       # 8-byte Reload
	shlq	$4, %rcx
	addq	%rax, %rcx
	movl	-4(%rdx,%rcx,4), %esi
	movq	-1824(%rbp), %rcx       # 8-byte Reload
	shlq	$4, %rcx
	addq	%rax, %rcx
	addl	(%rdx,%rcx,4), %esi
	movl	%esi, (%rdx,%rcx,4)
	addq	$1, %rax
	cmpq	$16, %rax
	movq	%rax, -1840(%rbp)       # 8-byte Spill
	jne	.LBB1_230
# %bb.229:                              # %for.inc9.75
                                        #   in Loop: Header=BB1_1 Depth=1
	movq	-1824(%rbp), %rax       # 8-byte Reload
	addq	$1, %rax
	movl	$1, %ecx
	movq	%rax, -1848(%rbp)       # 8-byte Spill
	movq	%rcx, -1856(%rbp)       # 8-byte Spill
	jmp	.LBB1_231
.LBB1_230:                              # %for.body3.3.75
                                        #   in Loop: Header=BB1_228 Depth=2
	movq	-1824(%rbp), %rax       # 8-byte Reload
	shlq	$4, %rax
	movq	-1840(%rbp), %rcx       # 8-byte Reload
	addq	%rcx, %rax
	movq	-8(%rbp), %rdx          # 8-byte Reload
	movl	-4(%rdx,%rax,4), %esi
	movq	-1824(%rbp), %rax       # 8-byte Reload
	shlq	$4, %rax
	addq	%rcx, %rax
	addl	(%rdx,%rax,4), %esi
	movl	%esi, (%rdx,%rax,4)
	addq	$1, %rcx
	movq	%rcx, -1832(%rbp)       # 8-byte Spill
	jmp	.LBB1_228
.LBB1_231:                              # %for.body3.76
                                        #   Parent Loop BB1_1 Depth=1
                                        # =>  This Inner Loop Header: Depth=2
	movq	-1856(%rbp), %rax       # 8-byte Reload
	movq	-1848(%rbp), %rcx       # 8-byte Reload
	shlq	$4, %rcx
	addq	%rax, %rcx
	movq	-8(%rbp), %rdx          # 8-byte Reload
	movl	-4(%rdx,%rcx,4), %esi
	movq	-1848(%rbp), %rcx       # 8-byte Reload
	shlq	$4, %rcx
	addq	%rax, %rcx
	addl	(%rdx,%rcx,4), %esi
	movl	%esi, (%rdx,%rcx,4)
	addq	$1, %rax
	movq	-1848(%rbp), %rcx       # 8-byte Reload
	shlq	$4, %rcx
	addq	%rax, %rcx
	movl	-4(%rdx,%rcx,4), %esi
	movq	-1848(%rbp), %rcx       # 8-byte Reload
	shlq	$4, %rcx
	addq	%rax, %rcx
	addl	(%rdx,%rcx,4), %esi
	movl	%esi, (%rdx,%rcx,4)
	addq	$1, %rax
	movq	-1848(%rbp), %rcx       # 8-byte Reload
	shlq	$4, %rcx
	addq	%rax, %rcx
	movl	-4(%rdx,%rcx,4), %esi
	movq	-1848(%rbp), %rcx       # 8-byte Reload
	shlq	$4, %rcx
	addq	%rax, %rcx
	addl	(%rdx,%rcx,4), %esi
	movl	%esi, (%rdx,%rcx,4)
	addq	$1, %rax
	cmpq	$16, %rax
	movq	%rax, -1864(%rbp)       # 8-byte Spill
	jne	.LBB1_233
# %bb.232:                              # %for.inc9.76
                                        #   in Loop: Header=BB1_1 Depth=1
	movq	-1848(%rbp), %rax       # 8-byte Reload
	addq	$1, %rax
	movl	$1, %ecx
	movq	%rax, -1872(%rbp)       # 8-byte Spill
	movq	%rcx, -1880(%rbp)       # 8-byte Spill
	jmp	.LBB1_234
.LBB1_233:                              # %for.body3.3.76
                                        #   in Loop: Header=BB1_231 Depth=2
	movq	-1848(%rbp), %rax       # 8-byte Reload
	shlq	$4, %rax
	movq	-1864(%rbp), %rcx       # 8-byte Reload
	addq	%rcx, %rax
	movq	-8(%rbp), %rdx          # 8-byte Reload
	movl	-4(%rdx,%rax,4), %esi
	movq	-1848(%rbp), %rax       # 8-byte Reload
	shlq	$4, %rax
	addq	%rcx, %rax
	addl	(%rdx,%rax,4), %esi
	movl	%esi, (%rdx,%rax,4)
	addq	$1, %rcx
	movq	%rcx, -1856(%rbp)       # 8-byte Spill
	jmp	.LBB1_231
.LBB1_234:                              # %for.body3.77
                                        #   Parent Loop BB1_1 Depth=1
                                        # =>  This Inner Loop Header: Depth=2
	movq	-1880(%rbp), %rax       # 8-byte Reload
	movq	-1872(%rbp), %rcx       # 8-byte Reload
	shlq	$4, %rcx
	addq	%rax, %rcx
	movq	-8(%rbp), %rdx          # 8-byte Reload
	movl	-4(%rdx,%rcx,4), %esi
	movq	-1872(%rbp), %rcx       # 8-byte Reload
	shlq	$4, %rcx
	addq	%rax, %rcx
	addl	(%rdx,%rcx,4), %esi
	movl	%esi, (%rdx,%rcx,4)
	addq	$1, %rax
	movq	-1872(%rbp), %rcx       # 8-byte Reload
	shlq	$4, %rcx
	addq	%rax, %rcx
	movl	-4(%rdx,%rcx,4), %esi
	movq	-1872(%rbp), %rcx       # 8-byte Reload
	shlq	$4, %rcx
	addq	%rax, %rcx
	addl	(%rdx,%rcx,4), %esi
	movl	%esi, (%rdx,%rcx,4)
	addq	$1, %rax
	movq	-1872(%rbp), %rcx       # 8-byte Reload
	shlq	$4, %rcx
	addq	%rax, %rcx
	movl	-4(%rdx,%rcx,4), %esi
	movq	-1872(%rbp), %rcx       # 8-byte Reload
	shlq	$4, %rcx
	addq	%rax, %rcx
	addl	(%rdx,%rcx,4), %esi
	movl	%esi, (%rdx,%rcx,4)
	addq	$1, %rax
	cmpq	$16, %rax
	movq	%rax, -1888(%rbp)       # 8-byte Spill
	jne	.LBB1_236
# %bb.235:                              # %for.inc9.77
                                        #   in Loop: Header=BB1_1 Depth=1
	movq	-1872(%rbp), %rax       # 8-byte Reload
	addq	$1, %rax
	movl	$1, %ecx
	movq	%rax, -1896(%rbp)       # 8-byte Spill
	movq	%rcx, -1904(%rbp)       # 8-byte Spill
	jmp	.LBB1_237
.LBB1_236:                              # %for.body3.3.77
                                        #   in Loop: Header=BB1_234 Depth=2
	movq	-1872(%rbp), %rax       # 8-byte Reload
	shlq	$4, %rax
	movq	-1888(%rbp), %rcx       # 8-byte Reload
	addq	%rcx, %rax
	movq	-8(%rbp), %rdx          # 8-byte Reload
	movl	-4(%rdx,%rax,4), %esi
	movq	-1872(%rbp), %rax       # 8-byte Reload
	shlq	$4, %rax
	addq	%rcx, %rax
	addl	(%rdx,%rax,4), %esi
	movl	%esi, (%rdx,%rax,4)
	addq	$1, %rcx
	movq	%rcx, -1880(%rbp)       # 8-byte Spill
	jmp	.LBB1_234
.LBB1_237:                              # %for.body3.78
                                        #   Parent Loop BB1_1 Depth=1
                                        # =>  This Inner Loop Header: Depth=2
	movq	-1904(%rbp), %rax       # 8-byte Reload
	movq	-1896(%rbp), %rcx       # 8-byte Reload
	shlq	$4, %rcx
	addq	%rax, %rcx
	movq	-8(%rbp), %rdx          # 8-byte Reload
	movl	-4(%rdx,%rcx,4), %esi
	movq	-1896(%rbp), %rcx       # 8-byte Reload
	shlq	$4, %rcx
	addq	%rax, %rcx
	addl	(%rdx,%rcx,4), %esi
	movl	%esi, (%rdx,%rcx,4)
	addq	$1, %rax
	movq	-1896(%rbp), %rcx       # 8-byte Reload
	shlq	$4, %rcx
	addq	%rax, %rcx
	movl	-4(%rdx,%rcx,4), %esi
	movq	-1896(%rbp), %rcx       # 8-byte Reload
	shlq	$4, %rcx
	addq	%rax, %rcx
	addl	(%rdx,%rcx,4), %esi
	movl	%esi, (%rdx,%rcx,4)
	addq	$1, %rax
	movq	-1896(%rbp), %rcx       # 8-byte Reload
	shlq	$4, %rcx
	addq	%rax, %rcx
	movl	-4(%rdx,%rcx,4), %esi
	movq	-1896(%rbp), %rcx       # 8-byte Reload
	shlq	$4, %rcx
	addq	%rax, %rcx
	addl	(%rdx,%rcx,4), %esi
	movl	%esi, (%rdx,%rcx,4)
	addq	$1, %rax
	cmpq	$16, %rax
	movq	%rax, -1912(%rbp)       # 8-byte Spill
	jne	.LBB1_239
# %bb.238:                              # %for.inc9.78
                                        #   in Loop: Header=BB1_1 Depth=1
	movq	-1896(%rbp), %rax       # 8-byte Reload
	addq	$1, %rax
	movl	$1, %ecx
	movq	%rax, -1920(%rbp)       # 8-byte Spill
	movq	%rcx, -1928(%rbp)       # 8-byte Spill
	jmp	.LBB1_240
.LBB1_239:                              # %for.body3.3.78
                                        #   in Loop: Header=BB1_237 Depth=2
	movq	-1896(%rbp), %rax       # 8-byte Reload
	shlq	$4, %rax
	movq	-1912(%rbp), %rcx       # 8-byte Reload
	addq	%rcx, %rax
	movq	-8(%rbp), %rdx          # 8-byte Reload
	movl	-4(%rdx,%rax,4), %esi
	movq	-1896(%rbp), %rax       # 8-byte Reload
	shlq	$4, %rax
	addq	%rcx, %rax
	addl	(%rdx,%rax,4), %esi
	movl	%esi, (%rdx,%rax,4)
	addq	$1, %rcx
	movq	%rcx, -1904(%rbp)       # 8-byte Spill
	jmp	.LBB1_237
.LBB1_240:                              # %for.body3.79
                                        #   Parent Loop BB1_1 Depth=1
                                        # =>  This Inner Loop Header: Depth=2
	movq	-1928(%rbp), %rax       # 8-byte Reload
	movq	-1920(%rbp), %rcx       # 8-byte Reload
	shlq	$4, %rcx
	addq	%rax, %rcx
	movq	-8(%rbp), %rdx          # 8-byte Reload
	movl	-4(%rdx,%rcx,4), %esi
	movq	-1920(%rbp), %rcx       # 8-byte Reload
	shlq	$4, %rcx
	addq	%rax, %rcx
	addl	(%rdx,%rcx,4), %esi
	movl	%esi, (%rdx,%rcx,4)
	addq	$1, %rax
	movq	-1920(%rbp), %rcx       # 8-byte Reload
	shlq	$4, %rcx
	addq	%rax, %rcx
	movl	-4(%rdx,%rcx,4), %esi
	movq	-1920(%rbp), %rcx       # 8-byte Reload
	shlq	$4, %rcx
	addq	%rax, %rcx
	addl	(%rdx,%rcx,4), %esi
	movl	%esi, (%rdx,%rcx,4)
	addq	$1, %rax
	movq	-1920(%rbp), %rcx       # 8-byte Reload
	shlq	$4, %rcx
	addq	%rax, %rcx
	movl	-4(%rdx,%rcx,4), %esi
	movq	-1920(%rbp), %rcx       # 8-byte Reload
	shlq	$4, %rcx
	addq	%rax, %rcx
	addl	(%rdx,%rcx,4), %esi
	movl	%esi, (%rdx,%rcx,4)
	addq	$1, %rax
	cmpq	$16, %rax
	movq	%rax, -1936(%rbp)       # 8-byte Spill
	jne	.LBB1_242
# %bb.241:                              # %for.inc9.79
                                        #   in Loop: Header=BB1_1 Depth=1
	movq	-1920(%rbp), %rax       # 8-byte Reload
	addq	$1, %rax
	movl	$1, %ecx
	movq	%rax, -1944(%rbp)       # 8-byte Spill
	movq	%rcx, -1952(%rbp)       # 8-byte Spill
	jmp	.LBB1_243
.LBB1_242:                              # %for.body3.3.79
                                        #   in Loop: Header=BB1_240 Depth=2
	movq	-1920(%rbp), %rax       # 8-byte Reload
	shlq	$4, %rax
	movq	-1936(%rbp), %rcx       # 8-byte Reload
	addq	%rcx, %rax
	movq	-8(%rbp), %rdx          # 8-byte Reload
	movl	-4(%rdx,%rax,4), %esi
	movq	-1920(%rbp), %rax       # 8-byte Reload
	shlq	$4, %rax
	addq	%rcx, %rax
	addl	(%rdx,%rax,4), %esi
	movl	%esi, (%rdx,%rax,4)
	addq	$1, %rcx
	movq	%rcx, -1928(%rbp)       # 8-byte Spill
	jmp	.LBB1_240
.LBB1_243:                              # %for.body3.80
                                        #   Parent Loop BB1_1 Depth=1
                                        # =>  This Inner Loop Header: Depth=2
	movq	-1952(%rbp), %rax       # 8-byte Reload
	movq	-1944(%rbp), %rcx       # 8-byte Reload
	shlq	$4, %rcx
	addq	%rax, %rcx
	movq	-8(%rbp), %rdx          # 8-byte Reload
	movl	-4(%rdx,%rcx,4), %esi
	movq	-1944(%rbp), %rcx       # 8-byte Reload
	shlq	$4, %rcx
	addq	%rax, %rcx
	addl	(%rdx,%rcx,4), %esi
	movl	%esi, (%rdx,%rcx,4)
	addq	$1, %rax
	movq	-1944(%rbp), %rcx       # 8-byte Reload
	shlq	$4, %rcx
	addq	%rax, %rcx
	movl	-4(%rdx,%rcx,4), %esi
	movq	-1944(%rbp), %rcx       # 8-byte Reload
	shlq	$4, %rcx
	addq	%rax, %rcx
	addl	(%rdx,%rcx,4), %esi
	movl	%esi, (%rdx,%rcx,4)
	addq	$1, %rax
	movq	-1944(%rbp), %rcx       # 8-byte Reload
	shlq	$4, %rcx
	addq	%rax, %rcx
	movl	-4(%rdx,%rcx,4), %esi
	movq	-1944(%rbp), %rcx       # 8-byte Reload
	shlq	$4, %rcx
	addq	%rax, %rcx
	addl	(%rdx,%rcx,4), %esi
	movl	%esi, (%rdx,%rcx,4)
	addq	$1, %rax
	cmpq	$16, %rax
	movq	%rax, -1960(%rbp)       # 8-byte Spill
	jne	.LBB1_245
# %bb.244:                              # %for.inc9.80
                                        #   in Loop: Header=BB1_1 Depth=1
	movq	-1944(%rbp), %rax       # 8-byte Reload
	addq	$1, %rax
	movl	$1, %ecx
	movq	%rax, -1968(%rbp)       # 8-byte Spill
	movq	%rcx, -1976(%rbp)       # 8-byte Spill
	jmp	.LBB1_246
.LBB1_245:                              # %for.body3.3.80
                                        #   in Loop: Header=BB1_243 Depth=2
	movq	-1944(%rbp), %rax       # 8-byte Reload
	shlq	$4, %rax
	movq	-1960(%rbp), %rcx       # 8-byte Reload
	addq	%rcx, %rax
	movq	-8(%rbp), %rdx          # 8-byte Reload
	movl	-4(%rdx,%rax,4), %esi
	movq	-1944(%rbp), %rax       # 8-byte Reload
	shlq	$4, %rax
	addq	%rcx, %rax
	addl	(%rdx,%rax,4), %esi
	movl	%esi, (%rdx,%rax,4)
	addq	$1, %rcx
	movq	%rcx, -1952(%rbp)       # 8-byte Spill
	jmp	.LBB1_243
.LBB1_246:                              # %for.body3.81
                                        #   Parent Loop BB1_1 Depth=1
                                        # =>  This Inner Loop Header: Depth=2
	movq	-1976(%rbp), %rax       # 8-byte Reload
	movq	-1968(%rbp), %rcx       # 8-byte Reload
	shlq	$4, %rcx
	addq	%rax, %rcx
	movq	-8(%rbp), %rdx          # 8-byte Reload
	movl	-4(%rdx,%rcx,4), %esi
	movq	-1968(%rbp), %rcx       # 8-byte Reload
	shlq	$4, %rcx
	addq	%rax, %rcx
	addl	(%rdx,%rcx,4), %esi
	movl	%esi, (%rdx,%rcx,4)
	addq	$1, %rax
	movq	-1968(%rbp), %rcx       # 8-byte Reload
	shlq	$4, %rcx
	addq	%rax, %rcx
	movl	-4(%rdx,%rcx,4), %esi
	movq	-1968(%rbp), %rcx       # 8-byte Reload
	shlq	$4, %rcx
	addq	%rax, %rcx
	addl	(%rdx,%rcx,4), %esi
	movl	%esi, (%rdx,%rcx,4)
	addq	$1, %rax
	movq	-1968(%rbp), %rcx       # 8-byte Reload
	shlq	$4, %rcx
	addq	%rax, %rcx
	movl	-4(%rdx,%rcx,4), %esi
	movq	-1968(%rbp), %rcx       # 8-byte Reload
	shlq	$4, %rcx
	addq	%rax, %rcx
	addl	(%rdx,%rcx,4), %esi
	movl	%esi, (%rdx,%rcx,4)
	addq	$1, %rax
	cmpq	$16, %rax
	movq	%rax, -1984(%rbp)       # 8-byte Spill
	jne	.LBB1_248
# %bb.247:                              # %for.inc9.81
                                        #   in Loop: Header=BB1_1 Depth=1
	movq	-1968(%rbp), %rax       # 8-byte Reload
	addq	$1, %rax
	movl	$1, %ecx
	movq	%rax, -1992(%rbp)       # 8-byte Spill
	movq	%rcx, -2000(%rbp)       # 8-byte Spill
	jmp	.LBB1_249
.LBB1_248:                              # %for.body3.3.81
                                        #   in Loop: Header=BB1_246 Depth=2
	movq	-1968(%rbp), %rax       # 8-byte Reload
	shlq	$4, %rax
	movq	-1984(%rbp), %rcx       # 8-byte Reload
	addq	%rcx, %rax
	movq	-8(%rbp), %rdx          # 8-byte Reload
	movl	-4(%rdx,%rax,4), %esi
	movq	-1968(%rbp), %rax       # 8-byte Reload
	shlq	$4, %rax
	addq	%rcx, %rax
	addl	(%rdx,%rax,4), %esi
	movl	%esi, (%rdx,%rax,4)
	addq	$1, %rcx
	movq	%rcx, -1976(%rbp)       # 8-byte Spill
	jmp	.LBB1_246
.LBB1_249:                              # %for.body3.82
                                        #   Parent Loop BB1_1 Depth=1
                                        # =>  This Inner Loop Header: Depth=2
	movq	-2000(%rbp), %rax       # 8-byte Reload
	movq	-1992(%rbp), %rcx       # 8-byte Reload
	shlq	$4, %rcx
	addq	%rax, %rcx
	movq	-8(%rbp), %rdx          # 8-byte Reload
	movl	-4(%rdx,%rcx,4), %esi
	movq	-1992(%rbp), %rcx       # 8-byte Reload
	shlq	$4, %rcx
	addq	%rax, %rcx
	addl	(%rdx,%rcx,4), %esi
	movl	%esi, (%rdx,%rcx,4)
	addq	$1, %rax
	movq	-1992(%rbp), %rcx       # 8-byte Reload
	shlq	$4, %rcx
	addq	%rax, %rcx
	movl	-4(%rdx,%rcx,4), %esi
	movq	-1992(%rbp), %rcx       # 8-byte Reload
	shlq	$4, %rcx
	addq	%rax, %rcx
	addl	(%rdx,%rcx,4), %esi
	movl	%esi, (%rdx,%rcx,4)
	addq	$1, %rax
	movq	-1992(%rbp), %rcx       # 8-byte Reload
	shlq	$4, %rcx
	addq	%rax, %rcx
	movl	-4(%rdx,%rcx,4), %esi
	movq	-1992(%rbp), %rcx       # 8-byte Reload
	shlq	$4, %rcx
	addq	%rax, %rcx
	addl	(%rdx,%rcx,4), %esi
	movl	%esi, (%rdx,%rcx,4)
	addq	$1, %rax
	cmpq	$16, %rax
	movq	%rax, -2008(%rbp)       # 8-byte Spill
	jne	.LBB1_251
# %bb.250:                              # %for.inc9.82
                                        #   in Loop: Header=BB1_1 Depth=1
	movq	-1992(%rbp), %rax       # 8-byte Reload
	addq	$1, %rax
	movl	$1, %ecx
	movq	%rax, -2016(%rbp)       # 8-byte Spill
	movq	%rcx, -2024(%rbp)       # 8-byte Spill
	jmp	.LBB1_252
.LBB1_251:                              # %for.body3.3.82
                                        #   in Loop: Header=BB1_249 Depth=2
	movq	-1992(%rbp), %rax       # 8-byte Reload
	shlq	$4, %rax
	movq	-2008(%rbp), %rcx       # 8-byte Reload
	addq	%rcx, %rax
	movq	-8(%rbp), %rdx          # 8-byte Reload
	movl	-4(%rdx,%rax,4), %esi
	movq	-1992(%rbp), %rax       # 8-byte Reload
	shlq	$4, %rax
	addq	%rcx, %rax
	addl	(%rdx,%rax,4), %esi
	movl	%esi, (%rdx,%rax,4)
	addq	$1, %rcx
	movq	%rcx, -2000(%rbp)       # 8-byte Spill
	jmp	.LBB1_249
.LBB1_252:                              # %for.body3.83
                                        #   Parent Loop BB1_1 Depth=1
                                        # =>  This Inner Loop Header: Depth=2
	movq	-2024(%rbp), %rax       # 8-byte Reload
	movq	-2016(%rbp), %rcx       # 8-byte Reload
	shlq	$4, %rcx
	addq	%rax, %rcx
	movq	-8(%rbp), %rdx          # 8-byte Reload
	movl	-4(%rdx,%rcx,4), %esi
	movq	-2016(%rbp), %rcx       # 8-byte Reload
	shlq	$4, %rcx
	addq	%rax, %rcx
	addl	(%rdx,%rcx,4), %esi
	movl	%esi, (%rdx,%rcx,4)
	addq	$1, %rax
	movq	-2016(%rbp), %rcx       # 8-byte Reload
	shlq	$4, %rcx
	addq	%rax, %rcx
	movl	-4(%rdx,%rcx,4), %esi
	movq	-2016(%rbp), %rcx       # 8-byte Reload
	shlq	$4, %rcx
	addq	%rax, %rcx
	addl	(%rdx,%rcx,4), %esi
	movl	%esi, (%rdx,%rcx,4)
	addq	$1, %rax
	movq	-2016(%rbp), %rcx       # 8-byte Reload
	shlq	$4, %rcx
	addq	%rax, %rcx
	movl	-4(%rdx,%rcx,4), %esi
	movq	-2016(%rbp), %rcx       # 8-byte Reload
	shlq	$4, %rcx
	addq	%rax, %rcx
	addl	(%rdx,%rcx,4), %esi
	movl	%esi, (%rdx,%rcx,4)
	addq	$1, %rax
	cmpq	$16, %rax
	movq	%rax, -2032(%rbp)       # 8-byte Spill
	jne	.LBB1_254
# %bb.253:                              # %for.inc9.83
                                        #   in Loop: Header=BB1_1 Depth=1
	movq	-2016(%rbp), %rax       # 8-byte Reload
	addq	$1, %rax
	movl	$1, %ecx
	movq	%rax, -2040(%rbp)       # 8-byte Spill
	movq	%rcx, -2048(%rbp)       # 8-byte Spill
	jmp	.LBB1_255
.LBB1_254:                              # %for.body3.3.83
                                        #   in Loop: Header=BB1_252 Depth=2
	movq	-2016(%rbp), %rax       # 8-byte Reload
	shlq	$4, %rax
	movq	-2032(%rbp), %rcx       # 8-byte Reload
	addq	%rcx, %rax
	movq	-8(%rbp), %rdx          # 8-byte Reload
	movl	-4(%rdx,%rax,4), %esi
	movq	-2016(%rbp), %rax       # 8-byte Reload
	shlq	$4, %rax
	addq	%rcx, %rax
	addl	(%rdx,%rax,4), %esi
	movl	%esi, (%rdx,%rax,4)
	addq	$1, %rcx
	movq	%rcx, -2024(%rbp)       # 8-byte Spill
	jmp	.LBB1_252
.LBB1_255:                              # %for.body3.84
                                        #   Parent Loop BB1_1 Depth=1
                                        # =>  This Inner Loop Header: Depth=2
	movq	-2048(%rbp), %rax       # 8-byte Reload
	movq	-2040(%rbp), %rcx       # 8-byte Reload
	shlq	$4, %rcx
	addq	%rax, %rcx
	movq	-8(%rbp), %rdx          # 8-byte Reload
	movl	-4(%rdx,%rcx,4), %esi
	movq	-2040(%rbp), %rcx       # 8-byte Reload
	shlq	$4, %rcx
	addq	%rax, %rcx
	addl	(%rdx,%rcx,4), %esi
	movl	%esi, (%rdx,%rcx,4)
	addq	$1, %rax
	movq	-2040(%rbp), %rcx       # 8-byte Reload
	shlq	$4, %rcx
	addq	%rax, %rcx
	movl	-4(%rdx,%rcx,4), %esi
	movq	-2040(%rbp), %rcx       # 8-byte Reload
	shlq	$4, %rcx
	addq	%rax, %rcx
	addl	(%rdx,%rcx,4), %esi
	movl	%esi, (%rdx,%rcx,4)
	addq	$1, %rax
	movq	-2040(%rbp), %rcx       # 8-byte Reload
	shlq	$4, %rcx
	addq	%rax, %rcx
	movl	-4(%rdx,%rcx,4), %esi
	movq	-2040(%rbp), %rcx       # 8-byte Reload
	shlq	$4, %rcx
	addq	%rax, %rcx
	addl	(%rdx,%rcx,4), %esi
	movl	%esi, (%rdx,%rcx,4)
	addq	$1, %rax
	cmpq	$16, %rax
	movq	%rax, -2056(%rbp)       # 8-byte Spill
	jne	.LBB1_257
# %bb.256:                              # %for.inc9.84
                                        #   in Loop: Header=BB1_1 Depth=1
	movq	-2040(%rbp), %rax       # 8-byte Reload
	addq	$1, %rax
	movl	$1, %ecx
	movq	%rax, -2064(%rbp)       # 8-byte Spill
	movq	%rcx, -2072(%rbp)       # 8-byte Spill
	jmp	.LBB1_258
.LBB1_257:                              # %for.body3.3.84
                                        #   in Loop: Header=BB1_255 Depth=2
	movq	-2040(%rbp), %rax       # 8-byte Reload
	shlq	$4, %rax
	movq	-2056(%rbp), %rcx       # 8-byte Reload
	addq	%rcx, %rax
	movq	-8(%rbp), %rdx          # 8-byte Reload
	movl	-4(%rdx,%rax,4), %esi
	movq	-2040(%rbp), %rax       # 8-byte Reload
	shlq	$4, %rax
	addq	%rcx, %rax
	addl	(%rdx,%rax,4), %esi
	movl	%esi, (%rdx,%rax,4)
	addq	$1, %rcx
	movq	%rcx, -2048(%rbp)       # 8-byte Spill
	jmp	.LBB1_255
.LBB1_258:                              # %for.body3.85
                                        #   Parent Loop BB1_1 Depth=1
                                        # =>  This Inner Loop Header: Depth=2
	movq	-2072(%rbp), %rax       # 8-byte Reload
	movq	-2064(%rbp), %rcx       # 8-byte Reload
	shlq	$4, %rcx
	addq	%rax, %rcx
	movq	-8(%rbp), %rdx          # 8-byte Reload
	movl	-4(%rdx,%rcx,4), %esi
	movq	-2064(%rbp), %rcx       # 8-byte Reload
	shlq	$4, %rcx
	addq	%rax, %rcx
	addl	(%rdx,%rcx,4), %esi
	movl	%esi, (%rdx,%rcx,4)
	addq	$1, %rax
	movq	-2064(%rbp), %rcx       # 8-byte Reload
	shlq	$4, %rcx
	addq	%rax, %rcx
	movl	-4(%rdx,%rcx,4), %esi
	movq	-2064(%rbp), %rcx       # 8-byte Reload
	shlq	$4, %rcx
	addq	%rax, %rcx
	addl	(%rdx,%rcx,4), %esi
	movl	%esi, (%rdx,%rcx,4)
	addq	$1, %rax
	movq	-2064(%rbp), %rcx       # 8-byte Reload
	shlq	$4, %rcx
	addq	%rax, %rcx
	movl	-4(%rdx,%rcx,4), %esi
	movq	-2064(%rbp), %rcx       # 8-byte Reload
	shlq	$4, %rcx
	addq	%rax, %rcx
	addl	(%rdx,%rcx,4), %esi
	movl	%esi, (%rdx,%rcx,4)
	addq	$1, %rax
	cmpq	$16, %rax
	movq	%rax, -2080(%rbp)       # 8-byte Spill
	jne	.LBB1_260
# %bb.259:                              # %for.inc9.85
                                        #   in Loop: Header=BB1_1 Depth=1
	movq	-2064(%rbp), %rax       # 8-byte Reload
	addq	$1, %rax
	movl	$1, %ecx
	movq	%rax, -2088(%rbp)       # 8-byte Spill
	movq	%rcx, -2096(%rbp)       # 8-byte Spill
	jmp	.LBB1_261
.LBB1_260:                              # %for.body3.3.85
                                        #   in Loop: Header=BB1_258 Depth=2
	movq	-2064(%rbp), %rax       # 8-byte Reload
	shlq	$4, %rax
	movq	-2080(%rbp), %rcx       # 8-byte Reload
	addq	%rcx, %rax
	movq	-8(%rbp), %rdx          # 8-byte Reload
	movl	-4(%rdx,%rax,4), %esi
	movq	-2064(%rbp), %rax       # 8-byte Reload
	shlq	$4, %rax
	addq	%rcx, %rax
	addl	(%rdx,%rax,4), %esi
	movl	%esi, (%rdx,%rax,4)
	addq	$1, %rcx
	movq	%rcx, -2072(%rbp)       # 8-byte Spill
	jmp	.LBB1_258
.LBB1_261:                              # %for.body3.86
                                        #   Parent Loop BB1_1 Depth=1
                                        # =>  This Inner Loop Header: Depth=2
	movq	-2096(%rbp), %rax       # 8-byte Reload
	movq	-2088(%rbp), %rcx       # 8-byte Reload
	shlq	$4, %rcx
	addq	%rax, %rcx
	movq	-8(%rbp), %rdx          # 8-byte Reload
	movl	-4(%rdx,%rcx,4), %esi
	movq	-2088(%rbp), %rcx       # 8-byte Reload
	shlq	$4, %rcx
	addq	%rax, %rcx
	addl	(%rdx,%rcx,4), %esi
	movl	%esi, (%rdx,%rcx,4)
	addq	$1, %rax
	movq	-2088(%rbp), %rcx       # 8-byte Reload
	shlq	$4, %rcx
	addq	%rax, %rcx
	movl	-4(%rdx,%rcx,4), %esi
	movq	-2088(%rbp), %rcx       # 8-byte Reload
	shlq	$4, %rcx
	addq	%rax, %rcx
	addl	(%rdx,%rcx,4), %esi
	movl	%esi, (%rdx,%rcx,4)
	addq	$1, %rax
	movq	-2088(%rbp), %rcx       # 8-byte Reload
	shlq	$4, %rcx
	addq	%rax, %rcx
	movl	-4(%rdx,%rcx,4), %esi
	movq	-2088(%rbp), %rcx       # 8-byte Reload
	shlq	$4, %rcx
	addq	%rax, %rcx
	addl	(%rdx,%rcx,4), %esi
	movl	%esi, (%rdx,%rcx,4)
	addq	$1, %rax
	cmpq	$16, %rax
	movq	%rax, -2104(%rbp)       # 8-byte Spill
	jne	.LBB1_263
# %bb.262:                              # %for.inc9.86
                                        #   in Loop: Header=BB1_1 Depth=1
	movq	-2088(%rbp), %rax       # 8-byte Reload
	addq	$1, %rax
	movl	$1, %ecx
	movq	%rax, -2112(%rbp)       # 8-byte Spill
	movq	%rcx, -2120(%rbp)       # 8-byte Spill
	jmp	.LBB1_264
.LBB1_263:                              # %for.body3.3.86
                                        #   in Loop: Header=BB1_261 Depth=2
	movq	-2088(%rbp), %rax       # 8-byte Reload
	shlq	$4, %rax
	movq	-2104(%rbp), %rcx       # 8-byte Reload
	addq	%rcx, %rax
	movq	-8(%rbp), %rdx          # 8-byte Reload
	movl	-4(%rdx,%rax,4), %esi
	movq	-2088(%rbp), %rax       # 8-byte Reload
	shlq	$4, %rax
	addq	%rcx, %rax
	addl	(%rdx,%rax,4), %esi
	movl	%esi, (%rdx,%rax,4)
	addq	$1, %rcx
	movq	%rcx, -2096(%rbp)       # 8-byte Spill
	jmp	.LBB1_261
.LBB1_264:                              # %for.body3.87
                                        #   Parent Loop BB1_1 Depth=1
                                        # =>  This Inner Loop Header: Depth=2
	movq	-2120(%rbp), %rax       # 8-byte Reload
	movq	-2112(%rbp), %rcx       # 8-byte Reload
	shlq	$4, %rcx
	addq	%rax, %rcx
	movq	-8(%rbp), %rdx          # 8-byte Reload
	movl	-4(%rdx,%rcx,4), %esi
	movq	-2112(%rbp), %rcx       # 8-byte Reload
	shlq	$4, %rcx
	addq	%rax, %rcx
	addl	(%rdx,%rcx,4), %esi
	movl	%esi, (%rdx,%rcx,4)
	addq	$1, %rax
	movq	-2112(%rbp), %rcx       # 8-byte Reload
	shlq	$4, %rcx
	addq	%rax, %rcx
	movl	-4(%rdx,%rcx,4), %esi
	movq	-2112(%rbp), %rcx       # 8-byte Reload
	shlq	$4, %rcx
	addq	%rax, %rcx
	addl	(%rdx,%rcx,4), %esi
	movl	%esi, (%rdx,%rcx,4)
	addq	$1, %rax
	movq	-2112(%rbp), %rcx       # 8-byte Reload
	shlq	$4, %rcx
	addq	%rax, %rcx
	movl	-4(%rdx,%rcx,4), %esi
	movq	-2112(%rbp), %rcx       # 8-byte Reload
	shlq	$4, %rcx
	addq	%rax, %rcx
	addl	(%rdx,%rcx,4), %esi
	movl	%esi, (%rdx,%rcx,4)
	addq	$1, %rax
	cmpq	$16, %rax
	movq	%rax, -2128(%rbp)       # 8-byte Spill
	jne	.LBB1_266
# %bb.265:                              # %for.inc9.87
                                        #   in Loop: Header=BB1_1 Depth=1
	movq	-2112(%rbp), %rax       # 8-byte Reload
	addq	$1, %rax
	movl	$1, %ecx
	movq	%rax, -2136(%rbp)       # 8-byte Spill
	movq	%rcx, -2144(%rbp)       # 8-byte Spill
	jmp	.LBB1_267
.LBB1_266:                              # %for.body3.3.87
                                        #   in Loop: Header=BB1_264 Depth=2
	movq	-2112(%rbp), %rax       # 8-byte Reload
	shlq	$4, %rax
	movq	-2128(%rbp), %rcx       # 8-byte Reload
	addq	%rcx, %rax
	movq	-8(%rbp), %rdx          # 8-byte Reload
	movl	-4(%rdx,%rax,4), %esi
	movq	-2112(%rbp), %rax       # 8-byte Reload
	shlq	$4, %rax
	addq	%rcx, %rax
	addl	(%rdx,%rax,4), %esi
	movl	%esi, (%rdx,%rax,4)
	addq	$1, %rcx
	movq	%rcx, -2120(%rbp)       # 8-byte Spill
	jmp	.LBB1_264
.LBB1_267:                              # %for.body3.88
                                        #   Parent Loop BB1_1 Depth=1
                                        # =>  This Inner Loop Header: Depth=2
	movq	-2144(%rbp), %rax       # 8-byte Reload
	movq	-2136(%rbp), %rcx       # 8-byte Reload
	shlq	$4, %rcx
	addq	%rax, %rcx
	movq	-8(%rbp), %rdx          # 8-byte Reload
	movl	-4(%rdx,%rcx,4), %esi
	movq	-2136(%rbp), %rcx       # 8-byte Reload
	shlq	$4, %rcx
	addq	%rax, %rcx
	addl	(%rdx,%rcx,4), %esi
	movl	%esi, (%rdx,%rcx,4)
	addq	$1, %rax
	movq	-2136(%rbp), %rcx       # 8-byte Reload
	shlq	$4, %rcx
	addq	%rax, %rcx
	movl	-4(%rdx,%rcx,4), %esi
	movq	-2136(%rbp), %rcx       # 8-byte Reload
	shlq	$4, %rcx
	addq	%rax, %rcx
	addl	(%rdx,%rcx,4), %esi
	movl	%esi, (%rdx,%rcx,4)
	addq	$1, %rax
	movq	-2136(%rbp), %rcx       # 8-byte Reload
	shlq	$4, %rcx
	addq	%rax, %rcx
	movl	-4(%rdx,%rcx,4), %esi
	movq	-2136(%rbp), %rcx       # 8-byte Reload
	shlq	$4, %rcx
	addq	%rax, %rcx
	addl	(%rdx,%rcx,4), %esi
	movl	%esi, (%rdx,%rcx,4)
	addq	$1, %rax
	cmpq	$16, %rax
	movq	%rax, -2152(%rbp)       # 8-byte Spill
	jne	.LBB1_269
# %bb.268:                              # %for.inc9.88
                                        #   in Loop: Header=BB1_1 Depth=1
	movq	-2136(%rbp), %rax       # 8-byte Reload
	addq	$1, %rax
	movl	$1, %ecx
	movq	%rax, -2160(%rbp)       # 8-byte Spill
	movq	%rcx, -2168(%rbp)       # 8-byte Spill
	jmp	.LBB1_270
.LBB1_269:                              # %for.body3.3.88
                                        #   in Loop: Header=BB1_267 Depth=2
	movq	-2136(%rbp), %rax       # 8-byte Reload
	shlq	$4, %rax
	movq	-2152(%rbp), %rcx       # 8-byte Reload
	addq	%rcx, %rax
	movq	-8(%rbp), %rdx          # 8-byte Reload
	movl	-4(%rdx,%rax,4), %esi
	movq	-2136(%rbp), %rax       # 8-byte Reload
	shlq	$4, %rax
	addq	%rcx, %rax
	addl	(%rdx,%rax,4), %esi
	movl	%esi, (%rdx,%rax,4)
	addq	$1, %rcx
	movq	%rcx, -2144(%rbp)       # 8-byte Spill
	jmp	.LBB1_267
.LBB1_270:                              # %for.body3.89
                                        #   Parent Loop BB1_1 Depth=1
                                        # =>  This Inner Loop Header: Depth=2
	movq	-2168(%rbp), %rax       # 8-byte Reload
	movq	-2160(%rbp), %rcx       # 8-byte Reload
	shlq	$4, %rcx
	addq	%rax, %rcx
	movq	-8(%rbp), %rdx          # 8-byte Reload
	movl	-4(%rdx,%rcx,4), %esi
	movq	-2160(%rbp), %rcx       # 8-byte Reload
	shlq	$4, %rcx
	addq	%rax, %rcx
	addl	(%rdx,%rcx,4), %esi
	movl	%esi, (%rdx,%rcx,4)
	addq	$1, %rax
	movq	-2160(%rbp), %rcx       # 8-byte Reload
	shlq	$4, %rcx
	addq	%rax, %rcx
	movl	-4(%rdx,%rcx,4), %esi
	movq	-2160(%rbp), %rcx       # 8-byte Reload
	shlq	$4, %rcx
	addq	%rax, %rcx
	addl	(%rdx,%rcx,4), %esi
	movl	%esi, (%rdx,%rcx,4)
	addq	$1, %rax
	movq	-2160(%rbp), %rcx       # 8-byte Reload
	shlq	$4, %rcx
	addq	%rax, %rcx
	movl	-4(%rdx,%rcx,4), %esi
	movq	-2160(%rbp), %rcx       # 8-byte Reload
	shlq	$4, %rcx
	addq	%rax, %rcx
	addl	(%rdx,%rcx,4), %esi
	movl	%esi, (%rdx,%rcx,4)
	addq	$1, %rax
	cmpq	$16, %rax
	movq	%rax, -2176(%rbp)       # 8-byte Spill
	jne	.LBB1_272
# %bb.271:                              # %for.inc9.89
                                        #   in Loop: Header=BB1_1 Depth=1
	movq	-2160(%rbp), %rax       # 8-byte Reload
	addq	$1, %rax
	movl	$1, %ecx
	movq	%rax, -2184(%rbp)       # 8-byte Spill
	movq	%rcx, -2192(%rbp)       # 8-byte Spill
	jmp	.LBB1_273
.LBB1_272:                              # %for.body3.3.89
                                        #   in Loop: Header=BB1_270 Depth=2
	movq	-2160(%rbp), %rax       # 8-byte Reload
	shlq	$4, %rax
	movq	-2176(%rbp), %rcx       # 8-byte Reload
	addq	%rcx, %rax
	movq	-8(%rbp), %rdx          # 8-byte Reload
	movl	-4(%rdx,%rax,4), %esi
	movq	-2160(%rbp), %rax       # 8-byte Reload
	shlq	$4, %rax
	addq	%rcx, %rax
	addl	(%rdx,%rax,4), %esi
	movl	%esi, (%rdx,%rax,4)
	addq	$1, %rcx
	movq	%rcx, -2168(%rbp)       # 8-byte Spill
	jmp	.LBB1_270
.LBB1_273:                              # %for.body3.90
                                        #   Parent Loop BB1_1 Depth=1
                                        # =>  This Inner Loop Header: Depth=2
	movq	-2192(%rbp), %rax       # 8-byte Reload
	movq	-2184(%rbp), %rcx       # 8-byte Reload
	shlq	$4, %rcx
	addq	%rax, %rcx
	movq	-8(%rbp), %rdx          # 8-byte Reload
	movl	-4(%rdx,%rcx,4), %esi
	movq	-2184(%rbp), %rcx       # 8-byte Reload
	shlq	$4, %rcx
	addq	%rax, %rcx
	addl	(%rdx,%rcx,4), %esi
	movl	%esi, (%rdx,%rcx,4)
	addq	$1, %rax
	movq	-2184(%rbp), %rcx       # 8-byte Reload
	shlq	$4, %rcx
	addq	%rax, %rcx
	movl	-4(%rdx,%rcx,4), %esi
	movq	-2184(%rbp), %rcx       # 8-byte Reload
	shlq	$4, %rcx
	addq	%rax, %rcx
	addl	(%rdx,%rcx,4), %esi
	movl	%esi, (%rdx,%rcx,4)
	addq	$1, %rax
	movq	-2184(%rbp), %rcx       # 8-byte Reload
	shlq	$4, %rcx
	addq	%rax, %rcx
	movl	-4(%rdx,%rcx,4), %esi
	movq	-2184(%rbp), %rcx       # 8-byte Reload
	shlq	$4, %rcx
	addq	%rax, %rcx
	addl	(%rdx,%rcx,4), %esi
	movl	%esi, (%rdx,%rcx,4)
	addq	$1, %rax
	cmpq	$16, %rax
	movq	%rax, -2200(%rbp)       # 8-byte Spill
	jne	.LBB1_275
# %bb.274:                              # %for.inc9.90
                                        #   in Loop: Header=BB1_1 Depth=1
	movq	-2184(%rbp), %rax       # 8-byte Reload
	addq	$1, %rax
	movl	$1, %ecx
	movq	%rax, -2208(%rbp)       # 8-byte Spill
	movq	%rcx, -2216(%rbp)       # 8-byte Spill
	jmp	.LBB1_276
.LBB1_275:                              # %for.body3.3.90
                                        #   in Loop: Header=BB1_273 Depth=2
	movq	-2184(%rbp), %rax       # 8-byte Reload
	shlq	$4, %rax
	movq	-2200(%rbp), %rcx       # 8-byte Reload
	addq	%rcx, %rax
	movq	-8(%rbp), %rdx          # 8-byte Reload
	movl	-4(%rdx,%rax,4), %esi
	movq	-2184(%rbp), %rax       # 8-byte Reload
	shlq	$4, %rax
	addq	%rcx, %rax
	addl	(%rdx,%rax,4), %esi
	movl	%esi, (%rdx,%rax,4)
	addq	$1, %rcx
	movq	%rcx, -2192(%rbp)       # 8-byte Spill
	jmp	.LBB1_273
.LBB1_276:                              # %for.body3.91
                                        #   Parent Loop BB1_1 Depth=1
                                        # =>  This Inner Loop Header: Depth=2
	movq	-2216(%rbp), %rax       # 8-byte Reload
	movq	-2208(%rbp), %rcx       # 8-byte Reload
	shlq	$4, %rcx
	addq	%rax, %rcx
	movq	-8(%rbp), %rdx          # 8-byte Reload
	movl	-4(%rdx,%rcx,4), %esi
	movq	-2208(%rbp), %rcx       # 8-byte Reload
	shlq	$4, %rcx
	addq	%rax, %rcx
	addl	(%rdx,%rcx,4), %esi
	movl	%esi, (%rdx,%rcx,4)
	addq	$1, %rax
	movq	-2208(%rbp), %rcx       # 8-byte Reload
	shlq	$4, %rcx
	addq	%rax, %rcx
	movl	-4(%rdx,%rcx,4), %esi
	movq	-2208(%rbp), %rcx       # 8-byte Reload
	shlq	$4, %rcx
	addq	%rax, %rcx
	addl	(%rdx,%rcx,4), %esi
	movl	%esi, (%rdx,%rcx,4)
	addq	$1, %rax
	movq	-2208(%rbp), %rcx       # 8-byte Reload
	shlq	$4, %rcx
	addq	%rax, %rcx
	movl	-4(%rdx,%rcx,4), %esi
	movq	-2208(%rbp), %rcx       # 8-byte Reload
	shlq	$4, %rcx
	addq	%rax, %rcx
	addl	(%rdx,%rcx,4), %esi
	movl	%esi, (%rdx,%rcx,4)
	addq	$1, %rax
	cmpq	$16, %rax
	movq	%rax, -2224(%rbp)       # 8-byte Spill
	jne	.LBB1_278
# %bb.277:                              # %for.inc9.91
                                        #   in Loop: Header=BB1_1 Depth=1
	movq	-2208(%rbp), %rax       # 8-byte Reload
	addq	$1, %rax
	movl	$1, %ecx
	movq	%rax, -2232(%rbp)       # 8-byte Spill
	movq	%rcx, -2240(%rbp)       # 8-byte Spill
	jmp	.LBB1_279
.LBB1_278:                              # %for.body3.3.91
                                        #   in Loop: Header=BB1_276 Depth=2
	movq	-2208(%rbp), %rax       # 8-byte Reload
	shlq	$4, %rax
	movq	-2224(%rbp), %rcx       # 8-byte Reload
	addq	%rcx, %rax
	movq	-8(%rbp), %rdx          # 8-byte Reload
	movl	-4(%rdx,%rax,4), %esi
	movq	-2208(%rbp), %rax       # 8-byte Reload
	shlq	$4, %rax
	addq	%rcx, %rax
	addl	(%rdx,%rax,4), %esi
	movl	%esi, (%rdx,%rax,4)
	addq	$1, %rcx
	movq	%rcx, -2216(%rbp)       # 8-byte Spill
	jmp	.LBB1_276
.LBB1_279:                              # %for.body3.92
                                        #   Parent Loop BB1_1 Depth=1
                                        # =>  This Inner Loop Header: Depth=2
	movq	-2240(%rbp), %rax       # 8-byte Reload
	movq	-2232(%rbp), %rcx       # 8-byte Reload
	shlq	$4, %rcx
	addq	%rax, %rcx
	movq	-8(%rbp), %rdx          # 8-byte Reload
	movl	-4(%rdx,%rcx,4), %esi
	movq	-2232(%rbp), %rcx       # 8-byte Reload
	shlq	$4, %rcx
	addq	%rax, %rcx
	addl	(%rdx,%rcx,4), %esi
	movl	%esi, (%rdx,%rcx,4)
	addq	$1, %rax
	movq	-2232(%rbp), %rcx       # 8-byte Reload
	shlq	$4, %rcx
	addq	%rax, %rcx
	movl	-4(%rdx,%rcx,4), %esi
	movq	-2232(%rbp), %rcx       # 8-byte Reload
	shlq	$4, %rcx
	addq	%rax, %rcx
	addl	(%rdx,%rcx,4), %esi
	movl	%esi, (%rdx,%rcx,4)
	addq	$1, %rax
	movq	-2232(%rbp), %rcx       # 8-byte Reload
	shlq	$4, %rcx
	addq	%rax, %rcx
	movl	-4(%rdx,%rcx,4), %esi
	movq	-2232(%rbp), %rcx       # 8-byte Reload
	shlq	$4, %rcx
	addq	%rax, %rcx
	addl	(%rdx,%rcx,4), %esi
	movl	%esi, (%rdx,%rcx,4)
	addq	$1, %rax
	cmpq	$16, %rax
	movq	%rax, -2248(%rbp)       # 8-byte Spill
	jne	.LBB1_281
# %bb.280:                              # %for.inc9.92
                                        #   in Loop: Header=BB1_1 Depth=1
	movq	-2232(%rbp), %rax       # 8-byte Reload
	addq	$1, %rax
	movl	$1, %ecx
	movq	%rax, -2256(%rbp)       # 8-byte Spill
	movq	%rcx, -2264(%rbp)       # 8-byte Spill
	jmp	.LBB1_282
.LBB1_281:                              # %for.body3.3.92
                                        #   in Loop: Header=BB1_279 Depth=2
	movq	-2232(%rbp), %rax       # 8-byte Reload
	shlq	$4, %rax
	movq	-2248(%rbp), %rcx       # 8-byte Reload
	addq	%rcx, %rax
	movq	-8(%rbp), %rdx          # 8-byte Reload
	movl	-4(%rdx,%rax,4), %esi
	movq	-2232(%rbp), %rax       # 8-byte Reload
	shlq	$4, %rax
	addq	%rcx, %rax
	addl	(%rdx,%rax,4), %esi
	movl	%esi, (%rdx,%rax,4)
	addq	$1, %rcx
	movq	%rcx, -2240(%rbp)       # 8-byte Spill
	jmp	.LBB1_279
.LBB1_282:                              # %for.body3.93
                                        #   Parent Loop BB1_1 Depth=1
                                        # =>  This Inner Loop Header: Depth=2
	movq	-2264(%rbp), %rax       # 8-byte Reload
	movq	-2256(%rbp), %rcx       # 8-byte Reload
	shlq	$4, %rcx
	addq	%rax, %rcx
	movq	-8(%rbp), %rdx          # 8-byte Reload
	movl	-4(%rdx,%rcx,4), %esi
	movq	-2256(%rbp), %rcx       # 8-byte Reload
	shlq	$4, %rcx
	addq	%rax, %rcx
	addl	(%rdx,%rcx,4), %esi
	movl	%esi, (%rdx,%rcx,4)
	addq	$1, %rax
	movq	-2256(%rbp), %rcx       # 8-byte Reload
	shlq	$4, %rcx
	addq	%rax, %rcx
	movl	-4(%rdx,%rcx,4), %esi
	movq	-2256(%rbp), %rcx       # 8-byte Reload
	shlq	$4, %rcx
	addq	%rax, %rcx
	addl	(%rdx,%rcx,4), %esi
	movl	%esi, (%rdx,%rcx,4)
	addq	$1, %rax
	movq	-2256(%rbp), %rcx       # 8-byte Reload
	shlq	$4, %rcx
	addq	%rax, %rcx
	movl	-4(%rdx,%rcx,4), %esi
	movq	-2256(%rbp), %rcx       # 8-byte Reload
	shlq	$4, %rcx
	addq	%rax, %rcx
	addl	(%rdx,%rcx,4), %esi
	movl	%esi, (%rdx,%rcx,4)
	addq	$1, %rax
	cmpq	$16, %rax
	movq	%rax, -2272(%rbp)       # 8-byte Spill
	jne	.LBB1_284
# %bb.283:                              # %for.inc9.93
                                        #   in Loop: Header=BB1_1 Depth=1
	movq	-2256(%rbp), %rax       # 8-byte Reload
	addq	$1, %rax
	movl	$1, %ecx
	movq	%rax, -2280(%rbp)       # 8-byte Spill
	movq	%rcx, -2288(%rbp)       # 8-byte Spill
	jmp	.LBB1_285
.LBB1_284:                              # %for.body3.3.93
                                        #   in Loop: Header=BB1_282 Depth=2
	movq	-2256(%rbp), %rax       # 8-byte Reload
	shlq	$4, %rax
	movq	-2272(%rbp), %rcx       # 8-byte Reload
	addq	%rcx, %rax
	movq	-8(%rbp), %rdx          # 8-byte Reload
	movl	-4(%rdx,%rax,4), %esi
	movq	-2256(%rbp), %rax       # 8-byte Reload
	shlq	$4, %rax
	addq	%rcx, %rax
	addl	(%rdx,%rax,4), %esi
	movl	%esi, (%rdx,%rax,4)
	addq	$1, %rcx
	movq	%rcx, -2264(%rbp)       # 8-byte Spill
	jmp	.LBB1_282
.LBB1_285:                              # %for.body3.94
                                        #   Parent Loop BB1_1 Depth=1
                                        # =>  This Inner Loop Header: Depth=2
	movq	-2288(%rbp), %rax       # 8-byte Reload
	movq	-2280(%rbp), %rcx       # 8-byte Reload
	shlq	$4, %rcx
	addq	%rax, %rcx
	movq	-8(%rbp), %rdx          # 8-byte Reload
	movl	-4(%rdx,%rcx,4), %esi
	movq	-2280(%rbp), %rcx       # 8-byte Reload
	shlq	$4, %rcx
	addq	%rax, %rcx
	addl	(%rdx,%rcx,4), %esi
	movl	%esi, (%rdx,%rcx,4)
	addq	$1, %rax
	movq	-2280(%rbp), %rcx       # 8-byte Reload
	shlq	$4, %rcx
	addq	%rax, %rcx
	movl	-4(%rdx,%rcx,4), %esi
	movq	-2280(%rbp), %rcx       # 8-byte Reload
	shlq	$4, %rcx
	addq	%rax, %rcx
	addl	(%rdx,%rcx,4), %esi
	movl	%esi, (%rdx,%rcx,4)
	addq	$1, %rax
	movq	-2280(%rbp), %rcx       # 8-byte Reload
	shlq	$4, %rcx
	addq	%rax, %rcx
	movl	-4(%rdx,%rcx,4), %esi
	movq	-2280(%rbp), %rcx       # 8-byte Reload
	shlq	$4, %rcx
	addq	%rax, %rcx
	addl	(%rdx,%rcx,4), %esi
	movl	%esi, (%rdx,%rcx,4)
	addq	$1, %rax
	cmpq	$16, %rax
	movq	%rax, -2296(%rbp)       # 8-byte Spill
	jne	.LBB1_287
# %bb.286:                              # %for.inc9.94
                                        #   in Loop: Header=BB1_1 Depth=1
	movq	-2280(%rbp), %rax       # 8-byte Reload
	addq	$1, %rax
	movl	$1, %ecx
	movq	%rax, -2304(%rbp)       # 8-byte Spill
	movq	%rcx, -2312(%rbp)       # 8-byte Spill
	jmp	.LBB1_288
.LBB1_287:                              # %for.body3.3.94
                                        #   in Loop: Header=BB1_285 Depth=2
	movq	-2280(%rbp), %rax       # 8-byte Reload
	shlq	$4, %rax
	movq	-2296(%rbp), %rcx       # 8-byte Reload
	addq	%rcx, %rax
	movq	-8(%rbp), %rdx          # 8-byte Reload
	movl	-4(%rdx,%rax,4), %esi
	movq	-2280(%rbp), %rax       # 8-byte Reload
	shlq	$4, %rax
	addq	%rcx, %rax
	addl	(%rdx,%rax,4), %esi
	movl	%esi, (%rdx,%rax,4)
	addq	$1, %rcx
	movq	%rcx, -2288(%rbp)       # 8-byte Spill
	jmp	.LBB1_285
.LBB1_288:                              # %for.body3.95
                                        #   Parent Loop BB1_1 Depth=1
                                        # =>  This Inner Loop Header: Depth=2
	movq	-2312(%rbp), %rax       # 8-byte Reload
	movq	-2304(%rbp), %rcx       # 8-byte Reload
	shlq	$4, %rcx
	addq	%rax, %rcx
	movq	-8(%rbp), %rdx          # 8-byte Reload
	movl	-4(%rdx,%rcx,4), %esi
	movq	-2304(%rbp), %rcx       # 8-byte Reload
	shlq	$4, %rcx
	addq	%rax, %rcx
	addl	(%rdx,%rcx,4), %esi
	movl	%esi, (%rdx,%rcx,4)
	addq	$1, %rax
	movq	-2304(%rbp), %rcx       # 8-byte Reload
	shlq	$4, %rcx
	addq	%rax, %rcx
	movl	-4(%rdx,%rcx,4), %esi
	movq	-2304(%rbp), %rcx       # 8-byte Reload
	shlq	$4, %rcx
	addq	%rax, %rcx
	addl	(%rdx,%rcx,4), %esi
	movl	%esi, (%rdx,%rcx,4)
	addq	$1, %rax
	movq	-2304(%rbp), %rcx       # 8-byte Reload
	shlq	$4, %rcx
	addq	%rax, %rcx
	movl	-4(%rdx,%rcx,4), %esi
	movq	-2304(%rbp), %rcx       # 8-byte Reload
	shlq	$4, %rcx
	addq	%rax, %rcx
	addl	(%rdx,%rcx,4), %esi
	movl	%esi, (%rdx,%rcx,4)
	addq	$1, %rax
	cmpq	$16, %rax
	movq	%rax, -2320(%rbp)       # 8-byte Spill
	jne	.LBB1_290
# %bb.289:                              # %for.inc9.95
                                        #   in Loop: Header=BB1_1 Depth=1
	movq	-2304(%rbp), %rax       # 8-byte Reload
	addq	$1, %rax
	movl	$1, %ecx
	movq	%rax, -2328(%rbp)       # 8-byte Spill
	movq	%rcx, -2336(%rbp)       # 8-byte Spill
	jmp	.LBB1_291
.LBB1_290:                              # %for.body3.3.95
                                        #   in Loop: Header=BB1_288 Depth=2
	movq	-2304(%rbp), %rax       # 8-byte Reload
	shlq	$4, %rax
	movq	-2320(%rbp), %rcx       # 8-byte Reload
	addq	%rcx, %rax
	movq	-8(%rbp), %rdx          # 8-byte Reload
	movl	-4(%rdx,%rax,4), %esi
	movq	-2304(%rbp), %rax       # 8-byte Reload
	shlq	$4, %rax
	addq	%rcx, %rax
	addl	(%rdx,%rax,4), %esi
	movl	%esi, (%rdx,%rax,4)
	addq	$1, %rcx
	movq	%rcx, -2312(%rbp)       # 8-byte Spill
	jmp	.LBB1_288
.LBB1_291:                              # %for.body3.96
                                        #   Parent Loop BB1_1 Depth=1
                                        # =>  This Inner Loop Header: Depth=2
	movq	-2336(%rbp), %rax       # 8-byte Reload
	movq	-2328(%rbp), %rcx       # 8-byte Reload
	shlq	$4, %rcx
	addq	%rax, %rcx
	movq	-8(%rbp), %rdx          # 8-byte Reload
	movl	-4(%rdx,%rcx,4), %esi
	movq	-2328(%rbp), %rcx       # 8-byte Reload
	shlq	$4, %rcx
	addq	%rax, %rcx
	addl	(%rdx,%rcx,4), %esi
	movl	%esi, (%rdx,%rcx,4)
	addq	$1, %rax
	movq	-2328(%rbp), %rcx       # 8-byte Reload
	shlq	$4, %rcx
	addq	%rax, %rcx
	movl	-4(%rdx,%rcx,4), %esi
	movq	-2328(%rbp), %rcx       # 8-byte Reload
	shlq	$4, %rcx
	addq	%rax, %rcx
	addl	(%rdx,%rcx,4), %esi
	movl	%esi, (%rdx,%rcx,4)
	addq	$1, %rax
	movq	-2328(%rbp), %rcx       # 8-byte Reload
	shlq	$4, %rcx
	addq	%rax, %rcx
	movl	-4(%rdx,%rcx,4), %esi
	movq	-2328(%rbp), %rcx       # 8-byte Reload
	shlq	$4, %rcx
	addq	%rax, %rcx
	addl	(%rdx,%rcx,4), %esi
	movl	%esi, (%rdx,%rcx,4)
	addq	$1, %rax
	cmpq	$16, %rax
	movq	%rax, -2344(%rbp)       # 8-byte Spill
	jne	.LBB1_293
# %bb.292:                              # %for.inc9.96
                                        #   in Loop: Header=BB1_1 Depth=1
	movq	-2328(%rbp), %rax       # 8-byte Reload
	addq	$1, %rax
	movl	$1, %ecx
	movq	%rax, -2352(%rbp)       # 8-byte Spill
	movq	%rcx, -2360(%rbp)       # 8-byte Spill
	jmp	.LBB1_294
.LBB1_293:                              # %for.body3.3.96
                                        #   in Loop: Header=BB1_291 Depth=2
	movq	-2328(%rbp), %rax       # 8-byte Reload
	shlq	$4, %rax
	movq	-2344(%rbp), %rcx       # 8-byte Reload
	addq	%rcx, %rax
	movq	-8(%rbp), %rdx          # 8-byte Reload
	movl	-4(%rdx,%rax,4), %esi
	movq	-2328(%rbp), %rax       # 8-byte Reload
	shlq	$4, %rax
	addq	%rcx, %rax
	addl	(%rdx,%rax,4), %esi
	movl	%esi, (%rdx,%rax,4)
	addq	$1, %rcx
	movq	%rcx, -2336(%rbp)       # 8-byte Spill
	jmp	.LBB1_291
.LBB1_294:                              # %for.body3.97
                                        #   Parent Loop BB1_1 Depth=1
                                        # =>  This Inner Loop Header: Depth=2
	movq	-2360(%rbp), %rax       # 8-byte Reload
	movq	-2352(%rbp), %rcx       # 8-byte Reload
	shlq	$4, %rcx
	addq	%rax, %rcx
	movq	-8(%rbp), %rdx          # 8-byte Reload
	movl	-4(%rdx,%rcx,4), %esi
	movq	-2352(%rbp), %rcx       # 8-byte Reload
	shlq	$4, %rcx
	addq	%rax, %rcx
	addl	(%rdx,%rcx,4), %esi
	movl	%esi, (%rdx,%rcx,4)
	addq	$1, %rax
	movq	-2352(%rbp), %rcx       # 8-byte Reload
	shlq	$4, %rcx
	addq	%rax, %rcx
	movl	-4(%rdx,%rcx,4), %esi
	movq	-2352(%rbp), %rcx       # 8-byte Reload
	shlq	$4, %rcx
	addq	%rax, %rcx
	addl	(%rdx,%rcx,4), %esi
	movl	%esi, (%rdx,%rcx,4)
	addq	$1, %rax
	movq	-2352(%rbp), %rcx       # 8-byte Reload
	shlq	$4, %rcx
	addq	%rax, %rcx
	movl	-4(%rdx,%rcx,4), %esi
	movq	-2352(%rbp), %rcx       # 8-byte Reload
	shlq	$4, %rcx
	addq	%rax, %rcx
	addl	(%rdx,%rcx,4), %esi
	movl	%esi, (%rdx,%rcx,4)
	addq	$1, %rax
	cmpq	$16, %rax
	movq	%rax, -2368(%rbp)       # 8-byte Spill
	jne	.LBB1_296
# %bb.295:                              # %for.inc9.97
                                        #   in Loop: Header=BB1_1 Depth=1
	movq	-2352(%rbp), %rax       # 8-byte Reload
	addq	$1, %rax
	movl	$1, %ecx
	movq	%rax, -2376(%rbp)       # 8-byte Spill
	movq	%rcx, -2384(%rbp)       # 8-byte Spill
	jmp	.LBB1_297
.LBB1_296:                              # %for.body3.3.97
                                        #   in Loop: Header=BB1_294 Depth=2
	movq	-2352(%rbp), %rax       # 8-byte Reload
	shlq	$4, %rax
	movq	-2368(%rbp), %rcx       # 8-byte Reload
	addq	%rcx, %rax
	movq	-8(%rbp), %rdx          # 8-byte Reload
	movl	-4(%rdx,%rax,4), %esi
	movq	-2352(%rbp), %rax       # 8-byte Reload
	shlq	$4, %rax
	addq	%rcx, %rax
	addl	(%rdx,%rax,4), %esi
	movl	%esi, (%rdx,%rax,4)
	addq	$1, %rcx
	movq	%rcx, -2360(%rbp)       # 8-byte Spill
	jmp	.LBB1_294
.LBB1_297:                              # %for.body3.98
                                        #   Parent Loop BB1_1 Depth=1
                                        # =>  This Inner Loop Header: Depth=2
	movq	-2384(%rbp), %rax       # 8-byte Reload
	movq	-2376(%rbp), %rcx       # 8-byte Reload
	shlq	$4, %rcx
	addq	%rax, %rcx
	movq	-8(%rbp), %rdx          # 8-byte Reload
	movl	-4(%rdx,%rcx,4), %esi
	movq	-2376(%rbp), %rcx       # 8-byte Reload
	shlq	$4, %rcx
	addq	%rax, %rcx
	addl	(%rdx,%rcx,4), %esi
	movl	%esi, (%rdx,%rcx,4)
	addq	$1, %rax
	movq	-2376(%rbp), %rcx       # 8-byte Reload
	shlq	$4, %rcx
	addq	%rax, %rcx
	movl	-4(%rdx,%rcx,4), %esi
	movq	-2376(%rbp), %rcx       # 8-byte Reload
	shlq	$4, %rcx
	addq	%rax, %rcx
	addl	(%rdx,%rcx,4), %esi
	movl	%esi, (%rdx,%rcx,4)
	addq	$1, %rax
	movq	-2376(%rbp), %rcx       # 8-byte Reload
	shlq	$4, %rcx
	addq	%rax, %rcx
	movl	-4(%rdx,%rcx,4), %esi
	movq	-2376(%rbp), %rcx       # 8-byte Reload
	shlq	$4, %rcx
	addq	%rax, %rcx
	addl	(%rdx,%rcx,4), %esi
	movl	%esi, (%rdx,%rcx,4)
	addq	$1, %rax
	cmpq	$16, %rax
	movq	%rax, -2392(%rbp)       # 8-byte Spill
	jne	.LBB1_299
# %bb.298:                              # %for.inc9.98
                                        #   in Loop: Header=BB1_1 Depth=1
	movq	-2376(%rbp), %rax       # 8-byte Reload
	addq	$1, %rax
	movl	$1, %ecx
	movq	%rax, -2400(%rbp)       # 8-byte Spill
	movq	%rcx, -2408(%rbp)       # 8-byte Spill
	jmp	.LBB1_300
.LBB1_299:                              # %for.body3.3.98
                                        #   in Loop: Header=BB1_297 Depth=2
	movq	-2376(%rbp), %rax       # 8-byte Reload
	shlq	$4, %rax
	movq	-2392(%rbp), %rcx       # 8-byte Reload
	addq	%rcx, %rax
	movq	-8(%rbp), %rdx          # 8-byte Reload
	movl	-4(%rdx,%rax,4), %esi
	movq	-2376(%rbp), %rax       # 8-byte Reload
	shlq	$4, %rax
	addq	%rcx, %rax
	addl	(%rdx,%rax,4), %esi
	movl	%esi, (%rdx,%rax,4)
	addq	$1, %rcx
	movq	%rcx, -2384(%rbp)       # 8-byte Spill
	jmp	.LBB1_297
.LBB1_300:                              # %for.body3.99
                                        #   Parent Loop BB1_1 Depth=1
                                        # =>  This Inner Loop Header: Depth=2
	movq	-2408(%rbp), %rax       # 8-byte Reload
	movq	-2400(%rbp), %rcx       # 8-byte Reload
	shlq	$4, %rcx
	addq	%rax, %rcx
	movq	-8(%rbp), %rdx          # 8-byte Reload
	movl	-4(%rdx,%rcx,4), %esi
	movq	-2400(%rbp), %rcx       # 8-byte Reload
	shlq	$4, %rcx
	addq	%rax, %rcx
	addl	(%rdx,%rcx,4), %esi
	movl	%esi, (%rdx,%rcx,4)
	addq	$1, %rax
	movq	-2400(%rbp), %rcx       # 8-byte Reload
	shlq	$4, %rcx
	addq	%rax, %rcx
	movl	-4(%rdx,%rcx,4), %esi
	movq	-2400(%rbp), %rcx       # 8-byte Reload
	shlq	$4, %rcx
	addq	%rax, %rcx
	addl	(%rdx,%rcx,4), %esi
	movl	%esi, (%rdx,%rcx,4)
	addq	$1, %rax
	movq	-2400(%rbp), %rcx       # 8-byte Reload
	shlq	$4, %rcx
	addq	%rax, %rcx
	movl	-4(%rdx,%rcx,4), %esi
	movq	-2400(%rbp), %rcx       # 8-byte Reload
	shlq	$4, %rcx
	addq	%rax, %rcx
	addl	(%rdx,%rcx,4), %esi
	movl	%esi, (%rdx,%rcx,4)
	addq	$1, %rax
	cmpq	$16, %rax
	movq	%rax, -2416(%rbp)       # 8-byte Spill
	jne	.LBB1_302
# %bb.301:                              # %for.inc9.99
                                        #   in Loop: Header=BB1_1 Depth=1
	movq	-2400(%rbp), %rax       # 8-byte Reload
	addq	$1, %rax
	movl	$1, %ecx
	movq	%rax, -2424(%rbp)       # 8-byte Spill
	movq	%rcx, -2432(%rbp)       # 8-byte Spill
	jmp	.LBB1_303
.LBB1_302:                              # %for.body3.3.99
                                        #   in Loop: Header=BB1_300 Depth=2
	movq	-2400(%rbp), %rax       # 8-byte Reload
	shlq	$4, %rax
	movq	-2416(%rbp), %rcx       # 8-byte Reload
	addq	%rcx, %rax
	movq	-8(%rbp), %rdx          # 8-byte Reload
	movl	-4(%rdx,%rax,4), %esi
	movq	-2400(%rbp), %rax       # 8-byte Reload
	shlq	$4, %rax
	addq	%rcx, %rax
	addl	(%rdx,%rax,4), %esi
	movl	%esi, (%rdx,%rax,4)
	addq	$1, %rcx
	movq	%rcx, -2408(%rbp)       # 8-byte Spill
	jmp	.LBB1_300
.LBB1_303:                              # %for.body3.100
                                        #   Parent Loop BB1_1 Depth=1
                                        # =>  This Inner Loop Header: Depth=2
	movq	-2432(%rbp), %rax       # 8-byte Reload
	movq	-2424(%rbp), %rcx       # 8-byte Reload
	shlq	$4, %rcx
	addq	%rax, %rcx
	movq	-8(%rbp), %rdx          # 8-byte Reload
	movl	-4(%rdx,%rcx,4), %esi
	movq	-2424(%rbp), %rcx       # 8-byte Reload
	shlq	$4, %rcx
	addq	%rax, %rcx
	addl	(%rdx,%rcx,4), %esi
	movl	%esi, (%rdx,%rcx,4)
	addq	$1, %rax
	movq	-2424(%rbp), %rcx       # 8-byte Reload
	shlq	$4, %rcx
	addq	%rax, %rcx
	movl	-4(%rdx,%rcx,4), %esi
	movq	-2424(%rbp), %rcx       # 8-byte Reload
	shlq	$4, %rcx
	addq	%rax, %rcx
	addl	(%rdx,%rcx,4), %esi
	movl	%esi, (%rdx,%rcx,4)
	addq	$1, %rax
	movq	-2424(%rbp), %rcx       # 8-byte Reload
	shlq	$4, %rcx
	addq	%rax, %rcx
	movl	-4(%rdx,%rcx,4), %esi
	movq	-2424(%rbp), %rcx       # 8-byte Reload
	shlq	$4, %rcx
	addq	%rax, %rcx
	addl	(%rdx,%rcx,4), %esi
	movl	%esi, (%rdx,%rcx,4)
	addq	$1, %rax
	cmpq	$16, %rax
	movq	%rax, -2440(%rbp)       # 8-byte Spill
	jne	.LBB1_305
# %bb.304:                              # %for.inc9.100
                                        #   in Loop: Header=BB1_1 Depth=1
	movq	-2424(%rbp), %rax       # 8-byte Reload
	addq	$1, %rax
	movl	$1, %ecx
	movq	%rax, -2448(%rbp)       # 8-byte Spill
	movq	%rcx, -2456(%rbp)       # 8-byte Spill
	jmp	.LBB1_306
.LBB1_305:                              # %for.body3.3.100
                                        #   in Loop: Header=BB1_303 Depth=2
	movq	-2424(%rbp), %rax       # 8-byte Reload
	shlq	$4, %rax
	movq	-2440(%rbp), %rcx       # 8-byte Reload
	addq	%rcx, %rax
	movq	-8(%rbp), %rdx          # 8-byte Reload
	movl	-4(%rdx,%rax,4), %esi
	movq	-2424(%rbp), %rax       # 8-byte Reload
	shlq	$4, %rax
	addq	%rcx, %rax
	addl	(%rdx,%rax,4), %esi
	movl	%esi, (%rdx,%rax,4)
	addq	$1, %rcx
	movq	%rcx, -2432(%rbp)       # 8-byte Spill
	jmp	.LBB1_303
.LBB1_306:                              # %for.body3.101
                                        #   Parent Loop BB1_1 Depth=1
                                        # =>  This Inner Loop Header: Depth=2
	movq	-2456(%rbp), %rax       # 8-byte Reload
	movq	-2448(%rbp), %rcx       # 8-byte Reload
	shlq	$4, %rcx
	addq	%rax, %rcx
	movq	-8(%rbp), %rdx          # 8-byte Reload
	movl	-4(%rdx,%rcx,4), %esi
	movq	-2448(%rbp), %rcx       # 8-byte Reload
	shlq	$4, %rcx
	addq	%rax, %rcx
	addl	(%rdx,%rcx,4), %esi
	movl	%esi, (%rdx,%rcx,4)
	addq	$1, %rax
	movq	-2448(%rbp), %rcx       # 8-byte Reload
	shlq	$4, %rcx
	addq	%rax, %rcx
	movl	-4(%rdx,%rcx,4), %esi
	movq	-2448(%rbp), %rcx       # 8-byte Reload
	shlq	$4, %rcx
	addq	%rax, %rcx
	addl	(%rdx,%rcx,4), %esi
	movl	%esi, (%rdx,%rcx,4)
	addq	$1, %rax
	movq	-2448(%rbp), %rcx       # 8-byte Reload
	shlq	$4, %rcx
	addq	%rax, %rcx
	movl	-4(%rdx,%rcx,4), %esi
	movq	-2448(%rbp), %rcx       # 8-byte Reload
	shlq	$4, %rcx
	addq	%rax, %rcx
	addl	(%rdx,%rcx,4), %esi
	movl	%esi, (%rdx,%rcx,4)
	addq	$1, %rax
	cmpq	$16, %rax
	movq	%rax, -2464(%rbp)       # 8-byte Spill
	jne	.LBB1_308
# %bb.307:                              # %for.inc9.101
                                        #   in Loop: Header=BB1_1 Depth=1
	movq	-2448(%rbp), %rax       # 8-byte Reload
	addq	$1, %rax
	movl	$1, %ecx
	movq	%rax, -2472(%rbp)       # 8-byte Spill
	movq	%rcx, -2480(%rbp)       # 8-byte Spill
	jmp	.LBB1_309
.LBB1_308:                              # %for.body3.3.101
                                        #   in Loop: Header=BB1_306 Depth=2
	movq	-2448(%rbp), %rax       # 8-byte Reload
	shlq	$4, %rax
	movq	-2464(%rbp), %rcx       # 8-byte Reload
	addq	%rcx, %rax
	movq	-8(%rbp), %rdx          # 8-byte Reload
	movl	-4(%rdx,%rax,4), %esi
	movq	-2448(%rbp), %rax       # 8-byte Reload
	shlq	$4, %rax
	addq	%rcx, %rax
	addl	(%rdx,%rax,4), %esi
	movl	%esi, (%rdx,%rax,4)
	addq	$1, %rcx
	movq	%rcx, -2456(%rbp)       # 8-byte Spill
	jmp	.LBB1_306
.LBB1_309:                              # %for.body3.102
                                        #   Parent Loop BB1_1 Depth=1
                                        # =>  This Inner Loop Header: Depth=2
	movq	-2480(%rbp), %rax       # 8-byte Reload
	movq	-2472(%rbp), %rcx       # 8-byte Reload
	shlq	$4, %rcx
	addq	%rax, %rcx
	movq	-8(%rbp), %rdx          # 8-byte Reload
	movl	-4(%rdx,%rcx,4), %esi
	movq	-2472(%rbp), %rcx       # 8-byte Reload
	shlq	$4, %rcx
	addq	%rax, %rcx
	addl	(%rdx,%rcx,4), %esi
	movl	%esi, (%rdx,%rcx,4)
	addq	$1, %rax
	movq	-2472(%rbp), %rcx       # 8-byte Reload
	shlq	$4, %rcx
	addq	%rax, %rcx
	movl	-4(%rdx,%rcx,4), %esi
	movq	-2472(%rbp), %rcx       # 8-byte Reload
	shlq	$4, %rcx
	addq	%rax, %rcx
	addl	(%rdx,%rcx,4), %esi
	movl	%esi, (%rdx,%rcx,4)
	addq	$1, %rax
	movq	-2472(%rbp), %rcx       # 8-byte Reload
	shlq	$4, %rcx
	addq	%rax, %rcx
	movl	-4(%rdx,%rcx,4), %esi
	movq	-2472(%rbp), %rcx       # 8-byte Reload
	shlq	$4, %rcx
	addq	%rax, %rcx
	addl	(%rdx,%rcx,4), %esi
	movl	%esi, (%rdx,%rcx,4)
	addq	$1, %rax
	cmpq	$16, %rax
	movq	%rax, -2488(%rbp)       # 8-byte Spill
	jne	.LBB1_311
# %bb.310:                              # %for.inc9.102
                                        #   in Loop: Header=BB1_1 Depth=1
	movq	-2472(%rbp), %rax       # 8-byte Reload
	addq	$1, %rax
	movl	$1, %ecx
	movq	%rax, -2496(%rbp)       # 8-byte Spill
	movq	%rcx, -2504(%rbp)       # 8-byte Spill
	jmp	.LBB1_312
.LBB1_311:                              # %for.body3.3.102
                                        #   in Loop: Header=BB1_309 Depth=2
	movq	-2472(%rbp), %rax       # 8-byte Reload
	shlq	$4, %rax
	movq	-2488(%rbp), %rcx       # 8-byte Reload
	addq	%rcx, %rax
	movq	-8(%rbp), %rdx          # 8-byte Reload
	movl	-4(%rdx,%rax,4), %esi
	movq	-2472(%rbp), %rax       # 8-byte Reload
	shlq	$4, %rax
	addq	%rcx, %rax
	addl	(%rdx,%rax,4), %esi
	movl	%esi, (%rdx,%rax,4)
	addq	$1, %rcx
	movq	%rcx, -2480(%rbp)       # 8-byte Spill
	jmp	.LBB1_309
.LBB1_312:                              # %for.body3.103
                                        #   Parent Loop BB1_1 Depth=1
                                        # =>  This Inner Loop Header: Depth=2
	movq	-2504(%rbp), %rax       # 8-byte Reload
	movq	-2496(%rbp), %rcx       # 8-byte Reload
	shlq	$4, %rcx
	addq	%rax, %rcx
	movq	-8(%rbp), %rdx          # 8-byte Reload
	movl	-4(%rdx,%rcx,4), %esi
	movq	-2496(%rbp), %rcx       # 8-byte Reload
	shlq	$4, %rcx
	addq	%rax, %rcx
	addl	(%rdx,%rcx,4), %esi
	movl	%esi, (%rdx,%rcx,4)
	addq	$1, %rax
	movq	-2496(%rbp), %rcx       # 8-byte Reload
	shlq	$4, %rcx
	addq	%rax, %rcx
	movl	-4(%rdx,%rcx,4), %esi
	movq	-2496(%rbp), %rcx       # 8-byte Reload
	shlq	$4, %rcx
	addq	%rax, %rcx
	addl	(%rdx,%rcx,4), %esi
	movl	%esi, (%rdx,%rcx,4)
	addq	$1, %rax
	movq	-2496(%rbp), %rcx       # 8-byte Reload
	shlq	$4, %rcx
	addq	%rax, %rcx
	movl	-4(%rdx,%rcx,4), %esi
	movq	-2496(%rbp), %rcx       # 8-byte Reload
	shlq	$4, %rcx
	addq	%rax, %rcx
	addl	(%rdx,%rcx,4), %esi
	movl	%esi, (%rdx,%rcx,4)
	addq	$1, %rax
	cmpq	$16, %rax
	movq	%rax, -2512(%rbp)       # 8-byte Spill
	jne	.LBB1_314
# %bb.313:                              # %for.inc9.103
                                        #   in Loop: Header=BB1_1 Depth=1
	movq	-2496(%rbp), %rax       # 8-byte Reload
	addq	$1, %rax
	movl	$1, %ecx
	movq	%rax, -2520(%rbp)       # 8-byte Spill
	movq	%rcx, -2528(%rbp)       # 8-byte Spill
	jmp	.LBB1_315
.LBB1_314:                              # %for.body3.3.103
                                        #   in Loop: Header=BB1_312 Depth=2
	movq	-2496(%rbp), %rax       # 8-byte Reload
	shlq	$4, %rax
	movq	-2512(%rbp), %rcx       # 8-byte Reload
	addq	%rcx, %rax
	movq	-8(%rbp), %rdx          # 8-byte Reload
	movl	-4(%rdx,%rax,4), %esi
	movq	-2496(%rbp), %rax       # 8-byte Reload
	shlq	$4, %rax
	addq	%rcx, %rax
	addl	(%rdx,%rax,4), %esi
	movl	%esi, (%rdx,%rax,4)
	addq	$1, %rcx
	movq	%rcx, -2504(%rbp)       # 8-byte Spill
	jmp	.LBB1_312
.LBB1_315:                              # %for.body3.104
                                        #   Parent Loop BB1_1 Depth=1
                                        # =>  This Inner Loop Header: Depth=2
	movq	-2528(%rbp), %rax       # 8-byte Reload
	movq	-2520(%rbp), %rcx       # 8-byte Reload
	shlq	$4, %rcx
	addq	%rax, %rcx
	movq	-8(%rbp), %rdx          # 8-byte Reload
	movl	-4(%rdx,%rcx,4), %esi
	movq	-2520(%rbp), %rcx       # 8-byte Reload
	shlq	$4, %rcx
	addq	%rax, %rcx
	addl	(%rdx,%rcx,4), %esi
	movl	%esi, (%rdx,%rcx,4)
	addq	$1, %rax
	movq	-2520(%rbp), %rcx       # 8-byte Reload
	shlq	$4, %rcx
	addq	%rax, %rcx
	movl	-4(%rdx,%rcx,4), %esi
	movq	-2520(%rbp), %rcx       # 8-byte Reload
	shlq	$4, %rcx
	addq	%rax, %rcx
	addl	(%rdx,%rcx,4), %esi
	movl	%esi, (%rdx,%rcx,4)
	addq	$1, %rax
	movq	-2520(%rbp), %rcx       # 8-byte Reload
	shlq	$4, %rcx
	addq	%rax, %rcx
	movl	-4(%rdx,%rcx,4), %esi
	movq	-2520(%rbp), %rcx       # 8-byte Reload
	shlq	$4, %rcx
	addq	%rax, %rcx
	addl	(%rdx,%rcx,4), %esi
	movl	%esi, (%rdx,%rcx,4)
	addq	$1, %rax
	cmpq	$16, %rax
	movq	%rax, -2536(%rbp)       # 8-byte Spill
	jne	.LBB1_317
# %bb.316:                              # %for.inc9.104
                                        #   in Loop: Header=BB1_1 Depth=1
	movq	-2520(%rbp), %rax       # 8-byte Reload
	addq	$1, %rax
	movl	$1, %ecx
	movq	%rax, -2544(%rbp)       # 8-byte Spill
	movq	%rcx, -2552(%rbp)       # 8-byte Spill
	jmp	.LBB1_318
.LBB1_317:                              # %for.body3.3.104
                                        #   in Loop: Header=BB1_315 Depth=2
	movq	-2520(%rbp), %rax       # 8-byte Reload
	shlq	$4, %rax
	movq	-2536(%rbp), %rcx       # 8-byte Reload
	addq	%rcx, %rax
	movq	-8(%rbp), %rdx          # 8-byte Reload
	movl	-4(%rdx,%rax,4), %esi
	movq	-2520(%rbp), %rax       # 8-byte Reload
	shlq	$4, %rax
	addq	%rcx, %rax
	addl	(%rdx,%rax,4), %esi
	movl	%esi, (%rdx,%rax,4)
	addq	$1, %rcx
	movq	%rcx, -2528(%rbp)       # 8-byte Spill
	jmp	.LBB1_315
.LBB1_318:                              # %for.body3.105
                                        #   Parent Loop BB1_1 Depth=1
                                        # =>  This Inner Loop Header: Depth=2
	movq	-2552(%rbp), %rax       # 8-byte Reload
	movq	-2544(%rbp), %rcx       # 8-byte Reload
	shlq	$4, %rcx
	addq	%rax, %rcx
	movq	-8(%rbp), %rdx          # 8-byte Reload
	movl	-4(%rdx,%rcx,4), %esi
	movq	-2544(%rbp), %rcx       # 8-byte Reload
	shlq	$4, %rcx
	addq	%rax, %rcx
	addl	(%rdx,%rcx,4), %esi
	movl	%esi, (%rdx,%rcx,4)
	addq	$1, %rax
	movq	-2544(%rbp), %rcx       # 8-byte Reload
	shlq	$4, %rcx
	addq	%rax, %rcx
	movl	-4(%rdx,%rcx,4), %esi
	movq	-2544(%rbp), %rcx       # 8-byte Reload
	shlq	$4, %rcx
	addq	%rax, %rcx
	addl	(%rdx,%rcx,4), %esi
	movl	%esi, (%rdx,%rcx,4)
	addq	$1, %rax
	movq	-2544(%rbp), %rcx       # 8-byte Reload
	shlq	$4, %rcx
	addq	%rax, %rcx
	movl	-4(%rdx,%rcx,4), %esi
	movq	-2544(%rbp), %rcx       # 8-byte Reload
	shlq	$4, %rcx
	addq	%rax, %rcx
	addl	(%rdx,%rcx,4), %esi
	movl	%esi, (%rdx,%rcx,4)
	addq	$1, %rax
	cmpq	$16, %rax
	movq	%rax, -2560(%rbp)       # 8-byte Spill
	jne	.LBB1_320
# %bb.319:                              # %for.inc9.105
                                        #   in Loop: Header=BB1_1 Depth=1
	movq	-2544(%rbp), %rax       # 8-byte Reload
	addq	$1, %rax
	movl	$1, %ecx
	movq	%rax, -2568(%rbp)       # 8-byte Spill
	movq	%rcx, -2576(%rbp)       # 8-byte Spill
	jmp	.LBB1_321
.LBB1_320:                              # %for.body3.3.105
                                        #   in Loop: Header=BB1_318 Depth=2
	movq	-2544(%rbp), %rax       # 8-byte Reload
	shlq	$4, %rax
	movq	-2560(%rbp), %rcx       # 8-byte Reload
	addq	%rcx, %rax
	movq	-8(%rbp), %rdx          # 8-byte Reload
	movl	-4(%rdx,%rax,4), %esi
	movq	-2544(%rbp), %rax       # 8-byte Reload
	shlq	$4, %rax
	addq	%rcx, %rax
	addl	(%rdx,%rax,4), %esi
	movl	%esi, (%rdx,%rax,4)
	addq	$1, %rcx
	movq	%rcx, -2552(%rbp)       # 8-byte Spill
	jmp	.LBB1_318
.LBB1_321:                              # %for.body3.106
                                        #   Parent Loop BB1_1 Depth=1
                                        # =>  This Inner Loop Header: Depth=2
	movq	-2576(%rbp), %rax       # 8-byte Reload
	movq	-2568(%rbp), %rcx       # 8-byte Reload
	shlq	$4, %rcx
	addq	%rax, %rcx
	movq	-8(%rbp), %rdx          # 8-byte Reload
	movl	-4(%rdx,%rcx,4), %esi
	movq	-2568(%rbp), %rcx       # 8-byte Reload
	shlq	$4, %rcx
	addq	%rax, %rcx
	addl	(%rdx,%rcx,4), %esi
	movl	%esi, (%rdx,%rcx,4)
	addq	$1, %rax
	movq	-2568(%rbp), %rcx       # 8-byte Reload
	shlq	$4, %rcx
	addq	%rax, %rcx
	movl	-4(%rdx,%rcx,4), %esi
	movq	-2568(%rbp), %rcx       # 8-byte Reload
	shlq	$4, %rcx
	addq	%rax, %rcx
	addl	(%rdx,%rcx,4), %esi
	movl	%esi, (%rdx,%rcx,4)
	addq	$1, %rax
	movq	-2568(%rbp), %rcx       # 8-byte Reload
	shlq	$4, %rcx
	addq	%rax, %rcx
	movl	-4(%rdx,%rcx,4), %esi
	movq	-2568(%rbp), %rcx       # 8-byte Reload
	shlq	$4, %rcx
	addq	%rax, %rcx
	addl	(%rdx,%rcx,4), %esi
	movl	%esi, (%rdx,%rcx,4)
	addq	$1, %rax
	cmpq	$16, %rax
	movq	%rax, -2584(%rbp)       # 8-byte Spill
	jne	.LBB1_323
# %bb.322:                              # %for.inc9.106
                                        #   in Loop: Header=BB1_1 Depth=1
	movq	-2568(%rbp), %rax       # 8-byte Reload
	addq	$1, %rax
	movl	$1, %ecx
	movq	%rax, -2592(%rbp)       # 8-byte Spill
	movq	%rcx, -2600(%rbp)       # 8-byte Spill
	jmp	.LBB1_324
.LBB1_323:                              # %for.body3.3.106
                                        #   in Loop: Header=BB1_321 Depth=2
	movq	-2568(%rbp), %rax       # 8-byte Reload
	shlq	$4, %rax
	movq	-2584(%rbp), %rcx       # 8-byte Reload
	addq	%rcx, %rax
	movq	-8(%rbp), %rdx          # 8-byte Reload
	movl	-4(%rdx,%rax,4), %esi
	movq	-2568(%rbp), %rax       # 8-byte Reload
	shlq	$4, %rax
	addq	%rcx, %rax
	addl	(%rdx,%rax,4), %esi
	movl	%esi, (%rdx,%rax,4)
	addq	$1, %rcx
	movq	%rcx, -2576(%rbp)       # 8-byte Spill
	jmp	.LBB1_321
.LBB1_324:                              # %for.body3.107
                                        #   Parent Loop BB1_1 Depth=1
                                        # =>  This Inner Loop Header: Depth=2
	movq	-2600(%rbp), %rax       # 8-byte Reload
	movq	-2592(%rbp), %rcx       # 8-byte Reload
	shlq	$4, %rcx
	addq	%rax, %rcx
	movq	-8(%rbp), %rdx          # 8-byte Reload
	movl	-4(%rdx,%rcx,4), %esi
	movq	-2592(%rbp), %rcx       # 8-byte Reload
	shlq	$4, %rcx
	addq	%rax, %rcx
	addl	(%rdx,%rcx,4), %esi
	movl	%esi, (%rdx,%rcx,4)
	addq	$1, %rax
	movq	-2592(%rbp), %rcx       # 8-byte Reload
	shlq	$4, %rcx
	addq	%rax, %rcx
	movl	-4(%rdx,%rcx,4), %esi
	movq	-2592(%rbp), %rcx       # 8-byte Reload
	shlq	$4, %rcx
	addq	%rax, %rcx
	addl	(%rdx,%rcx,4), %esi
	movl	%esi, (%rdx,%rcx,4)
	addq	$1, %rax
	movq	-2592(%rbp), %rcx       # 8-byte Reload
	shlq	$4, %rcx
	addq	%rax, %rcx
	movl	-4(%rdx,%rcx,4), %esi
	movq	-2592(%rbp), %rcx       # 8-byte Reload
	shlq	$4, %rcx
	addq	%rax, %rcx
	addl	(%rdx,%rcx,4), %esi
	movl	%esi, (%rdx,%rcx,4)
	addq	$1, %rax
	cmpq	$16, %rax
	movq	%rax, -2608(%rbp)       # 8-byte Spill
	jne	.LBB1_326
# %bb.325:                              # %for.inc9.107
                                        #   in Loop: Header=BB1_1 Depth=1
	movq	-2592(%rbp), %rax       # 8-byte Reload
	addq	$1, %rax
	movl	$1, %ecx
	movq	%rax, -2616(%rbp)       # 8-byte Spill
	movq	%rcx, -2624(%rbp)       # 8-byte Spill
	jmp	.LBB1_327
.LBB1_326:                              # %for.body3.3.107
                                        #   in Loop: Header=BB1_324 Depth=2
	movq	-2592(%rbp), %rax       # 8-byte Reload
	shlq	$4, %rax
	movq	-2608(%rbp), %rcx       # 8-byte Reload
	addq	%rcx, %rax
	movq	-8(%rbp), %rdx          # 8-byte Reload
	movl	-4(%rdx,%rax,4), %esi
	movq	-2592(%rbp), %rax       # 8-byte Reload
	shlq	$4, %rax
	addq	%rcx, %rax
	addl	(%rdx,%rax,4), %esi
	movl	%esi, (%rdx,%rax,4)
	addq	$1, %rcx
	movq	%rcx, -2600(%rbp)       # 8-byte Spill
	jmp	.LBB1_324
.LBB1_327:                              # %for.body3.108
                                        #   Parent Loop BB1_1 Depth=1
                                        # =>  This Inner Loop Header: Depth=2
	movq	-2624(%rbp), %rax       # 8-byte Reload
	movq	-2616(%rbp), %rcx       # 8-byte Reload
	shlq	$4, %rcx
	addq	%rax, %rcx
	movq	-8(%rbp), %rdx          # 8-byte Reload
	movl	-4(%rdx,%rcx,4), %esi
	movq	-2616(%rbp), %rcx       # 8-byte Reload
	shlq	$4, %rcx
	addq	%rax, %rcx
	addl	(%rdx,%rcx,4), %esi
	movl	%esi, (%rdx,%rcx,4)
	addq	$1, %rax
	movq	-2616(%rbp), %rcx       # 8-byte Reload
	shlq	$4, %rcx
	addq	%rax, %rcx
	movl	-4(%rdx,%rcx,4), %esi
	movq	-2616(%rbp), %rcx       # 8-byte Reload
	shlq	$4, %rcx
	addq	%rax, %rcx
	addl	(%rdx,%rcx,4), %esi
	movl	%esi, (%rdx,%rcx,4)
	addq	$1, %rax
	movq	-2616(%rbp), %rcx       # 8-byte Reload
	shlq	$4, %rcx
	addq	%rax, %rcx
	movl	-4(%rdx,%rcx,4), %esi
	movq	-2616(%rbp), %rcx       # 8-byte Reload
	shlq	$4, %rcx
	addq	%rax, %rcx
	addl	(%rdx,%rcx,4), %esi
	movl	%esi, (%rdx,%rcx,4)
	addq	$1, %rax
	cmpq	$16, %rax
	movq	%rax, -2632(%rbp)       # 8-byte Spill
	jne	.LBB1_329
# %bb.328:                              # %for.inc9.108
                                        #   in Loop: Header=BB1_1 Depth=1
	movq	-2616(%rbp), %rax       # 8-byte Reload
	addq	$1, %rax
	movl	$1, %ecx
	movq	%rax, -2640(%rbp)       # 8-byte Spill
	movq	%rcx, -2648(%rbp)       # 8-byte Spill
	jmp	.LBB1_330
.LBB1_329:                              # %for.body3.3.108
                                        #   in Loop: Header=BB1_327 Depth=2
	movq	-2616(%rbp), %rax       # 8-byte Reload
	shlq	$4, %rax
	movq	-2632(%rbp), %rcx       # 8-byte Reload
	addq	%rcx, %rax
	movq	-8(%rbp), %rdx          # 8-byte Reload
	movl	-4(%rdx,%rax,4), %esi
	movq	-2616(%rbp), %rax       # 8-byte Reload
	shlq	$4, %rax
	addq	%rcx, %rax
	addl	(%rdx,%rax,4), %esi
	movl	%esi, (%rdx,%rax,4)
	addq	$1, %rcx
	movq	%rcx, -2624(%rbp)       # 8-byte Spill
	jmp	.LBB1_327
.LBB1_330:                              # %for.body3.109
                                        #   Parent Loop BB1_1 Depth=1
                                        # =>  This Inner Loop Header: Depth=2
	movq	-2648(%rbp), %rax       # 8-byte Reload
	movq	-2640(%rbp), %rcx       # 8-byte Reload
	shlq	$4, %rcx
	addq	%rax, %rcx
	movq	-8(%rbp), %rdx          # 8-byte Reload
	movl	-4(%rdx,%rcx,4), %esi
	movq	-2640(%rbp), %rcx       # 8-byte Reload
	shlq	$4, %rcx
	addq	%rax, %rcx
	addl	(%rdx,%rcx,4), %esi
	movl	%esi, (%rdx,%rcx,4)
	addq	$1, %rax
	movq	-2640(%rbp), %rcx       # 8-byte Reload
	shlq	$4, %rcx
	addq	%rax, %rcx
	movl	-4(%rdx,%rcx,4), %esi
	movq	-2640(%rbp), %rcx       # 8-byte Reload
	shlq	$4, %rcx
	addq	%rax, %rcx
	addl	(%rdx,%rcx,4), %esi
	movl	%esi, (%rdx,%rcx,4)
	addq	$1, %rax
	movq	-2640(%rbp), %rcx       # 8-byte Reload
	shlq	$4, %rcx
	addq	%rax, %rcx
	movl	-4(%rdx,%rcx,4), %esi
	movq	-2640(%rbp), %rcx       # 8-byte Reload
	shlq	$4, %rcx
	addq	%rax, %rcx
	addl	(%rdx,%rcx,4), %esi
	movl	%esi, (%rdx,%rcx,4)
	addq	$1, %rax
	cmpq	$16, %rax
	movq	%rax, -2656(%rbp)       # 8-byte Spill
	jne	.LBB1_332
# %bb.331:                              # %for.inc9.109
                                        #   in Loop: Header=BB1_1 Depth=1
	movq	-2640(%rbp), %rax       # 8-byte Reload
	addq	$1, %rax
	movl	$1, %ecx
	movq	%rax, -2664(%rbp)       # 8-byte Spill
	movq	%rcx, -2672(%rbp)       # 8-byte Spill
	jmp	.LBB1_333
.LBB1_332:                              # %for.body3.3.109
                                        #   in Loop: Header=BB1_330 Depth=2
	movq	-2640(%rbp), %rax       # 8-byte Reload
	shlq	$4, %rax
	movq	-2656(%rbp), %rcx       # 8-byte Reload
	addq	%rcx, %rax
	movq	-8(%rbp), %rdx          # 8-byte Reload
	movl	-4(%rdx,%rax,4), %esi
	movq	-2640(%rbp), %rax       # 8-byte Reload
	shlq	$4, %rax
	addq	%rcx, %rax
	addl	(%rdx,%rax,4), %esi
	movl	%esi, (%rdx,%rax,4)
	addq	$1, %rcx
	movq	%rcx, -2648(%rbp)       # 8-byte Spill
	jmp	.LBB1_330
.LBB1_333:                              # %for.body3.110
                                        #   Parent Loop BB1_1 Depth=1
                                        # =>  This Inner Loop Header: Depth=2
	movq	-2672(%rbp), %rax       # 8-byte Reload
	movq	-2664(%rbp), %rcx       # 8-byte Reload
	shlq	$4, %rcx
	addq	%rax, %rcx
	movq	-8(%rbp), %rdx          # 8-byte Reload
	movl	-4(%rdx,%rcx,4), %esi
	movq	-2664(%rbp), %rcx       # 8-byte Reload
	shlq	$4, %rcx
	addq	%rax, %rcx
	addl	(%rdx,%rcx,4), %esi
	movl	%esi, (%rdx,%rcx,4)
	addq	$1, %rax
	movq	-2664(%rbp), %rcx       # 8-byte Reload
	shlq	$4, %rcx
	addq	%rax, %rcx
	movl	-4(%rdx,%rcx,4), %esi
	movq	-2664(%rbp), %rcx       # 8-byte Reload
	shlq	$4, %rcx
	addq	%rax, %rcx
	addl	(%rdx,%rcx,4), %esi
	movl	%esi, (%rdx,%rcx,4)
	addq	$1, %rax
	movq	-2664(%rbp), %rcx       # 8-byte Reload
	shlq	$4, %rcx
	addq	%rax, %rcx
	movl	-4(%rdx,%rcx,4), %esi
	movq	-2664(%rbp), %rcx       # 8-byte Reload
	shlq	$4, %rcx
	addq	%rax, %rcx
	addl	(%rdx,%rcx,4), %esi
	movl	%esi, (%rdx,%rcx,4)
	addq	$1, %rax
	cmpq	$16, %rax
	movq	%rax, -2680(%rbp)       # 8-byte Spill
	jne	.LBB1_335
# %bb.334:                              # %for.inc9.110
                                        #   in Loop: Header=BB1_1 Depth=1
	movq	-2664(%rbp), %rax       # 8-byte Reload
	addq	$1, %rax
	movl	$1, %ecx
	movq	%rax, -2688(%rbp)       # 8-byte Spill
	movq	%rcx, -2696(%rbp)       # 8-byte Spill
	jmp	.LBB1_336
.LBB1_335:                              # %for.body3.3.110
                                        #   in Loop: Header=BB1_333 Depth=2
	movq	-2664(%rbp), %rax       # 8-byte Reload
	shlq	$4, %rax
	movq	-2680(%rbp), %rcx       # 8-byte Reload
	addq	%rcx, %rax
	movq	-8(%rbp), %rdx          # 8-byte Reload
	movl	-4(%rdx,%rax,4), %esi
	movq	-2664(%rbp), %rax       # 8-byte Reload
	shlq	$4, %rax
	addq	%rcx, %rax
	addl	(%rdx,%rax,4), %esi
	movl	%esi, (%rdx,%rax,4)
	addq	$1, %rcx
	movq	%rcx, -2672(%rbp)       # 8-byte Spill
	jmp	.LBB1_333
.LBB1_336:                              # %for.body3.111
                                        #   Parent Loop BB1_1 Depth=1
                                        # =>  This Inner Loop Header: Depth=2
	movq	-2696(%rbp), %rax       # 8-byte Reload
	movq	-2688(%rbp), %rcx       # 8-byte Reload
	shlq	$4, %rcx
	addq	%rax, %rcx
	movq	-8(%rbp), %rdx          # 8-byte Reload
	movl	-4(%rdx,%rcx,4), %esi
	movq	-2688(%rbp), %rcx       # 8-byte Reload
	shlq	$4, %rcx
	addq	%rax, %rcx
	addl	(%rdx,%rcx,4), %esi
	movl	%esi, (%rdx,%rcx,4)
	addq	$1, %rax
	movq	-2688(%rbp), %rcx       # 8-byte Reload
	shlq	$4, %rcx
	addq	%rax, %rcx
	movl	-4(%rdx,%rcx,4), %esi
	movq	-2688(%rbp), %rcx       # 8-byte Reload
	shlq	$4, %rcx
	addq	%rax, %rcx
	addl	(%rdx,%rcx,4), %esi
	movl	%esi, (%rdx,%rcx,4)
	addq	$1, %rax
	movq	-2688(%rbp), %rcx       # 8-byte Reload
	shlq	$4, %rcx
	addq	%rax, %rcx
	movl	-4(%rdx,%rcx,4), %esi
	movq	-2688(%rbp), %rcx       # 8-byte Reload
	shlq	$4, %rcx
	addq	%rax, %rcx
	addl	(%rdx,%rcx,4), %esi
	movl	%esi, (%rdx,%rcx,4)
	addq	$1, %rax
	cmpq	$16, %rax
	movq	%rax, -2704(%rbp)       # 8-byte Spill
	jne	.LBB1_338
# %bb.337:                              # %for.inc9.111
                                        #   in Loop: Header=BB1_1 Depth=1
	movq	-2688(%rbp), %rax       # 8-byte Reload
	addq	$1, %rax
	movl	$1, %ecx
	movq	%rax, -2712(%rbp)       # 8-byte Spill
	movq	%rcx, -2720(%rbp)       # 8-byte Spill
	jmp	.LBB1_339
.LBB1_338:                              # %for.body3.3.111
                                        #   in Loop: Header=BB1_336 Depth=2
	movq	-2688(%rbp), %rax       # 8-byte Reload
	shlq	$4, %rax
	movq	-2704(%rbp), %rcx       # 8-byte Reload
	addq	%rcx, %rax
	movq	-8(%rbp), %rdx          # 8-byte Reload
	movl	-4(%rdx,%rax,4), %esi
	movq	-2688(%rbp), %rax       # 8-byte Reload
	shlq	$4, %rax
	addq	%rcx, %rax
	addl	(%rdx,%rax,4), %esi
	movl	%esi, (%rdx,%rax,4)
	addq	$1, %rcx
	movq	%rcx, -2696(%rbp)       # 8-byte Spill
	jmp	.LBB1_336
.LBB1_339:                              # %for.body3.112
                                        #   Parent Loop BB1_1 Depth=1
                                        # =>  This Inner Loop Header: Depth=2
	movq	-2720(%rbp), %rax       # 8-byte Reload
	movq	-2712(%rbp), %rcx       # 8-byte Reload
	shlq	$4, %rcx
	addq	%rax, %rcx
	movq	-8(%rbp), %rdx          # 8-byte Reload
	movl	-4(%rdx,%rcx,4), %esi
	movq	-2712(%rbp), %rcx       # 8-byte Reload
	shlq	$4, %rcx
	addq	%rax, %rcx
	addl	(%rdx,%rcx,4), %esi
	movl	%esi, (%rdx,%rcx,4)
	addq	$1, %rax
	movq	-2712(%rbp), %rcx       # 8-byte Reload
	shlq	$4, %rcx
	addq	%rax, %rcx
	movl	-4(%rdx,%rcx,4), %esi
	movq	-2712(%rbp), %rcx       # 8-byte Reload
	shlq	$4, %rcx
	addq	%rax, %rcx
	addl	(%rdx,%rcx,4), %esi
	movl	%esi, (%rdx,%rcx,4)
	addq	$1, %rax
	movq	-2712(%rbp), %rcx       # 8-byte Reload
	shlq	$4, %rcx
	addq	%rax, %rcx
	movl	-4(%rdx,%rcx,4), %esi
	movq	-2712(%rbp), %rcx       # 8-byte Reload
	shlq	$4, %rcx
	addq	%rax, %rcx
	addl	(%rdx,%rcx,4), %esi
	movl	%esi, (%rdx,%rcx,4)
	addq	$1, %rax
	cmpq	$16, %rax
	movq	%rax, -2728(%rbp)       # 8-byte Spill
	jne	.LBB1_341
# %bb.340:                              # %for.inc9.112
                                        #   in Loop: Header=BB1_1 Depth=1
	movq	-2712(%rbp), %rax       # 8-byte Reload
	addq	$1, %rax
	movl	$1, %ecx
	movq	%rax, -2736(%rbp)       # 8-byte Spill
	movq	%rcx, -2744(%rbp)       # 8-byte Spill
	jmp	.LBB1_342
.LBB1_341:                              # %for.body3.3.112
                                        #   in Loop: Header=BB1_339 Depth=2
	movq	-2712(%rbp), %rax       # 8-byte Reload
	shlq	$4, %rax
	movq	-2728(%rbp), %rcx       # 8-byte Reload
	addq	%rcx, %rax
	movq	-8(%rbp), %rdx          # 8-byte Reload
	movl	-4(%rdx,%rax,4), %esi
	movq	-2712(%rbp), %rax       # 8-byte Reload
	shlq	$4, %rax
	addq	%rcx, %rax
	addl	(%rdx,%rax,4), %esi
	movl	%esi, (%rdx,%rax,4)
	addq	$1, %rcx
	movq	%rcx, -2720(%rbp)       # 8-byte Spill
	jmp	.LBB1_339
.LBB1_342:                              # %for.body3.113
                                        #   Parent Loop BB1_1 Depth=1
                                        # =>  This Inner Loop Header: Depth=2
	movq	-2744(%rbp), %rax       # 8-byte Reload
	movq	-2736(%rbp), %rcx       # 8-byte Reload
	shlq	$4, %rcx
	addq	%rax, %rcx
	movq	-8(%rbp), %rdx          # 8-byte Reload
	movl	-4(%rdx,%rcx,4), %esi
	movq	-2736(%rbp), %rcx       # 8-byte Reload
	shlq	$4, %rcx
	addq	%rax, %rcx
	addl	(%rdx,%rcx,4), %esi
	movl	%esi, (%rdx,%rcx,4)
	addq	$1, %rax
	movq	-2736(%rbp), %rcx       # 8-byte Reload
	shlq	$4, %rcx
	addq	%rax, %rcx
	movl	-4(%rdx,%rcx,4), %esi
	movq	-2736(%rbp), %rcx       # 8-byte Reload
	shlq	$4, %rcx
	addq	%rax, %rcx
	addl	(%rdx,%rcx,4), %esi
	movl	%esi, (%rdx,%rcx,4)
	addq	$1, %rax
	movq	-2736(%rbp), %rcx       # 8-byte Reload
	shlq	$4, %rcx
	addq	%rax, %rcx
	movl	-4(%rdx,%rcx,4), %esi
	movq	-2736(%rbp), %rcx       # 8-byte Reload
	shlq	$4, %rcx
	addq	%rax, %rcx
	addl	(%rdx,%rcx,4), %esi
	movl	%esi, (%rdx,%rcx,4)
	addq	$1, %rax
	cmpq	$16, %rax
	movq	%rax, -2752(%rbp)       # 8-byte Spill
	jne	.LBB1_344
# %bb.343:                              # %for.inc9.113
                                        #   in Loop: Header=BB1_1 Depth=1
	movq	-2736(%rbp), %rax       # 8-byte Reload
	addq	$1, %rax
	movl	$1, %ecx
	movq	%rax, -2760(%rbp)       # 8-byte Spill
	movq	%rcx, -2768(%rbp)       # 8-byte Spill
	jmp	.LBB1_345
.LBB1_344:                              # %for.body3.3.113
                                        #   in Loop: Header=BB1_342 Depth=2
	movq	-2736(%rbp), %rax       # 8-byte Reload
	shlq	$4, %rax
	movq	-2752(%rbp), %rcx       # 8-byte Reload
	addq	%rcx, %rax
	movq	-8(%rbp), %rdx          # 8-byte Reload
	movl	-4(%rdx,%rax,4), %esi
	movq	-2736(%rbp), %rax       # 8-byte Reload
	shlq	$4, %rax
	addq	%rcx, %rax
	addl	(%rdx,%rax,4), %esi
	movl	%esi, (%rdx,%rax,4)
	addq	$1, %rcx
	movq	%rcx, -2744(%rbp)       # 8-byte Spill
	jmp	.LBB1_342
.LBB1_345:                              # %for.body3.114
                                        #   Parent Loop BB1_1 Depth=1
                                        # =>  This Inner Loop Header: Depth=2
	movq	-2768(%rbp), %rax       # 8-byte Reload
	movq	-2760(%rbp), %rcx       # 8-byte Reload
	shlq	$4, %rcx
	addq	%rax, %rcx
	movq	-8(%rbp), %rdx          # 8-byte Reload
	movl	-4(%rdx,%rcx,4), %esi
	movq	-2760(%rbp), %rcx       # 8-byte Reload
	shlq	$4, %rcx
	addq	%rax, %rcx
	addl	(%rdx,%rcx,4), %esi
	movl	%esi, (%rdx,%rcx,4)
	addq	$1, %rax
	movq	-2760(%rbp), %rcx       # 8-byte Reload
	shlq	$4, %rcx
	addq	%rax, %rcx
	movl	-4(%rdx,%rcx,4), %esi
	movq	-2760(%rbp), %rcx       # 8-byte Reload
	shlq	$4, %rcx
	addq	%rax, %rcx
	addl	(%rdx,%rcx,4), %esi
	movl	%esi, (%rdx,%rcx,4)
	addq	$1, %rax
	movq	-2760(%rbp), %rcx       # 8-byte Reload
	shlq	$4, %rcx
	addq	%rax, %rcx
	movl	-4(%rdx,%rcx,4), %esi
	movq	-2760(%rbp), %rcx       # 8-byte Reload
	shlq	$4, %rcx
	addq	%rax, %rcx
	addl	(%rdx,%rcx,4), %esi
	movl	%esi, (%rdx,%rcx,4)
	addq	$1, %rax
	cmpq	$16, %rax
	movq	%rax, -2776(%rbp)       # 8-byte Spill
	jne	.LBB1_347
# %bb.346:                              # %for.inc9.114
                                        #   in Loop: Header=BB1_1 Depth=1
	movq	-2760(%rbp), %rax       # 8-byte Reload
	addq	$1, %rax
	movl	$1, %ecx
	movq	%rax, -2784(%rbp)       # 8-byte Spill
	movq	%rcx, -2792(%rbp)       # 8-byte Spill
	jmp	.LBB1_348
.LBB1_347:                              # %for.body3.3.114
                                        #   in Loop: Header=BB1_345 Depth=2
	movq	-2760(%rbp), %rax       # 8-byte Reload
	shlq	$4, %rax
	movq	-2776(%rbp), %rcx       # 8-byte Reload
	addq	%rcx, %rax
	movq	-8(%rbp), %rdx          # 8-byte Reload
	movl	-4(%rdx,%rax,4), %esi
	movq	-2760(%rbp), %rax       # 8-byte Reload
	shlq	$4, %rax
	addq	%rcx, %rax
	addl	(%rdx,%rax,4), %esi
	movl	%esi, (%rdx,%rax,4)
	addq	$1, %rcx
	movq	%rcx, -2768(%rbp)       # 8-byte Spill
	jmp	.LBB1_345
.LBB1_348:                              # %for.body3.115
                                        #   Parent Loop BB1_1 Depth=1
                                        # =>  This Inner Loop Header: Depth=2
	movq	-2792(%rbp), %rax       # 8-byte Reload
	movq	-2784(%rbp), %rcx       # 8-byte Reload
	shlq	$4, %rcx
	addq	%rax, %rcx
	movq	-8(%rbp), %rdx          # 8-byte Reload
	movl	-4(%rdx,%rcx,4), %esi
	movq	-2784(%rbp), %rcx       # 8-byte Reload
	shlq	$4, %rcx
	addq	%rax, %rcx
	addl	(%rdx,%rcx,4), %esi
	movl	%esi, (%rdx,%rcx,4)
	addq	$1, %rax
	movq	-2784(%rbp), %rcx       # 8-byte Reload
	shlq	$4, %rcx
	addq	%rax, %rcx
	movl	-4(%rdx,%rcx,4), %esi
	movq	-2784(%rbp), %rcx       # 8-byte Reload
	shlq	$4, %rcx
