	.text
	.file	"pp_scan.c"
	.globl	print                   # -- Begin function print
	.p2align	4, 0x90
	.type	print,@function
print:                                  # @print
	.cfi_startproc
# %bb.0:                                # %entry
	pushq	%rbp
	.cfi_def_cfa_offset 16
	.cfi_offset %rbp, -16
	movq	%rsp, %rbp
	.cfi_def_cfa_register %rbp
	subq	$160, %rsp
	cmpl	$0, %esi
	movq	%rdi, -8(%rbp)          # 8-byte Spill
	movl	%esi, -12(%rbp)         # 4-byte Spill
	jle	.LBB0_4
# %bb.1:                                # %for.body.preheader
	xorl	%eax, %eax
	movl	%eax, %ecx
	movl	-12(%rbp), %eax         # 4-byte Reload
	movl	%eax, %edx
	movl	%edx, %esi
	movq	%rsi, -24(%rbp)         # 8-byte Spill
	movq	%rcx, -32(%rbp)         # 8-byte Spill
.LBB0_2:                                # %for.body
                                        # =>This Inner Loop Header: Depth=1
	movq	-32(%rbp), %rax         # 8-byte Reload
	movq	-8(%rbp), %rcx          # 8-byte Reload
	movl	(%rcx,%rax,4), %esi
	movabsq	$.L.str, %rdi
	movq	%rax, -40(%rbp)         # 8-byte Spill
	movb	$0, %al
	callq	printf
	movq	-40(%rbp), %rcx         # 8-byte Reload
	addq	$1, %rcx
	movq	-24(%rbp), %rdx         # 8-byte Reload
	cmpq	%rdx, %rcx
	movq	%rcx, -48(%rbp)         # 8-byte Spill
	jne	.LBB0_5
.LBB0_3:                                # %for.end.loopexit
	jmp	.LBB0_4
.LBB0_4:                                # %for.end
	addq	$160, %rsp
	popq	%rbp
	.cfi_def_cfa %rsp, 8
	retq
.LBB0_5:                                # %for.body.1
                                        #   in Loop: Header=BB0_2 Depth=1
	.cfi_def_cfa %rbp, 16
	movq	-8(%rbp), %rax          # 8-byte Reload
	movq	-48(%rbp), %rcx         # 8-byte Reload
	movl	(%rax,%rcx,4), %esi
	movabsq	$.L.str, %rdi
	movb	$0, %al
	callq	printf
	movq	-48(%rbp), %rcx         # 8-byte Reload
	addq	$1, %rcx
	movq	-24(%rbp), %rdx         # 8-byte Reload
	cmpq	%rdx, %rcx
	movq	%rcx, -56(%rbp)         # 8-byte Spill
	je	.LBB0_3
# %bb.6:                                # %for.body.2
                                        #   in Loop: Header=BB0_2 Depth=1
	movq	-8(%rbp), %rax          # 8-byte Reload
	movq	-56(%rbp), %rcx         # 8-byte Reload
	movl	(%rax,%rcx,4), %esi
	movabsq	$.L.str, %rdi
	movb	$0, %al
	callq	printf
	movq	-56(%rbp), %rcx         # 8-byte Reload
	addq	$1, %rcx
	movq	-24(%rbp), %rdx         # 8-byte Reload
	cmpq	%rdx, %rcx
	movq	%rcx, -64(%rbp)         # 8-byte Spill
	je	.LBB0_3
# %bb.7:                                # %for.body.3
                                        #   in Loop: Header=BB0_2 Depth=1
	movq	-8(%rbp), %rax          # 8-byte Reload
	movq	-64(%rbp), %rcx         # 8-byte Reload
	movl	(%rax,%rcx,4), %esi
	movabsq	$.L.str, %rdi
	movb	$0, %al
	callq	printf
	movq	-64(%rbp), %rcx         # 8-byte Reload
	addq	$1, %rcx
	movq	-24(%rbp), %rdx         # 8-byte Reload
	cmpq	%rdx, %rcx
	movq	%rcx, -72(%rbp)         # 8-byte Spill
	je	.LBB0_3
# %bb.8:                                # %for.body.4
                                        #   in Loop: Header=BB0_2 Depth=1
	movq	-8(%rbp), %rax          # 8-byte Reload
	movq	-72(%rbp), %rcx         # 8-byte Reload
	movl	(%rax,%rcx,4), %esi
	movabsq	$.L.str, %rdi
	movb	$0, %al
	callq	printf
	movq	-72(%rbp), %rcx         # 8-byte Reload
	addq	$1, %rcx
	movq	-24(%rbp), %rdx         # 8-byte Reload
	cmpq	%rdx, %rcx
	movq	%rcx, -80(%rbp)         # 8-byte Spill
	je	.LBB0_3
# %bb.9:                                # %for.body.5
                                        #   in Loop: Header=BB0_2 Depth=1
	movq	-8(%rbp), %rax          # 8-byte Reload
	movq	-80(%rbp), %rcx         # 8-byte Reload
	movl	(%rax,%rcx,4), %esi
	movabsq	$.L.str, %rdi
	movb	$0, %al
	callq	printf
	movq	-80(%rbp), %rcx         # 8-byte Reload
	addq	$1, %rcx
	movq	-24(%rbp), %rdx         # 8-byte Reload
	cmpq	%rdx, %rcx
	movq	%rcx, -88(%rbp)         # 8-byte Spill
	je	.LBB0_3
# %bb.10:                               # %for.body.6
                                        #   in Loop: Header=BB0_2 Depth=1
	movq	-8(%rbp), %rax          # 8-byte Reload
	movq	-88(%rbp), %rcx         # 8-byte Reload
	movl	(%rax,%rcx,4), %esi
	movabsq	$.L.str, %rdi
	movb	$0, %al
	callq	printf
	movq	-88(%rbp), %rcx         # 8-byte Reload
	addq	$1, %rcx
	movq	-24(%rbp), %rdx         # 8-byte Reload
	cmpq	%rdx, %rcx
	movq	%rcx, -96(%rbp)         # 8-byte Spill
	je	.LBB0_3
# %bb.11:                               # %for.body.7
                                        #   in Loop: Header=BB0_2 Depth=1
	movq	-8(%rbp), %rax          # 8-byte Reload
	movq	-96(%rbp), %rcx         # 8-byte Reload
	movl	(%rax,%rcx,4), %esi
	movabsq	$.L.str, %rdi
	movb	$0, %al
	callq	printf
	movq	-96(%rbp), %rcx         # 8-byte Reload
	addq	$1, %rcx
	movq	-24(%rbp), %rdx         # 8-byte Reload
	cmpq	%rdx, %rcx
	movq	%rcx, -104(%rbp)        # 8-byte Spill
	je	.LBB0_3
# %bb.12:                               # %for.body.8
                                        #   in Loop: Header=BB0_2 Depth=1
	movq	-8(%rbp), %rax          # 8-byte Reload
	movq	-104(%rbp), %rcx        # 8-byte Reload
	movl	(%rax,%rcx,4), %esi
	movabsq	$.L.str, %rdi
	movb	$0, %al
	callq	printf
	movq	-104(%rbp), %rcx        # 8-byte Reload
	addq	$1, %rcx
	movq	-24(%rbp), %rdx         # 8-byte Reload
	cmpq	%rdx, %rcx
	movq	%rcx, -112(%rbp)        # 8-byte Spill
	je	.LBB0_3
# %bb.13:                               # %for.body.9
                                        #   in Loop: Header=BB0_2 Depth=1
	movq	-8(%rbp), %rax          # 8-byte Reload
	movq	-112(%rbp), %rcx        # 8-byte Reload
	movl	(%rax,%rcx,4), %esi
	movabsq	$.L.str, %rdi
	movb	$0, %al
	callq	printf
	movq	-112(%rbp), %rcx        # 8-byte Reload
	addq	$1, %rcx
	movq	-24(%rbp), %rdx         # 8-byte Reload
	cmpq	%rdx, %rcx
	movq	%rcx, -120(%rbp)        # 8-byte Spill
	je	.LBB0_3
# %bb.14:                               # %for.body.10
                                        #   in Loop: Header=BB0_2 Depth=1
	movq	-8(%rbp), %rax          # 8-byte Reload
	movq	-120(%rbp), %rcx        # 8-byte Reload
	movl	(%rax,%rcx,4), %esi
	movabsq	$.L.str, %rdi
	movb	$0, %al
	callq	printf
	movq	-120(%rbp), %rcx        # 8-byte Reload
	addq	$1, %rcx
	movq	-24(%rbp), %rdx         # 8-byte Reload
	cmpq	%rdx, %rcx
	movq	%rcx, -128(%rbp)        # 8-byte Spill
	je	.LBB0_3
# %bb.15:                               # %for.body.11
                                        #   in Loop: Header=BB0_2 Depth=1
	movq	-8(%rbp), %rax          # 8-byte Reload
	movq	-128(%rbp), %rcx        # 8-byte Reload
	movl	(%rax,%rcx,4), %esi
	movabsq	$.L.str, %rdi
	movb	$0, %al
	callq	printf
	movq	-128(%rbp), %rcx        # 8-byte Reload
	addq	$1, %rcx
	movq	-24(%rbp), %rdx         # 8-byte Reload
	cmpq	%rdx, %rcx
	movq	%rcx, -136(%rbp)        # 8-byte Spill
	je	.LBB0_3
# %bb.16:                               # %for.body.12
                                        #   in Loop: Header=BB0_2 Depth=1
	movq	-8(%rbp), %rax          # 8-byte Reload
	movq	-136(%rbp), %rcx        # 8-byte Reload
	movl	(%rax,%rcx,4), %esi
	movabsq	$.L.str, %rdi
	movb	$0, %al
	callq	printf
	movq	-136(%rbp), %rcx        # 8-byte Reload
	addq	$1, %rcx
	movq	-24(%rbp), %rdx         # 8-byte Reload
	cmpq	%rdx, %rcx
	movq	%rcx, -144(%rbp)        # 8-byte Spill
	je	.LBB0_3
# %bb.17:                               # %for.body.13
                                        #   in Loop: Header=BB0_2 Depth=1
	movq	-8(%rbp), %rax          # 8-byte Reload
	movq	-144(%rbp), %rcx        # 8-byte Reload
	movl	(%rax,%rcx,4), %esi
	movabsq	$.L.str, %rdi
	movb	$0, %al
	callq	printf
	movq	-144(%rbp), %rcx        # 8-byte Reload
	addq	$1, %rcx
	movq	-24(%rbp), %rdx         # 8-byte Reload
	cmpq	%rdx, %rcx
	movq	%rcx, -152(%rbp)        # 8-byte Spill
	je	.LBB0_3
# %bb.18:                               # %for.body.14
                                        #   in Loop: Header=BB0_2 Depth=1
	movq	-8(%rbp), %rax          # 8-byte Reload
	movq	-152(%rbp), %rcx        # 8-byte Reload
	movl	(%rax,%rcx,4), %esi
	movabsq	$.L.str, %rdi
	movb	$0, %al
	callq	printf
	movq	-152(%rbp), %rcx        # 8-byte Reload
	addq	$1, %rcx
	movq	-24(%rbp), %rdx         # 8-byte Reload
	cmpq	%rdx, %rcx
	movq	%rcx, -160(%rbp)        # 8-byte Spill
	je	.LBB0_3
# %bb.19:                               # %for.body.15
                                        #   in Loop: Header=BB0_2 Depth=1
	movq	-8(%rbp), %rax          # 8-byte Reload
	movq	-160(%rbp), %rcx        # 8-byte Reload
	movl	(%rax,%rcx,4), %esi
	movabsq	$.L.str, %rdi
	movb	$0, %al
	callq	printf
	movq	-160(%rbp), %rcx        # 8-byte Reload
	addq	$1, %rcx
	movq	-24(%rbp), %rdx         # 8-byte Reload
	cmpq	%rdx, %rcx
	movq	%rcx, -32(%rbp)         # 8-byte Spill
	jne	.LBB0_2
	jmp	.LBB0_3
.Lfunc_end0:
	.size	print, .Lfunc_end0-print
	.cfi_endproc
                                        # -- End function
	.globl	local_scan              # -- Begin function local_scan
	.p2align	4, 0x90
	.type	local_scan,@function
local_scan:                             # @local_scan
	.cfi_startproc
# %bb.0:                                # %entry
	pushq	%rbp
	.cfi_def_cfa_offset 16
	.cfi_offset %rbp, -16
	movq	%rsp, %rbp
	.cfi_def_cfa_register %rbp
	subq	$400, %rsp              # imm = 0x190
	xorl	%eax, %eax
	movl	%eax, %ecx
	movq	%rdi, -8(%rbp)          # 8-byte Spill
	movq	%rcx, -16(%rbp)         # 8-byte Spill
	jmp	.LBB1_1
.LBB1_1:                                # %for.body
                                        # =>This Inner Loop Header: Depth=1
	movq	-16(%rbp), %rax         # 8-byte Reload
	movq	%rax, -24(%rbp)         # 8-byte Spill
# %bb.2:                                # %for.body3
                                        #   in Loop: Header=BB1_1 Depth=1
	movq	-24(%rbp), %rax         # 8-byte Reload
	shlq	$4, %rax
	movq	-8(%rbp), %rcx          # 8-byte Reload
	movl	(%rcx,%rax,4), %edx
	movq	-24(%rbp), %rax         # 8-byte Reload
	shlq	$4, %rax
	addl	4(%rcx,%rax,4), %edx
	movl	%edx, 4(%rcx,%rax,4)
	movq	-24(%rbp), %rax         # 8-byte Reload
	shlq	$4, %rax
	movl	4(%rcx,%rax,4), %edx
	movq	-24(%rbp), %rax         # 8-byte Reload
	shlq	$4, %rax
	addl	8(%rcx,%rax,4), %edx
	movl	%edx, 8(%rcx,%rax,4)
	movq	-24(%rbp), %rax         # 8-byte Reload
	shlq	$4, %rax
	movl	8(%rcx,%rax,4), %edx
	movq	-24(%rbp), %rax         # 8-byte Reload
	shlq	$4, %rax
	addl	12(%rcx,%rax,4), %edx
	movl	%edx, 12(%rcx,%rax,4)
	movq	-24(%rbp), %rax         # 8-byte Reload
	shlq	$4, %rax
	movl	12(%rcx,%rax,4), %edx
	movq	-24(%rbp), %rax         # 8-byte Reload
	shlq	$4, %rax
	addl	16(%rcx,%rax,4), %edx
	movl	%edx, 16(%rcx,%rax,4)
	movq	-24(%rbp), %rax         # 8-byte Reload
	shlq	$4, %rax
	movl	16(%rcx,%rax,4), %edx
	movq	-24(%rbp), %rax         # 8-byte Reload
	shlq	$4, %rax
	addl	20(%rcx,%rax,4), %edx
	movl	%edx, 20(%rcx,%rax,4)
	movq	-24(%rbp), %rax         # 8-byte Reload
	shlq	$4, %rax
	movl	20(%rcx,%rax,4), %edx
	movq	-24(%rbp), %rax         # 8-byte Reload
	shlq	$4, %rax
	addl	24(%rcx,%rax,4), %edx
	movl	%edx, 24(%rcx,%rax,4)
	movq	-24(%rbp), %rax         # 8-byte Reload
	shlq	$4, %rax
	movl	24(%rcx,%rax,4), %edx
	movq	-24(%rbp), %rax         # 8-byte Reload
	shlq	$4, %rax
	addl	28(%rcx,%rax,4), %edx
	movl	%edx, 28(%rcx,%rax,4)
	movq	-24(%rbp), %rax         # 8-byte Reload
	shlq	$4, %rax
	movl	28(%rcx,%rax,4), %edx
	movq	-24(%rbp), %rax         # 8-byte Reload
	shlq	$4, %rax
	addl	32(%rcx,%rax,4), %edx
	movl	%edx, 32(%rcx,%rax,4)
	movq	-24(%rbp), %rax         # 8-byte Reload
	shlq	$4, %rax
	movl	32(%rcx,%rax,4), %edx
	movq	-24(%rbp), %rax         # 8-byte Reload
	shlq	$4, %rax
	addl	36(%rcx,%rax,4), %edx
	movl	%edx, 36(%rcx,%rax,4)
	movq	-24(%rbp), %rax         # 8-byte Reload
	shlq	$4, %rax
	movl	36(%rcx,%rax,4), %edx
	movq	-24(%rbp), %rax         # 8-byte Reload
	shlq	$4, %rax
	addl	40(%rcx,%rax,4), %edx
	movl	%edx, 40(%rcx,%rax,4)
	movq	-24(%rbp), %rax         # 8-byte Reload
	shlq	$4, %rax
	movl	40(%rcx,%rax,4), %edx
	movq	-24(%rbp), %rax         # 8-byte Reload
	shlq	$4, %rax
	addl	44(%rcx,%rax,4), %edx
	movl	%edx, 44(%rcx,%rax,4)
	movq	-24(%rbp), %rax         # 8-byte Reload
	shlq	$4, %rax
	movl	44(%rcx,%rax,4), %edx
	movq	-24(%rbp), %rax         # 8-byte Reload
	shlq	$4, %rax
	addl	48(%rcx,%rax,4), %edx
	movl	%edx, 48(%rcx,%rax,4)
	movq	-24(%rbp), %rax         # 8-byte Reload
	shlq	$4, %rax
	movl	48(%rcx,%rax,4), %edx
	movq	-24(%rbp), %rax         # 8-byte Reload
	shlq	$4, %rax
	addl	52(%rcx,%rax,4), %edx
	movl	%edx, 52(%rcx,%rax,4)
	movq	-24(%rbp), %rax         # 8-byte Reload
	shlq	$4, %rax
	movl	52(%rcx,%rax,4), %edx
	movq	-24(%rbp), %rax         # 8-byte Reload
	shlq	$4, %rax
	addl	56(%rcx,%rax,4), %edx
	movl	%edx, 56(%rcx,%rax,4)
	movq	-24(%rbp), %rax         # 8-byte Reload
	shlq	$4, %rax
	movl	56(%rcx,%rax,4), %edx
	movq	-24(%rbp), %rax         # 8-byte Reload
	shlq	$4, %rax
	addl	60(%rcx,%rax,4), %edx
	movl	%edx, 60(%rcx,%rax,4)
	movq	-24(%rbp), %rax         # 8-byte Reload
	addq	$1, %rax
	movq	%rax, -32(%rbp)         # 8-byte Spill
	jmp	.LBB1_4
.LBB1_3:                                # %for.end11
	addq	$400, %rsp              # imm = 0x190
	popq	%rbp
	.cfi_def_cfa %rsp, 8
	retq
.LBB1_4:                                # %for.body3.1
                                        #   in Loop: Header=BB1_1 Depth=1
	.cfi_def_cfa %rbp, 16
	movq	-32(%rbp), %rax         # 8-byte Reload
	shlq	$4, %rax
	movq	-8(%rbp), %rcx          # 8-byte Reload
	movl	(%rcx,%rax,4), %edx
	movq	-32(%rbp), %rax         # 8-byte Reload
	shlq	$4, %rax
	addl	4(%rcx,%rax,4), %edx
	movl	%edx, 4(%rcx,%rax,4)
	movq	-32(%rbp), %rax         # 8-byte Reload
	shlq	$4, %rax
	movl	4(%rcx,%rax,4), %edx
	movq	-32(%rbp), %rax         # 8-byte Reload
	shlq	$4, %rax
	addl	8(%rcx,%rax,4), %edx
	movl	%edx, 8(%rcx,%rax,4)
	movq	-32(%rbp), %rax         # 8-byte Reload
	shlq	$4, %rax
	movl	8(%rcx,%rax,4), %edx
	movq	-32(%rbp), %rax         # 8-byte Reload
	shlq	$4, %rax
	addl	12(%rcx,%rax,4), %edx
	movl	%edx, 12(%rcx,%rax,4)
	movq	-32(%rbp), %rax         # 8-byte Reload
	shlq	$4, %rax
	movl	12(%rcx,%rax,4), %edx
	movq	-32(%rbp), %rax         # 8-byte Reload
	shlq	$4, %rax
	addl	16(%rcx,%rax,4), %edx
	movl	%edx, 16(%rcx,%rax,4)
	movq	-32(%rbp), %rax         # 8-byte Reload
	shlq	$4, %rax
	movl	16(%rcx,%rax,4), %edx
	movq	-32(%rbp), %rax         # 8-byte Reload
	shlq	$4, %rax
	addl	20(%rcx,%rax,4), %edx
	movl	%edx, 20(%rcx,%rax,4)
	movq	-32(%rbp), %rax         # 8-byte Reload
	shlq	$4, %rax
	movl	20(%rcx,%rax,4), %edx
	movq	-32(%rbp), %rax         # 8-byte Reload
	shlq	$4, %rax
	addl	24(%rcx,%rax,4), %edx
	movl	%edx, 24(%rcx,%rax,4)
	movq	-32(%rbp), %rax         # 8-byte Reload
	shlq	$4, %rax
	movl	24(%rcx,%rax,4), %edx
	movq	-32(%rbp), %rax         # 8-byte Reload
	shlq	$4, %rax
	addl	28(%rcx,%rax,4), %edx
	movl	%edx, 28(%rcx,%rax,4)
	movq	-32(%rbp), %rax         # 8-byte Reload
	shlq	$4, %rax
	movl	28(%rcx,%rax,4), %edx
	movq	-32(%rbp), %rax         # 8-byte Reload
	shlq	$4, %rax
	addl	32(%rcx,%rax,4), %edx
	movl	%edx, 32(%rcx,%rax,4)
	movq	-32(%rbp), %rax         # 8-byte Reload
	shlq	$4, %rax
	movl	32(%rcx,%rax,4), %edx
	movq	-32(%rbp), %rax         # 8-byte Reload
	shlq	$4, %rax
	addl	36(%rcx,%rax,4), %edx
	movl	%edx, 36(%rcx,%rax,4)
	movq	-32(%rbp), %rax         # 8-byte Reload
	shlq	$4, %rax
	movl	36(%rcx,%rax,4), %edx
	movq	-32(%rbp), %rax         # 8-byte Reload
	shlq	$4, %rax
	addl	40(%rcx,%rax,4), %edx
	movl	%edx, 40(%rcx,%rax,4)
	movq	-32(%rbp), %rax         # 8-byte Reload
	shlq	$4, %rax
	movl	40(%rcx,%rax,4), %edx
	movq	-32(%rbp), %rax         # 8-byte Reload
	shlq	$4, %rax
	addl	44(%rcx,%rax,4), %edx
	movl	%edx, 44(%rcx,%rax,4)
	movq	-32(%rbp), %rax         # 8-byte Reload
	shlq	$4, %rax
	movl	44(%rcx,%rax,4), %edx
	movq	-32(%rbp), %rax         # 8-byte Reload
	shlq	$4, %rax
	addl	48(%rcx,%rax,4), %edx
	movl	%edx, 48(%rcx,%rax,4)
	movq	-32(%rbp), %rax         # 8-byte Reload
	shlq	$4, %rax
	movl	48(%rcx,%rax,4), %edx
	movq	-32(%rbp), %rax         # 8-byte Reload
	shlq	$4, %rax
	addl	52(%rcx,%rax,4), %edx
	movl	%edx, 52(%rcx,%rax,4)
	movq	-32(%rbp), %rax         # 8-byte Reload
	shlq	$4, %rax
	movl	52(%rcx,%rax,4), %edx
	movq	-32(%rbp), %rax         # 8-byte Reload
	shlq	$4, %rax
	addl	56(%rcx,%rax,4), %edx
	movl	%edx, 56(%rcx,%rax,4)
	movq	-32(%rbp), %rax         # 8-byte Reload
	shlq	$4, %rax
	movl	56(%rcx,%rax,4), %edx
	movq	-32(%rbp), %rax         # 8-byte Reload
	shlq	$4, %rax
	addl	60(%rcx,%rax,4), %edx
	movl	%edx, 60(%rcx,%rax,4)
	movq	-32(%rbp), %rax         # 8-byte Reload
	addq	$1, %rax
	movq	%rax, -40(%rbp)         # 8-byte Spill
# %bb.5:                                # %for.body3.2
                                        #   in Loop: Header=BB1_1 Depth=1
	movq	-40(%rbp), %rax         # 8-byte Reload
	shlq	$4, %rax
	movq	-8(%rbp), %rcx          # 8-byte Reload
	movl	(%rcx,%rax,4), %edx
	movq	-40(%rbp), %rax         # 8-byte Reload
	shlq	$4, %rax
	addl	4(%rcx,%rax,4), %edx
	movl	%edx, 4(%rcx,%rax,4)
	movq	-40(%rbp), %rax         # 8-byte Reload
	shlq	$4, %rax
	movl	4(%rcx,%rax,4), %edx
	movq	-40(%rbp), %rax         # 8-byte Reload
	shlq	$4, %rax
	addl	8(%rcx,%rax,4), %edx
	movl	%edx, 8(%rcx,%rax,4)
	movq	-40(%rbp), %rax         # 8-byte Reload
	shlq	$4, %rax
	movl	8(%rcx,%rax,4), %edx
	movq	-40(%rbp), %rax         # 8-byte Reload
	shlq	$4, %rax
	addl	12(%rcx,%rax,4), %edx
	movl	%edx, 12(%rcx,%rax,4)
	movq	-40(%rbp), %rax         # 8-byte Reload
	shlq	$4, %rax
	movl	12(%rcx,%rax,4), %edx
	movq	-40(%rbp), %rax         # 8-byte Reload
	shlq	$4, %rax
	addl	16(%rcx,%rax,4), %edx
	movl	%edx, 16(%rcx,%rax,4)
	movq	-40(%rbp), %rax         # 8-byte Reload
	shlq	$4, %rax
	movl	16(%rcx,%rax,4), %edx
	movq	-40(%rbp), %rax         # 8-byte Reload
	shlq	$4, %rax
	addl	20(%rcx,%rax,4), %edx
	movl	%edx, 20(%rcx,%rax,4)
	movq	-40(%rbp), %rax         # 8-byte Reload
	shlq	$4, %rax
	movl	20(%rcx,%rax,4), %edx
	movq	-40(%rbp), %rax         # 8-byte Reload
	shlq	$4, %rax
	addl	24(%rcx,%rax,4), %edx
	movl	%edx, 24(%rcx,%rax,4)
	movq	-40(%rbp), %rax         # 8-byte Reload
	shlq	$4, %rax
	movl	24(%rcx,%rax,4), %edx
	movq	-40(%rbp), %rax         # 8-byte Reload
	shlq	$4, %rax
	addl	28(%rcx,%rax,4), %edx
	movl	%edx, 28(%rcx,%rax,4)
	movq	-40(%rbp), %rax         # 8-byte Reload
	shlq	$4, %rax
	movl	28(%rcx,%rax,4), %edx
	movq	-40(%rbp), %rax         # 8-byte Reload
	shlq	$4, %rax
	addl	32(%rcx,%rax,4), %edx
	movl	%edx, 32(%rcx,%rax,4)
	movq	-40(%rbp), %rax         # 8-byte Reload
	shlq	$4, %rax
	movl	32(%rcx,%rax,4), %edx
	movq	-40(%rbp), %rax         # 8-byte Reload
	shlq	$4, %rax
	addl	36(%rcx,%rax,4), %edx
	movl	%edx, 36(%rcx,%rax,4)
	movq	-40(%rbp), %rax         # 8-byte Reload
	shlq	$4, %rax
	movl	36(%rcx,%rax,4), %edx
	movq	-40(%rbp), %rax         # 8-byte Reload
	shlq	$4, %rax
	addl	40(%rcx,%rax,4), %edx
	movl	%edx, 40(%rcx,%rax,4)
	movq	-40(%rbp), %rax         # 8-byte Reload
	shlq	$4, %rax
	movl	40(%rcx,%rax,4), %edx
	movq	-40(%rbp), %rax         # 8-byte Reload
	shlq	$4, %rax
	addl	44(%rcx,%rax,4), %edx
	movl	%edx, 44(%rcx,%rax,4)
	movq	-40(%rbp), %rax         # 8-byte Reload
	shlq	$4, %rax
	movl	44(%rcx,%rax,4), %edx
	movq	-40(%rbp), %rax         # 8-byte Reload
	shlq	$4, %rax
	addl	48(%rcx,%rax,4), %edx
	movl	%edx, 48(%rcx,%rax,4)
	movq	-40(%rbp), %rax         # 8-byte Reload
	shlq	$4, %rax
	movl	48(%rcx,%rax,4), %edx
	movq	-40(%rbp), %rax         # 8-byte Reload
	shlq	$4, %rax
	addl	52(%rcx,%rax,4), %edx
	movl	%edx, 52(%rcx,%rax,4)
	movq	-40(%rbp), %rax         # 8-byte Reload
	shlq	$4, %rax
	movl	52(%rcx,%rax,4), %edx
	movq	-40(%rbp), %rax         # 8-byte Reload
	shlq	$4, %rax
	addl	56(%rcx,%rax,4), %edx
	movl	%edx, 56(%rcx,%rax,4)
	movq	-40(%rbp), %rax         # 8-byte Reload
	shlq	$4, %rax
	movl	56(%rcx,%rax,4), %edx
	movq	-40(%rbp), %rax         # 8-byte Reload
	shlq	$4, %rax
	addl	60(%rcx,%rax,4), %edx
	movl	%edx, 60(%rcx,%rax,4)
	movq	-40(%rbp), %rax         # 8-byte Reload
	addq	$1, %rax
	movq	%rax, -48(%rbp)         # 8-byte Spill
# %bb.6:                                # %for.body3.3
                                        #   in Loop: Header=BB1_1 Depth=1
	movq	-48(%rbp), %rax         # 8-byte Reload
	shlq	$4, %rax
	movq	-8(%rbp), %rcx          # 8-byte Reload
	movl	(%rcx,%rax,4), %edx
	movq	-48(%rbp), %rax         # 8-byte Reload
	shlq	$4, %rax
	addl	4(%rcx,%rax,4), %edx
	movl	%edx, 4(%rcx,%rax,4)
	movq	-48(%rbp), %rax         # 8-byte Reload
	shlq	$4, %rax
	movl	4(%rcx,%rax,4), %edx
	movq	-48(%rbp), %rax         # 8-byte Reload
	shlq	$4, %rax
	addl	8(%rcx,%rax,4), %edx
	movl	%edx, 8(%rcx,%rax,4)
	movq	-48(%rbp), %rax         # 8-byte Reload
	shlq	$4, %rax
	movl	8(%rcx,%rax,4), %edx
	movq	-48(%rbp), %rax         # 8-byte Reload
	shlq	$4, %rax
	addl	12(%rcx,%rax,4), %edx
	movl	%edx, 12(%rcx,%rax,4)
	movq	-48(%rbp), %rax         # 8-byte Reload
	shlq	$4, %rax
	movl	12(%rcx,%rax,4), %edx
	movq	-48(%rbp), %rax         # 8-byte Reload
	shlq	$4, %rax
	addl	16(%rcx,%rax,4), %edx
	movl	%edx, 16(%rcx,%rax,4)
	movq	-48(%rbp), %rax         # 8-byte Reload
	shlq	$4, %rax
	movl	16(%rcx,%rax,4), %edx
	movq	-48(%rbp), %rax         # 8-byte Reload
	shlq	$4, %rax
	addl	20(%rcx,%rax,4), %edx
	movl	%edx, 20(%rcx,%rax,4)
	movq	-48(%rbp), %rax         # 8-byte Reload
	shlq	$4, %rax
	movl	20(%rcx,%rax,4), %edx
	movq	-48(%rbp), %rax         # 8-byte Reload
	shlq	$4, %rax
	addl	24(%rcx,%rax,4), %edx
	movl	%edx, 24(%rcx,%rax,4)
	movq	-48(%rbp), %rax         # 8-byte Reload
	shlq	$4, %rax
	movl	24(%rcx,%rax,4), %edx
	movq	-48(%rbp), %rax         # 8-byte Reload
	shlq	$4, %rax
	addl	28(%rcx,%rax,4), %edx
	movl	%edx, 28(%rcx,%rax,4)
	movq	-48(%rbp), %rax         # 8-byte Reload
	shlq	$4, %rax
	movl	28(%rcx,%rax,4), %edx
	movq	-48(%rbp), %rax         # 8-byte Reload
	shlq	$4, %rax
	addl	32(%rcx,%rax,4), %edx
	movl	%edx, 32(%rcx,%rax,4)
	movq	-48(%rbp), %rax         # 8-byte Reload
	shlq	$4, %rax
	movl	32(%rcx,%rax,4), %edx
	movq	-48(%rbp), %rax         # 8-byte Reload
	shlq	$4, %rax
	addl	36(%rcx,%rax,4), %edx
	movl	%edx, 36(%rcx,%rax,4)
	movq	-48(%rbp), %rax         # 8-byte Reload
	shlq	$4, %rax
	movl	36(%rcx,%rax,4), %edx
	movq	-48(%rbp), %rax         # 8-byte Reload
	shlq	$4, %rax
	addl	40(%rcx,%rax,4), %edx
	movl	%edx, 40(%rcx,%rax,4)
	movq	-48(%rbp), %rax         # 8-byte Reload
	shlq	$4, %rax
	movl	40(%rcx,%rax,4), %edx
	movq	-48(%rbp), %rax         # 8-byte Reload
	shlq	$4, %rax
	addl	44(%rcx,%rax,4), %edx
	movl	%edx, 44(%rcx,%rax,4)
	movq	-48(%rbp), %rax         # 8-byte Reload
	shlq	$4, %rax
	movl	44(%rcx,%rax,4), %edx
	movq	-48(%rbp), %rax         # 8-byte Reload
	shlq	$4, %rax
	addl	48(%rcx,%rax,4), %edx
	movl	%edx, 48(%rcx,%rax,4)
	movq	-48(%rbp), %rax         # 8-byte Reload
	shlq	$4, %rax
	movl	48(%rcx,%rax,4), %edx
	movq	-48(%rbp), %rax         # 8-byte Reload
	shlq	$4, %rax
	addl	52(%rcx,%rax,4), %edx
	movl	%edx, 52(%rcx,%rax,4)
	movq	-48(%rbp), %rax         # 8-byte Reload
	shlq	$4, %rax
	movl	52(%rcx,%rax,4), %edx
	movq	-48(%rbp), %rax         # 8-byte Reload
	shlq	$4, %rax
	addl	56(%rcx,%rax,4), %edx
	movl	%edx, 56(%rcx,%rax,4)
	movq	-48(%rbp), %rax         # 8-byte Reload
	shlq	$4, %rax
	movl	56(%rcx,%rax,4), %edx
	movq	-48(%rbp), %rax         # 8-byte Reload
	shlq	$4, %rax
	addl	60(%rcx,%rax,4), %edx
	movl	%edx, 60(%rcx,%rax,4)
	movq	-48(%rbp), %rax         # 8-byte Reload
	addq	$1, %rax
	movq	%rax, -56(%rbp)         # 8-byte Spill
# %bb.7:                                # %for.body3.4
                                        #   in Loop: Header=BB1_1 Depth=1
	movq	-56(%rbp), %rax         # 8-byte Reload
	shlq	$4, %rax
	movq	-8(%rbp), %rcx          # 8-byte Reload
	movl	(%rcx,%rax,4), %edx
	movq	-56(%rbp), %rax         # 8-byte Reload
	shlq	$4, %rax
	addl	4(%rcx,%rax,4), %edx
	movl	%edx, 4(%rcx,%rax,4)
	movq	-56(%rbp), %rax         # 8-byte Reload
	shlq	$4, %rax
	movl	4(%rcx,%rax,4), %edx
	movq	-56(%rbp), %rax         # 8-byte Reload
	shlq	$4, %rax
	addl	8(%rcx,%rax,4), %edx
	movl	%edx, 8(%rcx,%rax,4)
	movq	-56(%rbp), %rax         # 8-byte Reload
	shlq	$4, %rax
	movl	8(%rcx,%rax,4), %edx
	movq	-56(%rbp), %rax         # 8-byte Reload
	shlq	$4, %rax
	addl	12(%rcx,%rax,4), %edx
	movl	%edx, 12(%rcx,%rax,4)
	movq	-56(%rbp), %rax         # 8-byte Reload
	shlq	$4, %rax
	movl	12(%rcx,%rax,4), %edx
	movq	-56(%rbp), %rax         # 8-byte Reload
	shlq	$4, %rax
	addl	16(%rcx,%rax,4), %edx
	movl	%edx, 16(%rcx,%rax,4)
	movq	-56(%rbp), %rax         # 8-byte Reload
	shlq	$4, %rax
	movl	16(%rcx,%rax,4), %edx
	movq	-56(%rbp), %rax         # 8-byte Reload
	shlq	$4, %rax
	addl	20(%rcx,%rax,4), %edx
	movl	%edx, 20(%rcx,%rax,4)
	movq	-56(%rbp), %rax         # 8-byte Reload
	shlq	$4, %rax
	movl	20(%rcx,%rax,4), %edx
	movq	-56(%rbp), %rax         # 8-byte Reload
	shlq	$4, %rax
	addl	24(%rcx,%rax,4), %edx
	movl	%edx, 24(%rcx,%rax,4)
	movq	-56(%rbp), %rax         # 8-byte Reload
	shlq	$4, %rax
	movl	24(%rcx,%rax,4), %edx
	movq	-56(%rbp), %rax         # 8-byte Reload
	shlq	$4, %rax
	addl	28(%rcx,%rax,4), %edx
	movl	%edx, 28(%rcx,%rax,4)
	movq	-56(%rbp), %rax         # 8-byte Reload
	shlq	$4, %rax
	movl	28(%rcx,%rax,4), %edx
	movq	-56(%rbp), %rax         # 8-byte Reload
	shlq	$4, %rax
	addl	32(%rcx,%rax,4), %edx
	movl	%edx, 32(%rcx,%rax,4)
	movq	-56(%rbp), %rax         # 8-byte Reload
	shlq	$4, %rax
	movl	32(%rcx,%rax,4), %edx
	movq	-56(%rbp), %rax         # 8-byte Reload
	shlq	$4, %rax
	addl	36(%rcx,%rax,4), %edx
	movl	%edx, 36(%rcx,%rax,4)
	movq	-56(%rbp), %rax         # 8-byte Reload
	shlq	$4, %rax
	movl	36(%rcx,%rax,4), %edx
	movq	-56(%rbp), %rax         # 8-byte Reload
	shlq	$4, %rax
	addl	40(%rcx,%rax,4), %edx
	movl	%edx, 40(%rcx,%rax,4)
	movq	-56(%rbp), %rax         # 8-byte Reload
	shlq	$4, %rax
	movl	40(%rcx,%rax,4), %edx
	movq	-56(%rbp), %rax         # 8-byte Reload
	shlq	$4, %rax
	addl	44(%rcx,%rax,4), %edx
	movl	%edx, 44(%rcx,%rax,4)
	movq	-56(%rbp), %rax         # 8-byte Reload
	shlq	$4, %rax
	movl	44(%rcx,%rax,4), %edx
	movq	-56(%rbp), %rax         # 8-byte Reload
	shlq	$4, %rax
	addl	48(%rcx,%rax,4), %edx
	movl	%edx, 48(%rcx,%rax,4)
	movq	-56(%rbp), %rax         # 8-byte Reload
	shlq	$4, %rax
	movl	48(%rcx,%rax,4), %edx
	movq	-56(%rbp), %rax         # 8-byte Reload
	shlq	$4, %rax
	addl	52(%rcx,%rax,4), %edx
	movl	%edx, 52(%rcx,%rax,4)
	movq	-56(%rbp), %rax         # 8-byte Reload
	shlq	$4, %rax
	movl	52(%rcx,%rax,4), %edx
	movq	-56(%rbp), %rax         # 8-byte Reload
	shlq	$4, %rax
	addl	56(%rcx,%rax,4), %edx
	movl	%edx, 56(%rcx,%rax,4)
	movq	-56(%rbp), %rax         # 8-byte Reload
	shlq	$4, %rax
	movl	56(%rcx,%rax,4), %edx
	movq	-56(%rbp), %rax         # 8-byte Reload
	shlq	$4, %rax
	addl	60(%rcx,%rax,4), %edx
	movl	%edx, 60(%rcx,%rax,4)
	movq	-56(%rbp), %rax         # 8-byte Reload
	addq	$1, %rax
	movq	%rax, -64(%rbp)         # 8-byte Spill
# %bb.8:                                # %for.body3.5
                                        #   in Loop: Header=BB1_1 Depth=1
	movq	-64(%rbp), %rax         # 8-byte Reload
	shlq	$4, %rax
	movq	-8(%rbp), %rcx          # 8-byte Reload
	movl	(%rcx,%rax,4), %edx
	movq	-64(%rbp), %rax         # 8-byte Reload
	shlq	$4, %rax
	addl	4(%rcx,%rax,4), %edx
	movl	%edx, 4(%rcx,%rax,4)
	movq	-64(%rbp), %rax         # 8-byte Reload
	shlq	$4, %rax
	movl	4(%rcx,%rax,4), %edx
	movq	-64(%rbp), %rax         # 8-byte Reload
	shlq	$4, %rax
	addl	8(%rcx,%rax,4), %edx
	movl	%edx, 8(%rcx,%rax,4)
	movq	-64(%rbp), %rax         # 8-byte Reload
	shlq	$4, %rax
	movl	8(%rcx,%rax,4), %edx
	movq	-64(%rbp), %rax         # 8-byte Reload
	shlq	$4, %rax
	addl	12(%rcx,%rax,4), %edx
	movl	%edx, 12(%rcx,%rax,4)
	movq	-64(%rbp), %rax         # 8-byte Reload
	shlq	$4, %rax
	movl	12(%rcx,%rax,4), %edx
	movq	-64(%rbp), %rax         # 8-byte Reload
	shlq	$4, %rax
	addl	16(%rcx,%rax,4), %edx
	movl	%edx, 16(%rcx,%rax,4)
	movq	-64(%rbp), %rax         # 8-byte Reload
	shlq	$4, %rax
	movl	16(%rcx,%rax,4), %edx
	movq	-64(%rbp), %rax         # 8-byte Reload
	shlq	$4, %rax
	addl	20(%rcx,%rax,4), %edx
	movl	%edx, 20(%rcx,%rax,4)
	movq	-64(%rbp), %rax         # 8-byte Reload
	shlq	$4, %rax
	movl	20(%rcx,%rax,4), %edx
	movq	-64(%rbp), %rax         # 8-byte Reload
	shlq	$4, %rax
	addl	24(%rcx,%rax,4), %edx
	movl	%edx, 24(%rcx,%rax,4)
	movq	-64(%rbp), %rax         # 8-byte Reload
	shlq	$4, %rax
	movl	24(%rcx,%rax,4), %edx
	movq	-64(%rbp), %rax         # 8-byte Reload
	shlq	$4, %rax
	addl	28(%rcx,%rax,4), %edx
	movl	%edx, 28(%rcx,%rax,4)
	movq	-64(%rbp), %rax         # 8-byte Reload
	shlq	$4, %rax
	movl	28(%rcx,%rax,4), %edx
	movq	-64(%rbp), %rax         # 8-byte Reload
	shlq	$4, %rax
	addl	32(%rcx,%rax,4), %edx
	movl	%edx, 32(%rcx,%rax,4)
	movq	-64(%rbp), %rax         # 8-byte Reload
	shlq	$4, %rax
	movl	32(%rcx,%rax,4), %edx
	movq	-64(%rbp), %rax         # 8-byte Reload
	shlq	$4, %rax
	addl	36(%rcx,%rax,4), %edx
	movl	%edx, 36(%rcx,%rax,4)
	movq	-64(%rbp), %rax         # 8-byte Reload
	shlq	$4, %rax
	movl	36(%rcx,%rax,4), %edx
	movq	-64(%rbp), %rax         # 8-byte Reload
	shlq	$4, %rax
	addl	40(%rcx,%rax,4), %edx
	movl	%edx, 40(%rcx,%rax,4)
	movq	-64(%rbp), %rax         # 8-byte Reload
	shlq	$4, %rax
	movl	40(%rcx,%rax,4), %edx
	movq	-64(%rbp), %rax         # 8-byte Reload
	shlq	$4, %rax
	addl	44(%rcx,%rax,4), %edx
	movl	%edx, 44(%rcx,%rax,4)
	movq	-64(%rbp), %rax         # 8-byte Reload
	shlq	$4, %rax
	movl	44(%rcx,%rax,4), %edx
	movq	-64(%rbp), %rax         # 8-byte Reload
	shlq	$4, %rax
	addl	48(%rcx,%rax,4), %edx
	movl	%edx, 48(%rcx,%rax,4)
	movq	-64(%rbp), %rax         # 8-byte Reload
	shlq	$4, %rax
	movl	48(%rcx,%rax,4), %edx
	movq	-64(%rbp), %rax         # 8-byte Reload
	shlq	$4, %rax
	addl	52(%rcx,%rax,4), %edx
	movl	%edx, 52(%rcx,%rax,4)
	movq	-64(%rbp), %rax         # 8-byte Reload
	shlq	$4, %rax
	movl	52(%rcx,%rax,4), %edx
	movq	-64(%rbp), %rax         # 8-byte Reload
	shlq	$4, %rax
	addl	56(%rcx,%rax,4), %edx
	movl	%edx, 56(%rcx,%rax,4)
	movq	-64(%rbp), %rax         # 8-byte Reload
	shlq	$4, %rax
	movl	56(%rcx,%rax,4), %edx
	movq	-64(%rbp), %rax         # 8-byte Reload
	shlq	$4, %rax
	addl	60(%rcx,%rax,4), %edx
	movl	%edx, 60(%rcx,%rax,4)
	movq	-64(%rbp), %rax         # 8-byte Reload
	addq	$1, %rax
	movq	%rax, -72(%rbp)         # 8-byte Spill
# %bb.9:                                # %for.body3.6
                                        #   in Loop: Header=BB1_1 Depth=1
	movq	-72(%rbp), %rax         # 8-byte Reload
	shlq	$4, %rax
	movq	-8(%rbp), %rcx          # 8-byte Reload
	movl	(%rcx,%rax,4), %edx
	movq	-72(%rbp), %rax         # 8-byte Reload
	shlq	$4, %rax
	addl	4(%rcx,%rax,4), %edx
	movl	%edx, 4(%rcx,%rax,4)
	movq	-72(%rbp), %rax         # 8-byte Reload
	shlq	$4, %rax
	movl	4(%rcx,%rax,4), %edx
	movq	-72(%rbp), %rax         # 8-byte Reload
	shlq	$4, %rax
	addl	8(%rcx,%rax,4), %edx
	movl	%edx, 8(%rcx,%rax,4)
	movq	-72(%rbp), %rax         # 8-byte Reload
	shlq	$4, %rax
	movl	8(%rcx,%rax,4), %edx
	movq	-72(%rbp), %rax         # 8-byte Reload
	shlq	$4, %rax
	addl	12(%rcx,%rax,4), %edx
	movl	%edx, 12(%rcx,%rax,4)
	movq	-72(%rbp), %rax         # 8-byte Reload
	shlq	$4, %rax
	movl	12(%rcx,%rax,4), %edx
	movq	-72(%rbp), %rax         # 8-byte Reload
	shlq	$4, %rax
	addl	16(%rcx,%rax,4), %edx
	movl	%edx, 16(%rcx,%rax,4)
	movq	-72(%rbp), %rax         # 8-byte Reload
	shlq	$4, %rax
	movl	16(%rcx,%rax,4), %edx
	movq	-72(%rbp), %rax         # 8-byte Reload
	shlq	$4, %rax
	addl	20(%rcx,%rax,4), %edx
	movl	%edx, 20(%rcx,%rax,4)
	movq	-72(%rbp), %rax         # 8-byte Reload
	shlq	$4, %rax
	movl	20(%rcx,%rax,4), %edx
	movq	-72(%rbp), %rax         # 8-byte Reload
	shlq	$4, %rax
	addl	24(%rcx,%rax,4), %edx
	movl	%edx, 24(%rcx,%rax,4)
	movq	-72(%rbp), %rax         # 8-byte Reload
	shlq	$4, %rax
	movl	24(%rcx,%rax,4), %edx
	movq	-72(%rbp), %rax         # 8-byte Reload
	shlq	$4, %rax
	addl	28(%rcx,%rax,4), %edx
	movl	%edx, 28(%rcx,%rax,4)
	movq	-72(%rbp), %rax         # 8-byte Reload
	shlq	$4, %rax
	movl	28(%rcx,%rax,4), %edx
	movq	-72(%rbp), %rax         # 8-byte Reload
	shlq	$4, %rax
	addl	32(%rcx,%rax,4), %edx
	movl	%edx, 32(%rcx,%rax,4)
	movq	-72(%rbp), %rax         # 8-byte Reload
	shlq	$4, %rax
	movl	32(%rcx,%rax,4), %edx
	movq	-72(%rbp), %rax         # 8-byte Reload
	shlq	$4, %rax
	addl	36(%rcx,%rax,4), %edx
	movl	%edx, 36(%rcx,%rax,4)
	movq	-72(%rbp), %rax         # 8-byte Reload
	shlq	$4, %rax
	movl	36(%rcx,%rax,4), %edx
	movq	-72(%rbp), %rax         # 8-byte Reload
	shlq	$4, %rax
	addl	40(%rcx,%rax,4), %edx
	movl	%edx, 40(%rcx,%rax,4)
	movq	-72(%rbp), %rax         # 8-byte Reload
	shlq	$4, %rax
	movl	40(%rcx,%rax,4), %edx
	movq	-72(%rbp), %rax         # 8-byte Reload
	shlq	$4, %rax
	addl	44(%rcx,%rax,4), %edx
	movl	%edx, 44(%rcx,%rax,4)
	movq	-72(%rbp), %rax         # 8-byte Reload
	shlq	$4, %rax
	movl	44(%rcx,%rax,4), %edx
	movq	-72(%rbp), %rax         # 8-byte Reload
	shlq	$4, %rax
	addl	48(%rcx,%rax,4), %edx
	movl	%edx, 48(%rcx,%rax,4)
	movq	-72(%rbp), %rax         # 8-byte Reload
	shlq	$4, %rax
	movl	48(%rcx,%rax,4), %edx
	movq	-72(%rbp), %rax         # 8-byte Reload
	shlq	$4, %rax
	addl	52(%rcx,%rax,4), %edx
	movl	%edx, 52(%rcx,%rax,4)
	movq	-72(%rbp), %rax         # 8-byte Reload
	shlq	$4, %rax
	movl	52(%rcx,%rax,4), %edx
	movq	-72(%rbp), %rax         # 8-byte Reload
	shlq	$4, %rax
	addl	56(%rcx,%rax,4), %edx
	movl	%edx, 56(%rcx,%rax,4)
	movq	-72(%rbp), %rax         # 8-byte Reload
	shlq	$4, %rax
	movl	56(%rcx,%rax,4), %edx
	movq	-72(%rbp), %rax         # 8-byte Reload
	shlq	$4, %rax
	addl	60(%rcx,%rax,4), %edx
	movl	%edx, 60(%rcx,%rax,4)
	movq	-72(%rbp), %rax         # 8-byte Reload
	addq	$1, %rax
	movq	%rax, -80(%rbp)         # 8-byte Spill
# %bb.10:                               # %for.body3.7
                                        #   in Loop: Header=BB1_1 Depth=1
	movq	-80(%rbp), %rax         # 8-byte Reload
	shlq	$4, %rax
	movq	-8(%rbp), %rcx          # 8-byte Reload
	movl	(%rcx,%rax,4), %edx
	movq	-80(%rbp), %rax         # 8-byte Reload
	shlq	$4, %rax
	addl	4(%rcx,%rax,4), %edx
	movl	%edx, 4(%rcx,%rax,4)
	movq	-80(%rbp), %rax         # 8-byte Reload
	shlq	$4, %rax
	movl	4(%rcx,%rax,4), %edx
	movq	-80(%rbp), %rax         # 8-byte Reload
	shlq	$4, %rax
	addl	8(%rcx,%rax,4), %edx
	movl	%edx, 8(%rcx,%rax,4)
	movq	-80(%rbp), %rax         # 8-byte Reload
	shlq	$4, %rax
	movl	8(%rcx,%rax,4), %edx
	movq	-80(%rbp), %rax         # 8-byte Reload
	shlq	$4, %rax
	addl	12(%rcx,%rax,4), %edx
	movl	%edx, 12(%rcx,%rax,4)
	movq	-80(%rbp), %rax         # 8-byte Reload
	shlq	$4, %rax
	movl	12(%rcx,%rax,4), %edx
	movq	-80(%rbp), %rax         # 8-byte Reload
	shlq	$4, %rax
	addl	16(%rcx,%rax,4), %edx
	movl	%edx, 16(%rcx,%rax,4)
	movq	-80(%rbp), %rax         # 8-byte Reload
	shlq	$4, %rax
	movl	16(%rcx,%rax,4), %edx
	movq	-80(%rbp), %rax         # 8-byte Reload
	shlq	$4, %rax
	addl	20(%rcx,%rax,4), %edx
	movl	%edx, 20(%rcx,%rax,4)
	movq	-80(%rbp), %rax         # 8-byte Reload
	shlq	$4, %rax
	movl	20(%rcx,%rax,4), %edx
	movq	-80(%rbp), %rax         # 8-byte Reload
	shlq	$4, %rax
	addl	24(%rcx,%rax,4), %edx
	movl	%edx, 24(%rcx,%rax,4)
	movq	-80(%rbp), %rax         # 8-byte Reload
	shlq	$4, %rax
	movl	24(%rcx,%rax,4), %edx
	movq	-80(%rbp), %rax         # 8-byte Reload
	shlq	$4, %rax
	addl	28(%rcx,%rax,4), %edx
	movl	%edx, 28(%rcx,%rax,4)
	movq	-80(%rbp), %rax         # 8-byte Reload
	shlq	$4, %rax
	movl	28(%rcx,%rax,4), %edx
	movq	-80(%rbp), %rax         # 8-byte Reload
	shlq	$4, %rax
	addl	32(%rcx,%rax,4), %edx
	movl	%edx, 32(%rcx,%rax,4)
	movq	-80(%rbp), %rax         # 8-byte Reload
	shlq	$4, %rax
	movl	32(%rcx,%rax,4), %edx
	movq	-80(%rbp), %rax         # 8-byte Reload
	shlq	$4, %rax
	addl	36(%rcx,%rax,4), %edx
	movl	%edx, 36(%rcx,%rax,4)
	movq	-80(%rbp), %rax         # 8-byte Reload
	shlq	$4, %rax
	movl	36(%rcx,%rax,4), %edx
	movq	-80(%rbp), %rax         # 8-byte Reload
	shlq	$4, %rax
	addl	40(%rcx,%rax,4), %edx
	movl	%edx, 40(%rcx,%rax,4)
	movq	-80(%rbp), %rax         # 8-byte Reload
	shlq	$4, %rax
	movl	40(%rcx,%rax,4), %edx
	movq	-80(%rbp), %rax         # 8-byte Reload
	shlq	$4, %rax
	addl	44(%rcx,%rax,4), %edx
	movl	%edx, 44(%rcx,%rax,4)
	movq	-80(%rbp), %rax         # 8-byte Reload
	shlq	$4, %rax
	movl	44(%rcx,%rax,4), %edx
	movq	-80(%rbp), %rax         # 8-byte Reload
	shlq	$4, %rax
	addl	48(%rcx,%rax,4), %edx
	movl	%edx, 48(%rcx,%rax,4)
	movq	-80(%rbp), %rax         # 8-byte Reload
	shlq	$4, %rax
	movl	48(%rcx,%rax,4), %edx
	movq	-80(%rbp), %rax         # 8-byte Reload
	shlq	$4, %rax
	addl	52(%rcx,%rax,4), %edx
	movl	%edx, 52(%rcx,%rax,4)
	movq	-80(%rbp), %rax         # 8-byte Reload
	shlq	$4, %rax
	movl	52(%rcx,%rax,4), %edx
	movq	-80(%rbp), %rax         # 8-byte Reload
	shlq	$4, %rax
	addl	56(%rcx,%rax,4), %edx
	movl	%edx, 56(%rcx,%rax,4)
	movq	-80(%rbp), %rax         # 8-byte Reload
	shlq	$4, %rax
	movl	56(%rcx,%rax,4), %edx
	movq	-80(%rbp), %rax         # 8-byte Reload
	shlq	$4, %rax
	addl	60(%rcx,%rax,4), %edx
	movl	%edx, 60(%rcx,%rax,4)
	movq	-80(%rbp), %rax         # 8-byte Reload
	addq	$1, %rax
	movq	%rax, -88(%rbp)         # 8-byte Spill
# %bb.11:                               # %for.body3.8
                                        #   in Loop: Header=BB1_1 Depth=1
	movq	-88(%rbp), %rax         # 8-byte Reload
	shlq	$4, %rax
	movq	-8(%rbp), %rcx          # 8-byte Reload
	movl	(%rcx,%rax,4), %edx
	movq	-88(%rbp), %rax         # 8-byte Reload
	shlq	$4, %rax
	addl	4(%rcx,%rax,4), %edx
	movl	%edx, 4(%rcx,%rax,4)
	movq	-88(%rbp), %rax         # 8-byte Reload
	shlq	$4, %rax
	movl	4(%rcx,%rax,4), %edx
	movq	-88(%rbp), %rax         # 8-byte Reload
	shlq	$4, %rax
	addl	8(%rcx,%rax,4), %edx
	movl	%edx, 8(%rcx,%rax,4)
	movq	-88(%rbp), %rax         # 8-byte Reload
	shlq	$4, %rax
	movl	8(%rcx,%rax,4), %edx
	movq	-88(%rbp), %rax         # 8-byte Reload
	shlq	$4, %rax
	addl	12(%rcx,%rax,4), %edx
	movl	%edx, 12(%rcx,%rax,4)
	movq	-88(%rbp), %rax         # 8-byte Reload
	shlq	$4, %rax
	movl	12(%rcx,%rax,4), %edx
	movq	-88(%rbp), %rax         # 8-byte Reload
	shlq	$4, %rax
	addl	16(%rcx,%rax,4), %edx
	movl	%edx, 16(%rcx,%rax,4)
	movq	-88(%rbp), %rax         # 8-byte Reload
	shlq	$4, %rax
	movl	16(%rcx,%rax,4), %edx
	movq	-88(%rbp), %rax         # 8-byte Reload
	shlq	$4, %rax
	addl	20(%rcx,%rax,4), %edx
	movl	%edx, 20(%rcx,%rax,4)
	movq	-88(%rbp), %rax         # 8-byte Reload
	shlq	$4, %rax
	movl	20(%rcx,%rax,4), %edx
	movq	-88(%rbp), %rax         # 8-byte Reload
	shlq	$4, %rax
	addl	24(%rcx,%rax,4), %edx
	movl	%edx, 24(%rcx,%rax,4)
	movq	-88(%rbp), %rax         # 8-byte Reload
	shlq	$4, %rax
	movl	24(%rcx,%rax,4), %edx
	movq	-88(%rbp), %rax         # 8-byte Reload
	shlq	$4, %rax
	addl	28(%rcx,%rax,4), %edx
	movl	%edx, 28(%rcx,%rax,4)
	movq	-88(%rbp), %rax         # 8-byte Reload
	shlq	$4, %rax
	movl	28(%rcx,%rax,4), %edx
	movq	-88(%rbp), %rax         # 8-byte Reload
	shlq	$4, %rax
	addl	32(%rcx,%rax,4), %edx
	movl	%edx, 32(%rcx,%rax,4)
	movq	-88(%rbp), %rax         # 8-byte Reload
	shlq	$4, %rax
	movl	32(%rcx,%rax,4), %edx
	movq	-88(%rbp), %rax         # 8-byte Reload
	shlq	$4, %rax
	addl	36(%rcx,%rax,4), %edx
	movl	%edx, 36(%rcx,%rax,4)
	movq	-88(%rbp), %rax         # 8-byte Reload
	shlq	$4, %rax
	movl	36(%rcx,%rax,4), %edx
	movq	-88(%rbp), %rax         # 8-byte Reload
	shlq	$4, %rax
	addl	40(%rcx,%rax,4), %edx
	movl	%edx, 40(%rcx,%rax,4)
	movq	-88(%rbp), %rax         # 8-byte Reload
	shlq	$4, %rax
	movl	40(%rcx,%rax,4), %edx
	movq	-88(%rbp), %rax         # 8-byte Reload
	shlq	$4, %rax
	addl	44(%rcx,%rax,4), %edx
	movl	%edx, 44(%rcx,%rax,4)
	movq	-88(%rbp), %rax         # 8-byte Reload
	shlq	$4, %rax
	movl	44(%rcx,%rax,4), %edx
	movq	-88(%rbp), %rax         # 8-byte Reload
	shlq	$4, %rax
	addl	48(%rcx,%rax,4), %edx
	movl	%edx, 48(%rcx,%rax,4)
	movq	-88(%rbp), %rax         # 8-byte Reload
	shlq	$4, %rax
	movl	48(%rcx,%rax,4), %edx
	movq	-88(%rbp), %rax         # 8-byte Reload
	shlq	$4, %rax
	addl	52(%rcx,%rax,4), %edx
	movl	%edx, 52(%rcx,%rax,4)
	movq	-88(%rbp), %rax         # 8-byte Reload
	shlq	$4, %rax
	movl	52(%rcx,%rax,4), %edx
	movq	-88(%rbp), %rax         # 8-byte Reload
	shlq	$4, %rax
	addl	56(%rcx,%rax,4), %edx
	movl	%edx, 56(%rcx,%rax,4)
	movq	-88(%rbp), %rax         # 8-byte Reload
	shlq	$4, %rax
	movl	56(%rcx,%rax,4), %edx
	movq	-88(%rbp), %rax         # 8-byte Reload
	shlq	$4, %rax
	addl	60(%rcx,%rax,4), %edx
	movl	%edx, 60(%rcx,%rax,4)
	movq	-88(%rbp), %rax         # 8-byte Reload
	addq	$1, %rax
	movq	%rax, -96(%rbp)         # 8-byte Spill
# %bb.12:                               # %for.body3.9
                                        #   in Loop: Header=BB1_1 Depth=1
	movq	-96(%rbp), %rax         # 8-byte Reload
	shlq	$4, %rax
	movq	-8(%rbp), %rcx          # 8-byte Reload
	movl	(%rcx,%rax,4), %edx
	movq	-96(%rbp), %rax         # 8-byte Reload
	shlq	$4, %rax
	addl	4(%rcx,%rax,4), %edx
	movl	%edx, 4(%rcx,%rax,4)
	movq	-96(%rbp), %rax         # 8-byte Reload
	shlq	$4, %rax
	movl	4(%rcx,%rax,4), %edx
	movq	-96(%rbp), %rax         # 8-byte Reload
	shlq	$4, %rax
	addl	8(%rcx,%rax,4), %edx
	movl	%edx, 8(%rcx,%rax,4)
	movq	-96(%rbp), %rax         # 8-byte Reload
	shlq	$4, %rax
	movl	8(%rcx,%rax,4), %edx
	movq	-96(%rbp), %rax         # 8-byte Reload
	shlq	$4, %rax
	addl	12(%rcx,%rax,4), %edx
	movl	%edx, 12(%rcx,%rax,4)
	movq	-96(%rbp), %rax         # 8-byte Reload
	shlq	$4, %rax
	movl	12(%rcx,%rax,4), %edx
	movq	-96(%rbp), %rax         # 8-byte Reload
	shlq	$4, %rax
	addl	16(%rcx,%rax,4), %edx
	movl	%edx, 16(%rcx,%rax,4)
	movq	-96(%rbp), %rax         # 8-byte Reload
	shlq	$4, %rax
	movl	16(%rcx,%rax,4), %edx
	movq	-96(%rbp), %rax         # 8-byte Reload
	shlq	$4, %rax
	addl	20(%rcx,%rax,4), %edx
	movl	%edx, 20(%rcx,%rax,4)
	movq	-96(%rbp), %rax         # 8-byte Reload
	shlq	$4, %rax
	movl	20(%rcx,%rax,4), %edx
	movq	-96(%rbp), %rax         # 8-byte Reload
	shlq	$4, %rax
	addl	24(%rcx,%rax,4), %edx
	movl	%edx, 24(%rcx,%rax,4)
	movq	-96(%rbp), %rax         # 8-byte Reload
	shlq	$4, %rax
	movl	24(%rcx,%rax,4), %edx
	movq	-96(%rbp), %rax         # 8-byte Reload
	shlq	$4, %rax
	addl	28(%rcx,%rax,4), %edx
	movl	%edx, 28(%rcx,%rax,4)
	movq	-96(%rbp), %rax         # 8-byte Reload
	shlq	$4, %rax
	movl	28(%rcx,%rax,4), %edx
	movq	-96(%rbp), %rax         # 8-byte Reload
	shlq	$4, %rax
	addl	32(%rcx,%rax,4), %edx
	movl	%edx, 32(%rcx,%rax,4)
	movq	-96(%rbp), %rax         # 8-byte Reload
	shlq	$4, %rax
	movl	32(%rcx,%rax,4), %edx
	movq	-96(%rbp), %rax         # 8-byte Reload
	shlq	$4, %rax
	addl	36(%rcx,%rax,4), %edx
	movl	%edx, 36(%rcx,%rax,4)
	movq	-96(%rbp), %rax         # 8-byte Reload
	shlq	$4, %rax
	movl	36(%rcx,%rax,4), %edx
	movq	-96(%rbp), %rax         # 8-byte Reload
	shlq	$4, %rax
	addl	40(%rcx,%rax,4), %edx
	movl	%edx, 40(%rcx,%rax,4)
	movq	-96(%rbp), %rax         # 8-byte Reload
	shlq	$4, %rax
	movl	40(%rcx,%rax,4), %edx
	movq	-96(%rbp), %rax         # 8-byte Reload
	shlq	$4, %rax
	addl	44(%rcx,%rax,4), %edx
	movl	%edx, 44(%rcx,%rax,4)
	movq	-96(%rbp), %rax         # 8-byte Reload
	shlq	$4, %rax
	movl	44(%rcx,%rax,4), %edx
	movq	-96(%rbp), %rax         # 8-byte Reload
	shlq	$4, %rax
	addl	48(%rcx,%rax,4), %edx
	movl	%edx, 48(%rcx,%rax,4)
	movq	-96(%rbp), %rax         # 8-byte Reload
	shlq	$4, %rax
	movl	48(%rcx,%rax,4), %edx
	movq	-96(%rbp), %rax         # 8-byte Reload
	shlq	$4, %rax
	addl	52(%rcx,%rax,4), %edx
	movl	%edx, 52(%rcx,%rax,4)
	movq	-96(%rbp), %rax         # 8-byte Reload
	shlq	$4, %rax
	movl	52(%rcx,%rax,4), %edx
	movq	-96(%rbp), %rax         # 8-byte Reload
	shlq	$4, %rax
	addl	56(%rcx,%rax,4), %edx
	movl	%edx, 56(%rcx,%rax,4)
	movq	-96(%rbp), %rax         # 8-byte Reload
	shlq	$4, %rax
	movl	56(%rcx,%rax,4), %edx
	movq	-96(%rbp), %rax         # 8-byte Reload
	shlq	$4, %rax
	addl	60(%rcx,%rax,4), %edx
	movl	%edx, 60(%rcx,%rax,4)
	movq	-96(%rbp), %rax         # 8-byte Reload
	addq	$1, %rax
	movq	%rax, -104(%rbp)        # 8-byte Spill
# %bb.13:                               # %for.body3.10
                                        #   in Loop: Header=BB1_1 Depth=1
	movq	-104(%rbp), %rax        # 8-byte Reload
	shlq	$4, %rax
	movq	-8(%rbp), %rcx          # 8-byte Reload
	movl	(%rcx,%rax,4), %edx
	movq	-104(%rbp), %rax        # 8-byte Reload
	shlq	$4, %rax
	addl	4(%rcx,%rax,4), %edx
	movl	%edx, 4(%rcx,%rax,4)
	movq	-104(%rbp), %rax        # 8-byte Reload
	shlq	$4, %rax
	movl	4(%rcx,%rax,4), %edx
	movq	-104(%rbp), %rax        # 8-byte Reload
	shlq	$4, %rax
	addl	8(%rcx,%rax,4), %edx
	movl	%edx, 8(%rcx,%rax,4)
	movq	-104(%rbp), %rax        # 8-byte Reload
	shlq	$4, %rax
	movl	8(%rcx,%rax,4), %edx
	movq	-104(%rbp), %rax        # 8-byte Reload
	shlq	$4, %rax
	addl	12(%rcx,%rax,4), %edx
	movl	%edx, 12(%rcx,%rax,4)
	movq	-104(%rbp), %rax        # 8-byte Reload
	shlq	$4, %rax
	movl	12(%rcx,%rax,4), %edx
	movq	-104(%rbp), %rax        # 8-byte Reload
	shlq	$4, %rax
	addl	16(%rcx,%rax,4), %edx
	movl	%edx, 16(%rcx,%rax,4)
	movq	-104(%rbp), %rax        # 8-byte Reload
	shlq	$4, %rax
	movl	16(%rcx,%rax,4), %edx
	movq	-104(%rbp), %rax        # 8-byte Reload
	shlq	$4, %rax
	addl	20(%rcx,%rax,4), %edx
	movl	%edx, 20(%rcx,%rax,4)
	movq	-104(%rbp), %rax        # 8-byte Reload
	shlq	$4, %rax
	movl	20(%rcx,%rax,4), %edx
	movq	-104(%rbp), %rax        # 8-byte Reload
	shlq	$4, %rax
	addl	24(%rcx,%rax,4), %edx
	movl	%edx, 24(%rcx,%rax,4)
	movq	-104(%rbp), %rax        # 8-byte Reload
	shlq	$4, %rax
	movl	24(%rcx,%rax,4), %edx
	movq	-104(%rbp), %rax        # 8-byte Reload
	shlq	$4, %rax
	addl	28(%rcx,%rax,4), %edx
	movl	%edx, 28(%rcx,%rax,4)
	movq	-104(%rbp), %rax        # 8-byte Reload
	shlq	$4, %rax
	movl	28(%rcx,%rax,4), %edx
	movq	-104(%rbp), %rax        # 8-byte Reload
	shlq	$4, %rax
	addl	32(%rcx,%rax,4), %edx
	movl	%edx, 32(%rcx,%rax,4)
	movq	-104(%rbp), %rax        # 8-byte Reload
	shlq	$4, %rax
	movl	32(%rcx,%rax,4), %edx
	movq	-104(%rbp), %rax        # 8-byte Reload
	shlq	$4, %rax
	addl	36(%rcx,%rax,4), %edx
	movl	%edx, 36(%rcx,%rax,4)
	movq	-104(%rbp), %rax        # 8-byte Reload
	shlq	$4, %rax
	movl	36(%rcx,%rax,4), %edx
	movq	-104(%rbp), %rax        # 8-byte Reload
	shlq	$4, %rax
	addl	40(%rcx,%rax,4), %edx
	movl	%edx, 40(%rcx,%rax,4)
	movq	-104(%rbp), %rax        # 8-byte Reload
	shlq	$4, %rax
	movl	40(%rcx,%rax,4), %edx
	movq	-104(%rbp), %rax        # 8-byte Reload
	shlq	$4, %rax
	addl	44(%rcx,%rax,4), %edx
	movl	%edx, 44(%rcx,%rax,4)
	movq	-104(%rbp), %rax        # 8-byte Reload
	shlq	$4, %rax
	movl	44(%rcx,%rax,4), %edx
	movq	-104(%rbp), %rax        # 8-byte Reload
	shlq	$4, %rax
	addl	48(%rcx,%rax,4), %edx
	movl	%edx, 48(%rcx,%rax,4)
	movq	-104(%rbp), %rax        # 8-byte Reload
	shlq	$4, %rax
	movl	48(%rcx,%rax,4), %edx
	movq	-104(%rbp), %rax        # 8-byte Reload
	shlq	$4, %rax
	addl	52(%rcx,%rax,4), %edx
	movl	%edx, 52(%rcx,%rax,4)
	movq	-104(%rbp), %rax        # 8-byte Reload
	shlq	$4, %rax
	movl	52(%rcx,%rax,4), %edx
	movq	-104(%rbp), %rax        # 8-byte Reload
	shlq	$4, %rax
	addl	56(%rcx,%rax,4), %edx
	movl	%edx, 56(%rcx,%rax,4)
	movq	-104(%rbp), %rax        # 8-byte Reload
	shlq	$4, %rax
	movl	56(%rcx,%rax,4), %edx
	movq	-104(%rbp), %rax        # 8-byte Reload
	shlq	$4, %rax
	addl	60(%rcx,%rax,4), %edx
	movl	%edx, 60(%rcx,%rax,4)
	movq	-104(%rbp), %rax        # 8-byte Reload
	addq	$1, %rax
	movq	%rax, -112(%rbp)        # 8-byte Spill
# %bb.14:                               # %for.body3.11
                                        #   in Loop: Header=BB1_1 Depth=1
	movq	-112(%rbp), %rax        # 8-byte Reload
	shlq	$4, %rax
	movq	-8(%rbp), %rcx          # 8-byte Reload
	movl	(%rcx,%rax,4), %edx
	movq	-112(%rbp), %rax        # 8-byte Reload
	shlq	$4, %rax
	addl	4(%rcx,%rax,4), %edx
	movl	%edx, 4(%rcx,%rax,4)
	movq	-112(%rbp), %rax        # 8-byte Reload
	shlq	$4, %rax
	movl	4(%rcx,%rax,4), %edx
	movq	-112(%rbp), %rax        # 8-byte Reload
	shlq	$4, %rax
	addl	8(%rcx,%rax,4), %edx
	movl	%edx, 8(%rcx,%rax,4)
	movq	-112(%rbp), %rax        # 8-byte Reload
	shlq	$4, %rax
	movl	8(%rcx,%rax,4), %edx
	movq	-112(%rbp), %rax        # 8-byte Reload
	shlq	$4, %rax
	addl	12(%rcx,%rax,4), %edx
	movl	%edx, 12(%rcx,%rax,4)
	movq	-112(%rbp), %rax        # 8-byte Reload
	shlq	$4, %rax
	movl	12(%rcx,%rax,4), %edx
	movq	-112(%rbp), %rax        # 8-byte Reload
	shlq	$4, %rax
	addl	16(%rcx,%rax,4), %edx
	movl	%edx, 16(%rcx,%rax,4)
	movq	-112(%rbp), %rax        # 8-byte Reload
	shlq	$4, %rax
	movl	16(%rcx,%rax,4), %edx
	movq	-112(%rbp), %rax        # 8-byte Reload
	shlq	$4, %rax
	addl	20(%rcx,%rax,4), %edx
	movl	%edx, 20(%rcx,%rax,4)
	movq	-112(%rbp), %rax        # 8-byte Reload
	shlq	$4, %rax
	movl	20(%rcx,%rax,4), %edx
	movq	-112(%rbp), %rax        # 8-byte Reload
	shlq	$4, %rax
	addl	24(%rcx,%rax,4), %edx
	movl	%edx, 24(%rcx,%rax,4)
	movq	-112(%rbp), %rax        # 8-byte Reload
	shlq	$4, %rax
	movl	24(%rcx,%rax,4), %edx
	movq	-112(%rbp), %rax        # 8-byte Reload
	shlq	$4, %rax
	addl	28(%rcx,%rax,4), %edx
	movl	%edx, 28(%rcx,%rax,4)
	movq	-112(%rbp), %rax        # 8-byte Reload
	shlq	$4, %rax
	movl	28(%rcx,%rax,4), %edx
	movq	-112(%rbp), %rax        # 8-byte Reload
	shlq	$4, %rax
	addl	32(%rcx,%rax,4), %edx
	movl	%edx, 32(%rcx,%rax,4)
	movq	-112(%rbp), %rax        # 8-byte Reload
	shlq	$4, %rax
	movl	32(%rcx,%rax,4), %edx
	movq	-112(%rbp), %rax        # 8-byte Reload
	shlq	$4, %rax
	addl	36(%rcx,%rax,4), %edx
	movl	%edx, 36(%rcx,%rax,4)
	movq	-112(%rbp), %rax        # 8-byte Reload
	shlq	$4, %rax
	movl	36(%rcx,%rax,4), %edx
	movq	-112(%rbp), %rax        # 8-byte Reload
	shlq	$4, %rax
	addl	40(%rcx,%rax,4), %edx
	movl	%edx, 40(%rcx,%rax,4)
	movq	-112(%rbp), %rax        # 8-byte Reload
	shlq	$4, %rax
	movl	40(%rcx,%rax,4), %edx
	movq	-112(%rbp), %rax        # 8-byte Reload
	shlq	$4, %rax
	addl	44(%rcx,%rax,4), %edx
	movl	%edx, 44(%rcx,%rax,4)
	movq	-112(%rbp), %rax        # 8-byte Reload
	shlq	$4, %rax
	movl	44(%rcx,%rax,4), %edx
	movq	-112(%rbp), %rax        # 8-byte Reload
	shlq	$4, %rax
	addl	48(%rcx,%rax,4), %edx
	movl	%edx, 48(%rcx,%rax,4)
	movq	-112(%rbp), %rax        # 8-byte Reload
	shlq	$4, %rax
	movl	48(%rcx,%rax,4), %edx
	movq	-112(%rbp), %rax        # 8-byte Reload
	shlq	$4, %rax
	addl	52(%rcx,%rax,4), %edx
	movl	%edx, 52(%rcx,%rax,4)
	movq	-112(%rbp), %rax        # 8-byte Reload
	shlq	$4, %rax
	movl	52(%rcx,%rax,4), %edx
	movq	-112(%rbp), %rax        # 8-byte Reload
	shlq	$4, %rax
	addl	56(%rcx,%rax,4), %edx
	movl	%edx, 56(%rcx,%rax,4)
	movq	-112(%rbp), %rax        # 8-byte Reload
	shlq	$4, %rax
	movl	56(%rcx,%rax,4), %edx
	movq	-112(%rbp), %rax        # 8-byte Reload
	shlq	$4, %rax
	addl	60(%rcx,%rax,4), %edx
	movl	%edx, 60(%rcx,%rax,4)
	movq	-112(%rbp), %rax        # 8-byte Reload
	addq	$1, %rax
	movq	%rax, -120(%rbp)        # 8-byte Spill
# %bb.15:                               # %for.body3.12
                                        #   in Loop: Header=BB1_1 Depth=1
	movq	-120(%rbp), %rax        # 8-byte Reload
	shlq	$4, %rax
	movq	-8(%rbp), %rcx          # 8-byte Reload
	movl	(%rcx,%rax,4), %edx
	movq	-120(%rbp), %rax        # 8-byte Reload
	shlq	$4, %rax
	addl	4(%rcx,%rax,4), %edx
	movl	%edx, 4(%rcx,%rax,4)
	movq	-120(%rbp), %rax        # 8-byte Reload
	shlq	$4, %rax
	movl	4(%rcx,%rax,4), %edx
	movq	-120(%rbp), %rax        # 8-byte Reload
	shlq	$4, %rax
	addl	8(%rcx,%rax,4), %edx
	movl	%edx, 8(%rcx,%rax,4)
	movq	-120(%rbp), %rax        # 8-byte Reload
	shlq	$4, %rax
	movl	8(%rcx,%rax,4), %edx
	movq	-120(%rbp), %rax        # 8-byte Reload
	shlq	$4, %rax
	addl	12(%rcx,%rax,4), %edx
	movl	%edx, 12(%rcx,%rax,4)
	movq	-120(%rbp), %rax        # 8-byte Reload
	shlq	$4, %rax
	movl	12(%rcx,%rax,4), %edx
	movq	-120(%rbp), %rax        # 8-byte Reload
	shlq	$4, %rax
	addl	16(%rcx,%rax,4), %edx
	movl	%edx, 16(%rcx,%rax,4)
	movq	-120(%rbp), %rax        # 8-byte Reload
	shlq	$4, %rax
	movl	16(%rcx,%rax,4), %edx
	movq	-120(%rbp), %rax        # 8-byte Reload
	shlq	$4, %rax
	addl	20(%rcx,%rax,4), %edx
	movl	%edx, 20(%rcx,%rax,4)
	movq	-120(%rbp), %rax        # 8-byte Reload
	shlq	$4, %rax
	movl	20(%rcx,%rax,4), %edx
	movq	-120(%rbp), %rax        # 8-byte Reload
	shlq	$4, %rax
	addl	24(%rcx,%rax,4), %edx
	movl	%edx, 24(%rcx,%rax,4)
	movq	-120(%rbp), %rax        # 8-byte Reload
	shlq	$4, %rax
	movl	24(%rcx,%rax,4), %edx
	movq	-120(%rbp), %rax        # 8-byte Reload
	shlq	$4, %rax
	addl	28(%rcx,%rax,4), %edx
	movl	%edx, 28(%rcx,%rax,4)
	movq	-120(%rbp), %rax        # 8-byte Reload
	shlq	$4, %rax
	movl	28(%rcx,%rax,4), %edx
	movq	-120(%rbp), %rax        # 8-byte Reload
	shlq	$4, %rax
	addl	32(%rcx,%rax,4), %edx
	movl	%edx, 32(%rcx,%rax,4)
	movq	-120(%rbp), %rax        # 8-byte Reload
	shlq	$4, %rax
	movl	32(%rcx,%rax,4), %edx
	movq	-120(%rbp), %rax        # 8-byte Reload
	shlq	$4, %rax
	addl	36(%rcx,%rax,4), %edx
	movl	%edx, 36(%rcx,%rax,4)
	movq	-120(%rbp), %rax        # 8-byte Reload
	shlq	$4, %rax
	movl	36(%rcx,%rax,4), %edx
	movq	-120(%rbp), %rax        # 8-byte Reload
	shlq	$4, %rax
	addl	40(%rcx,%rax,4), %edx
	movl	%edx, 40(%rcx,%rax,4)
	movq	-120(%rbp), %rax        # 8-byte Reload
	shlq	$4, %rax
	movl	40(%rcx,%rax,4), %edx
	movq	-120(%rbp), %rax        # 8-byte Reload
	shlq	$4, %rax
	addl	44(%rcx,%rax,4), %edx
	movl	%edx, 44(%rcx,%rax,4)
	movq	-120(%rbp), %rax        # 8-byte Reload
	shlq	$4, %rax
	movl	44(%rcx,%rax,4), %edx
	movq	-120(%rbp), %rax        # 8-byte Reload
	shlq	$4, %rax
	addl	48(%rcx,%rax,4), %edx
	movl	%edx, 48(%rcx,%rax,4)
	movq	-120(%rbp), %rax        # 8-byte Reload
	shlq	$4, %rax
	movl	48(%rcx,%rax,4), %edx
	movq	-120(%rbp), %rax        # 8-byte Reload
	shlq	$4, %rax
	addl	52(%rcx,%rax,4), %edx
	movl	%edx, 52(%rcx,%rax,4)
	movq	-120(%rbp), %rax        # 8-byte Reload
	shlq	$4, %rax
	movl	52(%rcx,%rax,4), %edx
	movq	-120(%rbp), %rax        # 8-byte Reload
	shlq	$4, %rax
	addl	56(%rcx,%rax,4), %edx
	movl	%edx, 56(%rcx,%rax,4)
	movq	-120(%rbp), %rax        # 8-byte Reload
	shlq	$4, %rax
	movl	56(%rcx,%rax,4), %edx
	movq	-120(%rbp), %rax        # 8-byte Reload
	shlq	$4, %rax
	addl	60(%rcx,%rax,4), %edx
	movl	%edx, 60(%rcx,%rax,4)
	movq	-120(%rbp), %rax        # 8-byte Reload
	addq	$1, %rax
	movq	%rax, -128(%rbp)        # 8-byte Spill
# %bb.16:                               # %for.body3.13
                                        #   in Loop: Header=BB1_1 Depth=1
	movq	-128(%rbp), %rax        # 8-byte Reload
	shlq	$4, %rax
	movq	-8(%rbp), %rcx          # 8-byte Reload
	movl	(%rcx,%rax,4), %edx
	movq	-128(%rbp), %rax        # 8-byte Reload
	shlq	$4, %rax
	addl	4(%rcx,%rax,4), %edx
	movl	%edx, 4(%rcx,%rax,4)
	movq	-128(%rbp), %rax        # 8-byte Reload
	shlq	$4, %rax
	movl	4(%rcx,%rax,4), %edx
	movq	-128(%rbp), %rax        # 8-byte Reload
	shlq	$4, %rax
	addl	8(%rcx,%rax,4), %edx
	movl	%edx, 8(%rcx,%rax,4)
	movq	-128(%rbp), %rax        # 8-byte Reload
	shlq	$4, %rax
	movl	8(%rcx,%rax,4), %edx
	movq	-128(%rbp), %rax        # 8-byte Reload
	shlq	$4, %rax
	addl	12(%rcx,%rax,4), %edx
	movl	%edx, 12(%rcx,%rax,4)
	movq	-128(%rbp), %rax        # 8-byte Reload
	shlq	$4, %rax
	movl	12(%rcx,%rax,4), %edx
	movq	-128(%rbp), %rax        # 8-byte Reload
	shlq	$4, %rax
	addl	16(%rcx,%rax,4), %edx
	movl	%edx, 16(%rcx,%rax,4)
	movq	-128(%rbp), %rax        # 8-byte Reload
	shlq	$4, %rax
	movl	16(%rcx,%rax,4), %edx
	movq	-128(%rbp), %rax        # 8-byte Reload
	shlq	$4, %rax
	addl	20(%rcx,%rax,4), %edx
	movl	%edx, 20(%rcx,%rax,4)
	movq	-128(%rbp), %rax        # 8-byte Reload
	shlq	$4, %rax
	movl	20(%rcx,%rax,4), %edx
	movq	-128(%rbp), %rax        # 8-byte Reload
	shlq	$4, %rax
	addl	24(%rcx,%rax,4), %edx
	movl	%edx, 24(%rcx,%rax,4)
	movq	-128(%rbp), %rax        # 8-byte Reload
	shlq	$4, %rax
	movl	24(%rcx,%rax,4), %edx
	movq	-128(%rbp), %rax        # 8-byte Reload
	shlq	$4, %rax
	addl	28(%rcx,%rax,4), %edx
	movl	%edx, 28(%rcx,%rax,4)
	movq	-128(%rbp), %rax        # 8-byte Reload
	shlq	$4, %rax
	movl	28(%rcx,%rax,4), %edx
	movq	-128(%rbp), %rax        # 8-byte Reload
	shlq	$4, %rax
	addl	32(%rcx,%rax,4), %edx
	movl	%edx, 32(%rcx,%rax,4)
	movq	-128(%rbp), %rax        # 8-byte Reload
	shlq	$4, %rax
	movl	32(%rcx,%rax,4), %edx
	movq	-128(%rbp), %rax        # 8-byte Reload
	shlq	$4, %rax
	addl	36(%rcx,%rax,4), %edx
	movl	%edx, 36(%rcx,%rax,4)
	movq	-128(%rbp), %rax        # 8-byte Reload
	shlq	$4, %rax
	movl	36(%rcx,%rax,4), %edx
	movq	-128(%rbp), %rax        # 8-byte Reload
	shlq	$4, %rax
	addl	40(%rcx,%rax,4), %edx
	movl	%edx, 40(%rcx,%rax,4)
	movq	-128(%rbp), %rax        # 8-byte Reload
	shlq	$4, %rax
	movl	40(%rcx,%rax,4), %edx
	movq	-128(%rbp), %rax        # 8-byte Reload
	shlq	$4, %rax
	addl	44(%rcx,%rax,4), %edx
	movl	%edx, 44(%rcx,%rax,4)
	movq	-128(%rbp), %rax        # 8-byte Reload
	shlq	$4, %rax
	movl	44(%rcx,%rax,4), %edx
	movq	-128(%rbp), %rax        # 8-byte Reload
	shlq	$4, %rax
	addl	48(%rcx,%rax,4), %edx
	movl	%edx, 48(%rcx,%rax,4)
	movq	-128(%rbp), %rax        # 8-byte Reload
	shlq	$4, %rax
	movl	48(%rcx,%rax,4), %edx
	movq	-128(%rbp), %rax        # 8-byte Reload
	shlq	$4, %rax
	addl	52(%rcx,%rax,4), %edx
	movl	%edx, 52(%rcx,%rax,4)
	movq	-128(%rbp), %rax        # 8-byte Reload
	shlq	$4, %rax
	movl	52(%rcx,%rax,4), %edx
	movq	-128(%rbp), %rax        # 8-byte Reload
	shlq	$4, %rax
	addl	56(%rcx,%rax,4), %edx
	movl	%edx, 56(%rcx,%rax,4)
	movq	-128(%rbp), %rax        # 8-byte Reload
	shlq	$4, %rax
	movl	56(%rcx,%rax,4), %edx
	movq	-128(%rbp), %rax        # 8-byte Reload
	shlq	$4, %rax
	addl	60(%rcx,%rax,4), %edx
	movl	%edx, 60(%rcx,%rax,4)
	movq	-128(%rbp), %rax        # 8-byte Reload
	addq	$1, %rax
	movq	%rax, -136(%rbp)        # 8-byte Spill
# %bb.17:                               # %for.body3.14
                                        #   in Loop: Header=BB1_1 Depth=1
	movq	-136(%rbp), %rax        # 8-byte Reload
	shlq	$4, %rax
	movq	-8(%rbp), %rcx          # 8-byte Reload
	movl	(%rcx,%rax,4), %edx
	movq	-136(%rbp), %rax        # 8-byte Reload
	shlq	$4, %rax
	addl	4(%rcx,%rax,4), %edx
	movl	%edx, 4(%rcx,%rax,4)
	movq	-136(%rbp), %rax        # 8-byte Reload
	shlq	$4, %rax
	movl	4(%rcx,%rax,4), %edx
	movq	-136(%rbp), %rax        # 8-byte Reload
	shlq	$4, %rax
	addl	8(%rcx,%rax,4), %edx
	movl	%edx, 8(%rcx,%rax,4)
	movq	-136(%rbp), %rax        # 8-byte Reload
	shlq	$4, %rax
	movl	8(%rcx,%rax,4), %edx
	movq	-136(%rbp), %rax        # 8-byte Reload
	shlq	$4, %rax
	addl	12(%rcx,%rax,4), %edx
	movl	%edx, 12(%rcx,%rax,4)
	movq	-136(%rbp), %rax        # 8-byte Reload
	shlq	$4, %rax
	movl	12(%rcx,%rax,4), %edx
	movq	-136(%rbp), %rax        # 8-byte Reload
	shlq	$4, %rax
	addl	16(%rcx,%rax,4), %edx
	movl	%edx, 16(%rcx,%rax,4)
	movq	-136(%rbp), %rax        # 8-byte Reload
	shlq	$4, %rax
	movl	16(%rcx,%rax,4), %edx
	movq	-136(%rbp), %rax        # 8-byte Reload
	shlq	$4, %rax
	addl	20(%rcx,%rax,4), %edx
	movl	%edx, 20(%rcx,%rax,4)
	movq	-136(%rbp), %rax        # 8-byte Reload
	shlq	$4, %rax
	movl	20(%rcx,%rax,4), %edx
	movq	-136(%rbp), %rax        # 8-byte Reload
	shlq	$4, %rax
	addl	24(%rcx,%rax,4), %edx
	movl	%edx, 24(%rcx,%rax,4)
	movq	-136(%rbp), %rax        # 8-byte Reload
	shlq	$4, %rax
	movl	24(%rcx,%rax,4), %edx
	movq	-136(%rbp), %rax        # 8-byte Reload
	shlq	$4, %rax
	addl	28(%rcx,%rax,4), %edx
	movl	%edx, 28(%rcx,%rax,4)
	movq	-136(%rbp), %rax        # 8-byte Reload
	shlq	$4, %rax
	movl	28(%rcx,%rax,4), %edx
	movq	-136(%rbp), %rax        # 8-byte Reload
	shlq	$4, %rax
	addl	32(%rcx,%rax,4), %edx
	movl	%edx, 32(%rcx,%rax,4)
	movq	-136(%rbp), %rax        # 8-byte Reload
	shlq	$4, %rax
	movl	32(%rcx,%rax,4), %edx
	movq	-136(%rbp), %rax        # 8-byte Reload
	shlq	$4, %rax
	addl	36(%rcx,%rax,4), %edx
	movl	%edx, 36(%rcx,%rax,4)
	movq	-136(%rbp), %rax        # 8-byte Reload
	shlq	$4, %rax
	movl	36(%rcx,%rax,4), %edx
	movq	-136(%rbp), %rax        # 8-byte Reload
	shlq	$4, %rax
	addl	40(%rcx,%rax,4), %edx
	movl	%edx, 40(%rcx,%rax,4)
	movq	-136(%rbp), %rax        # 8-byte Reload
	shlq	$4, %rax
	movl	40(%rcx,%rax,4), %edx
	movq	-136(%rbp), %rax        # 8-byte Reload
	shlq	$4, %rax
	addl	44(%rcx,%rax,4), %edx
	movl	%edx, 44(%rcx,%rax,4)
	movq	-136(%rbp), %rax        # 8-byte Reload
	shlq	$4, %rax
	movl	44(%rcx,%rax,4), %edx
	movq	-136(%rbp), %rax        # 8-byte Reload
	shlq	$4, %rax
	addl	48(%rcx,%rax,4), %edx
	movl	%edx, 48(%rcx,%rax,4)
	movq	-136(%rbp), %rax        # 8-byte Reload
	shlq	$4, %rax
	movl	48(%rcx,%rax,4), %edx
	movq	-136(%rbp), %rax        # 8-byte Reload
	shlq	$4, %rax
	addl	52(%rcx,%rax,4), %edx
	movl	%edx, 52(%rcx,%rax,4)
	movq	-136(%rbp), %rax        # 8-byte Reload
	shlq	$4, %rax
	movl	52(%rcx,%rax,4), %edx
	movq	-136(%rbp), %rax        # 8-byte Reload
	shlq	$4, %rax
	addl	56(%rcx,%rax,4), %edx
	movl	%edx, 56(%rcx,%rax,4)
	movq	-136(%rbp), %rax        # 8-byte Reload
	shlq	$4, %rax
	movl	56(%rcx,%rax,4), %edx
	movq	-136(%rbp), %rax        # 8-byte Reload
	shlq	$4, %rax
	addl	60(%rcx,%rax,4), %edx
	movl	%edx, 60(%rcx,%rax,4)
	movq	-136(%rbp), %rax        # 8-byte Reload
	addq	$1, %rax
	movq	%rax, -144(%rbp)        # 8-byte Spill
# %bb.18:                               # %for.body3.15
                                        #   in Loop: Header=BB1_1 Depth=1
	movq	-144(%rbp), %rax        # 8-byte Reload
	shlq	$4, %rax
	movq	-8(%rbp), %rcx          # 8-byte Reload
	movl	(%rcx,%rax,4), %edx
	movq	-144(%rbp), %rax        # 8-byte Reload
	shlq	$4, %rax
	addl	4(%rcx,%rax,4), %edx
	movl	%edx, 4(%rcx,%rax,4)
	movq	-144(%rbp), %rax        # 8-byte Reload
	shlq	$4, %rax
	movl	4(%rcx,%rax,4), %edx
	movq	-144(%rbp), %rax        # 8-byte Reload
	shlq	$4, %rax
	addl	8(%rcx,%rax,4), %edx
	movl	%edx, 8(%rcx,%rax,4)
	movq	-144(%rbp), %rax        # 8-byte Reload
	shlq	$4, %rax
	movl	8(%rcx,%rax,4), %edx
	movq	-144(%rbp), %rax        # 8-byte Reload
	shlq	$4, %rax
	addl	12(%rcx,%rax,4), %edx
	movl	%edx, 12(%rcx,%rax,4)
	movq	-144(%rbp), %rax        # 8-byte Reload
	shlq	$4, %rax
	movl	12(%rcx,%rax,4), %edx
	movq	-144(%rbp), %rax        # 8-byte Reload
	shlq	$4, %rax
	addl	16(%rcx,%rax,4), %edx
	movl	%edx, 16(%rcx,%rax,4)
	movq	-144(%rbp), %rax        # 8-byte Reload
	shlq	$4, %rax
	movl	16(%rcx,%rax,4), %edx
	movq	-144(%rbp), %rax        # 8-byte Reload
	shlq	$4, %rax
	addl	20(%rcx,%rax,4), %edx
	movl	%edx, 20(%rcx,%rax,4)
	movq	-144(%rbp), %rax        # 8-byte Reload
	shlq	$4, %rax
	movl	20(%rcx,%rax,4), %edx
	movq	-144(%rbp), %rax        # 8-byte Reload
	shlq	$4, %rax
	addl	24(%rcx,%rax,4), %edx
	movl	%edx, 24(%rcx,%rax,4)
	movq	-144(%rbp), %rax        # 8-byte Reload
	shlq	$4, %rax
	movl	24(%rcx,%rax,4), %edx
	movq	-144(%rbp), %rax        # 8-byte Reload
	shlq	$4, %rax
	addl	28(%rcx,%rax,4), %edx
	movl	%edx, 28(%rcx,%rax,4)
	movq	-144(%rbp), %rax        # 8-byte Reload
	shlq	$4, %rax
	movl	28(%rcx,%rax,4), %edx
	movq	-144(%rbp), %rax        # 8-byte Reload
	shlq	$4, %rax
	addl	32(%rcx,%rax,4), %edx
	movl	%edx, 32(%rcx,%rax,4)
	movq	-144(%rbp), %rax        # 8-byte Reload
	shlq	$4, %rax
	movl	32(%rcx,%rax,4), %edx
	movq	-144(%rbp), %rax        # 8-byte Reload
	shlq	$4, %rax
	addl	36(%rcx,%rax,4), %edx
	movl	%edx, 36(%rcx,%rax,4)
	movq	-144(%rbp), %rax        # 8-byte Reload
	shlq	$4, %rax
	movl	36(%rcx,%rax,4), %edx
	movq	-144(%rbp), %rax        # 8-byte Reload
	shlq	$4, %rax
	addl	40(%rcx,%rax,4), %edx
	movl	%edx, 40(%rcx,%rax,4)
	movq	-144(%rbp), %rax        # 8-byte Reload
	shlq	$4, %rax
	movl	40(%rcx,%rax,4), %edx
	movq	-144(%rbp), %rax        # 8-byte Reload
	shlq	$4, %rax
	addl	44(%rcx,%rax,4), %edx
	movl	%edx, 44(%rcx,%rax,4)
	movq	-144(%rbp), %rax        # 8-byte Reload
	shlq	$4, %rax
	movl	44(%rcx,%rax,4), %edx
	movq	-144(%rbp), %rax        # 8-byte Reload
	shlq	$4, %rax
	addl	48(%rcx,%rax,4), %edx
	movl	%edx, 48(%rcx,%rax,4)
	movq	-144(%rbp), %rax        # 8-byte Reload
	shlq	$4, %rax
	movl	48(%rcx,%rax,4), %edx
	movq	-144(%rbp), %rax        # 8-byte Reload
	shlq	$4, %rax
	addl	52(%rcx,%rax,4), %edx
	movl	%edx, 52(%rcx,%rax,4)
	movq	-144(%rbp), %rax        # 8-byte Reload
	shlq	$4, %rax
	movl	52(%rcx,%rax,4), %edx
	movq	-144(%rbp), %rax        # 8-byte Reload
	shlq	$4, %rax
	addl	56(%rcx,%rax,4), %edx
	movl	%edx, 56(%rcx,%rax,4)
	movq	-144(%rbp), %rax        # 8-byte Reload
	shlq	$4, %rax
	movl	56(%rcx,%rax,4), %edx
	movq	-144(%rbp), %rax        # 8-byte Reload
	shlq	$4, %rax
	addl	60(%rcx,%rax,4), %edx
	movl	%edx, 60(%rcx,%rax,4)
	movq	-144(%rbp), %rax        # 8-byte Reload
	addq	$1, %rax
	movq	%rax, -152(%rbp)        # 8-byte Spill
# %bb.19:                               # %for.body3.16
                                        #   in Loop: Header=BB1_1 Depth=1
	movq	-152(%rbp), %rax        # 8-byte Reload
	shlq	$4, %rax
	movq	-8(%rbp), %rcx          # 8-byte Reload
	movl	(%rcx,%rax,4), %edx
	movq	-152(%rbp), %rax        # 8-byte Reload
	shlq	$4, %rax
	addl	4(%rcx,%rax,4), %edx
	movl	%edx, 4(%rcx,%rax,4)
	movq	-152(%rbp), %rax        # 8-byte Reload
	shlq	$4, %rax
	movl	4(%rcx,%rax,4), %edx
	movq	-152(%rbp), %rax        # 8-byte Reload
	shlq	$4, %rax
	addl	8(%rcx,%rax,4), %edx
	movl	%edx, 8(%rcx,%rax,4)
	movq	-152(%rbp), %rax        # 8-byte Reload
	shlq	$4, %rax
	movl	8(%rcx,%rax,4), %edx
	movq	-152(%rbp), %rax        # 8-byte Reload
	shlq	$4, %rax
	addl	12(%rcx,%rax,4), %edx
	movl	%edx, 12(%rcx,%rax,4)
	movq	-152(%rbp), %rax        # 8-byte Reload
	shlq	$4, %rax
	movl	12(%rcx,%rax,4), %edx
	movq	-152(%rbp), %rax        # 8-byte Reload
	shlq	$4, %rax
	addl	16(%rcx,%rax,4), %edx
	movl	%edx, 16(%rcx,%rax,4)
	movq	-152(%rbp), %rax        # 8-byte Reload
	shlq	$4, %rax
	movl	16(%rcx,%rax,4), %edx
	movq	-152(%rbp), %rax        # 8-byte Reload
	shlq	$4, %rax
	addl	20(%rcx,%rax,4), %edx
	movl	%edx, 20(%rcx,%rax,4)
	movq	-152(%rbp), %rax        # 8-byte Reload
	shlq	$4, %rax
	movl	20(%rcx,%rax,4), %edx
	movq	-152(%rbp), %rax        # 8-byte Reload
	shlq	$4, %rax
	addl	24(%rcx,%rax,4), %edx
	movl	%edx, 24(%rcx,%rax,4)
	movq	-152(%rbp), %rax        # 8-byte Reload
	shlq	$4, %rax
	movl	24(%rcx,%rax,4), %edx
	movq	-152(%rbp), %rax        # 8-byte Reload
	shlq	$4, %rax
	addl	28(%rcx,%rax,4), %edx
	movl	%edx, 28(%rcx,%rax,4)
	movq	-152(%rbp), %rax        # 8-byte Reload
	shlq	$4, %rax
	movl	28(%rcx,%rax,4), %edx
	movq	-152(%rbp), %rax        # 8-byte Reload
	shlq	$4, %rax
	addl	32(%rcx,%rax,4), %edx
	movl	%edx, 32(%rcx,%rax,4)
	movq	-152(%rbp), %rax        # 8-byte Reload
	shlq	$4, %rax
	movl	32(%rcx,%rax,4), %edx
	movq	-152(%rbp), %rax        # 8-byte Reload
	shlq	$4, %rax
	addl	36(%rcx,%rax,4), %edx
	movl	%edx, 36(%rcx,%rax,4)
	movq	-152(%rbp), %rax        # 8-byte Reload
	shlq	$4, %rax
	movl	36(%rcx,%rax,4), %edx
	movq	-152(%rbp), %rax        # 8-byte Reload
	shlq	$4, %rax
	addl	40(%rcx,%rax,4), %edx
	movl	%edx, 40(%rcx,%rax,4)
	movq	-152(%rbp), %rax        # 8-byte Reload
	shlq	$4, %rax
	movl	40(%rcx,%rax,4), %edx
	movq	-152(%rbp), %rax        # 8-byte Reload
	shlq	$4, %rax
	addl	44(%rcx,%rax,4), %edx
	movl	%edx, 44(%rcx,%rax,4)
	movq	-152(%rbp), %rax        # 8-byte Reload
	shlq	$4, %rax
	movl	44(%rcx,%rax,4), %edx
	movq	-152(%rbp), %rax        # 8-byte Reload
	shlq	$4, %rax
	addl	48(%rcx,%rax,4), %edx
	movl	%edx, 48(%rcx,%rax,4)
	movq	-152(%rbp), %rax        # 8-byte Reload
	shlq	$4, %rax
	movl	48(%rcx,%rax,4), %edx
	movq	-152(%rbp), %rax        # 8-byte Reload
	shlq	$4, %rax
	addl	52(%rcx,%rax,4), %edx
	movl	%edx, 52(%rcx,%rax,4)
	movq	-152(%rbp), %rax        # 8-byte Reload
	shlq	$4, %rax
	movl	52(%rcx,%rax,4), %edx
	movq	-152(%rbp), %rax        # 8-byte Reload
	shlq	$4, %rax
	addl	56(%rcx,%rax,4), %edx
	movl	%edx, 56(%rcx,%rax,4)
	movq	-152(%rbp), %rax        # 8-byte Reload
	shlq	$4, %rax
	movl	56(%rcx,%rax,4), %edx
	movq	-152(%rbp), %rax        # 8-byte Reload
	shlq	$4, %rax
	addl	60(%rcx,%rax,4), %edx
	movl	%edx, 60(%rcx,%rax,4)
	movq	-152(%rbp), %rax        # 8-byte Reload
	addq	$1, %rax
	movq	%rax, -160(%rbp)        # 8-byte Spill
# %bb.20:                               # %for.body3.17
                                        #   in Loop: Header=BB1_1 Depth=1
	movq	-160(%rbp), %rax        # 8-byte Reload
	shlq	$4, %rax
	movq	-8(%rbp), %rcx          # 8-byte Reload
	movl	(%rcx,%rax,4), %edx
	movq	-160(%rbp), %rax        # 8-byte Reload
	shlq	$4, %rax
	addl	4(%rcx,%rax,4), %edx
	movl	%edx, 4(%rcx,%rax,4)
	movq	-160(%rbp), %rax        # 8-byte Reload
	shlq	$4, %rax
	movl	4(%rcx,%rax,4), %edx
	movq	-160(%rbp), %rax        # 8-byte Reload
	shlq	$4, %rax
	addl	8(%rcx,%rax,4), %edx
	movl	%edx, 8(%rcx,%rax,4)
	movq	-160(%rbp), %rax        # 8-byte Reload
	shlq	$4, %rax
	movl	8(%rcx,%rax,4), %edx
	movq	-160(%rbp), %rax        # 8-byte Reload
	shlq	$4, %rax
	addl	12(%rcx,%rax,4), %edx
	movl	%edx, 12(%rcx,%rax,4)
	movq	-160(%rbp), %rax        # 8-byte Reload
	shlq	$4, %rax
	movl	12(%rcx,%rax,4), %edx
	movq	-160(%rbp), %rax        # 8-byte Reload
	shlq	$4, %rax
	addl	16(%rcx,%rax,4), %edx
	movl	%edx, 16(%rcx,%rax,4)
	movq	-160(%rbp), %rax        # 8-byte Reload
	shlq	$4, %rax
	movl	16(%rcx,%rax,4), %edx
	movq	-160(%rbp), %rax        # 8-byte Reload
	shlq	$4, %rax
	addl	20(%rcx,%rax,4), %edx
	movl	%edx, 20(%rcx,%rax,4)
	movq	-160(%rbp), %rax        # 8-byte Reload
	shlq	$4, %rax
	movl	20(%rcx,%rax,4), %edx
	movq	-160(%rbp), %rax        # 8-byte Reload
	shlq	$4, %rax
	addl	24(%rcx,%rax,4), %edx
	movl	%edx, 24(%rcx,%rax,4)
	movq	-160(%rbp), %rax        # 8-byte Reload
	shlq	$4, %rax
	movl	24(%rcx,%rax,4), %edx
	movq	-160(%rbp), %rax        # 8-byte Reload
	shlq	$4, %rax
	addl	28(%rcx,%rax,4), %edx
	movl	%edx, 28(%rcx,%rax,4)
	movq	-160(%rbp), %rax        # 8-byte Reload
	shlq	$4, %rax
	movl	28(%rcx,%rax,4), %edx
	movq	-160(%rbp), %rax        # 8-byte Reload
	shlq	$4, %rax
	addl	32(%rcx,%rax,4), %edx
	movl	%edx, 32(%rcx,%rax,4)
	movq	-160(%rbp), %rax        # 8-byte Reload
	shlq	$4, %rax
	movl	32(%rcx,%rax,4), %edx
	movq	-160(%rbp), %rax        # 8-byte Reload
	shlq	$4, %rax
	addl	36(%rcx,%rax,4), %edx
	movl	%edx, 36(%rcx,%rax,4)
	movq	-160(%rbp), %rax        # 8-byte Reload
	shlq	$4, %rax
	movl	36(%rcx,%rax,4), %edx
	movq	-160(%rbp), %rax        # 8-byte Reload
	shlq	$4, %rax
	addl	40(%rcx,%rax,4), %edx
	movl	%edx, 40(%rcx,%rax,4)
	movq	-160(%rbp), %rax        # 8-byte Reload
	shlq	$4, %rax
	movl	40(%rcx,%rax,4), %edx
	movq	-160(%rbp), %rax        # 8-byte Reload
	shlq	$4, %rax
	addl	44(%rcx,%rax,4), %edx
	movl	%edx, 44(%rcx,%rax,4)
	movq	-160(%rbp), %rax        # 8-byte Reload
	shlq	$4, %rax
	movl	44(%rcx,%rax,4), %edx
	movq	-160(%rbp), %rax        # 8-byte Reload
	shlq	$4, %rax
	addl	48(%rcx,%rax,4), %edx
	movl	%edx, 48(%rcx,%rax,4)
	movq	-160(%rbp), %rax        # 8-byte Reload
	shlq	$4, %rax
	movl	48(%rcx,%rax,4), %edx
	movq	-160(%rbp), %rax        # 8-byte Reload
	shlq	$4, %rax
	addl	52(%rcx,%rax,4), %edx
	movl	%edx, 52(%rcx,%rax,4)
	movq	-160(%rbp), %rax        # 8-byte Reload
	shlq	$4, %rax
	movl	52(%rcx,%rax,4), %edx
	movq	-160(%rbp), %rax        # 8-byte Reload
	shlq	$4, %rax
	addl	56(%rcx,%rax,4), %edx
	movl	%edx, 56(%rcx,%rax,4)
	movq	-160(%rbp), %rax        # 8-byte Reload
	shlq	$4, %rax
	movl	56(%rcx,%rax,4), %edx
	movq	-160(%rbp), %rax        # 8-byte Reload
	shlq	$4, %rax
	addl	60(%rcx,%rax,4), %edx
	movl	%edx, 60(%rcx,%rax,4)
	movq	-160(%rbp), %rax        # 8-byte Reload
	addq	$1, %rax
	movq	%rax, -168(%rbp)        # 8-byte Spill
# %bb.21:                               # %for.body3.18
                                        #   in Loop: Header=BB1_1 Depth=1
	movq	-168(%rbp), %rax        # 8-byte Reload
	shlq	$4, %rax
	movq	-8(%rbp), %rcx          # 8-byte Reload
	movl	(%rcx,%rax,4), %edx
	movq	-168(%rbp), %rax        # 8-byte Reload
	shlq	$4, %rax
	addl	4(%rcx,%rax,4), %edx
	movl	%edx, 4(%rcx,%rax,4)
	movq	-168(%rbp), %rax        # 8-byte Reload
	shlq	$4, %rax
	movl	4(%rcx,%rax,4), %edx
	movq	-168(%rbp), %rax        # 8-byte Reload
	shlq	$4, %rax
	addl	8(%rcx,%rax,4), %edx
	movl	%edx, 8(%rcx,%rax,4)
	movq	-168(%rbp), %rax        # 8-byte Reload
	shlq	$4, %rax
	movl	8(%rcx,%rax,4), %edx
	movq	-168(%rbp), %rax        # 8-byte Reload
	shlq	$4, %rax
	addl	12(%rcx,%rax,4), %edx
	movl	%edx, 12(%rcx,%rax,4)
	movq	-168(%rbp), %rax        # 8-byte Reload
	shlq	$4, %rax
	movl	12(%rcx,%rax,4), %edx
	movq	-168(%rbp), %rax        # 8-byte Reload
	shlq	$4, %rax
	addl	16(%rcx,%rax,4), %edx
	movl	%edx, 16(%rcx,%rax,4)
	movq	-168(%rbp), %rax        # 8-byte Reload
	shlq	$4, %rax
	movl	16(%rcx,%rax,4), %edx
	movq	-168(%rbp), %rax        # 8-byte Reload
	shlq	$4, %rax
	addl	20(%rcx,%rax,4), %edx
	movl	%edx, 20(%rcx,%rax,4)
	movq	-168(%rbp), %rax        # 8-byte Reload
	shlq	$4, %rax
	movl	20(%rcx,%rax,4), %edx
	movq	-168(%rbp), %rax        # 8-byte Reload
	shlq	$4, %rax
	addl	24(%rcx,%rax,4), %edx
	movl	%edx, 24(%rcx,%rax,4)
	movq	-168(%rbp), %rax        # 8-byte Reload
	shlq	$4, %rax
	movl	24(%rcx,%rax,4), %edx
	movq	-168(%rbp), %rax        # 8-byte Reload
	shlq	$4, %rax
	addl	28(%rcx,%rax,4), %edx
	movl	%edx, 28(%rcx,%rax,4)
	movq	-168(%rbp), %rax        # 8-byte Reload
	shlq	$4, %rax
	movl	28(%rcx,%rax,4), %edx
	movq	-168(%rbp), %rax        # 8-byte Reload
	shlq	$4, %rax
	addl	32(%rcx,%rax,4), %edx
	movl	%edx, 32(%rcx,%rax,4)
	movq	-168(%rbp), %rax        # 8-byte Reload
	shlq	$4, %rax
	movl	32(%rcx,%rax,4), %edx
	movq	-168(%rbp), %rax        # 8-byte Reload
	shlq	$4, %rax
	addl	36(%rcx,%rax,4), %edx
	movl	%edx, 36(%rcx,%rax,4)
	movq	-168(%rbp), %rax        # 8-byte Reload
	shlq	$4, %rax
	movl	36(%rcx,%rax,4), %edx
	movq	-168(%rbp), %rax        # 8-byte Reload
	shlq	$4, %rax
	addl	40(%rcx,%rax,4), %edx
	movl	%edx, 40(%rcx,%rax,4)
	movq	-168(%rbp), %rax        # 8-byte Reload
	shlq	$4, %rax
	movl	40(%rcx,%rax,4), %edx
	movq	-168(%rbp), %rax        # 8-byte Reload
	shlq	$4, %rax
	addl	44(%rcx,%rax,4), %edx
	movl	%edx, 44(%rcx,%rax,4)
	movq	-168(%rbp), %rax        # 8-byte Reload
	shlq	$4, %rax
	movl	44(%rcx,%rax,4), %edx
	movq	-168(%rbp), %rax        # 8-byte Reload
	shlq	$4, %rax
	addl	48(%rcx,%rax,4), %edx
	movl	%edx, 48(%rcx,%rax,4)
	movq	-168(%rbp), %rax        # 8-byte Reload
	shlq	$4, %rax
	movl	48(%rcx,%rax,4), %edx
	movq	-168(%rbp), %rax        # 8-byte Reload
	shlq	$4, %rax
	addl	52(%rcx,%rax,4), %edx
	movl	%edx, 52(%rcx,%rax,4)
	movq	-168(%rbp), %rax        # 8-byte Reload
	shlq	$4, %rax
	movl	52(%rcx,%rax,4), %edx
	movq	-168(%rbp), %rax        # 8-byte Reload
	shlq	$4, %rax
	addl	56(%rcx,%rax,4), %edx
	movl	%edx, 56(%rcx,%rax,4)
	movq	-168(%rbp), %rax        # 8-byte Reload
	shlq	$4, %rax
	movl	56(%rcx,%rax,4), %edx
	movq	-168(%rbp), %rax        # 8-byte Reload
	shlq	$4, %rax
	addl	60(%rcx,%rax,4), %edx
	movl	%edx, 60(%rcx,%rax,4)
	movq	-168(%rbp), %rax        # 8-byte Reload
	addq	$1, %rax
	movq	%rax, -176(%rbp)        # 8-byte Spill
# %bb.22:                               # %for.body3.19
                                        #   in Loop: Header=BB1_1 Depth=1
	movq	-176(%rbp), %rax        # 8-byte Reload
	shlq	$4, %rax
	movq	-8(%rbp), %rcx          # 8-byte Reload
	movl	(%rcx,%rax,4), %edx
	movq	-176(%rbp), %rax        # 8-byte Reload
	shlq	$4, %rax
	addl	4(%rcx,%rax,4), %edx
	movl	%edx, 4(%rcx,%rax,4)
	movq	-176(%rbp), %rax        # 8-byte Reload
	shlq	$4, %rax
	movl	4(%rcx,%rax,4), %edx
	movq	-176(%rbp), %rax        # 8-byte Reload
	shlq	$4, %rax
	addl	8(%rcx,%rax,4), %edx
	movl	%edx, 8(%rcx,%rax,4)
	movq	-176(%rbp), %rax        # 8-byte Reload
	shlq	$4, %rax
	movl	8(%rcx,%rax,4), %edx
	movq	-176(%rbp), %rax        # 8-byte Reload
	shlq	$4, %rax
	addl	12(%rcx,%rax,4), %edx
	movl	%edx, 12(%rcx,%rax,4)
	movq	-176(%rbp), %rax        # 8-byte Reload
	shlq	$4, %rax
	movl	12(%rcx,%rax,4), %edx
	movq	-176(%rbp), %rax        # 8-byte Reload
	shlq	$4, %rax
	addl	16(%rcx,%rax,4), %edx
	movl	%edx, 16(%rcx,%rax,4)
	movq	-176(%rbp), %rax        # 8-byte Reload
	shlq	$4, %rax
	movl	16(%rcx,%rax,4), %edx
	movq	-176(%rbp), %rax        # 8-byte Reload
	shlq	$4, %rax
	addl	20(%rcx,%rax,4), %edx
	movl	%edx, 20(%rcx,%rax,4)
	movq	-176(%rbp), %rax        # 8-byte Reload
	shlq	$4, %rax
	movl	20(%rcx,%rax,4), %edx
	movq	-176(%rbp), %rax        # 8-byte Reload
	shlq	$4, %rax
	addl	24(%rcx,%rax,4), %edx
	movl	%edx, 24(%rcx,%rax,4)
	movq	-176(%rbp), %rax        # 8-byte Reload
	shlq	$4, %rax
	movl	24(%rcx,%rax,4), %edx
	movq	-176(%rbp), %rax        # 8-byte Reload
	shlq	$4, %rax
	addl	28(%rcx,%rax,4), %edx
	movl	%edx, 28(%rcx,%rax,4)
	movq	-176(%rbp), %rax        # 8-byte Reload
	shlq	$4, %rax
	movl	28(%rcx,%rax,4), %edx
	movq	-176(%rbp), %rax        # 8-byte Reload
	shlq	$4, %rax
	addl	32(%rcx,%rax,4), %edx
	movl	%edx, 32(%rcx,%rax,4)
	movq	-176(%rbp), %rax        # 8-byte Reload
	shlq	$4, %rax
	movl	32(%rcx,%rax,4), %edx
	movq	-176(%rbp), %rax        # 8-byte Reload
	shlq	$4, %rax
	addl	36(%rcx,%rax,4), %edx
	movl	%edx, 36(%rcx,%rax,4)
	movq	-176(%rbp), %rax        # 8-byte Reload
	shlq	$4, %rax
	movl	36(%rcx,%rax,4), %edx
	movq	-176(%rbp), %rax        # 8-byte Reload
	shlq	$4, %rax
	addl	40(%rcx,%rax,4), %edx
	movl	%edx, 40(%rcx,%rax,4)
	movq	-176(%rbp), %rax        # 8-byte Reload
	shlq	$4, %rax
	movl	40(%rcx,%rax,4), %edx
	movq	-176(%rbp), %rax        # 8-byte Reload
	shlq	$4, %rax
	addl	44(%rcx,%rax,4), %edx
	movl	%edx, 44(%rcx,%rax,4)
	movq	-176(%rbp), %rax        # 8-byte Reload
	shlq	$4, %rax
	movl	44(%rcx,%rax,4), %edx
	movq	-176(%rbp), %rax        # 8-byte Reload
	shlq	$4, %rax
	addl	48(%rcx,%rax,4), %edx
	movl	%edx, 48(%rcx,%rax,4)
	movq	-176(%rbp), %rax        # 8-byte Reload
	shlq	$4, %rax
	movl	48(%rcx,%rax,4), %edx
	movq	-176(%rbp), %rax        # 8-byte Reload
	shlq	$4, %rax
	addl	52(%rcx,%rax,4), %edx
	movl	%edx, 52(%rcx,%rax,4)
	movq	-176(%rbp), %rax        # 8-byte Reload
	shlq	$4, %rax
	movl	52(%rcx,%rax,4), %edx
	movq	-176(%rbp), %rax        # 8-byte Reload
	shlq	$4, %rax
	addl	56(%rcx,%rax,4), %edx
	movl	%edx, 56(%rcx,%rax,4)
	movq	-176(%rbp), %rax        # 8-byte Reload
	shlq	$4, %rax
	movl	56(%rcx,%rax,4), %edx
	movq	-176(%rbp), %rax        # 8-byte Reload
	shlq	$4, %rax
	addl	60(%rcx,%rax,4), %edx
	movl	%edx, 60(%rcx,%rax,4)
	movq	-176(%rbp), %rax        # 8-byte Reload
	addq	$1, %rax
	movq	%rax, -184(%rbp)        # 8-byte Spill
# %bb.23:                               # %for.body3.20
                                        #   in Loop: Header=BB1_1 Depth=1
	movq	-184(%rbp), %rax        # 8-byte Reload
	shlq	$4, %rax
	movq	-8(%rbp), %rcx          # 8-byte Reload
	movl	(%rcx,%rax,4), %edx
	movq	-184(%rbp), %rax        # 8-byte Reload
	shlq	$4, %rax
	addl	4(%rcx,%rax,4), %edx
	movl	%edx, 4(%rcx,%rax,4)
	movq	-184(%rbp), %rax        # 8-byte Reload
	shlq	$4, %rax
	movl	4(%rcx,%rax,4), %edx
	movq	-184(%rbp), %rax        # 8-byte Reload
	shlq	$4, %rax
	addl	8(%rcx,%rax,4), %edx
	movl	%edx, 8(%rcx,%rax,4)
	movq	-184(%rbp), %rax        # 8-byte Reload
	shlq	$4, %rax
	movl	8(%rcx,%rax,4), %edx
	movq	-184(%rbp), %rax        # 8-byte Reload
	shlq	$4, %rax
	addl	12(%rcx,%rax,4), %edx
	movl	%edx, 12(%rcx,%rax,4)
	movq	-184(%rbp), %rax        # 8-byte Reload
	shlq	$4, %rax
	movl	12(%rcx,%rax,4), %edx
	movq	-184(%rbp), %rax        # 8-byte Reload
	shlq	$4, %rax
	addl	16(%rcx,%rax,4), %edx
	movl	%edx, 16(%rcx,%rax,4)
	movq	-184(%rbp), %rax        # 8-byte Reload
	shlq	$4, %rax
	movl	16(%rcx,%rax,4), %edx
	movq	-184(%rbp), %rax        # 8-byte Reload
	shlq	$4, %rax
	addl	20(%rcx,%rax,4), %edx
	movl	%edx, 20(%rcx,%rax,4)
	movq	-184(%rbp), %rax        # 8-byte Reload
	shlq	$4, %rax
	movl	20(%rcx,%rax,4), %edx
	movq	-184(%rbp), %rax        # 8-byte Reload
	shlq	$4, %rax
	addl	24(%rcx,%rax,4), %edx
	movl	%edx, 24(%rcx,%rax,4)
	movq	-184(%rbp), %rax        # 8-byte Reload
	shlq	$4, %rax
	movl	24(%rcx,%rax,4), %edx
	movq	-184(%rbp), %rax        # 8-byte Reload
	shlq	$4, %rax
	addl	28(%rcx,%rax,4), %edx
	movl	%edx, 28(%rcx,%rax,4)
	movq	-184(%rbp), %rax        # 8-byte Reload
	shlq	$4, %rax
	movl	28(%rcx,%rax,4), %edx
	movq	-184(%rbp), %rax        # 8-byte Reload
	shlq	$4, %rax
	addl	32(%rcx,%rax,4), %edx
	movl	%edx, 32(%rcx,%rax,4)
	movq	-184(%rbp), %rax        # 8-byte Reload
	shlq	$4, %rax
	movl	32(%rcx,%rax,4), %edx
	movq	-184(%rbp), %rax        # 8-byte Reload
	shlq	$4, %rax
	addl	36(%rcx,%rax,4), %edx
	movl	%edx, 36(%rcx,%rax,4)
	movq	-184(%rbp), %rax        # 8-byte Reload
	shlq	$4, %rax
	movl	36(%rcx,%rax,4), %edx
	movq	-184(%rbp), %rax        # 8-byte Reload
	shlq	$4, %rax
	addl	40(%rcx,%rax,4), %edx
	movl	%edx, 40(%rcx,%rax,4)
	movq	-184(%rbp), %rax        # 8-byte Reload
	shlq	$4, %rax
	movl	40(%rcx,%rax,4), %edx
	movq	-184(%rbp), %rax        # 8-byte Reload
	shlq	$4, %rax
	addl	44(%rcx,%rax,4), %edx
	movl	%edx, 44(%rcx,%rax,4)
	movq	-184(%rbp), %rax        # 8-byte Reload
	shlq	$4, %rax
	movl	44(%rcx,%rax,4), %edx
	movq	-184(%rbp), %rax        # 8-byte Reload
	shlq	$4, %rax
	addl	48(%rcx,%rax,4), %edx
	movl	%edx, 48(%rcx,%rax,4)
	movq	-184(%rbp), %rax        # 8-byte Reload
	shlq	$4, %rax
	movl	48(%rcx,%rax,4), %edx
	movq	-184(%rbp), %rax        # 8-byte Reload
	shlq	$4, %rax
	addl	52(%rcx,%rax,4), %edx
	movl	%edx, 52(%rcx,%rax,4)
	movq	-184(%rbp), %rax        # 8-byte Reload
	shlq	$4, %rax
	movl	52(%rcx,%rax,4), %edx
	movq	-184(%rbp), %rax        # 8-byte Reload
	shlq	$4, %rax
	addl	56(%rcx,%rax,4), %edx
	movl	%edx, 56(%rcx,%rax,4)
	movq	-184(%rbp), %rax        # 8-byte Reload
	shlq	$4, %rax
	movl	56(%rcx,%rax,4), %edx
	movq	-184(%rbp), %rax        # 8-byte Reload
	shlq	$4, %rax
	addl	60(%rcx,%rax,4), %edx
	movl	%edx, 60(%rcx,%rax,4)
	movq	-184(%rbp), %rax        # 8-byte Reload
	addq	$1, %rax
	movq	%rax, -192(%rbp)        # 8-byte Spill
# %bb.24:                               # %for.body3.21
                                        #   in Loop: Header=BB1_1 Depth=1
	movq	-192(%rbp), %rax        # 8-byte Reload
	shlq	$4, %rax
	movq	-8(%rbp), %rcx          # 8-byte Reload
	movl	(%rcx,%rax,4), %edx
	movq	-192(%rbp), %rax        # 8-byte Reload
	shlq	$4, %rax
	addl	4(%rcx,%rax,4), %edx
	movl	%edx, 4(%rcx,%rax,4)
	movq	-192(%rbp), %rax        # 8-byte Reload
	shlq	$4, %rax
	movl	4(%rcx,%rax,4), %edx
	movq	-192(%rbp), %rax        # 8-byte Reload
	shlq	$4, %rax
	addl	8(%rcx,%rax,4), %edx
	movl	%edx, 8(%rcx,%rax,4)
	movq	-192(%rbp), %rax        # 8-byte Reload
	shlq	$4, %rax
	movl	8(%rcx,%rax,4), %edx
	movq	-192(%rbp), %rax        # 8-byte Reload
	shlq	$4, %rax
	addl	12(%rcx,%rax,4), %edx
	movl	%edx, 12(%rcx,%rax,4)
	movq	-192(%rbp), %rax        # 8-byte Reload
	shlq	$4, %rax
	movl	12(%rcx,%rax,4), %edx
	movq	-192(%rbp), %rax        # 8-byte Reload
	shlq	$4, %rax
	addl	16(%rcx,%rax,4), %edx
	movl	%edx, 16(%rcx,%rax,4)
	movq	-192(%rbp), %rax        # 8-byte Reload
	shlq	$4, %rax
	movl	16(%rcx,%rax,4), %edx
	movq	-192(%rbp), %rax        # 8-byte Reload
	shlq	$4, %rax
	addl	20(%rcx,%rax,4), %edx
	movl	%edx, 20(%rcx,%rax,4)
	movq	-192(%rbp), %rax        # 8-byte Reload
	shlq	$4, %rax
	movl	20(%rcx,%rax,4), %edx
	movq	-192(%rbp), %rax        # 8-byte Reload
	shlq	$4, %rax
	addl	24(%rcx,%rax,4), %edx
	movl	%edx, 24(%rcx,%rax,4)
	movq	-192(%rbp), %rax        # 8-byte Reload
	shlq	$4, %rax
	movl	24(%rcx,%rax,4), %edx
	movq	-192(%rbp), %rax        # 8-byte Reload
	shlq	$4, %rax
	addl	28(%rcx,%rax,4), %edx
	movl	%edx, 28(%rcx,%rax,4)
	movq	-192(%rbp), %rax        # 8-byte Reload
	shlq	$4, %rax
	movl	28(%rcx,%rax,4), %edx
	movq	-192(%rbp), %rax        # 8-byte Reload
	shlq	$4, %rax
	addl	32(%rcx,%rax,4), %edx
	movl	%edx, 32(%rcx,%rax,4)
	movq	-192(%rbp), %rax        # 8-byte Reload
	shlq	$4, %rax
	movl	32(%rcx,%rax,4), %edx
	movq	-192(%rbp), %rax        # 8-byte Reload
	shlq	$4, %rax
	addl	36(%rcx,%rax,4), %edx
	movl	%edx, 36(%rcx,%rax,4)
	movq	-192(%rbp), %rax        # 8-byte Reload
	shlq	$4, %rax
	movl	36(%rcx,%rax,4), %edx
	movq	-192(%rbp), %rax        # 8-byte Reload
	shlq	$4, %rax
	addl	40(%rcx,%rax,4), %edx
	movl	%edx, 40(%rcx,%rax,4)
	movq	-192(%rbp), %rax        # 8-byte Reload
	shlq	$4, %rax
	movl	40(%rcx,%rax,4), %edx
	movq	-192(%rbp), %rax        # 8-byte Reload
	shlq	$4, %rax
	addl	44(%rcx,%rax,4), %edx
	movl	%edx, 44(%rcx,%rax,4)
	movq	-192(%rbp), %rax        # 8-byte Reload
	shlq	$4, %rax
	movl	44(%rcx,%rax,4), %edx
	movq	-192(%rbp), %rax        # 8-byte Reload
	shlq	$4, %rax
	addl	48(%rcx,%rax,4), %edx
	movl	%edx, 48(%rcx,%rax,4)
	movq	-192(%rbp), %rax        # 8-byte Reload
	shlq	$4, %rax
	movl	48(%rcx,%rax,4), %edx
	movq	-192(%rbp), %rax        # 8-byte Reload
	shlq	$4, %rax
	addl	52(%rcx,%rax,4), %edx
	movl	%edx, 52(%rcx,%rax,4)
	movq	-192(%rbp), %rax        # 8-byte Reload
	shlq	$4, %rax
	movl	52(%rcx,%rax,4), %edx
	movq	-192(%rbp), %rax        # 8-byte Reload
	shlq	$4, %rax
	addl	56(%rcx,%rax,4), %edx
	movl	%edx, 56(%rcx,%rax,4)
	movq	-192(%rbp), %rax        # 8-byte Reload
	shlq	$4, %rax
	movl	56(%rcx,%rax,4), %edx
	movq	-192(%rbp), %rax        # 8-byte Reload
	shlq	$4, %rax
	addl	60(%rcx,%rax,4), %edx
	movl	%edx, 60(%rcx,%rax,4)
	movq	-192(%rbp), %rax        # 8-byte Reload
	addq	$1, %rax
	movq	%rax, -200(%rbp)        # 8-byte Spill
# %bb.25:                               # %for.body3.22
                                        #   in Loop: Header=BB1_1 Depth=1
	movq	-200(%rbp), %rax        # 8-byte Reload
	shlq	$4, %rax
	movq	-8(%rbp), %rcx          # 8-byte Reload
	movl	(%rcx,%rax,4), %edx
	movq	-200(%rbp), %rax        # 8-byte Reload
	shlq	$4, %rax
	addl	4(%rcx,%rax,4), %edx
	movl	%edx, 4(%rcx,%rax,4)
	movq	-200(%rbp), %rax        # 8-byte Reload
	shlq	$4, %rax
	movl	4(%rcx,%rax,4), %edx
	movq	-200(%rbp), %rax        # 8-byte Reload
	shlq	$4, %rax
	addl	8(%rcx,%rax,4), %edx
	movl	%edx, 8(%rcx,%rax,4)
	movq	-200(%rbp), %rax        # 8-byte Reload
	shlq	$4, %rax
	movl	8(%rcx,%rax,4), %edx
	movq	-200(%rbp), %rax        # 8-byte Reload
	shlq	$4, %rax
	addl	12(%rcx,%rax,4), %edx
	movl	%edx, 12(%rcx,%rax,4)
	movq	-200(%rbp), %rax        # 8-byte Reload
	shlq	$4, %rax
	movl	12(%rcx,%rax,4), %edx
	movq	-200(%rbp), %rax        # 8-byte Reload
	shlq	$4, %rax
	addl	16(%rcx,%rax,4), %edx
	movl	%edx, 16(%rcx,%rax,4)
	movq	-200(%rbp), %rax        # 8-byte Reload
	shlq	$4, %rax
	movl	16(%rcx,%rax,4), %edx
	movq	-200(%rbp), %rax        # 8-byte Reload
	shlq	$4, %rax
	addl	20(%rcx,%rax,4), %edx
	movl	%edx, 20(%rcx,%rax,4)
	movq	-200(%rbp), %rax        # 8-byte Reload
	shlq	$4, %rax
	movl	20(%rcx,%rax,4), %edx
	movq	-200(%rbp), %rax        # 8-byte Reload
	shlq	$4, %rax
	addl	24(%rcx,%rax,4), %edx
	movl	%edx, 24(%rcx,%rax,4)
	movq	-200(%rbp), %rax        # 8-byte Reload
	shlq	$4, %rax
	movl	24(%rcx,%rax,4), %edx
	movq	-200(%rbp), %rax        # 8-byte Reload
	shlq	$4, %rax
	addl	28(%rcx,%rax,4), %edx
	movl	%edx, 28(%rcx,%rax,4)
	movq	-200(%rbp), %rax        # 8-byte Reload
	shlq	$4, %rax
	movl	28(%rcx,%rax,4), %edx
	movq	-200(%rbp), %rax        # 8-byte Reload
	shlq	$4, %rax
	addl	32(%rcx,%rax,4), %edx
	movl	%edx, 32(%rcx,%rax,4)
	movq	-200(%rbp), %rax        # 8-byte Reload
	shlq	$4, %rax
	movl	32(%rcx,%rax,4), %edx
	movq	-200(%rbp), %rax        # 8-byte Reload
	shlq	$4, %rax
	addl	36(%rcx,%rax,4), %edx
	movl	%edx, 36(%rcx,%rax,4)
	movq	-200(%rbp), %rax        # 8-byte Reload
	shlq	$4, %rax
	movl	36(%rcx,%rax,4), %edx
	movq	-200(%rbp), %rax        # 8-byte Reload
	shlq	$4, %rax
	addl	40(%rcx,%rax,4), %edx
	movl	%edx, 40(%rcx,%rax,4)
	movq	-200(%rbp), %rax        # 8-byte Reload
	shlq	$4, %rax
	movl	40(%rcx,%rax,4), %edx
	movq	-200(%rbp), %rax        # 8-byte Reload
	shlq	$4, %rax
	addl	44(%rcx,%rax,4), %edx
	movl	%edx, 44(%rcx,%rax,4)
	movq	-200(%rbp), %rax        # 8-byte Reload
	shlq	$4, %rax
	movl	44(%rcx,%rax,4), %edx
	movq	-200(%rbp), %rax        # 8-byte Reload
	shlq	$4, %rax
	addl	48(%rcx,%rax,4), %edx
	movl	%edx, 48(%rcx,%rax,4)
	movq	-200(%rbp), %rax        # 8-byte Reload
	shlq	$4, %rax
	movl	48(%rcx,%rax,4), %edx
	movq	-200(%rbp), %rax        # 8-byte Reload
	shlq	$4, %rax
	addl	52(%rcx,%rax,4), %edx
	movl	%edx, 52(%rcx,%rax,4)
	movq	-200(%rbp), %rax        # 8-byte Reload
	shlq	$4, %rax
	movl	52(%rcx,%rax,4), %edx
	movq	-200(%rbp), %rax        # 8-byte Reload
	shlq	$4, %rax
	addl	56(%rcx,%rax,4), %edx
	movl	%edx, 56(%rcx,%rax,4)
	movq	-200(%rbp), %rax        # 8-byte Reload
	shlq	$4, %rax
	movl	56(%rcx,%rax,4), %edx
	movq	-200(%rbp), %rax        # 8-byte Reload
	shlq	$4, %rax
	addl	60(%rcx,%rax,4), %edx
	movl	%edx, 60(%rcx,%rax,4)
	movq	-200(%rbp), %rax        # 8-byte Reload
	addq	$1, %rax
	movq	%rax, -208(%rbp)        # 8-byte Spill
# %bb.26:                               # %for.body3.23
                                        #   in Loop: Header=BB1_1 Depth=1
	movq	-208(%rbp), %rax        # 8-byte Reload
	shlq	$4, %rax
	movq	-8(%rbp), %rcx          # 8-byte Reload
	movl	(%rcx,%rax,4), %edx
	movq	-208(%rbp), %rax        # 8-byte Reload
	shlq	$4, %rax
	addl	4(%rcx,%rax,4), %edx
	movl	%edx, 4(%rcx,%rax,4)
	movq	-208(%rbp), %rax        # 8-byte Reload
	shlq	$4, %rax
	movl	4(%rcx,%rax,4), %edx
	movq	-208(%rbp), %rax        # 8-byte Reload
	shlq	$4, %rax
	addl	8(%rcx,%rax,4), %edx
	movl	%edx, 8(%rcx,%rax,4)
	movq	-208(%rbp), %rax        # 8-byte Reload
	shlq	$4, %rax
	movl	8(%rcx,%rax,4), %edx
	movq	-208(%rbp), %rax        # 8-byte Reload
	shlq	$4, %rax
	addl	12(%rcx,%rax,4), %edx
	movl	%edx, 12(%rcx,%rax,4)
	movq	-208(%rbp), %rax        # 8-byte Reload
	shlq	$4, %rax
	movl	12(%rcx,%rax,4), %edx
	movq	-208(%rbp), %rax        # 8-byte Reload
	shlq	$4, %rax
	addl	16(%rcx,%rax,4), %edx
	movl	%edx, 16(%rcx,%rax,4)
	movq	-208(%rbp), %rax        # 8-byte Reload
	shlq	$4, %rax
	movl	16(%rcx,%rax,4), %edx
	movq	-208(%rbp), %rax        # 8-byte Reload
	shlq	$4, %rax
	addl	20(%rcx,%rax,4), %edx
	movl	%edx, 20(%rcx,%rax,4)
	movq	-208(%rbp), %rax        # 8-byte Reload
	shlq	$4, %rax
	movl	20(%rcx,%rax,4), %edx
	movq	-208(%rbp), %rax        # 8-byte Reload
	shlq	$4, %rax
	addl	24(%rcx,%rax,4), %edx
	movl	%edx, 24(%rcx,%rax,4)
	movq	-208(%rbp), %rax        # 8-byte Reload
	shlq	$4, %rax
	movl	24(%rcx,%rax,4), %edx
	movq	-208(%rbp), %rax        # 8-byte Reload
	shlq	$4, %rax
	addl	28(%rcx,%rax,4), %edx
	movl	%edx, 28(%rcx,%rax,4)
	movq	-208(%rbp), %rax        # 8-byte Reload
	shlq	$4, %rax
	movl	28(%rcx,%rax,4), %edx
	movq	-208(%rbp), %rax        # 8-byte Reload
	shlq	$4, %rax
	addl	32(%rcx,%rax,4), %edx
	movl	%edx, 32(%rcx,%rax,4)
	movq	-208(%rbp), %rax        # 8-byte Reload
	shlq	$4, %rax
	movl	32(%rcx,%rax,4), %edx
	movq	-208(%rbp), %rax        # 8-byte Reload
	shlq	$4, %rax
	addl	36(%rcx,%rax,4), %edx
	movl	%edx, 36(%rcx,%rax,4)
	movq	-208(%rbp), %rax        # 8-byte Reload
	shlq	$4, %rax
	movl	36(%rcx,%rax,4), %edx
	movq	-208(%rbp), %rax        # 8-byte Reload
	shlq	$4, %rax
	addl	40(%rcx,%rax,4), %edx
	movl	%edx, 40(%rcx,%rax,4)
	movq	-208(%rbp), %rax        # 8-byte Reload
	shlq	$4, %rax
	movl	40(%rcx,%rax,4), %edx
	movq	-208(%rbp), %rax        # 8-byte Reload
	shlq	$4, %rax
	addl	44(%rcx,%rax,4), %edx
	movl	%edx, 44(%rcx,%rax,4)
	movq	-208(%rbp), %rax        # 8-byte Reload
	shlq	$4, %rax
	movl	44(%rcx,%rax,4), %edx
	movq	-208(%rbp), %rax        # 8-byte Reload
	shlq	$4, %rax
	addl	48(%rcx,%rax,4), %edx
	movl	%edx, 48(%rcx,%rax,4)
	movq	-208(%rbp), %rax        # 8-byte Reload
	shlq	$4, %rax
	movl	48(%rcx,%rax,4), %edx
	movq	-208(%rbp), %rax        # 8-byte Reload
	shlq	$4, %rax
	addl	52(%rcx,%rax,4), %edx
	movl	%edx, 52(%rcx,%rax,4)
	movq	-208(%rbp), %rax        # 8-byte Reload
	shlq	$4, %rax
	movl	52(%rcx,%rax,4), %edx
	movq	-208(%rbp), %rax        # 8-byte Reload
	shlq	$4, %rax
	addl	56(%rcx,%rax,4), %edx
	movl	%edx, 56(%rcx,%rax,4)
	movq	-208(%rbp), %rax        # 8-byte Reload
	shlq	$4, %rax
	movl	56(%rcx,%rax,4), %edx
	movq	-208(%rbp), %rax        # 8-byte Reload
	shlq	$4, %rax
	addl	60(%rcx,%rax,4), %edx
	movl	%edx, 60(%rcx,%rax,4)
	movq	-208(%rbp), %rax        # 8-byte Reload
	addq	$1, %rax
	movq	%rax, -216(%rbp)        # 8-byte Spill
# %bb.27:                               # %for.body3.24
                                        #   in Loop: Header=BB1_1 Depth=1
	movq	-216(%rbp), %rax        # 8-byte Reload
	shlq	$4, %rax
	movq	-8(%rbp), %rcx          # 8-byte Reload
	movl	(%rcx,%rax,4), %edx
	movq	-216(%rbp), %rax        # 8-byte Reload
	shlq	$4, %rax
	addl	4(%rcx,%rax,4), %edx
	movl	%edx, 4(%rcx,%rax,4)
	movq	-216(%rbp), %rax        # 8-byte Reload
	shlq	$4, %rax
	movl	4(%rcx,%rax,4), %edx
	movq	-216(%rbp), %rax        # 8-byte Reload
	shlq	$4, %rax
	addl	8(%rcx,%rax,4), %edx
	movl	%edx, 8(%rcx,%rax,4)
	movq	-216(%rbp), %rax        # 8-byte Reload
	shlq	$4, %rax
	movl	8(%rcx,%rax,4), %edx
	movq	-216(%rbp), %rax        # 8-byte Reload
	shlq	$4, %rax
	addl	12(%rcx,%rax,4), %edx
	movl	%edx, 12(%rcx,%rax,4)
	movq	-216(%rbp), %rax        # 8-byte Reload
	shlq	$4, %rax
	movl	12(%rcx,%rax,4), %edx
	movq	-216(%rbp), %rax        # 8-byte Reload
	shlq	$4, %rax
	addl	16(%rcx,%rax,4), %edx
	movl	%edx, 16(%rcx,%rax,4)
	movq	-216(%rbp), %rax        # 8-byte Reload
	shlq	$4, %rax
	movl	16(%rcx,%rax,4), %edx
	movq	-216(%rbp), %rax        # 8-byte Reload
	shlq	$4, %rax
	addl	20(%rcx,%rax,4), %edx
	movl	%edx, 20(%rcx,%rax,4)
	movq	-216(%rbp), %rax        # 8-byte Reload
	shlq	$4, %rax
	movl	20(%rcx,%rax,4), %edx
	movq	-216(%rbp), %rax        # 8-byte Reload
	shlq	$4, %rax
	addl	24(%rcx,%rax,4), %edx
	movl	%edx, 24(%rcx,%rax,4)
	movq	-216(%rbp), %rax        # 8-byte Reload
	shlq	$4, %rax
	movl	24(%rcx,%rax,4), %edx
	movq	-216(%rbp), %rax        # 8-byte Reload
	shlq	$4, %rax
	addl	28(%rcx,%rax,4), %edx
	movl	%edx, 28(%rcx,%rax,4)
	movq	-216(%rbp), %rax        # 8-byte Reload
	shlq	$4, %rax
	movl	28(%rcx,%rax,4), %edx
	movq	-216(%rbp), %rax        # 8-byte Reload
	shlq	$4, %rax
	addl	32(%rcx,%rax,4), %edx
	movl	%edx, 32(%rcx,%rax,4)
	movq	-216(%rbp), %rax        # 8-byte Reload
	shlq	$4, %rax
	movl	32(%rcx,%rax,4), %edx
	movq	-216(%rbp), %rax        # 8-byte Reload
	shlq	$4, %rax
	addl	36(%rcx,%rax,4), %edx
	movl	%edx, 36(%rcx,%rax,4)
	movq	-216(%rbp), %rax        # 8-byte Reload
	shlq	$4, %rax
	movl	36(%rcx,%rax,4), %edx
	movq	-216(%rbp), %rax        # 8-byte Reload
	shlq	$4, %rax
	addl	40(%rcx,%rax,4), %edx
	movl	%edx, 40(%rcx,%rax,4)
	movq	-216(%rbp), %rax        # 8-byte Reload
	shlq	$4, %rax
	movl	40(%rcx,%rax,4), %edx
	movq	-216(%rbp), %rax        # 8-byte Reload
	shlq	$4, %rax
	addl	44(%rcx,%rax,4), %edx
	movl	%edx, 44(%rcx,%rax,4)
	movq	-216(%rbp), %rax        # 8-byte Reload
	shlq	$4, %rax
	movl	44(%rcx,%rax,4), %edx
	movq	-216(%rbp), %rax        # 8-byte Reload
	shlq	$4, %rax
	addl	48(%rcx,%rax,4), %edx
	movl	%edx, 48(%rcx,%rax,4)
	movq	-216(%rbp), %rax        # 8-byte Reload
	shlq	$4, %rax
	movl	48(%rcx,%rax,4), %edx
	movq	-216(%rbp), %rax        # 8-byte Reload
	shlq	$4, %rax
	addl	52(%rcx,%rax,4), %edx
	movl	%edx, 52(%rcx,%rax,4)
	movq	-216(%rbp), %rax        # 8-byte Reload
	shlq	$4, %rax
	movl	52(%rcx,%rax,4), %edx
	movq	-216(%rbp), %rax        # 8-byte Reload
	shlq	$4, %rax
	addl	56(%rcx,%rax,4), %edx
	movl	%edx, 56(%rcx,%rax,4)
	movq	-216(%rbp), %rax        # 8-byte Reload
	shlq	$4, %rax
	movl	56(%rcx,%rax,4), %edx
	movq	-216(%rbp), %rax        # 8-byte Reload
	shlq	$4, %rax
	addl	60(%rcx,%rax,4), %edx
	movl	%edx, 60(%rcx,%rax,4)
	movq	-216(%rbp), %rax        # 8-byte Reload
	addq	$1, %rax
	movq	%rax, -224(%rbp)        # 8-byte Spill
# %bb.28:                               # %for.body3.25
                                        #   in Loop: Header=BB1_1 Depth=1
	movq	-224(%rbp), %rax        # 8-byte Reload
	shlq	$4, %rax
	movq	-8(%rbp), %rcx          # 8-byte Reload
	movl	(%rcx,%rax,4), %edx
	movq	-224(%rbp), %rax        # 8-byte Reload
	shlq	$4, %rax
	addl	4(%rcx,%rax,4), %edx
	movl	%edx, 4(%rcx,%rax,4)
	movq	-224(%rbp), %rax        # 8-byte Reload
	shlq	$4, %rax
	movl	4(%rcx,%rax,4), %edx
	movq	-224(%rbp), %rax        # 8-byte Reload
	shlq	$4, %rax
	addl	8(%rcx,%rax,4), %edx
	movl	%edx, 8(%rcx,%rax,4)
	movq	-224(%rbp), %rax        # 8-byte Reload
	shlq	$4, %rax
	movl	8(%rcx,%rax,4), %edx
	movq	-224(%rbp), %rax        # 8-byte Reload
	shlq	$4, %rax
	addl	12(%rcx,%rax,4), %edx
	movl	%edx, 12(%rcx,%rax,4)
	movq	-224(%rbp), %rax        # 8-byte Reload
	shlq	$4, %rax
	movl	12(%rcx,%rax,4), %edx
	movq	-224(%rbp), %rax        # 8-byte Reload
	shlq	$4, %rax
	addl	16(%rcx,%rax,4), %edx
	movl	%edx, 16(%rcx,%rax,4)
	movq	-224(%rbp), %rax        # 8-byte Reload
	shlq	$4, %rax
	movl	16(%rcx,%rax,4), %edx
	movq	-224(%rbp), %rax        # 8-byte Reload
	shlq	$4, %rax
	addl	20(%rcx,%rax,4), %edx
	movl	%edx, 20(%rcx,%rax,4)
	movq	-224(%rbp), %rax        # 8-byte Reload
	shlq	$4, %rax
	movl	20(%rcx,%rax,4), %edx
	movq	-224(%rbp), %rax        # 8-byte Reload
	shlq	$4, %rax
	addl	24(%rcx,%rax,4), %edx
	movl	%edx, 24(%rcx,%rax,4)
	movq	-224(%rbp), %rax        # 8-byte Reload
	shlq	$4, %rax
	movl	24(%rcx,%rax,4), %edx
	movq	-224(%rbp), %rax        # 8-byte Reload
	shlq	$4, %rax
	addl	28(%rcx,%rax,4), %edx
	movl	%edx, 28(%rcx,%rax,4)
	movq	-224(%rbp), %rax        # 8-byte Reload
	shlq	$4, %rax
	movl	28(%rcx,%rax,4), %edx
	movq	-224(%rbp), %rax        # 8-byte Reload
	shlq	$4, %rax
	addl	32(%rcx,%rax,4), %edx
	movl	%edx, 32(%rcx,%rax,4)
	movq	-224(%rbp), %rax        # 8-byte Reload
	shlq	$4, %rax
	movl	32(%rcx,%rax,4), %edx
	movq	-224(%rbp), %rax        # 8-byte Reload
	shlq	$4, %rax
	addl	36(%rcx,%rax,4), %edx
	movl	%edx, 36(%rcx,%rax,4)
	movq	-224(%rbp), %rax        # 8-byte Reload
	shlq	$4, %rax
	movl	36(%rcx,%rax,4), %edx
	movq	-224(%rbp), %rax        # 8-byte Reload
	shlq	$4, %rax
	addl	40(%rcx,%rax,4), %edx
	movl	%edx, 40(%rcx,%rax,4)
	movq	-224(%rbp), %rax        # 8-byte Reload
	shlq	$4, %rax
	movl	40(%rcx,%rax,4), %edx
	movq	-224(%rbp), %rax        # 8-byte Reload
	shlq	$4, %rax
	addl	44(%rcx,%rax,4), %edx
	movl	%edx, 44(%rcx,%rax,4)
	movq	-224(%rbp), %rax        # 8-byte Reload
	shlq	$4, %rax
	movl	44(%rcx,%rax,4), %edx
	movq	-224(%rbp), %rax        # 8-byte Reload
	shlq	$4, %rax
	addl	48(%rcx,%rax,4), %edx
	movl	%edx, 48(%rcx,%rax,4)
	movq	-224(%rbp), %rax        # 8-byte Reload
	shlq	$4, %rax
	movl	48(%rcx,%rax,4), %edx
	movq	-224(%rbp), %rax        # 8-byte Reload
	shlq	$4, %rax
	addl	52(%rcx,%rax,4), %edx
	movl	%edx, 52(%rcx,%rax,4)
	movq	-224(%rbp), %rax        # 8-byte Reload
	shlq	$4, %rax
	movl	52(%rcx,%rax,4), %edx
	movq	-224(%rbp), %rax        # 8-byte Reload
	shlq	$4, %rax
	addl	56(%rcx,%rax,4), %edx
	movl	%edx, 56(%rcx,%rax,4)
	movq	-224(%rbp), %rax        # 8-byte Reload
	shlq	$4, %rax
	movl	56(%rcx,%rax,4), %edx
	movq	-224(%rbp), %rax        # 8-byte Reload
	shlq	$4, %rax
	addl	60(%rcx,%rax,4), %edx
	movl	%edx, 60(%rcx,%rax,4)
	movq	-224(%rbp), %rax        # 8-byte Reload
	addq	$1, %rax
	movq	%rax, -232(%rbp)        # 8-byte Spill
# %bb.29:                               # %for.body3.26
                                        #   in Loop: Header=BB1_1 Depth=1
	movq	-232(%rbp), %rax        # 8-byte Reload
	shlq	$4, %rax
	movq	-8(%rbp), %rcx          # 8-byte Reload
	movl	(%rcx,%rax,4), %edx
	movq	-232(%rbp), %rax        # 8-byte Reload
	shlq	$4, %rax
	addl	4(%rcx,%rax,4), %edx
	movl	%edx, 4(%rcx,%rax,4)
	movq	-232(%rbp), %rax        # 8-byte Reload
	shlq	$4, %rax
	movl	4(%rcx,%rax,4), %edx
	movq	-232(%rbp), %rax        # 8-byte Reload
	shlq	$4, %rax
	addl	8(%rcx,%rax,4), %edx
	movl	%edx, 8(%rcx,%rax,4)
	movq	-232(%rbp), %rax        # 8-byte Reload
	shlq	$4, %rax
	movl	8(%rcx,%rax,4), %edx
	movq	-232(%rbp), %rax        # 8-byte Reload
	shlq	$4, %rax
	addl	12(%rcx,%rax,4), %edx
	movl	%edx, 12(%rcx,%rax,4)
	movq	-232(%rbp), %rax        # 8-byte Reload
	shlq	$4, %rax
	movl	12(%rcx,%rax,4), %edx
	movq	-232(%rbp), %rax        # 8-byte Reload
	shlq	$4, %rax
	addl	16(%rcx,%rax,4), %edx
	movl	%edx, 16(%rcx,%rax,4)
	movq	-232(%rbp), %rax        # 8-byte Reload
	shlq	$4, %rax
	movl	16(%rcx,%rax,4), %edx
	movq	-232(%rbp), %rax        # 8-byte Reload
	shlq	$4, %rax
	addl	20(%rcx,%rax,4), %edx
	movl	%edx, 20(%rcx,%rax,4)
	movq	-232(%rbp), %rax        # 8-byte Reload
	shlq	$4, %rax
	movl	20(%rcx,%rax,4), %edx
	movq	-232(%rbp), %rax        # 8-byte Reload
	shlq	$4, %rax
	addl	24(%rcx,%rax,4), %edx
	movl	%edx, 24(%rcx,%rax,4)
	movq	-232(%rbp), %rax        # 8-byte Reload
	shlq	$4, %rax
	movl	24(%rcx,%rax,4), %edx
	movq	-232(%rbp), %rax        # 8-byte Reload
	shlq	$4, %rax
	addl	28(%rcx,%rax,4), %edx
	movl	%edx, 28(%rcx,%rax,4)
	movq	-232(%rbp), %rax        # 8-byte Reload
	shlq	$4, %rax
	movl	28(%rcx,%rax,4), %edx
	movq	-232(%rbp), %rax        # 8-byte Reload
	shlq	$4, %rax
	addl	32(%rcx,%rax,4), %edx
	movl	%edx, 32(%rcx,%rax,4)
	movq	-232(%rbp), %rax        # 8-byte Reload
	shlq	$4, %rax
	movl	32(%rcx,%rax,4), %edx
	movq	-232(%rbp), %rax        # 8-byte Reload
	shlq	$4, %rax
	addl	36(%rcx,%rax,4), %edx
	movl	%edx, 36(%rcx,%rax,4)
	movq	-232(%rbp), %rax        # 8-byte Reload
	shlq	$4, %rax
	movl	36(%rcx,%rax,4), %edx
	movq	-232(%rbp), %rax        # 8-byte Reload
	shlq	$4, %rax
	addl	40(%rcx,%rax,4), %edx
	movl	%edx, 40(%rcx,%rax,4)
	movq	-232(%rbp), %rax        # 8-byte Reload
	shlq	$4, %rax
	movl	40(%rcx,%rax,4), %edx
	movq	-232(%rbp), %rax        # 8-byte Reload
	shlq	$4, %rax
	addl	44(%rcx,%rax,4), %edx
	movl	%edx, 44(%rcx,%rax,4)
	movq	-232(%rbp), %rax        # 8-byte Reload
	shlq	$4, %rax
	movl	44(%rcx,%rax,4), %edx
	movq	-232(%rbp), %rax        # 8-byte Reload
	shlq	$4, %rax
	addl	48(%rcx,%rax,4), %edx
	movl	%edx, 48(%rcx,%rax,4)
	movq	-232(%rbp), %rax        # 8-byte Reload
	shlq	$4, %rax
	movl	48(%rcx,%rax,4), %edx
	movq	-232(%rbp), %rax        # 8-byte Reload
	shlq	$4, %rax
	addl	52(%rcx,%rax,4), %edx
	movl	%edx, 52(%rcx,%rax,4)
	movq	-232(%rbp), %rax        # 8-byte Reload
	shlq	$4, %rax
	movl	52(%rcx,%rax,4), %edx
	movq	-232(%rbp), %rax        # 8-byte Reload
	shlq	$4, %rax
	addl	56(%rcx,%rax,4), %edx
	movl	%edx, 56(%rcx,%rax,4)
	movq	-232(%rbp), %rax        # 8-byte Reload
	shlq	$4, %rax
	movl	56(%rcx,%rax,4), %edx
	movq	-232(%rbp), %rax        # 8-byte Reload
	shlq	$4, %rax
	addl	60(%rcx,%rax,4), %edx
	movl	%edx, 60(%rcx,%rax,4)
	movq	-232(%rbp), %rax        # 8-byte Reload
	addq	$1, %rax
	movq	%rax, -240(%rbp)        # 8-byte Spill
# %bb.30:                               # %for.body3.27
                                        #   in Loop: Header=BB1_1 Depth=1
	movq	-240(%rbp), %rax        # 8-byte Reload
	shlq	$4, %rax
	movq	-8(%rbp), %rcx          # 8-byte Reload
	movl	(%rcx,%rax,4), %edx
	movq	-240(%rbp), %rax        # 8-byte Reload
	shlq	$4, %rax
	addl	4(%rcx,%rax,4), %edx
	movl	%edx, 4(%rcx,%rax,4)
	movq	-240(%rbp), %rax        # 8-byte Reload
	shlq	$4, %rax
	movl	4(%rcx,%rax,4), %edx
	movq	-240(%rbp), %rax        # 8-byte Reload
	shlq	$4, %rax
	addl	8(%rcx,%rax,4), %edx
	movl	%edx, 8(%rcx,%rax,4)
	movq	-240(%rbp), %rax        # 8-byte Reload
	shlq	$4, %rax
	movl	8(%rcx,%rax,4), %edx
	movq	-240(%rbp), %rax        # 8-byte Reload
	shlq	$4, %rax
	addl	12(%rcx,%rax,4), %edx
	movl	%edx, 12(%rcx,%rax,4)
	movq	-240(%rbp), %rax        # 8-byte Reload
	shlq	$4, %rax
	movl	12(%rcx,%rax,4), %edx
	movq	-240(%rbp), %rax        # 8-byte Reload
	shlq	$4, %rax
	addl	16(%rcx,%rax,4), %edx
	movl	%edx, 16(%rcx,%rax,4)
	movq	-240(%rbp), %rax        # 8-byte Reload
	shlq	$4, %rax
	movl	16(%rcx,%rax,4), %edx
	movq	-240(%rbp), %rax        # 8-byte Reload
	shlq	$4, %rax
	addl	20(%rcx,%rax,4), %edx
	movl	%edx, 20(%rcx,%rax,4)
	movq	-240(%rbp), %rax        # 8-byte Reload
	shlq	$4, %rax
	movl	20(%rcx,%rax,4), %edx
	movq	-240(%rbp), %rax        # 8-byte Reload
	shlq	$4, %rax
	addl	24(%rcx,%rax,4), %edx
	movl	%edx, 24(%rcx,%rax,4)
	movq	-240(%rbp), %rax        # 8-byte Reload
	shlq	$4, %rax
	movl	24(%rcx,%rax,4), %edx
	movq	-240(%rbp), %rax        # 8-byte Reload
	shlq	$4, %rax
	addl	28(%rcx,%rax,4), %edx
	movl	%edx, 28(%rcx,%rax,4)
	movq	-240(%rbp), %rax        # 8-byte Reload
	shlq	$4, %rax
	movl	28(%rcx,%rax,4), %edx
	movq	-240(%rbp), %rax        # 8-byte Reload
	shlq	$4, %rax
	addl	32(%rcx,%rax,4), %edx
	movl	%edx, 32(%rcx,%rax,4)
	movq	-240(%rbp), %rax        # 8-byte Reload
	shlq	$4, %rax
	movl	32(%rcx,%rax,4), %edx
	movq	-240(%rbp), %rax        # 8-byte Reload
	shlq	$4, %rax
	addl	36(%rcx,%rax,4), %edx
	movl	%edx, 36(%rcx,%rax,4)
	movq	-240(%rbp), %rax        # 8-byte Reload
	shlq	$4, %rax
	movl	36(%rcx,%rax,4), %edx
	movq	-240(%rbp), %rax        # 8-byte Reload
	shlq	$4, %rax
	addl	40(%rcx,%rax,4), %edx
	movl	%edx, 40(%rcx,%rax,4)
	movq	-240(%rbp), %rax        # 8-byte Reload
	shlq	$4, %rax
	movl	40(%rcx,%rax,4), %edx
	movq	-240(%rbp), %rax        # 8-byte Reload
	shlq	$4, %rax
	addl	44(%rcx,%rax,4), %edx
	movl	%edx, 44(%rcx,%rax,4)
	movq	-240(%rbp), %rax        # 8-byte Reload
	shlq	$4, %rax
	movl	44(%rcx,%rax,4), %edx
	movq	-240(%rbp), %rax        # 8-byte Reload
	shlq	$4, %rax
	addl	48(%rcx,%rax,4), %edx
	movl	%edx, 48(%rcx,%rax,4)
	movq	-240(%rbp), %rax        # 8-byte Reload
	shlq	$4, %rax
	movl	48(%rcx,%rax,4), %edx
	movq	-240(%rbp), %rax        # 8-byte Reload
	shlq	$4, %rax
	addl	52(%rcx,%rax,4), %edx
	movl	%edx, 52(%rcx,%rax,4)
	movq	-240(%rbp), %rax        # 8-byte Reload
	shlq	$4, %rax
	movl	52(%rcx,%rax,4), %edx
	movq	-240(%rbp), %rax        # 8-byte Reload
	shlq	$4, %rax
	addl	56(%rcx,%rax,4), %edx
	movl	%edx, 56(%rcx,%rax,4)
	movq	-240(%rbp), %rax        # 8-byte Reload
	shlq	$4, %rax
	movl	56(%rcx,%rax,4), %edx
	movq	-240(%rbp), %rax        # 8-byte Reload
	shlq	$4, %rax
	addl	60(%rcx,%rax,4), %edx
	movl	%edx, 60(%rcx,%rax,4)
	movq	-240(%rbp), %rax        # 8-byte Reload
	addq	$1, %rax
	movq	%rax, -248(%rbp)        # 8-byte Spill
# %bb.31:                               # %for.body3.28
                                        #   in Loop: Header=BB1_1 Depth=1
	movq	-248(%rbp), %rax        # 8-byte Reload
	shlq	$4, %rax
	movq	-8(%rbp), %rcx          # 8-byte Reload
	movl	(%rcx,%rax,4), %edx
	movq	-248(%rbp), %rax        # 8-byte Reload
	shlq	$4, %rax
	addl	4(%rcx,%rax,4), %edx
	movl	%edx, 4(%rcx,%rax,4)
	movq	-248(%rbp), %rax        # 8-byte Reload
	shlq	$4, %rax
	movl	4(%rcx,%rax,4), %edx
	movq	-248(%rbp), %rax        # 8-byte Reload
	shlq	$4, %rax
	addl	8(%rcx,%rax,4), %edx
	movl	%edx, 8(%rcx,%rax,4)
	movq	-248(%rbp), %rax        # 8-byte Reload
	shlq	$4, %rax
	movl	8(%rcx,%rax,4), %edx
	movq	-248(%rbp), %rax        # 8-byte Reload
	shlq	$4, %rax
	addl	12(%rcx,%rax,4), %edx
	movl	%edx, 12(%rcx,%rax,4)
	movq	-248(%rbp), %rax        # 8-byte Reload
	shlq	$4, %rax
	movl	12(%rcx,%rax,4), %edx
	movq	-248(%rbp), %rax        # 8-byte Reload
	shlq	$4, %rax
	addl	16(%rcx,%rax,4), %edx
	movl	%edx, 16(%rcx,%rax,4)
	movq	-248(%rbp), %rax        # 8-byte Reload
	shlq	$4, %rax
	movl	16(%rcx,%rax,4), %edx
	movq	-248(%rbp), %rax        # 8-byte Reload
	shlq	$4, %rax
	addl	20(%rcx,%rax,4), %edx
	movl	%edx, 20(%rcx,%rax,4)
	movq	-248(%rbp), %rax        # 8-byte Reload
	shlq	$4, %rax
	movl	20(%rcx,%rax,4), %edx
	movq	-248(%rbp), %rax        # 8-byte Reload
	shlq	$4, %rax
	addl	24(%rcx,%rax,4), %edx
	movl	%edx, 24(%rcx,%rax,4)
	movq	-248(%rbp), %rax        # 8-byte Reload
	shlq	$4, %rax
	movl	24(%rcx,%rax,4), %edx
	movq	-248(%rbp), %rax        # 8-byte Reload
	shlq	$4, %rax
	addl	28(%rcx,%rax,4), %edx
	movl	%edx, 28(%rcx,%rax,4)
	movq	-248(%rbp), %rax        # 8-byte Reload
	shlq	$4, %rax
	movl	28(%rcx,%rax,4), %edx
	movq	-248(%rbp), %rax        # 8-byte Reload
	shlq	$4, %rax
	addl	32(%rcx,%rax,4), %edx
	movl	%edx, 32(%rcx,%rax,4)
	movq	-248(%rbp), %rax        # 8-byte Reload
	shlq	$4, %rax
	movl	32(%rcx,%rax,4), %edx
	movq	-248(%rbp), %rax        # 8-byte Reload
	shlq	$4, %rax
	addl	36(%rcx,%rax,4), %edx
	movl	%edx, 36(%rcx,%rax,4)
	movq	-248(%rbp), %rax        # 8-byte Reload
	shlq	$4, %rax
	movl	36(%rcx,%rax,4), %edx
	movq	-248(%rbp), %rax        # 8-byte Reload
	shlq	$4, %rax
	addl	40(%rcx,%rax,4), %edx
	movl	%edx, 40(%rcx,%rax,4)
	movq	-248(%rbp), %rax        # 8-byte Reload
	shlq	$4, %rax
	movl	40(%rcx,%rax,4), %edx
	movq	-248(%rbp), %rax        # 8-byte Reload
	shlq	$4, %rax
	addl	44(%rcx,%rax,4), %edx
	movl	%edx, 44(%rcx,%rax,4)
	movq	-248(%rbp), %rax        # 8-byte Reload
	shlq	$4, %rax
	movl	44(%rcx,%rax,4), %edx
	movq	-248(%rbp), %rax        # 8-byte Reload
	shlq	$4, %rax
	addl	48(%rcx,%rax,4), %edx
	movl	%edx, 48(%rcx,%rax,4)
	movq	-248(%rbp), %rax        # 8-byte Reload
	shlq	$4, %rax
	movl	48(%rcx,%rax,4), %edx
	movq	-248(%rbp), %rax        # 8-byte Reload
	shlq	$4, %rax
	addl	52(%rcx,%rax,4), %edx
	movl	%edx, 52(%rcx,%rax,4)
	movq	-248(%rbp), %rax        # 8-byte Reload
	shlq	$4, %rax
	movl	52(%rcx,%rax,4), %edx
	movq	-248(%rbp), %rax        # 8-byte Reload
	shlq	$4, %rax
	addl	56(%rcx,%rax,4), %edx
	movl	%edx, 56(%rcx,%rax,4)
	movq	-248(%rbp), %rax        # 8-byte Reload
	shlq	$4, %rax
	movl	56(%rcx,%rax,4), %edx
	movq	-248(%rbp), %rax        # 8-byte Reload
	shlq	$4, %rax
	addl	60(%rcx,%rax,4), %edx
	movl	%edx, 60(%rcx,%rax,4)
	movq	-248(%rbp), %rax        # 8-byte Reload
	addq	$1, %rax
	movq	%rax, -256(%rbp)        # 8-byte Spill
# %bb.32:                               # %for.body3.29
                                        #   in Loop: Header=BB1_1 Depth=1
	movq	-256(%rbp), %rax        # 8-byte Reload
	shlq	$4, %rax
	movq	-8(%rbp), %rcx          # 8-byte Reload
	movl	(%rcx,%rax,4), %edx
	movq	-256(%rbp), %rax        # 8-byte Reload
	shlq	$4, %rax
	addl	4(%rcx,%rax,4), %edx
	movl	%edx, 4(%rcx,%rax,4)
	movq	-256(%rbp), %rax        # 8-byte Reload
	shlq	$4, %rax
	movl	4(%rcx,%rax,4), %edx
	movq	-256(%rbp), %rax        # 8-byte Reload
	shlq	$4, %rax
	addl	8(%rcx,%rax,4), %edx
	movl	%edx, 8(%rcx,%rax,4)
	movq	-256(%rbp), %rax        # 8-byte Reload
	shlq	$4, %rax
	movl	8(%rcx,%rax,4), %edx
	movq	-256(%rbp), %rax        # 8-byte Reload
	shlq	$4, %rax
	addl	12(%rcx,%rax,4), %edx
	movl	%edx, 12(%rcx,%rax,4)
	movq	-256(%rbp), %rax        # 8-byte Reload
	shlq	$4, %rax
	movl	12(%rcx,%rax,4), %edx
	movq	-256(%rbp), %rax        # 8-byte Reload
	shlq	$4, %rax
	addl	16(%rcx,%rax,4), %edx
	movl	%edx, 16(%rcx,%rax,4)
	movq	-256(%rbp), %rax        # 8-byte Reload
	shlq	$4, %rax
	movl	16(%rcx,%rax,4), %edx
	movq	-256(%rbp), %rax        # 8-byte Reload
	shlq	$4, %rax
	addl	20(%rcx,%rax,4), %edx
	movl	%edx, 20(%rcx,%rax,4)
	movq	-256(%rbp), %rax        # 8-byte Reload
	shlq	$4, %rax
	movl	20(%rcx,%rax,4), %edx
	movq	-256(%rbp), %rax        # 8-byte Reload
	shlq	$4, %rax
	addl	24(%rcx,%rax,4), %edx
	movl	%edx, 24(%rcx,%rax,4)
	movq	-256(%rbp), %rax        # 8-byte Reload
	shlq	$4, %rax
	movl	24(%rcx,%rax,4), %edx
	movq	-256(%rbp), %rax        # 8-byte Reload
	shlq	$4, %rax
	addl	28(%rcx,%rax,4), %edx
	movl	%edx, 28(%rcx,%rax,4)
	movq	-256(%rbp), %rax        # 8-byte Reload
	shlq	$4, %rax
	movl	28(%rcx,%rax,4), %edx
	movq	-256(%rbp), %rax        # 8-byte Reload
	shlq	$4, %rax
	addl	32(%rcx,%rax,4), %edx
	movl	%edx, 32(%rcx,%rax,4)
	movq	-256(%rbp), %rax        # 8-byte Reload
	shlq	$4, %rax
	movl	32(%rcx,%rax,4), %edx
	movq	-256(%rbp), %rax        # 8-byte Reload
	shlq	$4, %rax
	addl	36(%rcx,%rax,4), %edx
	movl	%edx, 36(%rcx,%rax,4)
	movq	-256(%rbp), %rax        # 8-byte Reload
	shlq	$4, %rax
	movl	36(%rcx,%rax,4), %edx
	movq	-256(%rbp), %rax        # 8-byte Reload
	shlq	$4, %rax
	addl	40(%rcx,%rax,4), %edx
	movl	%edx, 40(%rcx,%rax,4)
	movq	-256(%rbp), %rax        # 8-byte Reload
	shlq	$4, %rax
	movl	40(%rcx,%rax,4), %edx
	movq	-256(%rbp), %rax        # 8-byte Reload
	shlq	$4, %rax
	addl	44(%rcx,%rax,4), %edx
	movl	%edx, 44(%rcx,%rax,4)
	movq	-256(%rbp), %rax        # 8-byte Reload
	shlq	$4, %rax
	movl	44(%rcx,%rax,4), %edx
	movq	-256(%rbp), %rax        # 8-byte Reload
	shlq	$4, %rax
	addl	48(%rcx,%rax,4), %edx
	movl	%edx, 48(%rcx,%rax,4)
	movq	-256(%rbp), %rax        # 8-byte Reload
	shlq	$4, %rax
	movl	48(%rcx,%rax,4), %edx
	movq	-256(%rbp), %rax        # 8-byte Reload
	shlq	$4, %rax
	addl	52(%rcx,%rax,4), %edx
	movl	%edx, 52(%rcx,%rax,4)
	movq	-256(%rbp), %rax        # 8-byte Reload
	shlq	$4, %rax
	movl	52(%rcx,%rax,4), %edx
	movq	-256(%rbp), %rax        # 8-byte Reload
	shlq	$4, %rax
	addl	56(%rcx,%rax,4), %edx
	movl	%edx, 56(%rcx,%rax,4)
	movq	-256(%rbp), %rax        # 8-byte Reload
	shlq	$4, %rax
	movl	56(%rcx,%rax,4), %edx
	movq	-256(%rbp), %rax        # 8-byte Reload
	shlq	$4, %rax
	addl	60(%rcx,%rax,4), %edx
	movl	%edx, 60(%rcx,%rax,4)
	movq	-256(%rbp), %rax        # 8-byte Reload
	addq	$1, %rax
	movq	%rax, -264(%rbp)        # 8-byte Spill
# %bb.33:                               # %for.body3.30
                                        #   in Loop: Header=BB1_1 Depth=1
	movq	-264(%rbp), %rax        # 8-byte Reload
	shlq	$4, %rax
	movq	-8(%rbp), %rcx          # 8-byte Reload
	movl	(%rcx,%rax,4), %edx
	movq	-264(%rbp), %rax        # 8-byte Reload
	shlq	$4, %rax
	addl	4(%rcx,%rax,4), %edx
	movl	%edx, 4(%rcx,%rax,4)
	movq	-264(%rbp), %rax        # 8-byte Reload
	shlq	$4, %rax
	movl	4(%rcx,%rax,4), %edx
	movq	-264(%rbp), %rax        # 8-byte Reload
	shlq	$4, %rax
	addl	8(%rcx,%rax,4), %edx
	movl	%edx, 8(%rcx,%rax,4)
	movq	-264(%rbp), %rax        # 8-byte Reload
	shlq	$4, %rax
	movl	8(%rcx,%rax,4), %edx
	movq	-264(%rbp), %rax        # 8-byte Reload
	shlq	$4, %rax
	addl	12(%rcx,%rax,4), %edx
	movl	%edx, 12(%rcx,%rax,4)
	movq	-264(%rbp), %rax        # 8-byte Reload
	shlq	$4, %rax
	movl	12(%rcx,%rax,4), %edx
	movq	-264(%rbp), %rax        # 8-byte Reload
	shlq	$4, %rax
	addl	16(%rcx,%rax,4), %edx
	movl	%edx, 16(%rcx,%rax,4)
	movq	-264(%rbp), %rax        # 8-byte Reload
	shlq	$4, %rax
	movl	16(%rcx,%rax,4), %edx
	movq	-264(%rbp), %rax        # 8-byte Reload
	shlq	$4, %rax
	addl	20(%rcx,%rax,4), %edx
	movl	%edx, 20(%rcx,%rax,4)
	movq	-264(%rbp), %rax        # 8-byte Reload
	shlq	$4, %rax
	movl	20(%rcx,%rax,4), %edx
	movq	-264(%rbp), %rax        # 8-byte Reload
	shlq	$4, %rax
	addl	24(%rcx,%rax,4), %edx
	movl	%edx, 24(%rcx,%rax,4)
	movq	-264(%rbp), %rax        # 8-byte Reload
	shlq	$4, %rax
	movl	24(%rcx,%rax,4), %edx
	movq	-264(%rbp), %rax        # 8-byte Reload
	shlq	$4, %rax
	addl	28(%rcx,%rax,4), %edx
	movl	%edx, 28(%rcx,%rax,4)
	movq	-264(%rbp), %rax        # 8-byte Reload
	shlq	$4, %rax
	movl	28(%rcx,%rax,4), %edx
	movq	-264(%rbp), %rax        # 8-byte Reload
	shlq	$4, %rax
	addl	32(%rcx,%rax,4), %edx
	movl	%edx, 32(%rcx,%rax,4)
	movq	-264(%rbp), %rax        # 8-byte Reload
	shlq	$4, %rax
	movl	32(%rcx,%rax,4), %edx
	movq	-264(%rbp), %rax        # 8-byte Reload
	shlq	$4, %rax
	addl	36(%rcx,%rax,4), %edx
	movl	%edx, 36(%rcx,%rax,4)
	movq	-264(%rbp), %rax        # 8-byte Reload
	shlq	$4, %rax
	movl	36(%rcx,%rax,4), %edx
	movq	-264(%rbp), %rax        # 8-byte Reload
	shlq	$4, %rax
	addl	40(%rcx,%rax,4), %edx
	movl	%edx, 40(%rcx,%rax,4)
	movq	-264(%rbp), %rax        # 8-byte Reload
	shlq	$4, %rax
	movl	40(%rcx,%rax,4), %edx
	movq	-264(%rbp), %rax        # 8-byte Reload
	shlq	$4, %rax
	addl	44(%rcx,%rax,4), %edx
	movl	%edx, 44(%rcx,%rax,4)
	movq	-264(%rbp), %rax        # 8-byte Reload
	shlq	$4, %rax
	movl	44(%rcx,%rax,4), %edx
	movq	-264(%rbp), %rax        # 8-byte Reload
	shlq	$4, %rax
	addl	48(%rcx,%rax,4), %edx
	movl	%edx, 48(%rcx,%rax,4)
	movq	-264(%rbp), %rax        # 8-byte Reload
	shlq	$4, %rax
	movl	48(%rcx,%rax,4), %edx
	movq	-264(%rbp), %rax        # 8-byte Reload
	shlq	$4, %rax
	addl	52(%rcx,%rax,4), %edx
	movl	%edx, 52(%rcx,%rax,4)
	movq	-264(%rbp), %rax        # 8-byte Reload
	shlq	$4, %rax
	movl	52(%rcx,%rax,4), %edx
	movq	-264(%rbp), %rax        # 8-byte Reload
	shlq	$4, %rax
	addl	56(%rcx,%rax,4), %edx
	movl	%edx, 56(%rcx,%rax,4)
	movq	-264(%rbp), %rax        # 8-byte Reload
	shlq	$4, %rax
	movl	56(%rcx,%rax,4), %edx
	movq	-264(%rbp), %rax        # 8-byte Reload
	shlq	$4, %rax
	addl	60(%rcx,%rax,4), %edx
	movl	%edx, 60(%rcx,%rax,4)
	movq	-264(%rbp), %rax        # 8-byte Reload
	addq	$1, %rax
	movq	%rax, -272(%rbp)        # 8-byte Spill
# %bb.34:                               # %for.body3.31
                                        #   in Loop: Header=BB1_1 Depth=1
	movq	-272(%rbp), %rax        # 8-byte Reload
	shlq	$4, %rax
	movq	-8(%rbp), %rcx          # 8-byte Reload
	movl	(%rcx,%rax,4), %edx
	movq	-272(%rbp), %rax        # 8-byte Reload
	shlq	$4, %rax
	addl	4(%rcx,%rax,4), %edx
	movl	%edx, 4(%rcx,%rax,4)
	movq	-272(%rbp), %rax        # 8-byte Reload
	shlq	$4, %rax
	movl	4(%rcx,%rax,4), %edx
	movq	-272(%rbp), %rax        # 8-byte Reload
	shlq	$4, %rax
	addl	8(%rcx,%rax,4), %edx
	movl	%edx, 8(%rcx,%rax,4)
	movq	-272(%rbp), %rax        # 8-byte Reload
	shlq	$4, %rax
	movl	8(%rcx,%rax,4), %edx
	movq	-272(%rbp), %rax        # 8-byte Reload
	shlq	$4, %rax
	addl	12(%rcx,%rax,4), %edx
	movl	%edx, 12(%rcx,%rax,4)
	movq	-272(%rbp), %rax        # 8-byte Reload
	shlq	$4, %rax
	movl	12(%rcx,%rax,4), %edx
	movq	-272(%rbp), %rax        # 8-byte Reload
	shlq	$4, %rax
	addl	16(%rcx,%rax,4), %edx
	movl	%edx, 16(%rcx,%rax,4)
	movq	-272(%rbp), %rax        # 8-byte Reload
	shlq	$4, %rax
	movl	16(%rcx,%rax,4), %edx
	movq	-272(%rbp), %rax        # 8-byte Reload
	shlq	$4, %rax
	addl	20(%rcx,%rax,4), %edx
	movl	%edx, 20(%rcx,%rax,4)
	movq	-272(%rbp), %rax        # 8-byte Reload
	shlq	$4, %rax
	movl	20(%rcx,%rax,4), %edx
	movq	-272(%rbp), %rax        # 8-byte Reload
	shlq	$4, %rax
	addl	24(%rcx,%rax,4), %edx
	movl	%edx, 24(%rcx,%rax,4)
	movq	-272(%rbp), %rax        # 8-byte Reload
	shlq	$4, %rax
	movl	24(%rcx,%rax,4), %edx
	movq	-272(%rbp), %rax        # 8-byte Reload
	shlq	$4, %rax
	addl	28(%rcx,%rax,4), %edx
	movl	%edx, 28(%rcx,%rax,4)
	movq	-272(%rbp), %rax        # 8-byte Reload
	shlq	$4, %rax
	movl	28(%rcx,%rax,4), %edx
	movq	-272(%rbp), %rax        # 8-byte Reload
	shlq	$4, %rax
	addl	32(%rcx,%rax,4), %edx
	movl	%edx, 32(%rcx,%rax,4)
	movq	-272(%rbp), %rax        # 8-byte Reload
	shlq	$4, %rax
	movl	32(%rcx,%rax,4), %edx
	movq	-272(%rbp), %rax        # 8-byte Reload
	shlq	$4, %rax
	addl	36(%rcx,%rax,4), %edx
	movl	%edx, 36(%rcx,%rax,4)
	movq	-272(%rbp), %rax        # 8-byte Reload
	shlq	$4, %rax
	movl	36(%rcx,%rax,4), %edx
	movq	-272(%rbp), %rax        # 8-byte Reload
	shlq	$4, %rax
	addl	40(%rcx,%rax,4), %edx
	movl	%edx, 40(%rcx,%rax,4)
	movq	-272(%rbp), %rax        # 8-byte Reload
	shlq	$4, %rax
	movl	40(%rcx,%rax,4), %edx
	movq	-272(%rbp), %rax        # 8-byte Reload
	shlq	$4, %rax
	addl	44(%rcx,%rax,4), %edx
	movl	%edx, 44(%rcx,%rax,4)
	movq	-272(%rbp), %rax        # 8-byte Reload
	shlq	$4, %rax
	movl	44(%rcx,%rax,4), %edx
	movq	-272(%rbp), %rax        # 8-byte Reload
	shlq	$4, %rax
	addl	48(%rcx,%rax,4), %edx
	movl	%edx, 48(%rcx,%rax,4)
	movq	-272(%rbp), %rax        # 8-byte Reload
	shlq	$4, %rax
	movl	48(%rcx,%rax,4), %edx
	movq	-272(%rbp), %rax        # 8-byte Reload
	shlq	$4, %rax
	addl	52(%rcx,%rax,4), %edx
	movl	%edx, 52(%rcx,%rax,4)
	movq	-272(%rbp), %rax        # 8-byte Reload
	shlq	$4, %rax
	movl	52(%rcx,%rax,4), %edx
	movq	-272(%rbp), %rax        # 8-byte Reload
	shlq	$4, %rax
	addl	56(%rcx,%rax,4), %edx
	movl	%edx, 56(%rcx,%rax,4)
	movq	-272(%rbp), %rax        # 8-byte Reload
	shlq	$4, %rax
	movl	56(%rcx,%rax,4), %edx
	movq	-272(%rbp), %rax        # 8-byte Reload
	shlq	$4, %rax
	addl	60(%rcx,%rax,4), %edx
	movl	%edx, 60(%rcx,%rax,4)
	movq	-272(%rbp), %rax        # 8-byte Reload
	addq	$1, %rax
	movq	%rax, -280(%rbp)        # 8-byte Spill
# %bb.35:                               # %for.body3.32
                                        #   in Loop: Header=BB1_1 Depth=1
	movq	-280(%rbp), %rax        # 8-byte Reload
	shlq	$4, %rax
	movq	-8(%rbp), %rcx          # 8-byte Reload
	movl	(%rcx,%rax,4), %edx
	movq	-280(%rbp), %rax        # 8-byte Reload
	shlq	$4, %rax
	addl	4(%rcx,%rax,4), %edx
	movl	%edx, 4(%rcx,%rax,4)
	movq	-280(%rbp), %rax        # 8-byte Reload
	shlq	$4, %rax
	movl	4(%rcx,%rax,4), %edx
	movq	-280(%rbp), %rax        # 8-byte Reload
	shlq	$4, %rax
	addl	8(%rcx,%rax,4), %edx
	movl	%edx, 8(%rcx,%rax,4)
	movq	-280(%rbp), %rax        # 8-byte Reload
	shlq	$4, %rax
	movl	8(%rcx,%rax,4), %edx
	movq	-280(%rbp), %rax        # 8-byte Reload
	shlq	$4, %rax
	addl	12(%rcx,%rax,4), %edx
	movl	%edx, 12(%rcx,%rax,4)
	movq	-280(%rbp), %rax        # 8-byte Reload
	shlq	$4, %rax
	movl	12(%rcx,%rax,4), %edx
	movq	-280(%rbp), %rax        # 8-byte Reload
	shlq	$4, %rax
	addl	16(%rcx,%rax,4), %edx
	movl	%edx, 16(%rcx,%rax,4)
	movq	-280(%rbp), %rax        # 8-byte Reload
	shlq	$4, %rax
	movl	16(%rcx,%rax,4), %edx
	movq	-280(%rbp), %rax        # 8-byte Reload
	shlq	$4, %rax
	addl	20(%rcx,%rax,4), %edx
	movl	%edx, 20(%rcx,%rax,4)
	movq	-280(%rbp), %rax        # 8-byte Reload
	shlq	$4, %rax
	movl	20(%rcx,%rax,4), %edx
	movq	-280(%rbp), %rax        # 8-byte Reload
	shlq	$4, %rax
	addl	24(%rcx,%rax,4), %edx
	movl	%edx, 24(%rcx,%rax,4)
	movq	-280(%rbp), %rax        # 8-byte Reload
	shlq	$4, %rax
	movl	24(%rcx,%rax,4), %edx
	movq	-280(%rbp), %rax        # 8-byte Reload
	shlq	$4, %rax
	addl	28(%rcx,%rax,4), %edx
	movl	%edx, 28(%rcx,%rax,4)
	movq	-280(%rbp), %rax        # 8-byte Reload
	shlq	$4, %rax
	movl	28(%rcx,%rax,4), %edx
	movq	-280(%rbp), %rax        # 8-byte Reload
	shlq	$4, %rax
	addl	32(%rcx,%rax,4), %edx
	movl	%edx, 32(%rcx,%rax,4)
	movq	-280(%rbp), %rax        # 8-byte Reload
	shlq	$4, %rax
	movl	32(%rcx,%rax,4), %edx
	movq	-280(%rbp), %rax        # 8-byte Reload
	shlq	$4, %rax
	addl	36(%rcx,%rax,4), %edx
	movl	%edx, 36(%rcx,%rax,4)
	movq	-280(%rbp), %rax        # 8-byte Reload
	shlq	$4, %rax
	movl	36(%rcx,%rax,4), %edx
	movq	-280(%rbp), %rax        # 8-byte Reload
	shlq	$4, %rax
	addl	40(%rcx,%rax,4), %edx
	movl	%edx, 40(%rcx,%rax,4)
	movq	-280(%rbp), %rax        # 8-byte Reload
	shlq	$4, %rax
	movl	40(%rcx,%rax,4), %edx
	movq	-280(%rbp), %rax        # 8-byte Reload
	shlq	$4, %rax
	addl	44(%rcx,%rax,4), %edx
	movl	%edx, 44(%rcx,%rax,4)
	movq	-280(%rbp), %rax        # 8-byte Reload
	shlq	$4, %rax
	movl	44(%rcx,%rax,4), %edx
	movq	-280(%rbp), %rax        # 8-byte Reload
	shlq	$4, %rax
	addl	48(%rcx,%rax,4), %edx
	movl	%edx, 48(%rcx,%rax,4)
	movq	-280(%rbp), %rax        # 8-byte Reload
	shlq	$4, %rax
	movl	48(%rcx,%rax,4), %edx
	movq	-280(%rbp), %rax        # 8-byte Reload
	shlq	$4, %rax
	addl	52(%rcx,%rax,4), %edx
	movl	%edx, 52(%rcx,%rax,4)
	movq	-280(%rbp), %rax        # 8-byte Reload
	shlq	$4, %rax
	movl	52(%rcx,%rax,4), %edx
	movq	-280(%rbp), %rax        # 8-byte Reload
	shlq	$4, %rax
	addl	56(%rcx,%rax,4), %edx
	movl	%edx, 56(%rcx,%rax,4)
	movq	-280(%rbp), %rax        # 8-byte Reload
	shlq	$4, %rax
	movl	56(%rcx,%rax,4), %edx
	movq	-280(%rbp), %rax        # 8-byte Reload
	shlq	$4, %rax
	addl	60(%rcx,%rax,4), %edx
	movl	%edx, 60(%rcx,%rax,4)
	movq	-280(%rbp), %rax        # 8-byte Reload
	addq	$1, %rax
	movq	%rax, -288(%rbp)        # 8-byte Spill
# %bb.36:                               # %for.body3.33
                                        #   in Loop: Header=BB1_1 Depth=1
	movq	-288(%rbp), %rax        # 8-byte Reload
	shlq	$4, %rax
	movq	-8(%rbp), %rcx          # 8-byte Reload
	movl	(%rcx,%rax,4), %edx
	movq	-288(%rbp), %rax        # 8-byte Reload
	shlq	$4, %rax
	addl	4(%rcx,%rax,4), %edx
	movl	%edx, 4(%rcx,%rax,4)
	movq	-288(%rbp), %rax        # 8-byte Reload
	shlq	$4, %rax
	movl	4(%rcx,%rax,4), %edx
	movq	-288(%rbp), %rax        # 8-byte Reload
	shlq	$4, %rax
	addl	8(%rcx,%rax,4), %edx
	movl	%edx, 8(%rcx,%rax,4)
	movq	-288(%rbp), %rax        # 8-byte Reload
	shlq	$4, %rax
	movl	8(%rcx,%rax,4), %edx
	movq	-288(%rbp), %rax        # 8-byte Reload
	shlq	$4, %rax
	addl	12(%rcx,%rax,4), %edx
	movl	%edx, 12(%rcx,%rax,4)
	movq	-288(%rbp), %rax        # 8-byte Reload
	shlq	$4, %rax
	movl	12(%rcx,%rax,4), %edx
	movq	-288(%rbp), %rax        # 8-byte Reload
	shlq	$4, %rax
	addl	16(%rcx,%rax,4), %edx
	movl	%edx, 16(%rcx,%rax,4)
	movq	-288(%rbp), %rax        # 8-byte Reload
	shlq	$4, %rax
	movl	16(%rcx,%rax,4), %edx
	movq	-288(%rbp), %rax        # 8-byte Reload
	shlq	$4, %rax
	addl	20(%rcx,%rax,4), %edx
	movl	%edx, 20(%rcx,%rax,4)
	movq	-288(%rbp), %rax        # 8-byte Reload
	shlq	$4, %rax
	movl	20(%rcx,%rax,4), %edx
	movq	-288(%rbp), %rax        # 8-byte Reload
	shlq	$4, %rax
	addl	24(%rcx,%rax,4), %edx
	movl	%edx, 24(%rcx,%rax,4)
	movq	-288(%rbp), %rax        # 8-byte Reload
	shlq	$4, %rax
	movl	24(%rcx,%rax,4), %edx
	movq	-288(%rbp), %rax        # 8-byte Reload
	shlq	$4, %rax
	addl	28(%rcx,%rax,4), %edx
	movl	%edx, 28(%rcx,%rax,4)
	movq	-288(%rbp), %rax        # 8-byte Reload
	shlq	$4, %rax
	movl	28(%rcx,%rax,4), %edx
	movq	-288(%rbp), %rax        # 8-byte Reload
	shlq	$4, %rax
	addl	32(%rcx,%rax,4), %edx
	movl	%edx, 32(%rcx,%rax,4)
	movq	-288(%rbp), %rax        # 8-byte Reload
	shlq	$4, %rax
	movl	32(%rcx,%rax,4), %edx
	movq	-288(%rbp), %rax        # 8-byte Reload
	shlq	$4, %rax
	addl	36(%rcx,%rax,4), %edx
	movl	%edx, 36(%rcx,%rax,4)
	movq	-288(%rbp), %rax        # 8-byte Reload
	shlq	$4, %rax
	movl	36(%rcx,%rax,4), %edx
	movq	-288(%rbp), %rax        # 8-byte Reload
	shlq	$4, %rax
	addl	40(%rcx,%rax,4), %edx
	movl	%edx, 40(%rcx,%rax,4)
	movq	-288(%rbp), %rax        # 8-byte Reload
	shlq	$4, %rax
	movl	40(%rcx,%rax,4), %edx
	movq	-288(%rbp), %rax        # 8-byte Reload
	shlq	$4, %rax
	addl	44(%rcx,%rax,4), %edx
	movl	%edx, 44(%rcx,%rax,4)
	movq	-288(%rbp), %rax        # 8-byte Reload
	shlq	$4, %rax
	movl	44(%rcx,%rax,4), %edx
	movq	-288(%rbp), %rax        # 8-byte Reload
	shlq	$4, %rax
	addl	48(%rcx,%rax,4), %edx
	movl	%edx, 48(%rcx,%rax,4)
	movq	-288(%rbp), %rax        # 8-byte Reload
	shlq	$4, %rax
	movl	48(%rcx,%rax,4), %edx
	movq	-288(%rbp), %rax        # 8-byte Reload
	shlq	$4, %rax
	addl	52(%rcx,%rax,4), %edx
	movl	%edx, 52(%rcx,%rax,4)
	movq	-288(%rbp), %rax        # 8-byte Reload
	shlq	$4, %rax
	movl	52(%rcx,%rax,4), %edx
	movq	-288(%rbp), %rax        # 8-byte Reload
	shlq	$4, %rax
	addl	56(%rcx,%rax,4), %edx
	movl	%edx, 56(%rcx,%rax,4)
	movq	-288(%rbp), %rax        # 8-byte Reload
	shlq	$4, %rax
	movl	56(%rcx,%rax,4), %edx
	movq	-288(%rbp), %rax        # 8-byte Reload
	shlq	$4, %rax
	addl	60(%rcx,%rax,4), %edx
	movl	%edx, 60(%rcx,%rax,4)
	movq	-288(%rbp), %rax        # 8-byte Reload
	addq	$1, %rax
	movq	%rax, -296(%rbp)        # 8-byte Spill
# %bb.37:                               # %for.body3.34
                                        #   in Loop: Header=BB1_1 Depth=1
	movq	-296(%rbp), %rax        # 8-byte Reload
	shlq	$4, %rax
	movq	-8(%rbp), %rcx          # 8-byte Reload
	movl	(%rcx,%rax,4), %edx
	movq	-296(%rbp), %rax        # 8-byte Reload
	shlq	$4, %rax
	addl	4(%rcx,%rax,4), %edx
	movl	%edx, 4(%rcx,%rax,4)
	movq	-296(%rbp), %rax        # 8-byte Reload
	shlq	$4, %rax
	movl	4(%rcx,%rax,4), %edx
	movq	-296(%rbp), %rax        # 8-byte Reload
	shlq	$4, %rax
	addl	8(%rcx,%rax,4), %edx
	movl	%edx, 8(%rcx,%rax,4)
	movq	-296(%rbp), %rax        # 8-byte Reload
	shlq	$4, %rax
	movl	8(%rcx,%rax,4), %edx
	movq	-296(%rbp), %rax        # 8-byte Reload
	shlq	$4, %rax
	addl	12(%rcx,%rax,4), %edx
	movl	%edx, 12(%rcx,%rax,4)
	movq	-296(%rbp), %rax        # 8-byte Reload
	shlq	$4, %rax
	movl	12(%rcx,%rax,4), %edx
	movq	-296(%rbp), %rax        # 8-byte Reload
	shlq	$4, %rax
	addl	16(%rcx,%rax,4), %edx
	movl	%edx, 16(%rcx,%rax,4)
	movq	-296(%rbp), %rax        # 8-byte Reload
	shlq	$4, %rax
	movl	16(%rcx,%rax,4), %edx
	movq	-296(%rbp), %rax        # 8-byte Reload
	shlq	$4, %rax
	addl	20(%rcx,%rax,4), %edx
	movl	%edx, 20(%rcx,%rax,4)
	movq	-296(%rbp), %rax        # 8-byte Reload
	shlq	$4, %rax
	movl	20(%rcx,%rax,4), %edx
	movq	-296(%rbp), %rax        # 8-byte Reload
	shlq	$4, %rax
	addl	24(%rcx,%rax,4), %edx
	movl	%edx, 24(%rcx,%rax,4)
	movq	-296(%rbp), %rax        # 8-byte Reload
	shlq	$4, %rax
	movl	24(%rcx,%rax,4), %edx
	movq	-296(%rbp), %rax        # 8-byte Reload
	shlq	$4, %rax
	addl	28(%rcx,%rax,4), %edx
	movl	%edx, 28(%rcx,%rax,4)
	movq	-296(%rbp), %rax        # 8-byte Reload
	shlq	$4, %rax
	movl	28(%rcx,%rax,4), %edx
	movq	-296(%rbp), %rax        # 8-byte Reload
	shlq	$4, %rax
	addl	32(%rcx,%rax,4), %edx
	movl	%edx, 32(%rcx,%rax,4)
	movq	-296(%rbp), %rax        # 8-byte Reload
	shlq	$4, %rax
	movl	32(%rcx,%rax,4), %edx
	movq	-296(%rbp), %rax        # 8-byte Reload
	shlq	$4, %rax
	addl	36(%rcx,%rax,4), %edx
	movl	%edx, 36(%rcx,%rax,4)
	movq	-296(%rbp), %rax        # 8-byte Reload
	shlq	$4, %rax
	movl	36(%rcx,%rax,4), %edx
	movq	-296(%rbp), %rax        # 8-byte Reload
	shlq	$4, %rax
	addl	40(%rcx,%rax,4), %edx
	movl	%edx, 40(%rcx,%rax,4)
	movq	-296(%rbp), %rax        # 8-byte Reload
	shlq	$4, %rax
	movl	40(%rcx,%rax,4), %edx
	movq	-296(%rbp), %rax        # 8-byte Reload
	shlq	$4, %rax
	addl	44(%rcx,%rax,4), %edx
	movl	%edx, 44(%rcx,%rax,4)
	movq	-296(%rbp), %rax        # 8-byte Reload
	shlq	$4, %rax
	movl	44(%rcx,%rax,4), %edx
	movq	-296(%rbp), %rax        # 8-byte Reload
	shlq	$4, %rax
	addl	48(%rcx,%rax,4), %edx
	movl	%edx, 48(%rcx,%rax,4)
	movq	-296(%rbp), %rax        # 8-byte Reload
	shlq	$4, %rax
	movl	48(%rcx,%rax,4), %edx
	movq	-296(%rbp), %rax        # 8-byte Reload
	shlq	$4, %rax
	addl	52(%rcx,%rax,4), %edx
	movl	%edx, 52(%rcx,%rax,4)
	movq	-296(%rbp), %rax        # 8-byte Reload
	shlq	$4, %rax
	movl	52(%rcx,%rax,4), %edx
	movq	-296(%rbp), %rax        # 8-byte Reload
	shlq	$4, %rax
	addl	56(%rcx,%rax,4), %edx
	movl	%edx, 56(%rcx,%rax,4)
	movq	-296(%rbp), %rax        # 8-byte Reload
	shlq	$4, %rax
	movl	56(%rcx,%rax,4), %edx
	movq	-296(%rbp), %rax        # 8-byte Reload
	shlq	$4, %rax
	addl	60(%rcx,%rax,4), %edx
	movl	%edx, 60(%rcx,%rax,4)
	movq	-296(%rbp), %rax        # 8-byte Reload
	addq	$1, %rax
	movq	%rax, -304(%rbp)        # 8-byte Spill
# %bb.38:                               # %for.body3.35
                                        #   in Loop: Header=BB1_1 Depth=1
	movq	-304(%rbp), %rax        # 8-byte Reload
	shlq	$4, %rax
	movq	-8(%rbp), %rcx          # 8-byte Reload
	movl	(%rcx,%rax,4), %edx
	movq	-304(%rbp), %rax        # 8-byte Reload
	shlq	$4, %rax
	addl	4(%rcx,%rax,4), %edx
	movl	%edx, 4(%rcx,%rax,4)
	movq	-304(%rbp), %rax        # 8-byte Reload
	shlq	$4, %rax
	movl	4(%rcx,%rax,4), %edx
	movq	-304(%rbp), %rax        # 8-byte Reload
	shlq	$4, %rax
	addl	8(%rcx,%rax,4), %edx
	movl	%edx, 8(%rcx,%rax,4)
	movq	-304(%rbp), %rax        # 8-byte Reload
	shlq	$4, %rax
	movl	8(%rcx,%rax,4), %edx
	movq	-304(%rbp), %rax        # 8-byte Reload
	shlq	$4, %rax
	addl	12(%rcx,%rax,4), %edx
	movl	%edx, 12(%rcx,%rax,4)
	movq	-304(%rbp), %rax        # 8-byte Reload
	shlq	$4, %rax
	movl	12(%rcx,%rax,4), %edx
	movq	-304(%rbp), %rax        # 8-byte Reload
	shlq	$4, %rax
	addl	16(%rcx,%rax,4), %edx
	movl	%edx, 16(%rcx,%rax,4)
	movq	-304(%rbp), %rax        # 8-byte Reload
	shlq	$4, %rax
	movl	16(%rcx,%rax,4), %edx
	movq	-304(%rbp), %rax        # 8-byte Reload
	shlq	$4, %rax
	addl	20(%rcx,%rax,4), %edx
	movl	%edx, 20(%rcx,%rax,4)
	movq	-304(%rbp), %rax        # 8-byte Reload
	shlq	$4, %rax
	movl	20(%rcx,%rax,4), %edx
	movq	-304(%rbp), %rax        # 8-byte Reload
	shlq	$4, %rax
	addl	24(%rcx,%rax,4), %edx
	movl	%edx, 24(%rcx,%rax,4)
	movq	-304(%rbp), %rax        # 8-byte Reload
	shlq	$4, %rax
	movl	24(%rcx,%rax,4), %edx
	movq	-304(%rbp), %rax        # 8-byte Reload
	shlq	$4, %rax
	addl	28(%rcx,%rax,4), %edx
	movl	%edx, 28(%rcx,%rax,4)
	movq	-304(%rbp), %rax        # 8-byte Reload
	shlq	$4, %rax
	movl	28(%rcx,%rax,4), %edx
	movq	-304(%rbp), %rax        # 8-byte Reload
	shlq	$4, %rax
	addl	32(%rcx,%rax,4), %edx
	movl	%edx, 32(%rcx,%rax,4)
	movq	-304(%rbp), %rax        # 8-byte Reload
	shlq	$4, %rax
	movl	32(%rcx,%rax,4), %edx
	movq	-304(%rbp), %rax        # 8-byte Reload
	shlq	$4, %rax
	addl	36(%rcx,%rax,4), %edx
	movl	%edx, 36(%rcx,%rax,4)
	movq	-304(%rbp), %rax        # 8-byte Reload
	shlq	$4, %rax
	movl	36(%rcx,%rax,4), %edx
	movq	-304(%rbp), %rax        # 8-byte Reload
	shlq	$4, %rax
	addl	40(%rcx,%rax,4), %edx
	movl	%edx, 40(%rcx,%rax,4)
	movq	-304(%rbp), %rax        # 8-byte Reload
	shlq	$4, %rax
	movl	40(%rcx,%rax,4), %edx
	movq	-304(%rbp), %rax        # 8-byte Reload
	shlq	$4, %rax
	addl	44(%rcx,%rax,4), %edx
	movl	%edx, 44(%rcx,%rax,4)
	movq	-304(%rbp), %rax        # 8-byte Reload
	shlq	$4, %rax
	movl	44(%rcx,%rax,4), %edx
	movq	-304(%rbp), %rax        # 8-byte Reload
	shlq	$4, %rax
	addl	48(%rcx,%rax,4), %edx
	movl	%edx, 48(%rcx,%rax,4)
	movq	-304(%rbp), %rax        # 8-byte Reload
	shlq	$4, %rax
	movl	48(%rcx,%rax,4), %edx
	movq	-304(%rbp), %rax        # 8-byte Reload
	shlq	$4, %rax
	addl	52(%rcx,%rax,4), %edx
	movl	%edx, 52(%rcx,%rax,4)
	movq	-304(%rbp), %rax        # 8-byte Reload
	shlq	$4, %rax
	movl	52(%rcx,%rax,4), %edx
	movq	-304(%rbp), %rax        # 8-byte Reload
	shlq	$4, %rax
	addl	56(%rcx,%rax,4), %edx
	movl	%edx, 56(%rcx,%rax,4)
	movq	-304(%rbp), %rax        # 8-byte Reload
	shlq	$4, %rax
	movl	56(%rcx,%rax,4), %edx
	movq	-304(%rbp), %rax        # 8-byte Reload
	shlq	$4, %rax
	addl	60(%rcx,%rax,4), %edx
	movl	%edx, 60(%rcx,%rax,4)
	movq	-304(%rbp), %rax        # 8-byte Reload
	addq	$1, %rax
	movq	%rax, -312(%rbp)        # 8-byte Spill
# %bb.39:                               # %for.body3.36
                                        #   in Loop: Header=BB1_1 Depth=1
	movq	-312(%rbp), %rax        # 8-byte Reload
	shlq	$4, %rax
	movq	-8(%rbp), %rcx          # 8-byte Reload
	movl	(%rcx,%rax,4), %edx
	movq	-312(%rbp), %rax        # 8-byte Reload
	shlq	$4, %rax
	addl	4(%rcx,%rax,4), %edx
	movl	%edx, 4(%rcx,%rax,4)
	movq	-312(%rbp), %rax        # 8-byte Reload
	shlq	$4, %rax
	movl	4(%rcx,%rax,4), %edx
	movq	-312(%rbp), %rax        # 8-byte Reload
	shlq	$4, %rax
	addl	8(%rcx,%rax,4), %edx
	movl	%edx, 8(%rcx,%rax,4)
	movq	-312(%rbp), %rax        # 8-byte Reload
	shlq	$4, %rax
	movl	8(%rcx,%rax,4), %edx
	movq	-312(%rbp), %rax        # 8-byte Reload
	shlq	$4, %rax
	addl	12(%rcx,%rax,4), %edx
	movl	%edx, 12(%rcx,%rax,4)
	movq	-312(%rbp), %rax        # 8-byte Reload
	shlq	$4, %rax
	movl	12(%rcx,%rax,4), %edx
	movq	-312(%rbp), %rax        # 8-byte Reload
	shlq	$4, %rax
	addl	16(%rcx,%rax,4), %edx
	movl	%edx, 16(%rcx,%rax,4)
	movq	-312(%rbp), %rax        # 8-byte Reload
	shlq	$4, %rax
	movl	16(%rcx,%rax,4), %edx
	movq	-312(%rbp), %rax        # 8-byte Reload
	shlq	$4, %rax
	addl	20(%rcx,%rax,4), %edx
	movl	%edx, 20(%rcx,%rax,4)
	movq	-312(%rbp), %rax        # 8-byte Reload
	shlq	$4, %rax
	movl	20(%rcx,%rax,4), %edx
	movq	-312(%rbp), %rax        # 8-byte Reload
	shlq	$4, %rax
	addl	24(%rcx,%rax,4), %edx
	movl	%edx, 24(%rcx,%rax,4)
	movq	-312(%rbp), %rax        # 8-byte Reload
	shlq	$4, %rax
	movl	24(%rcx,%rax,4), %edx
	movq	-312(%rbp), %rax        # 8-byte Reload
	shlq	$4, %rax
	addl	28(%rcx,%rax,4), %edx
	movl	%edx, 28(%rcx,%rax,4)
	movq	-312(%rbp), %rax        # 8-byte Reload
	shlq	$4, %rax
	movl	28(%rcx,%rax,4), %edx
	movq	-312(%rbp), %rax        # 8-byte Reload
	shlq	$4, %rax
	addl	32(%rcx,%rax,4), %edx
	movl	%edx, 32(%rcx,%rax,4)
	movq	-312(%rbp), %rax        # 8-byte Reload
	shlq	$4, %rax
	movl	32(%rcx,%rax,4), %edx
	movq	-312(%rbp), %rax        # 8-byte Reload
	shlq	$4, %rax
	addl	36(%rcx,%rax,4), %edx
	movl	%edx, 36(%rcx,%rax,4)
	movq	-312(%rbp), %rax        # 8-byte Reload
	shlq	$4, %rax
	movl	36(%rcx,%rax,4), %edx
	movq	-312(%rbp), %rax        # 8-byte Reload
	shlq	$4, %rax
	addl	40(%rcx,%rax,4), %edx
	movl	%edx, 40(%rcx,%rax,4)
	movq	-312(%rbp), %rax        # 8-byte Reload
	shlq	$4, %rax
	movl	40(%rcx,%rax,4), %edx
	movq	-312(%rbp), %rax        # 8-byte Reload
	shlq	$4, %rax
	addl	44(%rcx,%rax,4), %edx
	movl	%edx, 44(%rcx,%rax,4)
	movq	-312(%rbp), %rax        # 8-byte Reload
	shlq	$4, %rax
	movl	44(%rcx,%rax,4), %edx
	movq	-312(%rbp), %rax        # 8-byte Reload
	shlq	$4, %rax
	addl	48(%rcx,%rax,4), %edx
	movl	%edx, 48(%rcx,%rax,4)
	movq	-312(%rbp), %rax        # 8-byte Reload
	shlq	$4, %rax
	movl	48(%rcx,%rax,4), %edx
	movq	-312(%rbp), %rax        # 8-byte Reload
	shlq	$4, %rax
	addl	52(%rcx,%rax,4), %edx
	movl	%edx, 52(%rcx,%rax,4)
	movq	-312(%rbp), %rax        # 8-byte Reload
	shlq	$4, %rax
	movl	52(%rcx,%rax,4), %edx
	movq	-312(%rbp), %rax        # 8-byte Reload
	shlq	$4, %rax
	addl	56(%rcx,%rax,4), %edx
	movl	%edx, 56(%rcx,%rax,4)
	movq	-312(%rbp), %rax        # 8-byte Reload
	shlq	$4, %rax
	movl	56(%rcx,%rax,4), %edx
	movq	-312(%rbp), %rax        # 8-byte Reload
	shlq	$4, %rax
	addl	60(%rcx,%rax,4), %edx
	movl	%edx, 60(%rcx,%rax,4)
	movq	-312(%rbp), %rax        # 8-byte Reload
	addq	$1, %rax
	movq	%rax, -320(%rbp)        # 8-byte Spill
# %bb.40:                               # %for.body3.37
                                        #   in Loop: Header=BB1_1 Depth=1
	movq	-320(%rbp), %rax        # 8-byte Reload
	shlq	$4, %rax
	movq	-8(%rbp), %rcx          # 8-byte Reload
	movl	(%rcx,%rax,4), %edx
	movq	-320(%rbp), %rax        # 8-byte Reload
	shlq	$4, %rax
	addl	4(%rcx,%rax,4), %edx
	movl	%edx, 4(%rcx,%rax,4)
	movq	-320(%rbp), %rax        # 8-byte Reload
	shlq	$4, %rax
	movl	4(%rcx,%rax,4), %edx
	movq	-320(%rbp), %rax        # 8-byte Reload
	shlq	$4, %rax
	addl	8(%rcx,%rax,4), %edx
	movl	%edx, 8(%rcx,%rax,4)
	movq	-320(%rbp), %rax        # 8-byte Reload
	shlq	$4, %rax
	movl	8(%rcx,%rax,4), %edx
	movq	-320(%rbp), %rax        # 8-byte Reload
	shlq	$4, %rax
	addl	12(%rcx,%rax,4), %edx
	movl	%edx, 12(%rcx,%rax,4)
	movq	-320(%rbp), %rax        # 8-byte Reload
	shlq	$4, %rax
	movl	12(%rcx,%rax,4), %edx
	movq	-320(%rbp), %rax        # 8-byte Reload
	shlq	$4, %rax
	addl	16(%rcx,%rax,4), %edx
	movl	%edx, 16(%rcx,%rax,4)
	movq	-320(%rbp), %rax        # 8-byte Reload
	shlq	$4, %rax
	movl	16(%rcx,%rax,4), %edx
	movq	-320(%rbp), %rax        # 8-byte Reload
	shlq	$4, %rax
	addl	20(%rcx,%rax,4), %edx
	movl	%edx, 20(%rcx,%rax,4)
	movq	-320(%rbp), %rax        # 8-byte Reload
	shlq	$4, %rax
	movl	20(%rcx,%rax,4), %edx
	movq	-320(%rbp), %rax        # 8-byte Reload
	shlq	$4, %rax
	addl	24(%rcx,%rax,4), %edx
	movl	%edx, 24(%rcx,%rax,4)
	movq	-320(%rbp), %rax        # 8-byte Reload
	shlq	$4, %rax
	movl	24(%rcx,%rax,4), %edx
	movq	-320(%rbp), %rax        # 8-byte Reload
	shlq	$4, %rax
	addl	28(%rcx,%rax,4), %edx
	movl	%edx, 28(%rcx,%rax,4)
	movq	-320(%rbp), %rax        # 8-byte Reload
	shlq	$4, %rax
	movl	28(%rcx,%rax,4), %edx
	movq	-320(%rbp), %rax        # 8-byte Reload
	shlq	$4, %rax
	addl	32(%rcx,%rax,4), %edx
	movl	%edx, 32(%rcx,%rax,4)
	movq	-320(%rbp), %rax        # 8-byte Reload
	shlq	$4, %rax
	movl	32(%rcx,%rax,4), %edx
	movq	-320(%rbp), %rax        # 8-byte Reload
	shlq	$4, %rax
	addl	36(%rcx,%rax,4), %edx
	movl	%edx, 36(%rcx,%rax,4)
	movq	-320(%rbp), %rax        # 8-byte Reload
	shlq	$4, %rax
	movl	36(%rcx,%rax,4), %edx
	movq	-320(%rbp), %rax        # 8-byte Reload
	shlq	$4, %rax
	addl	40(%rcx,%rax,4), %edx
	movl	%edx, 40(%rcx,%rax,4)
	movq	-320(%rbp), %rax        # 8-byte Reload
	shlq	$4, %rax
	movl	40(%rcx,%rax,4), %edx
	movq	-320(%rbp), %rax        # 8-byte Reload
	shlq	$4, %rax
	addl	44(%rcx,%rax,4), %edx
	movl	%edx, 44(%rcx,%rax,4)
	movq	-320(%rbp), %rax        # 8-byte Reload
	shlq	$4, %rax
	movl	44(%rcx,%rax,4), %edx
	movq	-320(%rbp), %rax        # 8-byte Reload
	shlq	$4, %rax
	addl	48(%rcx,%rax,4), %edx
	movl	%edx, 48(%rcx,%rax,4)
	movq	-320(%rbp), %rax        # 8-byte Reload
	shlq	$4, %rax
	movl	48(%rcx,%rax,4), %edx
	movq	-320(%rbp), %rax        # 8-byte Reload
	shlq	$4, %rax
	addl	52(%rcx,%rax,4), %edx
	movl	%edx, 52(%rcx,%rax,4)
	movq	-320(%rbp), %rax        # 8-byte Reload
	shlq	$4, %rax
	movl	52(%rcx,%rax,4), %edx
	movq	-320(%rbp), %rax        # 8-byte Reload
	shlq	$4, %rax
	addl	56(%rcx,%rax,4), %edx
	movl	%edx, 56(%rcx,%rax,4)
	movq	-320(%rbp), %rax        # 8-byte Reload
	shlq	$4, %rax
	movl	56(%rcx,%rax,4), %edx
	movq	-320(%rbp), %rax        # 8-byte Reload
	shlq	$4, %rax
	addl	60(%rcx,%rax,4), %edx
	movl	%edx, 60(%rcx,%rax,4)
	movq	-320(%rbp), %rax        # 8-byte Reload
	addq	$1, %rax
	movq	%rax, -328(%rbp)        # 8-byte Spill
# %bb.41:                               # %for.body3.38
                                        #   in Loop: Header=BB1_1 Depth=1
	movq	-328(%rbp), %rax        # 8-byte Reload
	shlq	$4, %rax
	movq	-8(%rbp), %rcx          # 8-byte Reload
	movl	(%rcx,%rax,4), %edx
	movq	-328(%rbp), %rax        # 8-byte Reload
	shlq	$4, %rax
	addl	4(%rcx,%rax,4), %edx
	movl	%edx, 4(%rcx,%rax,4)
	movq	-328(%rbp), %rax        # 8-byte Reload
	shlq	$4, %rax
	movl	4(%rcx,%rax,4), %edx
	movq	-328(%rbp), %rax        # 8-byte Reload
	shlq	$4, %rax
	addl	8(%rcx,%rax,4), %edx
	movl	%edx, 8(%rcx,%rax,4)
	movq	-328(%rbp), %rax        # 8-byte Reload
	shlq	$4, %rax
	movl	8(%rcx,%rax,4), %edx
	movq	-328(%rbp), %rax        # 8-byte Reload
	shlq	$4, %rax
	addl	12(%rcx,%rax,4), %edx
	movl	%edx, 12(%rcx,%rax,4)
	movq	-328(%rbp), %rax        # 8-byte Reload
	shlq	$4, %rax
	movl	12(%rcx,%rax,4), %edx
	movq	-328(%rbp), %rax        # 8-byte Reload
	shlq	$4, %rax
	addl	16(%rcx,%rax,4), %edx
	movl	%edx, 16(%rcx,%rax,4)
	movq	-328(%rbp), %rax        # 8-byte Reload
	shlq	$4, %rax
	movl	16(%rcx,%rax,4), %edx
	movq	-328(%rbp), %rax        # 8-byte Reload
	shlq	$4, %rax
	addl	20(%rcx,%rax,4), %edx
	movl	%edx, 20(%rcx,%rax,4)
	movq	-328(%rbp), %rax        # 8-byte Reload
	shlq	$4, %rax
	movl	20(%rcx,%rax,4), %edx
	movq	-328(%rbp), %rax        # 8-byte Reload
	shlq	$4, %rax
	addl	24(%rcx,%rax,4), %edx
	movl	%edx, 24(%rcx,%rax,4)
	movq	-328(%rbp), %rax        # 8-byte Reload
	shlq	$4, %rax
	movl	24(%rcx,%rax,4), %edx
	movq	-328(%rbp), %rax        # 8-byte Reload
	shlq	$4, %rax
	addl	28(%rcx,%rax,4), %edx
	movl	%edx, 28(%rcx,%rax,4)
	movq	-328(%rbp), %rax        # 8-byte Reload
	shlq	$4, %rax
	movl	28(%rcx,%rax,4), %edx
	movq	-328(%rbp), %rax        # 8-byte Reload
	shlq	$4, %rax
	addl	32(%rcx,%rax,4), %edx
	movl	%edx, 32(%rcx,%rax,4)
	movq	-328(%rbp), %rax        # 8-byte Reload
	shlq	$4, %rax
	movl	32(%rcx,%rax,4), %edx
	movq	-328(%rbp), %rax        # 8-byte Reload
	shlq	$4, %rax
	addl	36(%rcx,%rax,4), %edx
	movl	%edx, 36(%rcx,%rax,4)
	movq	-328(%rbp), %rax        # 8-byte Reload
	shlq	$4, %rax
	movl	36(%rcx,%rax,4), %edx
	movq	-328(%rbp), %rax        # 8-byte Reload
	shlq	$4, %rax
	addl	40(%rcx,%rax,4), %edx
	movl	%edx, 40(%rcx,%rax,4)
	movq	-328(%rbp), %rax        # 8-byte Reload
	shlq	$4, %rax
	movl	40(%rcx,%rax,4), %edx
	movq	-328(%rbp), %rax        # 8-byte Reload
	shlq	$4, %rax
	addl	44(%rcx,%rax,4), %edx
	movl	%edx, 44(%rcx,%rax,4)
	movq	-328(%rbp), %rax        # 8-byte Reload
	shlq	$4, %rax
	movl	44(%rcx,%rax,4), %edx
	movq	-328(%rbp), %rax        # 8-byte Reload
	shlq	$4, %rax
	addl	48(%rcx,%rax,4), %edx
	movl	%edx, 48(%rcx,%rax,4)
	movq	-328(%rbp), %rax        # 8-byte Reload
	shlq	$4, %rax
	movl	48(%rcx,%rax,4), %edx
	movq	-328(%rbp), %rax        # 8-byte Reload
	shlq	$4, %rax
	addl	52(%rcx,%rax,4), %edx
	movl	%edx, 52(%rcx,%rax,4)
	movq	-328(%rbp), %rax        # 8-byte Reload
	shlq	$4, %rax
	movl	52(%rcx,%rax,4), %edx
	movq	-328(%rbp), %rax        # 8-byte Reload
	shlq	$4, %rax
	addl	56(%rcx,%rax,4), %edx
	movl	%edx, 56(%rcx,%rax,4)
	movq	-328(%rbp), %rax        # 8-byte Reload
	shlq	$4, %rax
	movl	56(%rcx,%rax,4), %edx
	movq	-328(%rbp), %rax        # 8-byte Reload
	shlq	$4, %rax
	addl	60(%rcx,%rax,4), %edx
	movl	%edx, 60(%rcx,%rax,4)
	movq	-328(%rbp), %rax        # 8-byte Reload
	addq	$1, %rax
	movq	%rax, -336(%rbp)        # 8-byte Spill
# %bb.42:                               # %for.body3.39
                                        #   in Loop: Header=BB1_1 Depth=1
	movq	-336(%rbp), %rax        # 8-byte Reload
	shlq	$4, %rax
	movq	-8(%rbp), %rcx          # 8-byte Reload
	movl	(%rcx,%rax,4), %edx
	movq	-336(%rbp), %rax        # 8-byte Reload
	shlq	$4, %rax
	addl	4(%rcx,%rax,4), %edx
	movl	%edx, 4(%rcx,%rax,4)
	movq	-336(%rbp), %rax        # 8-byte Reload
	shlq	$4, %rax
	movl	4(%rcx,%rax,4), %edx
	movq	-336(%rbp), %rax        # 8-byte Reload
	shlq	$4, %rax
	addl	8(%rcx,%rax,4), %edx
	movl	%edx, 8(%rcx,%rax,4)
	movq	-336(%rbp), %rax        # 8-byte Reload
	shlq	$4, %rax
	movl	8(%rcx,%rax,4), %edx
	movq	-336(%rbp), %rax        # 8-byte Reload
	shlq	$4, %rax
	addl	12(%rcx,%rax,4), %edx
	movl	%edx, 12(%rcx,%rax,4)
	movq	-336(%rbp), %rax        # 8-byte Reload
	shlq	$4, %rax
	movl	12(%rcx,%rax,4), %edx
	movq	-336(%rbp), %rax        # 8-byte Reload
	shlq	$4, %rax
	addl	16(%rcx,%rax,4), %edx
	movl	%edx, 16(%rcx,%rax,4)
	movq	-336(%rbp), %rax        # 8-byte Reload
	shlq	$4, %rax
	movl	16(%rcx,%rax,4), %edx
	movq	-336(%rbp), %rax        # 8-byte Reload
	shlq	$4, %rax
	addl	20(%rcx,%rax,4), %edx
	movl	%edx, 20(%rcx,%rax,4)
	movq	-336(%rbp), %rax        # 8-byte Reload
	shlq	$4, %rax
	movl	20(%rcx,%rax,4), %edx
	movq	-336(%rbp), %rax        # 8-byte Reload
	shlq	$4, %rax
	addl	24(%rcx,%rax,4), %edx
	movl	%edx, 24(%rcx,%rax,4)
	movq	-336(%rbp), %rax        # 8-byte Reload
	shlq	$4, %rax
	movl	24(%rcx,%rax,4), %edx
	movq	-336(%rbp), %rax        # 8-byte Reload
	shlq	$4, %rax
	addl	28(%rcx,%rax,4), %edx
	movl	%edx, 28(%rcx,%rax,4)
	movq	-336(%rbp), %rax        # 8-byte Reload
	shlq	$4, %rax
	movl	28(%rcx,%rax,4), %edx
	movq	-336(%rbp), %rax        # 8-byte Reload
	shlq	$4, %rax
	addl	32(%rcx,%rax,4), %edx
	movl	%edx, 32(%rcx,%rax,4)
	movq	-336(%rbp), %rax        # 8-byte Reload
	shlq	$4, %rax
	movl	32(%rcx,%rax,4), %edx
	movq	-336(%rbp), %rax        # 8-byte Reload
	shlq	$4, %rax
	addl	36(%rcx,%rax,4), %edx
	movl	%edx, 36(%rcx,%rax,4)
	movq	-336(%rbp), %rax        # 8-byte Reload
	shlq	$4, %rax
	movl	36(%rcx,%rax,4), %edx
	movq	-336(%rbp), %rax        # 8-byte Reload
	shlq	$4, %rax
	addl	40(%rcx,%rax,4), %edx
	movl	%edx, 40(%rcx,%rax,4)
	movq	-336(%rbp), %rax        # 8-byte Reload
	shlq	$4, %rax
	movl	40(%rcx,%rax,4), %edx
	movq	-336(%rbp), %rax        # 8-byte Reload
	shlq	$4, %rax
	addl	44(%rcx,%rax,4), %edx
	movl	%edx, 44(%rcx,%rax,4)
	movq	-336(%rbp), %rax        # 8-byte Reload
	shlq	$4, %rax
	movl	44(%rcx,%rax,4), %edx
	movq	-336(%rbp), %rax        # 8-byte Reload
	shlq	$4, %rax
	addl	48(%rcx,%rax,4), %edx
	movl	%edx, 48(%rcx,%rax,4)
	movq	-336(%rbp), %rax        # 8-byte Reload
	shlq	$4, %rax
	movl	48(%rcx,%rax,4), %edx
	movq	-336(%rbp), %rax        # 8-byte Reload
	shlq	$4, %rax
	addl	52(%rcx,%rax,4), %edx
	movl	%edx, 52(%rcx,%rax,4)
	movq	-336(%rbp), %rax        # 8-byte Reload
	shlq	$4, %rax
	movl	52(%rcx,%rax,4), %edx
	movq	-336(%rbp), %rax        # 8-byte Reload
	shlq	$4, %rax
	addl	56(%rcx,%rax,4), %edx
	movl	%edx, 56(%rcx,%rax,4)
	movq	-336(%rbp), %rax        # 8-byte Reload
	shlq	$4, %rax
	movl	56(%rcx,%rax,4), %edx
	movq	-336(%rbp), %rax        # 8-byte Reload
	shlq	$4, %rax
	addl	60(%rcx,%rax,4), %edx
	movl	%edx, 60(%rcx,%rax,4)
	movq	-336(%rbp), %rax        # 8-byte Reload
	addq	$1, %rax
	movq	%rax, -344(%rbp)        # 8-byte Spill
# %bb.43:                               # %for.body3.40
                                        #   in Loop: Header=BB1_1 Depth=1
	movq	-344(%rbp), %rax        # 8-byte Reload
	shlq	$4, %rax
	movq	-8(%rbp), %rcx          # 8-byte Reload
	movl	(%rcx,%rax,4), %edx
	movq	-344(%rbp), %rax        # 8-byte Reload
	shlq	$4, %rax
	addl	4(%rcx,%rax,4), %edx
	movl	%edx, 4(%rcx,%rax,4)
	movq	-344(%rbp), %rax        # 8-byte Reload
	shlq	$4, %rax
	movl	4(%rcx,%rax,4), %edx
	movq	-344(%rbp), %rax        # 8-byte Reload
	shlq	$4, %rax
	addl	8(%rcx,%rax,4), %edx
	movl	%edx, 8(%rcx,%rax,4)
	movq	-344(%rbp), %rax        # 8-byte Reload
	shlq	$4, %rax
	movl	8(%rcx,%rax,4), %edx
	movq	-344(%rbp), %rax        # 8-byte Reload
	shlq	$4, %rax
	addl	12(%rcx,%rax,4), %edx
	movl	%edx, 12(%rcx,%rax,4)
	movq	-344(%rbp), %rax        # 8-byte Reload
	shlq	$4, %rax
	movl	12(%rcx,%rax,4), %edx
	movq	-344(%rbp), %rax        # 8-byte Reload
	shlq	$4, %rax
	addl	16(%rcx,%rax,4), %edx
	movl	%edx, 16(%rcx,%rax,4)
	movq	-344(%rbp), %rax        # 8-byte Reload
	shlq	$4, %rax
	movl	16(%rcx,%rax,4), %edx
	movq	-344(%rbp), %rax        # 8-byte Reload
	shlq	$4, %rax
	addl	20(%rcx,%rax,4), %edx
	movl	%edx, 20(%rcx,%rax,4)
	movq	-344(%rbp), %rax        # 8-byte Reload
	shlq	$4, %rax
	movl	20(%rcx,%rax,4), %edx
	movq	-344(%rbp), %rax        # 8-byte Reload
	shlq	$4, %rax
	addl	24(%rcx,%rax,4), %edx
	movl	%edx, 24(%rcx,%rax,4)
	movq	-344(%rbp), %rax        # 8-byte Reload
	shlq	$4, %rax
	movl	24(%rcx,%rax,4), %edx
	movq	-344(%rbp), %rax        # 8-byte Reload
	shlq	$4, %rax
	addl	28(%rcx,%rax,4), %edx
	movl	%edx, 28(%rcx,%rax,4)
	movq	-344(%rbp), %rax        # 8-byte Reload
	shlq	$4, %rax
	movl	28(%rcx,%rax,4), %edx
	movq	-344(%rbp), %rax        # 8-byte Reload
	shlq	$4, %rax
	addl	32(%rcx,%rax,4), %edx
	movl	%edx, 32(%rcx,%rax,4)
	movq	-344(%rbp), %rax        # 8-byte Reload
	shlq	$4, %rax
	movl	32(%rcx,%rax,4), %edx
	movq	-344(%rbp), %rax        # 8-byte Reload
	shlq	$4, %rax
	addl	36(%rcx,%rax,4), %edx
	movl	%edx, 36(%rcx,%rax,4)
	movq	-344(%rbp), %rax        # 8-byte Reload
	shlq	$4, %rax
	movl	36(%rcx,%rax,4), %edx
	movq	-344(%rbp), %rax        # 8-byte Reload
	shlq	$4, %rax
	addl	40(%rcx,%rax,4), %edx
	movl	%edx, 40(%rcx,%rax,4)
	movq	-344(%rbp), %rax        # 8-byte Reload
	shlq	$4, %rax
	movl	40(%rcx,%rax,4), %edx
	movq	-344(%rbp), %rax        # 8-byte Reload
	shlq	$4, %rax
	addl	44(%rcx,%rax,4), %edx
	movl	%edx, 44(%rcx,%rax,4)
	movq	-344(%rbp), %rax        # 8-byte Reload
	shlq	$4, %rax
	movl	44(%rcx,%rax,4), %edx
	movq	-344(%rbp), %rax        # 8-byte Reload
	shlq	$4, %rax
	addl	48(%rcx,%rax,4), %edx
	movl	%edx, 48(%rcx,%rax,4)
	movq	-344(%rbp), %rax        # 8-byte Reload
	shlq	$4, %rax
	movl	48(%rcx,%rax,4), %edx
	movq	-344(%rbp), %rax        # 8-byte Reload
	shlq	$4, %rax
	addl	52(%rcx,%rax,4), %edx
	movl	%edx, 52(%rcx,%rax,4)
	movq	-344(%rbp), %rax        # 8-byte Reload
	shlq	$4, %rax
	movl	52(%rcx,%rax,4), %edx
	movq	-344(%rbp), %rax        # 8-byte Reload
	shlq	$4, %rax
	addl	56(%rcx,%rax,4), %edx
	movl	%edx, 56(%rcx,%rax,4)
	movq	-344(%rbp), %rax        # 8-byte Reload
	shlq	$4, %rax
	movl	56(%rcx,%rax,4), %edx
	movq	-344(%rbp), %rax        # 8-byte Reload
	shlq	$4, %rax
	addl	60(%rcx,%rax,4), %edx
	movl	%edx, 60(%rcx,%rax,4)
	movq	-344(%rbp), %rax        # 8-byte Reload
	addq	$1, %rax
	movq	%rax, -352(%rbp)        # 8-byte Spill
# %bb.44:                               # %for.body3.41
                                        #   in Loop: Header=BB1_1 Depth=1
	movq	-352(%rbp), %rax        # 8-byte Reload
	shlq	$4, %rax
	movq	-8(%rbp), %rcx          # 8-byte Reload
	movl	(%rcx,%rax,4), %edx
	movq	-352(%rbp), %rax        # 8-byte Reload
	shlq	$4, %rax
	addl	4(%rcx,%rax,4), %edx
	movl	%edx, 4(%rcx,%rax,4)
	movq	-352(%rbp), %rax        # 8-byte Reload
	shlq	$4, %rax
	movl	4(%rcx,%rax,4), %edx
	movq	-352(%rbp), %rax        # 8-byte Reload
	shlq	$4, %rax
	addl	8(%rcx,%rax,4), %edx
	movl	%edx, 8(%rcx,%rax,4)
	movq	-352(%rbp), %rax        # 8-byte Reload
	shlq	$4, %rax
	movl	8(%rcx,%rax,4), %edx
	movq	-352(%rbp), %rax        # 8-byte Reload
	shlq	$4, %rax
	addl	12(%rcx,%rax,4), %edx
	movl	%edx, 12(%rcx,%rax,4)
	movq	-352(%rbp), %rax        # 8-byte Reload
	shlq	$4, %rax
	movl	12(%rcx,%rax,4), %edx
	movq	-352(%rbp), %rax        # 8-byte Reload
	shlq	$4, %rax
	addl	16(%rcx,%rax,4), %edx
	movl	%edx, 16(%rcx,%rax,4)
	movq	-352(%rbp), %rax        # 8-byte Reload
	shlq	$4, %rax
	movl	16(%rcx,%rax,4), %edx
	movq	-352(%rbp), %rax        # 8-byte Reload
	shlq	$4, %rax
	addl	20(%rcx,%rax,4), %edx
	movl	%edx, 20(%rcx,%rax,4)
	movq	-352(%rbp), %rax        # 8-byte Reload
	shlq	$4, %rax
	movl	20(%rcx,%rax,4), %edx
	movq	-352(%rbp), %rax        # 8-byte Reload
	shlq	$4, %rax
	addl	24(%rcx,%rax,4), %edx
	movl	%edx, 24(%rcx,%rax,4)
	movq	-352(%rbp), %rax        # 8-byte Reload
	shlq	$4, %rax
	movl	24(%rcx,%rax,4), %edx
	movq	-352(%rbp), %rax        # 8-byte Reload
	shlq	$4, %rax
	addl	28(%rcx,%rax,4), %edx
	movl	%edx, 28(%rcx,%rax,4)
	movq	-352(%rbp), %rax        # 8-byte Reload
	shlq	$4, %rax
	movl	28(%rcx,%rax,4), %edx
	movq	-352(%rbp), %rax        # 8-byte Reload
	shlq	$4, %rax
	addl	32(%rcx,%rax,4), %edx
	movl	%edx, 32(%rcx,%rax,4)
	movq	-352(%rbp), %rax        # 8-byte Reload
	shlq	$4, %rax
	movl	32(%rcx,%rax,4), %edx
	movq	-352(%rbp), %rax        # 8-byte Reload
	shlq	$4, %rax
	addl	36(%rcx,%rax,4), %edx
	movl	%edx, 36(%rcx,%rax,4)
	movq	-352(%rbp), %rax        # 8-byte Reload
	shlq	$4, %rax
	movl	36(%rcx,%rax,4), %edx
	movq	-352(%rbp), %rax        # 8-byte Reload
	shlq	$4, %rax
	addl	40(%rcx,%rax,4), %edx
	movl	%edx, 40(%rcx,%rax,4)
	movq	-352(%rbp), %rax        # 8-byte Reload
	shlq	$4, %rax
	movl	40(%rcx,%rax,4), %edx
	movq	-352(%rbp), %rax        # 8-byte Reload
	shlq	$4, %rax
	addl	44(%rcx,%rax,4), %edx
	movl	%edx, 44(%rcx,%rax,4)
	movq	-352(%rbp), %rax        # 8-byte Reload
	shlq	$4, %rax
	movl	44(%rcx,%rax,4), %edx
	movq	-352(%rbp), %rax        # 8-byte Reload
	shlq	$4, %rax
	addl	48(%rcx,%rax,4), %edx
	movl	%edx, 48(%rcx,%rax,4)
	movq	-352(%rbp), %rax        # 8-byte Reload
	shlq	$4, %rax
	movl	48(%rcx,%rax,4), %edx
	movq	-352(%rbp), %rax        # 8-byte Reload
	shlq	$4, %rax
	addl	52(%rcx,%rax,4), %edx
	movl	%edx, 52(%rcx,%rax,4)
	movq	-352(%rbp), %rax        # 8-byte Reload
	shlq	$4, %rax
	movl	52(%rcx,%rax,4), %edx
	movq	-352(%rbp), %rax        # 8-byte Reload
	shlq	$4, %rax
	addl	56(%rcx,%rax,4), %edx
	movl	%edx, 56(%rcx,%rax,4)
	movq	-352(%rbp), %rax        # 8-byte Reload
	shlq	$4, %rax
	movl	56(%rcx,%rax,4), %edx
	movq	-352(%rbp), %rax        # 8-byte Reload
	shlq	$4, %rax
	addl	60(%rcx,%rax,4), %edx
	movl	%edx, 60(%rcx,%rax,4)
	movq	-352(%rbp), %rax        # 8-byte Reload
	addq	$1, %rax
	movq	%rax, -360(%rbp)        # 8-byte Spill
# %bb.45:                               # %for.body3.42
                                        #   in Loop: Header=BB1_1 Depth=1
	movq	-360(%rbp), %rax        # 8-byte Reload
	shlq	$4, %rax
	movq	-8(%rbp), %rcx          # 8-byte Reload
	movl	(%rcx,%rax,4), %edx
	movq	-360(%rbp), %rax        # 8-byte Reload
	shlq	$4, %rax
	addl	4(%rcx,%rax,4), %edx
	movl	%edx, 4(%rcx,%rax,4)
	movq	-360(%rbp), %rax        # 8-byte Reload
	shlq	$4, %rax
	movl	4(%rcx,%rax,4), %edx
	movq	-360(%rbp), %rax        # 8-byte Reload
	shlq	$4, %rax
	addl	8(%rcx,%rax,4), %edx
	movl	%edx, 8(%rcx,%rax,4)
	movq	-360(%rbp), %rax        # 8-byte Reload
	shlq	$4, %rax
	movl	8(%rcx,%rax,4), %edx
	movq	-360(%rbp), %rax        # 8-byte Reload
	shlq	$4, %rax
	addl	12(%rcx,%rax,4), %edx
	movl	%edx, 12(%rcx,%rax,4)
	movq	-360(%rbp), %rax        # 8-byte Reload
	shlq	$4, %rax
	movl	12(%rcx,%rax,4), %edx
	movq	-360(%rbp), %rax        # 8-byte Reload
	shlq	$4, %rax
	addl	16(%rcx,%rax,4), %edx
	movl	%edx, 16(%rcx,%rax,4)
	movq	-360(%rbp), %rax        # 8-byte Reload
	shlq	$4, %rax
	movl	16(%rcx,%rax,4), %edx
	movq	-360(%rbp), %rax        # 8-byte Reload
	shlq	$4, %rax
	addl	20(%rcx,%rax,4), %edx
	movl	%edx, 20(%rcx,%rax,4)
	movq	-360(%rbp), %rax        # 8-byte Reload
	shlq	$4, %rax
	movl	20(%rcx,%rax,4), %edx
	movq	-360(%rbp), %rax        # 8-byte Reload
	shlq	$4, %rax
	addl	24(%rcx,%rax,4), %edx
	movl	%edx, 24(%rcx,%rax,4)
	movq	-360(%rbp), %rax        # 8-byte Reload
	shlq	$4, %rax
	movl	24(%rcx,%rax,4), %edx
	movq	-360(%rbp), %rax        # 8-byte Reload
	shlq	$4, %rax
	addl	28(%rcx,%rax,4), %edx
	movl	%edx, 28(%rcx,%rax,4)
	movq	-360(%rbp), %rax        # 8-byte Reload
	shlq	$4, %rax
	movl	28(%rcx,%rax,4), %edx
	movq	-360(%rbp), %rax        # 8-byte Reload
	shlq	$4, %rax
	addl	32(%rcx,%rax,4), %edx
	movl	%edx, 32(%rcx,%rax,4)
	movq	-360(%rbp), %rax        # 8-byte Reload
	shlq	$4, %rax
	movl	32(%rcx,%rax,4), %edx
	movq	-360(%rbp), %rax        # 8-byte Reload
	shlq	$4, %rax
	addl	36(%rcx,%rax,4), %edx
	movl	%edx, 36(%rcx,%rax,4)
	movq	-360(%rbp), %rax        # 8-byte Reload
	shlq	$4, %rax
	movl	36(%rcx,%rax,4), %edx
	movq	-360(%rbp), %rax        # 8-byte Reload
	shlq	$4, %rax
	addl	40(%rcx,%rax,4), %edx
	movl	%edx, 40(%rcx,%rax,4)
	movq	-360(%rbp), %rax        # 8-byte Reload
	shlq	$4, %rax
	movl	40(%rcx,%rax,4), %edx
	movq	-360(%rbp), %rax        # 8-byte Reload
	shlq	$4, %rax
	addl	44(%rcx,%rax,4), %edx
	movl	%edx, 44(%rcx,%rax,4)
	movq	-360(%rbp), %rax        # 8-byte Reload
	shlq	$4, %rax
	movl	44(%rcx,%rax,4), %edx
	movq	-360(%rbp), %rax        # 8-byte Reload
	shlq	$4, %rax
	addl	48(%rcx,%rax,4), %edx
	movl	%edx, 48(%rcx,%rax,4)
	movq	-360(%rbp), %rax        # 8-byte Reload
	shlq	$4, %rax
	movl	48(%rcx,%rax,4), %edx
	movq	-360(%rbp), %rax        # 8-byte Reload
	shlq	$4, %rax
	addl	52(%rcx,%rax,4), %edx
	movl	%edx, 52(%rcx,%rax,4)
	movq	-360(%rbp), %rax        # 8-byte Reload
	shlq	$4, %rax
	movl	52(%rcx,%rax,4), %edx
	movq	-360(%rbp), %rax        # 8-byte Reload
	shlq	$4, %rax
	addl	56(%rcx,%rax,4), %edx
	movl	%edx, 56(%rcx,%rax,4)
	movq	-360(%rbp), %rax        # 8-byte Reload
	shlq	$4, %rax
	movl	56(%rcx,%rax,4), %edx
	movq	-360(%rbp), %rax        # 8-byte Reload
	shlq	$4, %rax
	addl	60(%rcx,%rax,4), %edx
	movl	%edx, 60(%rcx,%rax,4)
	movq	-360(%rbp), %rax        # 8-byte Reload
	addq	$1, %rax
	movq	%rax, -368(%rbp)        # 8-byte Spill
# %bb.46:                               # %for.body3.43
                                        #   in Loop: Header=BB1_1 Depth=1
	movq	-368(%rbp), %rax        # 8-byte Reload
	shlq	$4, %rax
	movq	-8(%rbp), %rcx          # 8-byte Reload
	movl	(%rcx,%rax,4), %edx
	movq	-368(%rbp), %rax        # 8-byte Reload
	shlq	$4, %rax
	addl	4(%rcx,%rax,4), %edx
	movl	%edx, 4(%rcx,%rax,4)
	movq	-368(%rbp), %rax        # 8-byte Reload
	shlq	$4, %rax
	movl	4(%rcx,%rax,4), %edx
	movq	-368(%rbp), %rax        # 8-byte Reload
	shlq	$4, %rax
	addl	8(%rcx,%rax,4), %edx
	movl	%edx, 8(%rcx,%rax,4)
	movq	-368(%rbp), %rax        # 8-byte Reload
	shlq	$4, %rax
	movl	8(%rcx,%rax,4), %edx
	movq	-368(%rbp), %rax        # 8-byte Reload
	shlq	$4, %rax
	addl	12(%rcx,%rax,4), %edx
	movl	%edx, 12(%rcx,%rax,4)
	movq	-368(%rbp), %rax        # 8-byte Reload
	shlq	$4, %rax
	movl	12(%rcx,%rax,4), %edx
	movq	-368(%rbp), %rax        # 8-byte Reload
	shlq	$4, %rax
	addl	16(%rcx,%rax,4), %edx
	movl	%edx, 16(%rcx,%rax,4)
	movq	-368(%rbp), %rax        # 8-byte Reload
	shlq	$4, %rax
	movl	16(%rcx,%rax,4), %edx
	movq	-368(%rbp), %rax        # 8-byte Reload
	shlq	$4, %rax
	addl	20(%rcx,%rax,4), %edx
	movl	%edx, 20(%rcx,%rax,4)
	movq	-368(%rbp), %rax        # 8-byte Reload
	shlq	$4, %rax
	movl	20(%rcx,%rax,4), %edx
	movq	-368(%rbp), %rax        # 8-byte Reload
	shlq	$4, %rax
	addl	24(%rcx,%rax,4), %edx
	movl	%edx, 24(%rcx,%rax,4)
	movq	-368(%rbp), %rax        # 8-byte Reload
	shlq	$4, %rax
	movl	24(%rcx,%rax,4), %edx
	movq	-368(%rbp), %rax        # 8-byte Reload
	shlq	$4, %rax
	addl	28(%rcx,%rax,4), %edx
	movl	%edx, 28(%rcx,%rax,4)
	movq	-368(%rbp), %rax        # 8-byte Reload
	shlq	$4, %rax
	movl	28(%rcx,%rax,4), %edx
	movq	-368(%rbp), %rax        # 8-byte Reload
	shlq	$4, %rax
	addl	32(%rcx,%rax,4), %edx
	movl	%edx, 32(%rcx,%rax,4)
	movq	-368(%rbp), %rax        # 8-byte Reload
	shlq	$4, %rax
	movl	32(%rcx,%rax,4), %edx
	movq	-368(%rbp), %rax        # 8-byte Reload
	shlq	$4, %rax
	addl	36(%rcx,%rax,4), %edx
	movl	%edx, 36(%rcx,%rax,4)
	movq	-368(%rbp), %rax        # 8-byte Reload
	shlq	$4, %rax
	movl	36(%rcx,%rax,4), %edx
	movq	-368(%rbp), %rax        # 8-byte Reload
	shlq	$4, %rax
	addl	40(%rcx,%rax,4), %edx
	movl	%edx, 40(%rcx,%rax,4)
	movq	-368(%rbp), %rax        # 8-byte Reload
	shlq	$4, %rax
	movl	40(%rcx,%rax,4), %edx
	movq	-368(%rbp), %rax        # 8-byte Reload
	shlq	$4, %rax
	addl	44(%rcx,%rax,4), %edx
	movl	%edx, 44(%rcx,%rax,4)
	movq	-368(%rbp), %rax        # 8-byte Reload
	shlq	$4, %rax
	movl	44(%rcx,%rax,4), %edx
	movq	-368(%rbp), %rax        # 8-byte Reload
	shlq	$4, %rax
	addl	48(%rcx,%rax,4), %edx
	movl	%edx, 48(%rcx,%rax,4)
	movq	-368(%rbp), %rax        # 8-byte Reload
	shlq	$4, %rax
	movl	48(%rcx,%rax,4), %edx
	movq	-368(%rbp), %rax        # 8-byte Reload
	shlq	$4, %rax
	addl	52(%rcx,%rax,4), %edx
	movl	%edx, 52(%rcx,%rax,4)
	movq	-368(%rbp), %rax        # 8-byte Reload
	shlq	$4, %rax
	movl	52(%rcx,%rax,4), %edx
	movq	-368(%rbp), %rax        # 8-byte Reload
	shlq	$4, %rax
	addl	56(%rcx,%rax,4), %edx
	movl	%edx, 56(%rcx,%rax,4)
	movq	-368(%rbp), %rax        # 8-byte Reload
	shlq	$4, %rax
	movl	56(%rcx,%rax,4), %edx
	movq	-368(%rbp), %rax        # 8-byte Reload
	shlq	$4, %rax
	addl	60(%rcx,%rax,4), %edx
	movl	%edx, 60(%rcx,%rax,4)
	movq	-368(%rbp), %rax        # 8-byte Reload
	addq	$1, %rax
	movq	%rax, -376(%rbp)        # 8-byte Spill
# %bb.47:                               # %for.body3.44
                                        #   in Loop: Header=BB1_1 Depth=1
	movq	-376(%rbp), %rax        # 8-byte Reload
	shlq	$4, %rax
	movq	-8(%rbp), %rcx          # 8-byte Reload
	movl	(%rcx,%rax,4), %edx
	movq	-376(%rbp), %rax        # 8-byte Reload
	shlq	$4, %rax
	addl	4(%rcx,%rax,4), %edx
	movl	%edx, 4(%rcx,%rax,4)
	movq	-376(%rbp), %rax        # 8-byte Reload
	shlq	$4, %rax
	movl	4(%rcx,%rax,4), %edx
	movq	-376(%rbp), %rax        # 8-byte Reload
	shlq	$4, %rax
	addl	8(%rcx,%rax,4), %edx
	movl	%edx, 8(%rcx,%rax,4)
	movq	-376(%rbp), %rax        # 8-byte Reload
	shlq	$4, %rax
	movl	8(%rcx,%rax,4), %edx
	movq	-376(%rbp), %rax        # 8-byte Reload
	shlq	$4, %rax
	addl	12(%rcx,%rax,4), %edx
	movl	%edx, 12(%rcx,%rax,4)
	movq	-376(%rbp), %rax        # 8-byte Reload
	shlq	$4, %rax
	movl	12(%rcx,%rax,4), %edx
	movq	-376(%rbp), %rax        # 8-byte Reload
	shlq	$4, %rax
	addl	16(%rcx,%rax,4), %edx
	movl	%edx, 16(%rcx,%rax,4)
	movq	-376(%rbp), %rax        # 8-byte Reload
	shlq	$4, %rax
	movl	16(%rcx,%rax,4), %edx
	movq	-376(%rbp), %rax        # 8-byte Reload
	shlq	$4, %rax
	addl	20(%rcx,%rax,4), %edx
	movl	%edx, 20(%rcx,%rax,4)
	movq	-376(%rbp), %rax        # 8-byte Reload
	shlq	$4, %rax
	movl	20(%rcx,%rax,4), %edx
	movq	-376(%rbp), %rax        # 8-byte Reload
	shlq	$4, %rax
	addl	24(%rcx,%rax,4), %edx
	movl	%edx, 24(%rcx,%rax,4)
	movq	-376(%rbp), %rax        # 8-byte Reload
	shlq	$4, %rax
	movl	24(%rcx,%rax,4), %edx
	movq	-376(%rbp), %rax        # 8-byte Reload
	shlq	$4, %rax
	addl	28(%rcx,%rax,4), %edx
	movl	%edx, 28(%rcx,%rax,4)
	movq	-376(%rbp), %rax        # 8-byte Reload
	shlq	$4, %rax
	movl	28(%rcx,%rax,4), %edx
	movq	-376(%rbp), %rax        # 8-byte Reload
	shlq	$4, %rax
	addl	32(%rcx,%rax,4), %edx
	movl	%edx, 32(%rcx,%rax,4)
	movq	-376(%rbp), %rax        # 8-byte Reload
	shlq	$4, %rax
	movl	32(%rcx,%rax,4), %edx
	movq	-376(%rbp), %rax        # 8-byte Reload
	shlq	$4, %rax
	addl	36(%rcx,%rax,4), %edx
	movl	%edx, 36(%rcx,%rax,4)
	movq	-376(%rbp), %rax        # 8-byte Reload
	shlq	$4, %rax
	movl	36(%rcx,%rax,4), %edx
	movq	-376(%rbp), %rax        # 8-byte Reload
	shlq	$4, %rax
	addl	40(%rcx,%rax,4), %edx
	movl	%edx, 40(%rcx,%rax,4)
	movq	-376(%rbp), %rax        # 8-byte Reload
	shlq	$4, %rax
	movl	40(%rcx,%rax,4), %edx
	movq	-376(%rbp), %rax        # 8-byte Reload
	shlq	$4, %rax
	addl	44(%rcx,%rax,4), %edx
	movl	%edx, 44(%rcx,%rax,4)
	movq	-376(%rbp), %rax        # 8-byte Reload
	shlq	$4, %rax
	movl	44(%rcx,%rax,4), %edx
	movq	-376(%rbp), %rax        # 8-byte Reload
	shlq	$4, %rax
	addl	48(%rcx,%rax,4), %edx
	movl	%edx, 48(%rcx,%rax,4)
	movq	-376(%rbp), %rax        # 8-byte Reload
	shlq	$4, %rax
	movl	48(%rcx,%rax,4), %edx
	movq	-376(%rbp), %rax        # 8-byte Reload
	shlq	$4, %rax
	addl	52(%rcx,%rax,4), %edx
	movl	%edx, 52(%rcx,%rax,4)
	movq	-376(%rbp), %rax        # 8-byte Reload
	shlq	$4, %rax
	movl	52(%rcx,%rax,4), %edx
	movq	-376(%rbp), %rax        # 8-byte Reload
	shlq	$4, %rax
	addl	56(%rcx,%rax,4), %edx
	movl	%edx, 56(%rcx,%rax,4)
	movq	-376(%rbp), %rax        # 8-byte Reload
	shlq	$4, %rax
	movl	56(%rcx,%rax,4), %edx
	movq	-376(%rbp), %rax        # 8-byte Reload
	shlq	$4, %rax
	addl	60(%rcx,%rax,4), %edx
	movl	%edx, 60(%rcx,%rax,4)
	movq	-376(%rbp), %rax        # 8-byte Reload
	addq	$1, %rax
	movq	%rax, -384(%rbp)        # 8-byte Spill
# %bb.48:                               # %for.body3.45
                                        #   in Loop: Header=BB1_1 Depth=1
	movq	-384(%rbp), %rax        # 8-byte Reload
	shlq	$4, %rax
	movq	-8(%rbp), %rcx          # 8-byte Reload
	movl	(%rcx,%rax,4), %edx
	movq	-384(%rbp), %rax        # 8-byte Reload
	shlq	$4, %rax
	addl	4(%rcx,%rax,4), %edx
	movl	%edx, 4(%rcx,%rax,4)
	movq	-384(%rbp), %rax        # 8-byte Reload
	shlq	$4, %rax
	movl	4(%rcx,%rax,4), %edx
	movq	-384(%rbp), %rax        # 8-byte Reload
	shlq	$4, %rax
	addl	8(%rcx,%rax,4), %edx
	movl	%edx, 8(%rcx,%rax,4)
	movq	-384(%rbp), %rax        # 8-byte Reload
	shlq	$4, %rax
	movl	8(%rcx,%rax,4), %edx
	movq	-384(%rbp), %rax        # 8-byte Reload
	shlq	$4, %rax
	addl	12(%rcx,%rax,4), %edx
	movl	%edx, 12(%rcx,%rax,4)
	movq	-384(%rbp), %rax        # 8-byte Reload
	shlq	$4, %rax
	movl	12(%rcx,%rax,4), %edx
	movq	-384(%rbp), %rax        # 8-byte Reload
	shlq	$4, %rax
	addl	16(%rcx,%rax,4), %edx
	movl	%edx, 16(%rcx,%rax,4)
	movq	-384(%rbp), %rax        # 8-byte Reload
	shlq	$4, %rax
	movl	16(%rcx,%rax,4), %edx
	movq	-384(%rbp), %rax        # 8-byte Reload
	shlq	$4, %rax
	addl	20(%rcx,%rax,4), %edx
	movl	%edx, 20(%rcx,%rax,4)
	movq	-384(%rbp), %rax        # 8-byte Reload
	shlq	$4, %rax
	movl	20(%rcx,%rax,4), %edx
	movq	-384(%rbp), %rax        # 8-byte Reload
	shlq	$4, %rax
	addl	24(%rcx,%rax,4), %edx
	movl	%edx, 24(%rcx,%rax,4)
	movq	-384(%rbp), %rax        # 8-byte Reload
	shlq	$4, %rax
	movl	24(%rcx,%rax,4), %edx
	movq	-384(%rbp), %rax        # 8-byte Reload
	shlq	$4, %rax
	addl	28(%rcx,%rax,4), %edx
	movl	%edx, 28(%rcx,%rax,4)
	movq	-384(%rbp), %rax        # 8-byte Reload
	shlq	$4, %rax
	movl	28(%rcx,%rax,4), %edx
	movq	-384(%rbp), %rax        # 8-byte Reload
	shlq	$4, %rax
	addl	32(%rcx,%rax,4), %edx
	movl	%edx, 32(%rcx,%rax,4)
	movq	-384(%rbp), %rax        # 8-byte Reload
	shlq	$4, %rax
	movl	32(%rcx,%rax,4), %edx
	movq	-384(%rbp), %rax        # 8-byte Reload
	shlq	$4, %rax
	addl	36(%rcx,%rax,4), %edx
	movl	%edx, 36(%rcx,%rax,4)
	movq	-384(%rbp), %rax        # 8-byte Reload
	shlq	$4, %rax
	movl	36(%rcx,%rax,4), %edx
	movq	-384(%rbp), %rax        # 8-byte Reload
	shlq	$4, %rax
	addl	40(%rcx,%rax,4), %edx
	movl	%edx, 40(%rcx,%rax,4)
	movq	-384(%rbp), %rax        # 8-byte Reload
	shlq	$4, %rax
	movl	40(%rcx,%rax,4), %edx
	movq	-384(%rbp), %rax        # 8-byte Reload
	shlq	$4, %rax
	addl	44(%rcx,%rax,4), %edx
	movl	%edx, 44(%rcx,%rax,4)
	movq	-384(%rbp), %rax        # 8-byte Reload
	shlq	$4, %rax
	movl	44(%rcx,%rax,4), %edx
	movq	-384(%rbp), %rax        # 8-byte Reload
	shlq	$4, %rax
	addl	48(%rcx,%rax,4), %edx
	movl	%edx, 48(%rcx,%rax,4)
	movq	-384(%rbp), %rax        # 8-byte Reload
	shlq	$4, %rax
	movl	48(%rcx,%rax,4), %edx
	movq	-384(%rbp), %rax        # 8-byte Reload
	shlq	$4, %rax
	addl	52(%rcx,%rax,4), %edx
	movl	%edx, 52(%rcx,%rax,4)
	movq	-384(%rbp), %rax        # 8-byte Reload
	shlq	$4, %rax
	movl	52(%rcx,%rax,4), %edx
	movq	-384(%rbp), %rax        # 8-byte Reload
	shlq	$4, %rax
	addl	56(%rcx,%rax,4), %edx
	movl	%edx, 56(%rcx,%rax,4)
	movq	-384(%rbp), %rax        # 8-byte Reload
	shlq	$4, %rax
	movl	56(%rcx,%rax,4), %edx
	movq	-384(%rbp), %rax        # 8-byte Reload
	shlq	$4, %rax
	addl	60(%rcx,%rax,4), %edx
	movl	%edx, 60(%rcx,%rax,4)
	movq	-384(%rbp), %rax        # 8-byte Reload
	addq	$1, %rax
	movq	%rax, -392(%rbp)        # 8-byte Spill
# %bb.49:                               # %for.body3.46
                                        #   in Loop: Header=BB1_1 Depth=1
	movq	-392(%rbp), %rax        # 8-byte Reload
	shlq	$4, %rax
	movq	-8(%rbp), %rcx          # 8-byte Reload
	movl	(%rcx,%rax,4), %edx
	movq	-392(%rbp), %rax        # 8-byte Reload
	shlq	$4, %rax
	addl	4(%rcx,%rax,4), %edx
	movl	%edx, 4(%rcx,%rax,4)
	movq	-392(%rbp), %rax        # 8-byte Reload
	shlq	$4, %rax
	movl	4(%rcx,%rax,4), %edx
	movq	-392(%rbp), %rax        # 8-byte Reload
	shlq	$4, %rax
	addl	8(%rcx,%rax,4), %edx
	movl	%edx, 8(%rcx,%rax,4)
	movq	-392(%rbp), %rax        # 8-byte Reload
	shlq	$4, %rax
	movl	8(%rcx,%rax,4), %edx
	movq	-392(%rbp), %rax        # 8-byte Reload
	shlq	$4, %rax
	addl	12(%rcx,%rax,4), %edx
	movl	%edx, 12(%rcx,%rax,4)
	movq	-392(%rbp), %rax        # 8-byte Reload
	shlq	$4, %rax
	movl	12(%rcx,%rax,4), %edx
	movq	-392(%rbp), %rax        # 8-byte Reload
	shlq	$4, %rax
	addl	16(%rcx,%rax,4), %edx
	movl	%edx, 16(%rcx,%rax,4)
	movq	-392(%rbp), %rax        # 8-byte Reload
	shlq	$4, %rax
	movl	16(%rcx,%rax,4), %edx
	movq	-392(%rbp), %rax        # 8-byte Reload
	shlq	$4, %rax
	addl	20(%rcx,%rax,4), %edx
	movl	%edx, 20(%rcx,%rax,4)
	movq	-392(%rbp), %rax        # 8-byte Reload
	shlq	$4, %rax
	movl	20(%rcx,%rax,4), %edx
	movq	-392(%rbp), %rax        # 8-byte Reload
	shlq	$4, %rax
	addl	24(%rcx,%rax,4), %edx
	movl	%edx, 24(%rcx,%rax,4)
	movq	-392(%rbp), %rax        # 8-byte Reload
	shlq	$4, %rax
	movl	24(%rcx,%rax,4), %edx
	movq	-392(%rbp), %rax        # 8-byte Reload
	shlq	$4, %rax
	addl	28(%rcx,%rax,4), %edx
	movl	%edx, 28(%rcx,%rax,4)
	movq	-392(%rbp), %rax        # 8-byte Reload
	shlq	$4, %rax
	movl	28(%rcx,%rax,4), %edx
	movq	-392(%rbp), %rax        # 8-byte Reload
	shlq	$4, %rax
	addl	32(%rcx,%rax,4), %edx
	movl	%edx, 32(%rcx,%rax,4)
	movq	-392(%rbp), %rax        # 8-byte Reload
	shlq	$4, %rax
	movl	32(%rcx,%rax,4), %edx
	movq	-392(%rbp), %rax        # 8-byte Reload
	shlq	$4, %rax
	addl	36(%rcx,%rax,4), %edx
	movl	%edx, 36(%rcx,%rax,4)
	movq	-392(%rbp), %rax        # 8-byte Reload
	shlq	$4, %rax
	movl	36(%rcx,%rax,4), %edx
	movq	-392(%rbp), %rax        # 8-byte Reload
	shlq	$4, %rax
	addl	40(%rcx,%rax,4), %edx
	movl	%edx, 40(%rcx,%rax,4)
	movq	-392(%rbp), %rax        # 8-byte Reload
	shlq	$4, %rax
	movl	40(%rcx,%rax,4), %edx
	movq	-392(%rbp), %rax        # 8-byte Reload
	shlq	$4, %rax
	addl	44(%rcx,%rax,4), %edx
	movl	%edx, 44(%rcx,%rax,4)
	movq	-392(%rbp), %rax        # 8-byte Reload
	shlq	$4, %rax
	movl	44(%rcx,%rax,4), %edx
	movq	-392(%rbp), %rax        # 8-byte Reload
	shlq	$4, %rax
	addl	48(%rcx,%rax,4), %edx
	movl	%edx, 48(%rcx,%rax,4)
	movq	-392(%rbp), %rax        # 8-byte Reload
	shlq	$4, %rax
	movl	48(%rcx,%rax,4), %edx
	movq	-392(%rbp), %rax        # 8-byte Reload
	shlq	$4, %rax
	addl	52(%rcx,%rax,4), %edx
	movl	%edx, 52(%rcx,%rax,4)
	movq	-392(%rbp), %rax        # 8-byte Reload
	shlq	$4, %rax
	movl	52(%rcx,%rax,4), %edx
	movq	-392(%rbp), %rax        # 8-byte Reload
	shlq	$4, %rax
	addl	56(%rcx,%rax,4), %edx
	movl	%edx, 56(%rcx,%rax,4)
	movq	-392(%rbp), %rax        # 8-byte Reload
	shlq	$4, %rax
	movl	56(%rcx,%rax,4), %edx
	movq	-392(%rbp), %rax        # 8-byte Reload
	shlq	$4, %rax
	addl	60(%rcx,%rax,4), %edx
	movl	%edx, 60(%rcx,%rax,4)
	movq	-392(%rbp), %rax        # 8-byte Reload
	addq	$1, %rax
	movq	%rax, -400(%rbp)        # 8-byte Spill
# %bb.50:                               # %for.body3.47
                                        #   in Loop: Header=BB1_1 Depth=1
	movq	-400(%rbp), %rax        # 8-byte Reload
	shlq	$4, %rax
	movq	-8(%rbp), %rcx          # 8-byte Reload
	movl	(%rcx,%rax,4), %edx
	movq	-400(%rbp), %rax        # 8-byte Reload
	shlq	$4, %rax
	addl	4(%rcx,%rax,4), %edx
	movl	%edx, 4(%rcx,%rax,4)
	movq	-400(%rbp), %rax        # 8-byte Reload
	shlq	$4, %rax
	movl	4(%rcx,%rax,4), %edx
	movq	-400(%rbp), %rax        # 8-byte Reload
	shlq	$4, %rax
	addl	8(%rcx,%rax,4), %edx
	movl	%edx, 8(%rcx,%rax,4)
	movq	-400(%rbp), %rax        # 8-byte Reload
	shlq	$4, %rax
	movl	8(%rcx,%rax,4), %edx
	movq	-400(%rbp), %rax        # 8-byte Reload
	shlq	$4, %rax
	addl	12(%rcx,%rax,4), %edx
	movl	%edx, 12(%rcx,%rax,4)
	movq	-400(%rbp), %rax        # 8-byte Reload
	shlq	$4, %rax
	movl	12(%rcx,%rax,4), %edx
	movq	-400(%rbp), %rax        # 8-byte Reload
	shlq	$4, %rax
	addl	16(%rcx,%rax,4), %edx
	movl	%edx, 16(%rcx,%rax,4)
	movq	-400(%rbp), %rax        # 8-byte Reload
	shlq	$4, %rax
	movl	16(%rcx,%rax,4), %edx
	movq	-400(%rbp), %rax        # 8-byte Reload
	shlq	$4, %rax
	addl	20(%rcx,%rax,4), %edx
	movl	%edx, 20(%rcx,%rax,4)
	movq	-400(%rbp), %rax        # 8-byte Reload
	shlq	$4, %rax
	movl	20(%rcx,%rax,4), %edx
	movq	-400(%rbp), %rax        # 8-byte Reload
	shlq	$4, %rax
	addl	24(%rcx,%rax,4), %edx
	movl	%edx, 24(%rcx,%rax,4)
	movq	-400(%rbp), %rax        # 8-byte Reload
	shlq	$4, %rax
	movl	24(%rcx,%rax,4), %edx
	movq	-400(%rbp), %rax        # 8-byte Reload
	shlq	$4, %rax
	addl	28(%rcx,%rax,4), %edx
	movl	%edx, 28(%rcx,%rax,4)
	movq	-400(%rbp), %rax        # 8-byte Reload
	shlq	$4, %rax
	movl	28(%rcx,%rax,4), %edx
	movq	-400(%rbp), %rax        # 8-byte Reload
	shlq	$4, %rax
	addl	32(%rcx,%rax,4), %edx
	movl	%edx, 32(%rcx,%rax,4)
	movq	-400(%rbp), %rax        # 8-byte Reload
	shlq	$4, %rax
	movl	32(%rcx,%rax,4), %edx
	movq	-400(%rbp), %rax        # 8-byte Reload
	shlq	$4, %rax
	addl	36(%rcx,%rax,4), %edx
	movl	%edx, 36(%rcx,%rax,4)
	movq	-400(%rbp), %rax        # 8-byte Reload
	shlq	$4, %rax
	movl	36(%rcx,%rax,4), %edx
	movq	-400(%rbp), %rax        # 8-byte Reload
	shlq	$4, %rax
	addl	40(%rcx,%rax,4), %edx
	movl	%edx, 40(%rcx,%rax,4)
	movq	-400(%rbp), %rax        # 8-byte Reload
	shlq	$4, %rax
	movl	40(%rcx,%rax,4), %edx
	movq	-400(%rbp), %rax        # 8-byte Reload
	shlq	$4, %rax
	addl	44(%rcx,%rax,4), %edx
	movl	%edx, 44(%rcx,%rax,4)
	movq	-400(%rbp), %rax        # 8-byte Reload
	shlq	$4, %rax
	movl	44(%rcx,%rax,4), %edx
	movq	-400(%rbp), %rax        # 8-byte Reload
	shlq	$4, %rax
	addl	48(%rcx,%rax,4), %edx
	movl	%edx, 48(%rcx,%rax,4)
	movq	-400(%rbp), %rax        # 8-byte Reload
	shlq	$4, %rax
	movl	48(%rcx,%rax,4), %edx
	movq	-400(%rbp), %rax        # 8-byte Reload
	shlq	$4, %rax
	addl	52(%rcx,%rax,4), %edx
	movl	%edx, 52(%rcx,%rax,4)
	movq	-400(%rbp), %rax        # 8-byte Reload
	shlq	$4, %rax
	movl	52(%rcx,%rax,4), %edx
	movq	-400(%rbp), %rax        # 8-byte Reload
	shlq	$4, %rax
	addl	56(%rcx,%rax,4), %edx
	movl	%edx, 56(%rcx,%rax,4)
	movq	-400(%rbp), %rax        # 8-byte Reload
	shlq	$4, %rax
	movl	56(%rcx,%rax,4), %edx
	movq	-400(%rbp), %rax        # 8-byte Reload
	shlq	$4, %rax
	addl	60(%rcx,%rax,4), %edx
	movl	%edx, 60(%rcx,%rax,4)
	movq	-400(%rbp), %rax        # 8-byte Reload
	addq	$1, %rax
	movq	%rax, -408(%rbp)        # 8-byte Spill
# %bb.51:                               # %for.body3.48
                                        #   in Loop: Header=BB1_1 Depth=1
	movq	-408(%rbp), %rax        # 8-byte Reload
	shlq	$4, %rax
	movq	-8(%rbp), %rcx          # 8-byte Reload
	movl	(%rcx,%rax,4), %edx
	movq	-408(%rbp), %rax        # 8-byte Reload
	shlq	$4, %rax
	addl	4(%rcx,%rax,4), %edx
	movl	%edx, 4(%rcx,%rax,4)
	movq	-408(%rbp), %rax        # 8-byte Reload
	shlq	$4, %rax
	movl	4(%rcx,%rax,4), %edx
	movq	-408(%rbp), %rax        # 8-byte Reload
	shlq	$4, %rax
	addl	8(%rcx,%rax,4), %edx
	movl	%edx, 8(%rcx,%rax,4)
	movq	-408(%rbp), %rax        # 8-byte Reload
	shlq	$4, %rax
	movl	8(%rcx,%rax,4), %edx
	movq	-408(%rbp), %rax        # 8-byte Reload
	shlq	$4, %rax
	addl	12(%rcx,%rax,4), %edx
	movl	%edx, 12(%rcx,%rax,4)
	movq	-408(%rbp), %rax        # 8-byte Reload
	shlq	$4, %rax
	movl	12(%rcx,%rax,4), %edx
	movq	-408(%rbp), %rax        # 8-byte Reload
	shlq	$4, %rax
	addl	16(%rcx,%rax,4), %edx
	movl	%edx, 16(%rcx,%rax,4)
	movq	-408(%rbp), %rax        # 8-byte Reload
	shlq	$4, %rax
	movl	16(%rcx,%rax,4), %edx
	movq	-408(%rbp), %rax        # 8-byte Reload
	shlq	$4, %rax
	addl	20(%rcx,%rax,4), %edx
	movl	%edx, 20(%rcx,%rax,4)
	movq	-408(%rbp), %rax        # 8-byte Reload
	shlq	$4, %rax
	movl	20(%rcx,%rax,4), %edx
	movq	-408(%rbp), %rax        # 8-byte Reload
	shlq	$4, %rax
	addl	24(%rcx,%rax,4), %edx
	movl	%edx, 24(%rcx,%rax,4)
	movq	-408(%rbp), %rax        # 8-byte Reload
	shlq	$4, %rax
	movl	24(%rcx,%rax,4), %edx
	movq	-408(%rbp), %rax        # 8-byte Reload
	shlq	$4, %rax
	addl	28(%rcx,%rax,4), %edx
	movl	%edx, 28(%rcx,%rax,4)
	movq	-408(%rbp), %rax        # 8-byte Reload
	shlq	$4, %rax
	movl	28(%rcx,%rax,4), %edx
	movq	-408(%rbp), %rax        # 8-byte Reload
	shlq	$4, %rax
	addl	32(%rcx,%rax,4), %edx
	movl	%edx, 32(%rcx,%rax,4)
	movq	-408(%rbp), %rax        # 8-byte Reload
	shlq	$4, %rax
	movl	32(%rcx,%rax,4), %edx
	movq	-408(%rbp), %rax        # 8-byte Reload
	shlq	$4, %rax
	addl	36(%rcx,%rax,4), %edx
	movl	%edx, 36(%rcx,%rax,4)
	movq	-408(%rbp), %rax        # 8-byte Reload
	shlq	$4, %rax
	movl	36(%rcx,%rax,4), %edx
	movq	-408(%rbp), %rax        # 8-byte Reload
	shlq	$4, %rax
	addl	40(%rcx,%rax,4), %edx
	movl	%edx, 40(%rcx,%rax,4)
	movq	-408(%rbp), %rax        # 8-byte Reload
	shlq	$4, %rax
	movl	40(%rcx,%rax,4), %edx
	movq	-408(%rbp), %rax        # 8-byte Reload
	shlq	$4, %rax
	addl	44(%rcx,%rax,4), %edx
	movl	%edx, 44(%rcx,%rax,4)
	movq	-408(%rbp), %rax        # 8-byte Reload
	shlq	$4, %rax
	movl	44(%rcx,%rax,4), %edx
	movq	-408(%rbp), %rax        # 8-byte Reload
	shlq	$4, %rax
	addl	48(%rcx,%rax,4), %edx
	movl	%edx, 48(%rcx,%rax,4)
	movq	-408(%rbp), %rax        # 8-byte Reload
	shlq	$4, %rax
	movl	48(%rcx,%rax,4), %edx
	movq	-408(%rbp), %rax        # 8-byte Reload
	shlq	$4, %rax
	addl	52(%rcx,%rax,4), %edx
	movl	%edx, 52(%rcx,%rax,4)
	movq	-408(%rbp), %rax        # 8-byte Reload
	shlq	$4, %rax
	movl	52(%rcx,%rax,4), %edx
	movq	-408(%rbp), %rax        # 8-byte Reload
	shlq	$4, %rax
	addl	56(%rcx,%rax,4), %edx
	movl	%edx, 56(%rcx,%rax,4)
	movq	-408(%rbp), %rax        # 8-byte Reload
	shlq	$4, %rax
	movl	56(%rcx,%rax,4), %edx
	movq	-408(%rbp), %rax        # 8-byte Reload
	shlq	$4, %rax
	addl	60(%rcx,%rax,4), %edx
	movl	%edx, 60(%rcx,%rax,4)
	movq	-408(%rbp), %rax        # 8-byte Reload
	addq	$1, %rax
	movq	%rax, -416(%rbp)        # 8-byte Spill
# %bb.52:                               # %for.body3.49
                                        #   in Loop: Header=BB1_1 Depth=1
	movq	-416(%rbp), %rax        # 8-byte Reload
	shlq	$4, %rax
	movq	-8(%rbp), %rcx          # 8-byte Reload
	movl	(%rcx,%rax,4), %edx
	movq	-416(%rbp), %rax        # 8-byte Reload
	shlq	$4, %rax
	addl	4(%rcx,%rax,4), %edx
	movl	%edx, 4(%rcx,%rax,4)
	movq	-416(%rbp), %rax        # 8-byte Reload
	shlq	$4, %rax
	movl	4(%rcx,%rax,4), %edx
	movq	-416(%rbp), %rax        # 8-byte Reload
	shlq	$4, %rax
	addl	8(%rcx,%rax,4), %edx
	movl	%edx, 8(%rcx,%rax,4)
	movq	-416(%rbp), %rax        # 8-byte Reload
	shlq	$4, %rax
	movl	8(%rcx,%rax,4), %edx
	movq	-416(%rbp), %rax        # 8-byte Reload
	shlq	$4, %rax
	addl	12(%rcx,%rax,4), %edx
	movl	%edx, 12(%rcx,%rax,4)
	movq	-416(%rbp), %rax        # 8-byte Reload
	shlq	$4, %rax
	movl	12(%rcx,%rax,4), %edx
	movq	-416(%rbp), %rax        # 8-byte Reload
	shlq	$4, %rax
	addl	16(%rcx,%rax,4), %edx
	movl	%edx, 16(%rcx,%rax,4)
	movq	-416(%rbp), %rax        # 8-byte Reload
	shlq	$4, %rax
	movl	16(%rcx,%rax,4), %edx
	movq	-416(%rbp), %rax        # 8-byte Reload
	shlq	$4, %rax
	addl	20(%rcx,%rax,4), %edx
	movl	%edx, 20(%rcx,%rax,4)
	movq	-416(%rbp), %rax        # 8-byte Reload
	shlq	$4, %rax
	movl	20(%rcx,%rax,4), %edx
	movq	-416(%rbp), %rax        # 8-byte Reload
	shlq	$4, %rax
	addl	24(%rcx,%rax,4), %edx
	movl	%edx, 24(%rcx,%rax,4)
	movq	-416(%rbp), %rax        # 8-byte Reload
	shlq	$4, %rax
	movl	24(%rcx,%rax,4), %edx
	movq	-416(%rbp), %rax        # 8-byte Reload
	shlq	$4, %rax
	addl	28(%rcx,%rax,4), %edx
	movl	%edx, 28(%rcx,%rax,4)
	movq	-416(%rbp), %rax        # 8-byte Reload
	shlq	$4, %rax
	movl	28(%rcx,%rax,4), %edx
	movq	-416(%rbp), %rax        # 8-byte Reload
	shlq	$4, %rax
	addl	32(%rcx,%rax,4), %edx
	movl	%edx, 32(%rcx,%rax,4)
	movq	-416(%rbp), %rax        # 8-byte Reload
	shlq	$4, %rax
	movl	32(%rcx,%rax,4), %edx
	movq	-416(%rbp), %rax        # 8-byte Reload
	shlq	$4, %rax
	addl	36(%rcx,%rax,4), %edx
	movl	%edx, 36(%rcx,%rax,4)
	movq	-416(%rbp), %rax        # 8-byte Reload
	shlq	$4, %rax
	movl	36(%rcx,%rax,4), %edx
	movq	-416(%rbp), %rax        # 8-byte Reload
	shlq	$4, %rax
	addl	40(%rcx,%rax,4), %edx
	movl	%edx, 40(%rcx,%rax,4)
	movq	-416(%rbp), %rax        # 8-byte Reload
	shlq	$4, %rax
	movl	40(%rcx,%rax,4), %edx
	movq	-416(%rbp), %rax        # 8-byte Reload
	shlq	$4, %rax
	addl	44(%rcx,%rax,4), %edx
	movl	%edx, 44(%rcx,%rax,4)
	movq	-416(%rbp), %rax        # 8-byte Reload
	shlq	$4, %rax
	movl	44(%rcx,%rax,4), %edx
	movq	-416(%rbp), %rax        # 8-byte Reload
	shlq	$4, %rax
	addl	48(%rcx,%rax,4), %edx
	movl	%edx, 48(%rcx,%rax,4)
	movq	-416(%rbp), %rax        # 8-byte Reload
	shlq	$4, %rax
	movl	48(%rcx,%rax,4), %edx
	movq	-416(%rbp), %rax        # 8-byte Reload
	shlq	$4, %rax
	addl	52(%rcx,%rax,4), %edx
	movl	%edx, 52(%rcx,%rax,4)
	movq	-416(%rbp), %rax        # 8-byte Reload
	shlq	$4, %rax
	movl	52(%rcx,%rax,4), %edx
	movq	-416(%rbp), %rax        # 8-byte Reload
	shlq	$4, %rax
	addl	56(%rcx,%rax,4), %edx
	movl	%edx, 56(%rcx,%rax,4)
	movq	-416(%rbp), %rax        # 8-byte Reload
	shlq	$4, %rax
	movl	56(%rcx,%rax,4), %edx
	movq	-416(%rbp), %rax        # 8-byte Reload
	shlq	$4, %rax
	addl	60(%rcx,%rax,4), %edx
	movl	%edx, 60(%rcx,%rax,4)
	movq	-416(%rbp), %rax        # 8-byte Reload
	addq	$1, %rax
	movq	%rax, -424(%rbp)        # 8-byte Spill
# %bb.53:                               # %for.body3.50
                                        #   in Loop: Header=BB1_1 Depth=1
	movq	-424(%rbp), %rax        # 8-byte Reload
	shlq	$4, %rax
	movq	-8(%rbp), %rcx          # 8-byte Reload
	movl	(%rcx,%rax,4), %edx
	movq	-424(%rbp), %rax        # 8-byte Reload
	shlq	$4, %rax
	addl	4(%rcx,%rax,4), %edx
	movl	%edx, 4(%rcx,%rax,4)
	movq	-424(%rbp), %rax        # 8-byte Reload
	shlq	$4, %rax
	movl	4(%rcx,%rax,4), %edx
	movq	-424(%rbp), %rax        # 8-byte Reload
	shlq	$4, %rax
	addl	8(%rcx,%rax,4), %edx
	movl	%edx, 8(%rcx,%rax,4)
	movq	-424(%rbp), %rax        # 8-byte Reload
	shlq	$4, %rax
	movl	8(%rcx,%rax,4), %edx
	movq	-424(%rbp), %rax        # 8-byte Reload
	shlq	$4, %rax
	addl	12(%rcx,%rax,4), %edx
	movl	%edx, 12(%rcx,%rax,4)
	movq	-424(%rbp), %rax        # 8-byte Reload
	shlq	$4, %rax
	movl	12(%rcx,%rax,4), %edx
	movq	-424(%rbp), %rax        # 8-byte Reload
	shlq	$4, %rax
	addl	16(%rcx,%rax,4), %edx
	movl	%edx, 16(%rcx,%rax,4)
	movq	-424(%rbp), %rax        # 8-byte Reload
	shlq	$4, %rax
	movl	16(%rcx,%rax,4), %edx
	movq	-424(%rbp), %rax        # 8-byte Reload
	shlq	$4, %rax
	addl	20(%rcx,%rax,4), %edx
	movl	%edx, 20(%rcx,%rax,4)
	movq	-424(%rbp), %rax        # 8-byte Reload
	shlq	$4, %rax
	movl	20(%rcx,%rax,4), %edx
	movq	-424(%rbp), %rax        # 8-byte Reload
	shlq	$4, %rax
	addl	24(%rcx,%rax,4), %edx
	movl	%edx, 24(%rcx,%rax,4)
	movq	-424(%rbp), %rax        # 8-byte Reload
	shlq	$4, %rax
	movl	24(%rcx,%rax,4), %edx
	movq	-424(%rbp), %rax        # 8-byte Reload
	shlq	$4, %rax
	addl	28(%rcx,%rax,4), %edx
	movl	%edx, 28(%rcx,%rax,4)
	movq	-424(%rbp), %rax        # 8-byte Reload
	shlq	$4, %rax
	movl	28(%rcx,%rax,4), %edx
	movq	-424(%rbp), %rax        # 8-byte Reload
	shlq	$4, %rax
	addl	32(%rcx,%rax,4), %edx
	movl	%edx, 32(%rcx,%rax,4)
	movq	-424(%rbp), %rax        # 8-byte Reload
	shlq	$4, %rax
	movl	32(%rcx,%rax,4), %edx
	movq	-424(%rbp), %rax        # 8-byte Reload
	shlq	$4, %rax
	addl	36(%rcx,%rax,4), %edx
	movl	%edx, 36(%rcx,%rax,4)
	movq	-424(%rbp), %rax        # 8-byte Reload
	shlq	$4, %rax
	movl	36(%rcx,%rax,4), %edx
	movq	-424(%rbp), %rax        # 8-byte Reload
	shlq	$4, %rax
	addl	40(%rcx,%rax,4), %edx
	movl	%edx, 40(%rcx,%rax,4)
	movq	-424(%rbp), %rax        # 8-byte Reload
	shlq	$4, %rax
	movl	40(%rcx,%rax,4), %edx
	movq	-424(%rbp), %rax        # 8-byte Reload
	shlq	$4, %rax
	addl	44(%rcx,%rax,4), %edx
	movl	%edx, 44(%rcx,%rax,4)
	movq	-424(%rbp), %rax        # 8-byte Reload
	shlq	$4, %rax
	movl	44(%rcx,%rax,4), %edx
	movq	-424(%rbp), %rax        # 8-byte Reload
	shlq	$4, %rax
	addl	48(%rcx,%rax,4), %edx
	movl	%edx, 48(%rcx,%rax,4)
	movq	-424(%rbp), %rax        # 8-byte Reload
	shlq	$4, %rax
	movl	48(%rcx,%rax,4), %edx
	movq	-424(%rbp), %rax        # 8-byte Reload
	shlq	$4, %rax
	addl	52(%rcx,%rax,4), %edx
	movl	%edx, 52(%rcx,%rax,4)
	movq	-424(%rbp), %rax        # 8-byte Reload
	shlq	$4, %rax
	movl	52(%rcx,%rax,4), %edx
	movq	-424(%rbp), %rax        # 8-byte Reload
	shlq	$4, %rax
	addl	56(%rcx,%rax,4), %edx
	movl	%edx, 56(%rcx,%rax,4)
	movq	-424(%rbp), %rax        # 8-byte Reload
	shlq	$4, %rax
	movl	56(%rcx,%rax,4), %edx
	movq	-424(%rbp), %rax        # 8-byte Reload
	shlq	$4, %rax
	addl	60(%rcx,%rax,4), %edx
	movl	%edx, 60(%rcx,%rax,4)
	movq	-424(%rbp), %rax        # 8-byte Reload
	addq	$1, %rax
	movq	%rax, -432(%rbp)        # 8-byte Spill
# %bb.54:                               # %for.body3.51
                                        #   in Loop: Header=BB1_1 Depth=1
	movq	-432(%rbp), %rax        # 8-byte Reload
	shlq	$4, %rax
	movq	-8(%rbp), %rcx          # 8-byte Reload
	movl	(%rcx,%rax,4), %edx
	movq	-432(%rbp), %rax        # 8-byte Reload
	shlq	$4, %rax
	addl	4(%rcx,%rax,4), %edx
	movl	%edx, 4(%rcx,%rax,4)
	movq	-432(%rbp), %rax        # 8-byte Reload
	shlq	$4, %rax
	movl	4(%rcx,%rax,4), %edx
	movq	-432(%rbp), %rax        # 8-byte Reload
	shlq	$4, %rax
	addl	8(%rcx,%rax,4), %edx
	movl	%edx, 8(%rcx,%rax,4)
	movq	-432(%rbp), %rax        # 8-byte Reload
	shlq	$4, %rax
	movl	8(%rcx,%rax,4), %edx
	movq	-432(%rbp), %rax        # 8-byte Reload
	shlq	$4, %rax
	addl	12(%rcx,%rax,4), %edx
	movl	%edx, 12(%rcx,%rax,4)
	movq	-432(%rbp), %rax        # 8-byte Reload
	shlq	$4, %rax
	movl	12(%rcx,%rax,4), %edx
	movq	-432(%rbp), %rax        # 8-byte Reload
	shlq	$4, %rax
	addl	16(%rcx,%rax,4), %edx
	movl	%edx, 16(%rcx,%rax,4)
	movq	-432(%rbp), %rax        # 8-byte Reload
	shlq	$4, %rax
	movl	16(%rcx,%rax,4), %edx
	movq	-432(%rbp), %rax        # 8-byte Reload
	shlq	$4, %rax
	addl	20(%rcx,%rax,4), %edx
	movl	%edx, 20(%rcx,%rax,4)
	movq	-432(%rbp), %rax        # 8-byte Reload
	shlq	$4, %rax
	movl	20(%rcx,%rax,4), %edx
	movq	-432(%rbp), %rax        # 8-byte Reload
	shlq	$4, %rax
	addl	24(%rcx,%rax,4), %edx
	movl	%edx, 24(%rcx,%rax,4)
	movq	-432(%rbp), %rax        # 8-byte Reload
	shlq	$4, %rax
	movl	24(%rcx,%rax,4), %edx
	movq	-432(%rbp), %rax        # 8-byte Reload
	shlq	$4, %rax
	addl	28(%rcx,%rax,4), %edx
	movl	%edx, 28(%rcx,%rax,4)
	movq	-432(%rbp), %rax        # 8-byte Reload
	shlq	$4, %rax
	movl	28(%rcx,%rax,4), %edx
	movq	-432(%rbp), %rax        # 8-byte Reload
	shlq	$4, %rax
	addl	32(%rcx,%rax,4), %edx
	movl	%edx, 32(%rcx,%rax,4)
	movq	-432(%rbp), %rax        # 8-byte Reload
	shlq	$4, %rax
	movl	32(%rcx,%rax,4), %edx
	movq	-432(%rbp), %rax        # 8-byte Reload
	shlq	$4, %rax
	addl	36(%rcx,%rax,4), %edx
	movl	%edx, 36(%rcx,%rax,4)
	movq	-432(%rbp), %rax        # 8-byte Reload
	shlq	$4, %rax
	movl	36(%rcx,%rax,4), %edx
	movq	-432(%rbp), %rax        # 8-byte Reload
	shlq	$4, %rax
	addl	40(%rcx,%rax,4), %edx
	movl	%edx, 40(%rcx,%rax,4)
	movq	-432(%rbp), %rax        # 8-byte Reload
	shlq	$4, %rax
	movl	40(%rcx,%rax,4), %edx
	movq	-432(%rbp), %rax        # 8-byte Reload
	shlq	$4, %rax
	addl	44(%rcx,%rax,4), %edx
	movl	%edx, 44(%rcx,%rax,4)
	movq	-432(%rbp), %rax        # 8-byte Reload
	shlq	$4, %rax
	movl	44(%rcx,%rax,4), %edx
	movq	-432(%rbp), %rax        # 8-byte Reload
	shlq	$4, %rax
	addl	48(%rcx,%rax,4), %edx
	movl	%edx, 48(%rcx,%rax,4)
	movq	-432(%rbp), %rax        # 8-byte Reload
	shlq	$4, %rax
	movl	48(%rcx,%rax,4), %edx
	movq	-432(%rbp), %rax        # 8-byte Reload
	shlq	$4, %rax
	addl	52(%rcx,%rax,4), %edx
	movl	%edx, 52(%rcx,%rax,4)
	movq	-432(%rbp), %rax        # 8-byte Reload
	shlq	$4, %rax
	movl	52(%rcx,%rax,4), %edx
	movq	-432(%rbp), %rax        # 8-byte Reload
	shlq	$4, %rax
	addl	56(%rcx,%rax,4), %edx
	movl	%edx, 56(%rcx,%rax,4)
	movq	-432(%rbp), %rax        # 8-byte Reload
	shlq	$4, %rax
	movl	56(%rcx,%rax,4), %edx
	movq	-432(%rbp), %rax        # 8-byte Reload
	shlq	$4, %rax
	addl	60(%rcx,%rax,4), %edx
	movl	%edx, 60(%rcx,%rax,4)
	movq	-432(%rbp), %rax        # 8-byte Reload
	addq	$1, %rax
	movq	%rax, -440(%rbp)        # 8-byte Spill
# %bb.55:                               # %for.body3.52
                                        #   in Loop: Header=BB1_1 Depth=1
	movq	-440(%rbp), %rax        # 8-byte Reload
	shlq	$4, %rax
	movq	-8(%rbp), %rcx          # 8-byte Reload
	movl	(%rcx,%rax,4), %edx
	movq	-440(%rbp), %rax        # 8-byte Reload
	shlq	$4, %rax
	addl	4(%rcx,%rax,4), %edx
	movl	%edx, 4(%rcx,%rax,4)
	movq	-440(%rbp), %rax        # 8-byte Reload
	shlq	$4, %rax
	movl	4(%rcx,%rax,4), %edx
	movq	-440(%rbp), %rax        # 8-byte Reload
	shlq	$4, %rax
	addl	8(%rcx,%rax,4), %edx
	movl	%edx, 8(%rcx,%rax,4)
	movq	-440(%rbp), %rax        # 8-byte Reload
	shlq	$4, %rax
	movl	8(%rcx,%rax,4), %edx
	movq	-440(%rbp), %rax        # 8-byte Reload
	shlq	$4, %rax
	addl	12(%rcx,%rax,4), %edx
	movl	%edx, 12(%rcx,%rax,4)
	movq	-440(%rbp), %rax        # 8-byte Reload
	shlq	$4, %rax
	movl	12(%rcx,%rax,4), %edx
	movq	-440(%rbp), %rax        # 8-byte Reload
	shlq	$4, %rax
	addl	16(%rcx,%rax,4), %edx
	movl	%edx, 16(%rcx,%rax,4)
	movq	-440(%rbp), %rax        # 8-byte Reload
	shlq	$4, %rax
	movl	16(%rcx,%rax,4), %edx
	movq	-440(%rbp), %rax        # 8-byte Reload
	shlq	$4, %rax
	addl	20(%rcx,%rax,4), %edx
	movl	%edx, 20(%rcx,%rax,4)
	movq	-440(%rbp), %rax        # 8-byte Reload
	shlq	$4, %rax
	movl	20(%rcx,%rax,4), %edx
	movq	-440(%rbp), %rax        # 8-byte Reload
	shlq	$4, %rax
	addl	24(%rcx,%rax,4), %edx
	movl	%edx, 24(%rcx,%rax,4)
	movq	-440(%rbp), %rax        # 8-byte Reload
	shlq	$4, %rax
	movl	24(%rcx,%rax,4), %edx
	movq	-440(%rbp), %rax        # 8-byte Reload
	shlq	$4, %rax
	addl	28(%rcx,%rax,4), %edx
	movl	%edx, 28(%rcx,%rax,4)
	movq	-440(%rbp), %rax        # 8-byte Reload
	shlq	$4, %rax
	movl	28(%rcx,%rax,4), %edx
	movq	-440(%rbp), %rax        # 8-byte Reload
	shlq	$4, %rax
	addl	32(%rcx,%rax,4), %edx
	movl	%edx, 32(%rcx,%rax,4)
	movq	-440(%rbp), %rax        # 8-byte Reload
	shlq	$4, %rax
	movl	32(%rcx,%rax,4), %edx
	movq	-440(%rbp), %rax        # 8-byte Reload
	shlq	$4, %rax
	addl	36(%rcx,%rax,4), %edx
	movl	%edx, 36(%rcx,%rax,4)
	movq	-440(%rbp), %rax        # 8-byte Reload
	shlq	$4, %rax
	movl	36(%rcx,%rax,4), %edx
	movq	-440(%rbp), %rax        # 8-byte Reload
	shlq	$4, %rax
	addl	40(%rcx,%rax,4), %edx
	movl	%edx, 40(%rcx,%rax,4)
	movq	-440(%rbp), %rax        # 8-byte Reload
	shlq	$4, %rax
	movl	40(%rcx,%rax,4), %edx
	movq	-440(%rbp), %rax        # 8-byte Reload
	shlq	$4, %rax
	addl	44(%rcx,%rax,4), %edx
	movl	%edx, 44(%rcx,%rax,4)
	movq	-440(%rbp), %rax        # 8-byte Reload
	shlq	$4, %rax
	movl	44(%rcx,%rax,4), %edx
	movq	-440(%rbp), %rax        # 8-byte Reload
	shlq	$4, %rax
	addl	48(%rcx,%rax,4), %edx
	movl	%edx, 48(%rcx,%rax,4)
	movq	-440(%rbp), %rax        # 8-byte Reload
	shlq	$4, %rax
	movl	48(%rcx,%rax,4), %edx
	movq	-440(%rbp), %rax        # 8-byte Reload
	shlq	$4, %rax
	addl	52(%rcx,%rax,4), %edx
	movl	%edx, 52(%rcx,%rax,4)
	movq	-440(%rbp), %rax        # 8-byte Reload
	shlq	$4, %rax
	movl	52(%rcx,%rax,4), %edx
	movq	-440(%rbp), %rax        # 8-byte Reload
	shlq	$4, %rax
	addl	56(%rcx,%rax,4), %edx
	movl	%edx, 56(%rcx,%rax,4)
	movq	-440(%rbp), %rax        # 8-byte Reload
	shlq	$4, %rax
	movl	56(%rcx,%rax,4), %edx
	movq	-440(%rbp), %rax        # 8-byte Reload
	shlq	$4, %rax
	addl	60(%rcx,%rax,4), %edx
	movl	%edx, 60(%rcx,%rax,4)
	movq	-440(%rbp), %rax        # 8-byte Reload
	addq	$1, %rax
	movq	%rax, -448(%rbp)        # 8-byte Spill
# %bb.56:                               # %for.body3.53
                                        #   in Loop: Header=BB1_1 Depth=1
	movq	-448(%rbp), %rax        # 8-byte Reload
	shlq	$4, %rax
	movq	-8(%rbp), %rcx          # 8-byte Reload
	movl	(%rcx,%rax,4), %edx
	movq	-448(%rbp), %rax        # 8-byte Reload
	shlq	$4, %rax
	addl	4(%rcx,%rax,4), %edx
	movl	%edx, 4(%rcx,%rax,4)
	movq	-448(%rbp), %rax        # 8-byte Reload
	shlq	$4, %rax
	movl	4(%rcx,%rax,4), %edx
	movq	-448(%rbp), %rax        # 8-byte Reload
	shlq	$4, %rax
	addl	8(%rcx,%rax,4), %edx
	movl	%edx, 8(%rcx,%rax,4)
	movq	-448(%rbp), %rax        # 8-byte Reload
	shlq	$4, %rax
	movl	8(%rcx,%rax,4), %edx
	movq	-448(%rbp), %rax        # 8-byte Reload
	shlq	$4, %rax
	addl	12(%rcx,%rax,4), %edx
	movl	%edx, 12(%rcx,%rax,4)
	movq	-448(%rbp), %rax        # 8-byte Reload
	shlq	$4, %rax
	movl	12(%rcx,%rax,4), %edx
	movq	-448(%rbp), %rax        # 8-byte Reload
	shlq	$4, %rax
	addl	16(%rcx,%rax,4), %edx
	movl	%edx, 16(%rcx,%rax,4)
	movq	-448(%rbp), %rax        # 8-byte Reload
	shlq	$4, %rax
	movl	16(%rcx,%rax,4), %edx
	movq	-448(%rbp), %rax        # 8-byte Reload
	shlq	$4, %rax
	addl	20(%rcx,%rax,4), %edx
	movl	%edx, 20(%rcx,%rax,4)
	movq	-448(%rbp), %rax        # 8-byte Reload
	shlq	$4, %rax
	movl	20(%rcx,%rax,4), %edx
	movq	-448(%rbp), %rax        # 8-byte Reload
	shlq	$4, %rax
	addl	24(%rcx,%rax,4), %edx
	movl	%edx, 24(%rcx,%rax,4)
	movq	-448(%rbp), %rax        # 8-byte Reload
	shlq	$4, %rax
	movl	24(%rcx,%rax,4), %edx
	movq	-448(%rbp), %rax        # 8-byte Reload
	shlq	$4, %rax
	addl	28(%rcx,%rax,4), %edx
	movl	%edx, 28(%rcx,%rax,4)
	movq	-448(%rbp), %rax        # 8-byte Reload
	shlq	$4, %rax
	movl	28(%rcx,%rax,4), %edx
	movq	-448(%rbp), %rax        # 8-byte Reload
	shlq	$4, %rax
	addl	32(%rcx,%rax,4), %edx
	movl	%edx, 32(%rcx,%rax,4)
	movq	-448(%rbp), %rax        # 8-byte Reload
	shlq	$4, %rax
	movl	32(%rcx,%rax,4), %edx
	movq	-448(%rbp), %rax        # 8-byte Reload
	shlq	$4, %rax
	addl	36(%rcx,%rax,4), %edx
	movl	%edx, 36(%rcx,%rax,4)
	movq	-448(%rbp), %rax        # 8-byte Reload
	shlq	$4, %rax
	movl	36(%rcx,%rax,4), %edx
	movq	-448(%rbp), %rax        # 8-byte Reload
	shlq	$4, %rax
	addl	40(%rcx,%rax,4), %edx
	movl	%edx, 40(%rcx,%rax,4)
	movq	-448(%rbp), %rax        # 8-byte Reload
	shlq	$4, %rax
	movl	40(%rcx,%rax,4), %edx
	movq	-448(%rbp), %rax        # 8-byte Reload
	shlq	$4, %rax
	addl	44(%rcx,%rax,4), %edx
	movl	%edx, 44(%rcx,%rax,4)
	movq	-448(%rbp), %rax        # 8-byte Reload
	shlq	$4, %rax
	movl	44(%rcx,%rax,4), %edx
	movq	-448(%rbp), %rax        # 8-byte Reload
	shlq	$4, %rax
	addl	48(%rcx,%rax,4), %edx
	movl	%edx, 48(%rcx,%rax,4)
	movq	-448(%rbp), %rax        # 8-byte Reload
	shlq	$4, %rax
	movl	48(%rcx,%rax,4), %edx
	movq	-448(%rbp), %rax        # 8-byte Reload
	shlq	$4, %rax
	addl	52(%rcx,%rax,4), %edx
	movl	%edx, 52(%rcx,%rax,4)
	movq	-448(%rbp), %rax        # 8-byte Reload
	shlq	$4, %rax
	movl	52(%rcx,%rax,4), %edx
	movq	-448(%rbp), %rax        # 8-byte Reload
	shlq	$4, %rax
	addl	56(%rcx,%rax,4), %edx
	movl	%edx, 56(%rcx,%rax,4)
	movq	-448(%rbp), %rax        # 8-byte Reload
	shlq	$4, %rax
	movl	56(%rcx,%rax,4), %edx
	movq	-448(%rbp), %rax        # 8-byte Reload
	shlq	$4, %rax
	addl	60(%rcx,%rax,4), %edx
	movl	%edx, 60(%rcx,%rax,4)
	movq	-448(%rbp), %rax        # 8-byte Reload
	addq	$1, %rax
	movq	%rax, -456(%rbp)        # 8-byte Spill
# %bb.57:                               # %for.body3.54
                                        #   in Loop: Header=BB1_1 Depth=1
	movq	-456(%rbp), %rax        # 8-byte Reload
	shlq	$4, %rax
	movq	-8(%rbp), %rcx          # 8-byte Reload
	movl	(%rcx,%rax,4), %edx
	movq	-456(%rbp), %rax        # 8-byte Reload
	shlq	$4, %rax
	addl	4(%rcx,%rax,4), %edx
	movl	%edx, 4(%rcx,%rax,4)
	movq	-456(%rbp), %rax        # 8-byte Reload
	shlq	$4, %rax
	movl	4(%rcx,%rax,4), %edx
	movq	-456(%rbp), %rax        # 8-byte Reload
	shlq	$4, %rax
	addl	8(%rcx,%rax,4), %edx
	movl	%edx, 8(%rcx,%rax,4)
	movq	-456(%rbp), %rax        # 8-byte Reload
	shlq	$4, %rax
	movl	8(%rcx,%rax,4), %edx
	movq	-456(%rbp), %rax        # 8-byte Reload
	shlq	$4, %rax
	addl	12(%rcx,%rax,4), %edx
	movl	%edx, 12(%rcx,%rax,4)
	movq	-456(%rbp), %rax        # 8-byte Reload
	shlq	$4, %rax
	movl	12(%rcx,%rax,4), %edx
	movq	-456(%rbp), %rax        # 8-byte Reload
	shlq	$4, %rax
	addl	16(%rcx,%rax,4), %edx
	movl	%edx, 16(%rcx,%rax,4)
	movq	-456(%rbp), %rax        # 8-byte Reload
	shlq	$4, %rax
	movl	16(%rcx,%rax,4), %edx
	movq	-456(%rbp), %rax        # 8-byte Reload
	shlq	$4, %rax
	addl	20(%rcx,%rax,4), %edx
	movl	%edx, 20(%rcx,%rax,4)
	movq	-456(%rbp), %rax        # 8-byte Reload
	shlq	$4, %rax
	movl	20(%rcx,%rax,4), %edx
	movq	-456(%rbp), %rax        # 8-byte Reload
	shlq	$4, %rax
	addl	24(%rcx,%rax,4), %edx
	movl	%edx, 24(%rcx,%rax,4)
	movq	-456(%rbp), %rax        # 8-byte Reload
	shlq	$4, %rax
	movl	24(%rcx,%rax,4), %edx
	movq	-456(%rbp), %rax        # 8-byte Reload
	shlq	$4, %rax
	addl	28(%rcx,%rax,4), %edx
	movl	%edx, 28(%rcx,%rax,4)
	movq	-456(%rbp), %rax        # 8-byte Reload
	shlq	$4, %rax
	movl	28(%rcx,%rax,4), %edx
	movq	-456(%rbp), %rax        # 8-byte Reload
	shlq	$4, %rax
	addl	32(%rcx,%rax,4), %edx
	movl	%edx, 32(%rcx,%rax,4)
	movq	-456(%rbp), %rax        # 8-byte Reload
	shlq	$4, %rax
	movl	32(%rcx,%rax,4), %edx
	movq	-456(%rbp), %rax        # 8-byte Reload
	shlq	$4, %rax
	addl	36(%rcx,%rax,4), %edx
	movl	%edx, 36(%rcx,%rax,4)
	movq	-456(%rbp), %rax        # 8-byte Reload
	shlq	$4, %rax
	movl	36(%rcx,%rax,4), %edx
	movq	-456(%rbp), %rax        # 8-byte Reload
	shlq	$4, %rax
	addl	40(%rcx,%rax,4), %edx
	movl	%edx, 40(%rcx,%rax,4)
	movq	-456(%rbp), %rax        # 8-byte Reload
	shlq	$4, %rax
	movl	40(%rcx,%rax,4), %edx
	movq	-456(%rbp), %rax        # 8-byte Reload
	shlq	$4, %rax
	addl	44(%rcx,%rax,4), %edx
	movl	%edx, 44(%rcx,%rax,4)
	movq	-456(%rbp), %rax        # 8-byte Reload
	shlq	$4, %rax
	movl	44(%rcx,%rax,4), %edx
	movq	-456(%rbp), %rax        # 8-byte Reload
	shlq	$4, %rax
	addl	48(%rcx,%rax,4), %edx
	movl	%edx, 48(%rcx,%rax,4)
	movq	-456(%rbp), %rax        # 8-byte Reload
	shlq	$4, %rax
	movl	48(%rcx,%rax,4), %edx
	movq	-456(%rbp), %rax        # 8-byte Reload
	shlq	$4, %rax
	addl	52(%rcx,%rax,4), %edx
	movl	%edx, 52(%rcx,%rax,4)
	movq	-456(%rbp), %rax        # 8-byte Reload
	shlq	$4, %rax
	movl	52(%rcx,%rax,4), %edx
	movq	-456(%rbp), %rax        # 8-byte Reload
	shlq	$4, %rax
	addl	56(%rcx,%rax,4), %edx
	movl	%edx, 56(%rcx,%rax,4)
	movq	-456(%rbp), %rax        # 8-byte Reload
	shlq	$4, %rax
	movl	56(%rcx,%rax,4), %edx
	movq	-456(%rbp), %rax        # 8-byte Reload
	shlq	$4, %rax
	addl	60(%rcx,%rax,4), %edx
	movl	%edx, 60(%rcx,%rax,4)
	movq	-456(%rbp), %rax        # 8-byte Reload
	addq	$1, %rax
	movq	%rax, -464(%rbp)        # 8-byte Spill
# %bb.58:                               # %for.body3.55
                                        #   in Loop: Header=BB1_1 Depth=1
	movq	-464(%rbp), %rax        # 8-byte Reload
	shlq	$4, %rax
	movq	-8(%rbp), %rcx          # 8-byte Reload
	movl	(%rcx,%rax,4), %edx
	movq	-464(%rbp), %rax        # 8-byte Reload
	shlq	$4, %rax
	addl	4(%rcx,%rax,4), %edx
	movl	%edx, 4(%rcx,%rax,4)
	movq	-464(%rbp), %rax        # 8-byte Reload
	shlq	$4, %rax
	movl	4(%rcx,%rax,4), %edx
	movq	-464(%rbp), %rax        # 8-byte Reload
	shlq	$4, %rax
	addl	8(%rcx,%rax,4), %edx
	movl	%edx, 8(%rcx,%rax,4)
	movq	-464(%rbp), %rax        # 8-byte Reload
	shlq	$4, %rax
	movl	8(%rcx,%rax,4), %edx
	movq	-464(%rbp), %rax        # 8-byte Reload
	shlq	$4, %rax
	addl	12(%rcx,%rax,4), %edx
	movl	%edx, 12(%rcx,%rax,4)
	movq	-464(%rbp), %rax        # 8-byte Reload
	shlq	$4, %rax
	movl	12(%rcx,%rax,4), %edx
	movq	-464(%rbp), %rax        # 8-byte Reload
	shlq	$4, %rax
	addl	16(%rcx,%rax,4), %edx
	movl	%edx, 16(%rcx,%rax,4)
	movq	-464(%rbp), %rax        # 8-byte Reload
	shlq	$4, %rax
	movl	16(%rcx,%rax,4), %edx
	movq	-464(%rbp), %rax        # 8-byte Reload
	shlq	$4, %rax
	addl	20(%rcx,%rax,4), %edx
	movl	%edx, 20(%rcx,%rax,4)
	movq	-464(%rbp), %rax        # 8-byte Reload
	shlq	$4, %rax
	movl	20(%rcx,%rax,4), %edx
	movq	-464(%rbp), %rax        # 8-byte Reload
	shlq	$4, %rax
	addl	24(%rcx,%rax,4), %edx
	movl	%edx, 24(%rcx,%rax,4)
	movq	-464(%rbp), %rax        # 8-byte Reload
	shlq	$4, %rax
	movl	24(%rcx,%rax,4), %edx
	movq	-464(%rbp), %rax        # 8-byte Reload
	shlq	$4, %rax
	addl	28(%rcx,%rax,4), %edx
	movl	%edx, 28(%rcx,%rax,4)
	movq	-464(%rbp), %rax        # 8-byte Reload
	shlq	$4, %rax
	movl	28(%rcx,%rax,4), %edx
	movq	-464(%rbp), %rax        # 8-byte Reload
	shlq	$4, %rax
	addl	32(%rcx,%rax,4), %edx
	movl	%edx, 32(%rcx,%rax,4)
	movq	-464(%rbp), %rax        # 8-byte Reload
	shlq	$4, %rax
	movl	32(%rcx,%rax,4), %edx
	movq	-464(%rbp), %rax        # 8-byte Reload
	shlq	$4, %rax
	addl	36(%rcx,%rax,4), %edx
	movl	%edx, 36(%rcx,%rax,4)
	movq	-464(%rbp), %rax        # 8-byte Reload
	shlq	$4, %rax
	movl	36(%rcx,%rax,4), %edx
	movq	-464(%rbp), %rax        # 8-byte Reload
	shlq	$4, %rax
	addl	40(%rcx,%rax,4), %edx
	movl	%edx, 40(%rcx,%rax,4)
	movq	-464(%rbp), %rax        # 8-byte Reload
	shlq	$4, %rax
	movl	40(%rcx,%rax,4), %edx
	movq	-464(%rbp), %rax        # 8-byte Reload
	shlq	$4, %rax
	addl	44(%rcx,%rax,4), %edx
	movl	%edx, 44(%rcx,%rax,4)
	movq	-464(%rbp), %rax        # 8-byte Reload
	shlq	$4, %rax
	movl	44(%rcx,%rax,4), %edx
	movq	-464(%rbp), %rax        # 8-byte Reload
	shlq	$4, %rax
	addl	48(%rcx,%rax,4), %edx
	movl	%edx, 48(%rcx,%rax,4)
	movq	-464(%rbp), %rax        # 8-byte Reload
	shlq	$4, %rax
	movl	48(%rcx,%rax,4), %edx
	movq	-464(%rbp), %rax        # 8-byte Reload
	shlq	$4, %rax
	addl	52(%rcx,%rax,4), %edx
	movl	%edx, 52(%rcx,%rax,4)
	movq	-464(%rbp), %rax        # 8-byte Reload
	shlq	$4, %rax
	movl	52(%rcx,%rax,4), %edx
	movq	-464(%rbp), %rax        # 8-byte Reload
	shlq	$4, %rax
	addl	56(%rcx,%rax,4), %edx
	movl	%edx, 56(%rcx,%rax,4)
	movq	-464(%rbp), %rax        # 8-byte Reload
	shlq	$4, %rax
	movl	56(%rcx,%rax,4), %edx
	movq	-464(%rbp), %rax        # 8-byte Reload
	shlq	$4, %rax
	addl	60(%rcx,%rax,4), %edx
	movl	%edx, 60(%rcx,%rax,4)
	movq	-464(%rbp), %rax        # 8-byte Reload
	addq	$1, %rax
	movq	%rax, -472(%rbp)        # 8-byte Spill
# %bb.59:                               # %for.body3.56
                                        #   in Loop: Header=BB1_1 Depth=1
	movq	-472(%rbp), %rax        # 8-byte Reload
	shlq	$4, %rax
	movq	-8(%rbp), %rcx          # 8-byte Reload
	movl	(%rcx,%rax,4), %edx
	movq	-472(%rbp), %rax        # 8-byte Reload
	shlq	$4, %rax
	addl	4(%rcx,%rax,4), %edx
	movl	%edx, 4(%rcx,%rax,4)
	movq	-472(%rbp), %rax        # 8-byte Reload
	shlq	$4, %rax
	movl	4(%rcx,%rax,4), %edx
	movq	-472(%rbp), %rax        # 8-byte Reload
	shlq	$4, %rax
	addl	8(%rcx,%rax,4), %edx
	movl	%edx, 8(%rcx,%rax,4)
	movq	-472(%rbp), %rax        # 8-byte Reload
	shlq	$4, %rax
	movl	8(%rcx,%rax,4), %edx
	movq	-472(%rbp), %rax        # 8-byte Reload
	shlq	$4, %rax
	addl	12(%rcx,%rax,4), %edx
	movl	%edx, 12(%rcx,%rax,4)
	movq	-472(%rbp), %rax        # 8-byte Reload
	shlq	$4, %rax
	movl	12(%rcx,%rax,4), %edx
	movq	-472(%rbp), %rax        # 8-byte Reload
	shlq	$4, %rax
	addl	16(%rcx,%rax,4), %edx
	movl	%edx, 16(%rcx,%rax,4)
	movq	-472(%rbp), %rax        # 8-byte Reload
	shlq	$4, %rax
	movl	16(%rcx,%rax,4), %edx
	movq	-472(%rbp), %rax        # 8-byte Reload
	shlq	$4, %rax
	addl	20(%rcx,%rax,4), %edx
	movl	%edx, 20(%rcx,%rax,4)
	movq	-472(%rbp), %rax        # 8-byte Reload
	shlq	$4, %rax
	movl	20(%rcx,%rax,4), %edx
	movq	-472(%rbp), %rax        # 8-byte Reload
	shlq	$4, %rax
	addl	24(%rcx,%rax,4), %edx
	movl	%edx, 24(%rcx,%rax,4)
	movq	-472(%rbp), %rax        # 8-byte Reload
	shlq	$4, %rax
	movl	24(%rcx,%rax,4), %edx
	movq	-472(%rbp), %rax        # 8-byte Reload
	shlq	$4, %rax
	addl	28(%rcx,%rax,4), %edx
	movl	%edx, 28(%rcx,%rax,4)
	movq	-472(%rbp), %rax        # 8-byte Reload
	shlq	$4, %rax
	movl	28(%rcx,%rax,4), %edx
	movq	-472(%rbp), %rax        # 8-byte Reload
	shlq	$4, %rax
	addl	32(%rcx,%rax,4), %edx
	movl	%edx, 32(%rcx,%rax,4)
	movq	-472(%rbp), %rax        # 8-byte Reload
	shlq	$4, %rax
	movl	32(%rcx,%rax,4), %edx
	movq	-472(%rbp), %rax        # 8-byte Reload
	shlq	$4, %rax
	addl	36(%rcx,%rax,4), %edx
	movl	%edx, 36(%rcx,%rax,4)
	movq	-472(%rbp), %rax        # 8-byte Reload
	shlq	$4, %rax
	movl	36(%rcx,%rax,4), %edx
	movq	-472(%rbp), %rax        # 8-byte Reload
	shlq	$4, %rax
	addl	40(%rcx,%rax,4), %edx
	movl	%edx, 40(%rcx,%rax,4)
	movq	-472(%rbp), %rax        # 8-byte Reload
	shlq	$4, %rax
	movl	40(%rcx,%rax,4), %edx
	movq	-472(%rbp), %rax        # 8-byte Reload
	shlq	$4, %rax
	addl	44(%rcx,%rax,4), %edx
	movl	%edx, 44(%rcx,%rax,4)
	movq	-472(%rbp), %rax        # 8-byte Reload
	shlq	$4, %rax
	movl	44(%rcx,%rax,4), %edx
	movq	-472(%rbp), %rax        # 8-byte Reload
	shlq	$4, %rax
	addl	48(%rcx,%rax,4), %edx
	movl	%edx, 48(%rcx,%rax,4)
	movq	-472(%rbp), %rax        # 8-byte Reload
	shlq	$4, %rax
	movl	48(%rcx,%rax,4), %edx
	movq	-472(%rbp), %rax        # 8-byte Reload
	shlq	$4, %rax
	addl	52(%rcx,%rax,4), %edx
	movl	%edx, 52(%rcx,%rax,4)
	movq	-472(%rbp), %rax        # 8-byte Reload
	shlq	$4, %rax
	movl	52(%rcx,%rax,4), %edx
	movq	-472(%rbp), %rax        # 8-byte Reload
	shlq	$4, %rax
	addl	56(%rcx,%rax,4), %edx
	movl	%edx, 56(%rcx,%rax,4)
	movq	-472(%rbp), %rax        # 8-byte Reload
	shlq	$4, %rax
	movl	56(%rcx,%rax,4), %edx
	movq	-472(%rbp), %rax        # 8-byte Reload
	shlq	$4, %rax
	addl	60(%rcx,%rax,4), %edx
	movl	%edx, 60(%rcx,%rax,4)
	movq	-472(%rbp), %rax        # 8-byte Reload
	addq	$1, %rax
	movq	%rax, -480(%rbp)        # 8-byte Spill
# %bb.60:                               # %for.body3.57
                                        #   in Loop: Header=BB1_1 Depth=1
	movq	-480(%rbp), %rax        # 8-byte Reload
	shlq	$4, %rax
	movq	-8(%rbp), %rcx          # 8-byte Reload
	movl	(%rcx,%rax,4), %edx
	movq	-480(%rbp), %rax        # 8-byte Reload
	shlq	$4, %rax
	addl	4(%rcx,%rax,4), %edx
	movl	%edx, 4(%rcx,%rax,4)
	movq	-480(%rbp), %rax        # 8-byte Reload
	shlq	$4, %rax
	movl	4(%rcx,%rax,4), %edx
	movq	-480(%rbp), %rax        # 8-byte Reload
	shlq	$4, %rax
	addl	8(%rcx,%rax,4), %edx
	movl	%edx, 8(%rcx,%rax,4)
	movq	-480(%rbp), %rax        # 8-byte Reload
	shlq	$4, %rax
	movl	8(%rcx,%rax,4), %edx
	movq	-480(%rbp), %rax        # 8-byte Reload
	shlq	$4, %rax
	addl	12(%rcx,%rax,4), %edx
	movl	%edx, 12(%rcx,%rax,4)
	movq	-480(%rbp), %rax        # 8-byte Reload
	shlq	$4, %rax
	movl	12(%rcx,%rax,4), %edx
	movq	-480(%rbp), %rax        # 8-byte Reload
	shlq	$4, %rax
	addl	16(%rcx,%rax,4), %edx
	movl	%edx, 16(%rcx,%rax,4)
	movq	-480(%rbp), %rax        # 8-byte Reload
	shlq	$4, %rax
	movl	16(%rcx,%rax,4), %edx
	movq	-480(%rbp), %rax        # 8-byte Reload
	shlq	$4, %rax
	addl	20(%rcx,%rax,4), %edx
	movl	%edx, 20(%rcx,%rax,4)
	movq	-480(%rbp), %rax        # 8-byte Reload
	shlq	$4, %rax
	movl	20(%rcx,%rax,4), %edx
	movq	-480(%rbp), %rax        # 8-byte Reload
	shlq	$4, %rax
	addl	24(%rcx,%rax,4), %edx
	movl	%edx, 24(%rcx,%rax,4)
	movq	-480(%rbp), %rax        # 8-byte Reload
	shlq	$4, %rax
	movl	24(%rcx,%rax,4), %edx
	movq	-480(%rbp), %rax        # 8-byte Reload
	shlq	$4, %rax
	addl	28(%rcx,%rax,4), %edx
	movl	%edx, 28(%rcx,%rax,4)
	movq	-480(%rbp), %rax        # 8-byte Reload
	shlq	$4, %rax
	movl	28(%rcx,%rax,4), %edx
	movq	-480(%rbp), %rax        # 8-byte Reload
	shlq	$4, %rax
	addl	32(%rcx,%rax,4), %edx
	movl	%edx, 32(%rcx,%rax,4)
	movq	-480(%rbp), %rax        # 8-byte Reload
	shlq	$4, %rax
	movl	32(%rcx,%rax,4), %edx
	movq	-480(%rbp), %rax        # 8-byte Reload
	shlq	$4, %rax
	addl	36(%rcx,%rax,4), %edx
	movl	%edx, 36(%rcx,%rax,4)
	movq	-480(%rbp), %rax        # 8-byte Reload
	shlq	$4, %rax
	movl	36(%rcx,%rax,4), %edx
	movq	-480(%rbp), %rax        # 8-byte Reload
	shlq	$4, %rax
	addl	40(%rcx,%rax,4), %edx
	movl	%edx, 40(%rcx,%rax,4)
	movq	-480(%rbp), %rax        # 8-byte Reload
	shlq	$4, %rax
	movl	40(%rcx,%rax,4), %edx
	movq	-480(%rbp), %rax        # 8-byte Reload
	shlq	$4, %rax
	addl	44(%rcx,%rax,4), %edx
	movl	%edx, 44(%rcx,%rax,4)
	movq	-480(%rbp), %rax        # 8-byte Reload
	shlq	$4, %rax
	movl	44(%rcx,%rax,4), %edx
	movq	-480(%rbp), %rax        # 8-byte Reload
	shlq	$4, %rax
	addl	48(%rcx,%rax,4), %edx
	movl	%edx, 48(%rcx,%rax,4)
	movq	-480(%rbp), %rax        # 8-byte Reload
	shlq	$4, %rax
	movl	48(%rcx,%rax,4), %edx
	movq	-480(%rbp), %rax        # 8-byte Reload
	shlq	$4, %rax
	addl	52(%rcx,%rax,4), %edx
	movl	%edx, 52(%rcx,%rax,4)
	movq	-480(%rbp), %rax        # 8-byte Reload
	shlq	$4, %rax
	movl	52(%rcx,%rax,4), %edx
	movq	-480(%rbp), %rax        # 8-byte Reload
	shlq	$4, %rax
	addl	56(%rcx,%rax,4), %edx
	movl	%edx, 56(%rcx,%rax,4)
	movq	-480(%rbp), %rax        # 8-byte Reload
	shlq	$4, %rax
	movl	56(%rcx,%rax,4), %edx
	movq	-480(%rbp), %rax        # 8-byte Reload
	shlq	$4, %rax
	addl	60(%rcx,%rax,4), %edx
	movl	%edx, 60(%rcx,%rax,4)
	movq	-480(%rbp), %rax        # 8-byte Reload
	addq	$1, %rax
	movq	%rax, -488(%rbp)        # 8-byte Spill
# %bb.61:                               # %for.body3.58
                                        #   in Loop: Header=BB1_1 Depth=1
	movq	-488(%rbp), %rax        # 8-byte Reload
	shlq	$4, %rax
	movq	-8(%rbp), %rcx          # 8-byte Reload
	movl	(%rcx,%rax,4), %edx
	movq	-488(%rbp), %rax        # 8-byte Reload
	shlq	$4, %rax
	addl	4(%rcx,%rax,4), %edx
	movl	%edx, 4(%rcx,%rax,4)
	movq	-488(%rbp), %rax        # 8-byte Reload
	shlq	$4, %rax
	movl	4(%rcx,%rax,4), %edx
	movq	-488(%rbp), %rax        # 8-byte Reload
	shlq	$4, %rax
	addl	8(%rcx,%rax,4), %edx
	movl	%edx, 8(%rcx,%rax,4)
	movq	-488(%rbp), %rax        # 8-byte Reload
	shlq	$4, %rax
	movl	8(%rcx,%rax,4), %edx
	movq	-488(%rbp), %rax        # 8-byte Reload
	shlq	$4, %rax
	addl	12(%rcx,%rax,4), %edx
	movl	%edx, 12(%rcx,%rax,4)
	movq	-488(%rbp), %rax        # 8-byte Reload
	shlq	$4, %rax
	movl	12(%rcx,%rax,4), %edx
	movq	-488(%rbp), %rax        # 8-byte Reload
	shlq	$4, %rax
	addl	16(%rcx,%rax,4), %edx
	movl	%edx, 16(%rcx,%rax,4)
	movq	-488(%rbp), %rax        # 8-byte Reload
	shlq	$4, %rax
	movl	16(%rcx,%rax,4), %edx
	movq	-488(%rbp), %rax        # 8-byte Reload
	shlq	$4, %rax
	addl	20(%rcx,%rax,4), %edx
	movl	%edx, 20(%rcx,%rax,4)
	movq	-488(%rbp), %rax        # 8-byte Reload
	shlq	$4, %rax
	movl	20(%rcx,%rax,4), %edx
	movq	-488(%rbp), %rax        # 8-byte Reload
	shlq	$4, %rax
	addl	24(%rcx,%rax,4), %edx
	movl	%edx, 24(%rcx,%rax,4)
	movq	-488(%rbp), %rax        # 8-byte Reload
	shlq	$4, %rax
	movl	24(%rcx,%rax,4), %edx
	movq	-488(%rbp), %rax        # 8-byte Reload
	shlq	$4, %rax
	addl	28(%rcx,%rax,4), %edx
	movl	%edx, 28(%rcx,%rax,4)
	movq	-488(%rbp), %rax        # 8-byte Reload
	shlq	$4, %rax
	movl	28(%rcx,%rax,4), %edx
	movq	-488(%rbp), %rax        # 8-byte Reload
	shlq	$4, %rax
	addl	32(%rcx,%rax,4), %edx
	movl	%edx, 32(%rcx,%rax,4)
	movq	-488(%rbp), %rax        # 8-byte Reload
	shlq	$4, %rax
	movl	32(%rcx,%rax,4), %edx
	movq	-488(%rbp), %rax        # 8-byte Reload
	shlq	$4, %rax
	addl	36(%rcx,%rax,4), %edx
	movl	%edx, 36(%rcx,%rax,4)
	movq	-488(%rbp), %rax        # 8-byte Reload
	shlq	$4, %rax
	movl	36(%rcx,%rax,4), %edx
	movq	-488(%rbp), %rax        # 8-byte Reload
	shlq	$4, %rax
	addl	40(%rcx,%rax,4), %edx
	movl	%edx, 40(%rcx,%rax,4)
	movq	-488(%rbp), %rax        # 8-byte Reload
	shlq	$4, %rax
	movl	40(%rcx,%rax,4), %edx
	movq	-488(%rbp), %rax        # 8-byte Reload
	shlq	$4, %rax
	addl	44(%rcx,%rax,4), %edx
	movl	%edx, 44(%rcx,%rax,4)
	movq	-488(%rbp), %rax        # 8-byte Reload
	shlq	$4, %rax
	movl	44(%rcx,%rax,4), %edx
	movq	-488(%rbp), %rax        # 8-byte Reload
	shlq	$4, %rax
	addl	48(%rcx,%rax,4), %edx
	movl	%edx, 48(%rcx,%rax,4)
	movq	-488(%rbp), %rax        # 8-byte Reload
	shlq	$4, %rax
	movl	48(%rcx,%rax,4), %edx
	movq	-488(%rbp), %rax        # 8-byte Reload
	shlq	$4, %rax
	addl	52(%rcx,%rax,4), %edx
	movl	%edx, 52(%rcx,%rax,4)
	movq	-488(%rbp), %rax        # 8-byte Reload
	shlq	$4, %rax
	movl	52(%rcx,%rax,4), %edx
	movq	-488(%rbp), %rax        # 8-byte Reload
	shlq	$4, %rax
	addl	56(%rcx,%rax,4), %edx
	movl	%edx, 56(%rcx,%rax,4)
	movq	-488(%rbp), %rax        # 8-byte Reload
	shlq	$4, %rax
	movl	56(%rcx,%rax,4), %edx
	movq	-488(%rbp), %rax        # 8-byte Reload
	shlq	$4, %rax
	addl	60(%rcx,%rax,4), %edx
	movl	%edx, 60(%rcx,%rax,4)
	movq	-488(%rbp), %rax        # 8-byte Reload
	addq	$1, %rax
	movq	%rax, -496(%rbp)        # 8-byte Spill
# %bb.62:                               # %for.body3.59
                                        #   in Loop: Header=BB1_1 Depth=1
	movq	-496(%rbp), %rax        # 8-byte Reload
	shlq	$4, %rax
	movq	-8(%rbp), %rcx          # 8-byte Reload
	movl	(%rcx,%rax,4), %edx
	movq	-496(%rbp), %rax        # 8-byte Reload
	shlq	$4, %rax
	addl	4(%rcx,%rax,4), %edx
	movl	%edx, 4(%rcx,%rax,4)
	movq	-496(%rbp), %rax        # 8-byte Reload
	shlq	$4, %rax
	movl	4(%rcx,%rax,4), %edx
	movq	-496(%rbp), %rax        # 8-byte Reload
	shlq	$4, %rax
	addl	8(%rcx,%rax,4), %edx
	movl	%edx, 8(%rcx,%rax,4)
	movq	-496(%rbp), %rax        # 8-byte Reload
	shlq	$4, %rax
	movl	8(%rcx,%rax,4), %edx
	movq	-496(%rbp), %rax        # 8-byte Reload
	shlq	$4, %rax
	addl	12(%rcx,%rax,4), %edx
	movl	%edx, 12(%rcx,%rax,4)
	movq	-496(%rbp), %rax        # 8-byte Reload
	shlq	$4, %rax
	movl	12(%rcx,%rax,4), %edx
	movq	-496(%rbp), %rax        # 8-byte Reload
	shlq	$4, %rax
	addl	16(%rcx,%rax,4), %edx
	movl	%edx, 16(%rcx,%rax,4)
	movq	-496(%rbp), %rax        # 8-byte Reload
	shlq	$4, %rax
	movl	16(%rcx,%rax,4), %edx
	movq	-496(%rbp), %rax        # 8-byte Reload
	shlq	$4, %rax
	addl	20(%rcx,%rax,4), %edx
	movl	%edx, 20(%rcx,%rax,4)
	movq	-496(%rbp), %rax        # 8-byte Reload
	shlq	$4, %rax
	movl	20(%rcx,%rax,4), %edx
	movq	-496(%rbp), %rax        # 8-byte Reload
	shlq	$4, %rax
	addl	24(%rcx,%rax,4), %edx
	movl	%edx, 24(%rcx,%rax,4)
	movq	-496(%rbp), %rax        # 8-byte Reload
	shlq	$4, %rax
	movl	24(%rcx,%rax,4), %edx
	movq	-496(%rbp), %rax        # 8-byte Reload
	shlq	$4, %rax
	addl	28(%rcx,%rax,4), %edx
	movl	%edx, 28(%rcx,%rax,4)
	movq	-496(%rbp), %rax        # 8-byte Reload
	shlq	$4, %rax
	movl	28(%rcx,%rax,4), %edx
	movq	-496(%rbp), %rax        # 8-byte Reload
	shlq	$4, %rax
	addl	32(%rcx,%rax,4), %edx
	movl	%edx, 32(%rcx,%rax,4)
	movq	-496(%rbp), %rax        # 8-byte Reload
	shlq	$4, %rax
	movl	32(%rcx,%rax,4), %edx
	movq	-496(%rbp), %rax        # 8-byte Reload
	shlq	$4, %rax
	addl	36(%rcx,%rax,4), %edx
	movl	%edx, 36(%rcx,%rax,4)
	movq	-496(%rbp), %rax        # 8-byte Reload
	shlq	$4, %rax
	movl	36(%rcx,%rax,4), %edx
	movq	-496(%rbp), %rax        # 8-byte Reload
	shlq	$4, %rax
	addl	40(%rcx,%rax,4), %edx
	movl	%edx, 40(%rcx,%rax,4)
	movq	-496(%rbp), %rax        # 8-byte Reload
	shlq	$4, %rax
	movl	40(%rcx,%rax,4), %edx
	movq	-496(%rbp), %rax        # 8-byte Reload
	shlq	$4, %rax
	addl	44(%rcx,%rax,4), %edx
	movl	%edx, 44(%rcx,%rax,4)
	movq	-496(%rbp), %rax        # 8-byte Reload
	shlq	$4, %rax
	movl	44(%rcx,%rax,4), %edx
	movq	-496(%rbp), %rax        # 8-byte Reload
	shlq	$4, %rax
	addl	48(%rcx,%rax,4), %edx
	movl	%edx, 48(%rcx,%rax,4)
	movq	-496(%rbp), %rax        # 8-byte Reload
	shlq	$4, %rax
	movl	48(%rcx,%rax,4), %edx
	movq	-496(%rbp), %rax        # 8-byte Reload
	shlq	$4, %rax
	addl	52(%rcx,%rax,4), %edx
	movl	%edx, 52(%rcx,%rax,4)
	movq	-496(%rbp), %rax        # 8-byte Reload
	shlq	$4, %rax
	movl	52(%rcx,%rax,4), %edx
	movq	-496(%rbp), %rax        # 8-byte Reload
	shlq	$4, %rax
	addl	56(%rcx,%rax,4), %edx
	movl	%edx, 56(%rcx,%rax,4)
	movq	-496(%rbp), %rax        # 8-byte Reload
	shlq	$4, %rax
	movl	56(%rcx,%rax,4), %edx
	movq	-496(%rbp), %rax        # 8-byte Reload
	shlq	$4, %rax
	addl	60(%rcx,%rax,4), %edx
	movl	%edx, 60(%rcx,%rax,4)
	movq	-496(%rbp), %rax        # 8-byte Reload
	addq	$1, %rax
	movq	%rax, -504(%rbp)        # 8-byte Spill
# %bb.63:                               # %for.body3.60
                                        #   in Loop: Header=BB1_1 Depth=1
	movq	-504(%rbp), %rax        # 8-byte Reload
	shlq	$4, %rax
	movq	-8(%rbp), %rcx          # 8-byte Reload
	movl	(%rcx,%rax,4), %edx
	movq	-504(%rbp), %rax        # 8-byte Reload
	shlq	$4, %rax
	addl	4(%rcx,%rax,4), %edx
	movl	%edx, 4(%rcx,%rax,4)
	movq	-504(%rbp), %rax        # 8-byte Reload
	shlq	$4, %rax
	movl	4(%rcx,%rax,4), %edx
	movq	-504(%rbp), %rax        # 8-byte Reload
	shlq	$4, %rax
	addl	8(%rcx,%rax,4), %edx
	movl	%edx, 8(%rcx,%rax,4)
	movq	-504(%rbp), %rax        # 8-byte Reload
	shlq	$4, %rax
	movl	8(%rcx,%rax,4), %edx
	movq	-504(%rbp), %rax        # 8-byte Reload
	shlq	$4, %rax
	addl	12(%rcx,%rax,4), %edx
	movl	%edx, 12(%rcx,%rax,4)
	movq	-504(%rbp), %rax        # 8-byte Reload
	shlq	$4, %rax
	movl	12(%rcx,%rax,4), %edx
	movq	-504(%rbp), %rax        # 8-byte Reload
	shlq	$4, %rax
	addl	16(%rcx,%rax,4), %edx
	movl	%edx, 16(%rcx,%rax,4)
	movq	-504(%rbp), %rax        # 8-byte Reload
	shlq	$4, %rax
	movl	16(%rcx,%rax,4), %edx
	movq	-504(%rbp), %rax        # 8-byte Reload
	shlq	$4, %rax
	addl	20(%rcx,%rax,4), %edx
	movl	%edx, 20(%rcx,%rax,4)
	movq	-504(%rbp), %rax        # 8-byte Reload
	shlq	$4, %rax
	movl	20(%rcx,%rax,4), %edx
	movq	-504(%rbp), %rax        # 8-byte Reload
	shlq	$4, %rax
	addl	24(%rcx,%rax,4), %edx
	movl	%edx, 24(%rcx,%rax,4)
	movq	-504(%rbp), %rax        # 8-byte Reload
	shlq	$4, %rax
	movl	24(%rcx,%rax,4), %edx
	movq	-504(%rbp), %rax        # 8-byte Reload
	shlq	$4, %rax
	addl	28(%rcx,%rax,4), %edx
	movl	%edx, 28(%rcx,%rax,4)
	movq	-504(%rbp), %rax        # 8-byte Reload
	shlq	$4, %rax
	movl	28(%rcx,%rax,4), %edx
	movq	-504(%rbp), %rax        # 8-byte Reload
	shlq	$4, %rax
	addl	32(%rcx,%rax,4), %edx
	movl	%edx, 32(%rcx,%rax,4)
	movq	-504(%rbp), %rax        # 8-byte Reload
	shlq	$4, %rax
	movl	32(%rcx,%rax,4), %edx
	movq	-504(%rbp), %rax        # 8-byte Reload
	shlq	$4, %rax
	addl	36(%rcx,%rax,4), %edx
	movl	%edx, 36(%rcx,%rax,4)
	movq	-504(%rbp), %rax        # 8-byte Reload
	shlq	$4, %rax
	movl	36(%rcx,%rax,4), %edx
	movq	-504(%rbp), %rax        # 8-byte Reload
	shlq	$4, %rax
	addl	40(%rcx,%rax,4), %edx
	movl	%edx, 40(%rcx,%rax,4)
	movq	-504(%rbp), %rax        # 8-byte Reload
	shlq	$4, %rax
	movl	40(%rcx,%rax,4), %edx
	movq	-504(%rbp), %rax        # 8-byte Reload
	shlq	$4, %rax
	addl	44(%rcx,%rax,4), %edx
	movl	%edx, 44(%rcx,%rax,4)
	movq	-504(%rbp), %rax        # 8-byte Reload
	shlq	$4, %rax
	movl	44(%rcx,%rax,4), %edx
	movq	-504(%rbp), %rax        # 8-byte Reload
	shlq	$4, %rax
	addl	48(%rcx,%rax,4), %edx
	movl	%edx, 48(%rcx,%rax,4)
	movq	-504(%rbp), %rax        # 8-byte Reload
	shlq	$4, %rax
	movl	48(%rcx,%rax,4), %edx
	movq	-504(%rbp), %rax        # 8-byte Reload
	shlq	$4, %rax
	addl	52(%rcx,%rax,4), %edx
	movl	%edx, 52(%rcx,%rax,4)
	movq	-504(%rbp), %rax        # 8-byte Reload
	shlq	$4, %rax
	movl	52(%rcx,%rax,4), %edx
	movq	-504(%rbp), %rax        # 8-byte Reload
	shlq	$4, %rax
	addl	56(%rcx,%rax,4), %edx
	movl	%edx, 56(%rcx,%rax,4)
	movq	-504(%rbp), %rax        # 8-byte Reload
	shlq	$4, %rax
	movl	56(%rcx,%rax,4), %edx
	movq	-504(%rbp), %rax        # 8-byte Reload
	shlq	$4, %rax
	addl	60(%rcx,%rax,4), %edx
	movl	%edx, 60(%rcx,%rax,4)
	movq	-504(%rbp), %rax        # 8-byte Reload
	addq	$1, %rax
	movq	%rax, -512(%rbp)        # 8-byte Spill
# %bb.64:                               # %for.body3.61
                                        #   in Loop: Header=BB1_1 Depth=1
	movq	-512(%rbp), %rax        # 8-byte Reload
	shlq	$4, %rax
	movq	-8(%rbp), %rcx          # 8-byte Reload
	movl	(%rcx,%rax,4), %edx
	movq	-512(%rbp), %rax        # 8-byte Reload
	shlq	$4, %rax
	addl	4(%rcx,%rax,4), %edx
	movl	%edx, 4(%rcx,%rax,4)
	movq	-512(%rbp), %rax        # 8-byte Reload
	shlq	$4, %rax
	movl	4(%rcx,%rax,4), %edx
	movq	-512(%rbp), %rax        # 8-byte Reload
	shlq	$4, %rax
	addl	8(%rcx,%rax,4), %edx
	movl	%edx, 8(%rcx,%rax,4)
	movq	-512(%rbp), %rax        # 8-byte Reload
	shlq	$4, %rax
	movl	8(%rcx,%rax,4), %edx
	movq	-512(%rbp), %rax        # 8-byte Reload
	shlq	$4, %rax
	addl	12(%rcx,%rax,4), %edx
	movl	%edx, 12(%rcx,%rax,4)
	movq	-512(%rbp), %rax        # 8-byte Reload
	shlq	$4, %rax
	movl	12(%rcx,%rax,4), %edx
	movq	-512(%rbp), %rax        # 8-byte Reload
	shlq	$4, %rax
	addl	16(%rcx,%rax,4), %edx
	movl	%edx, 16(%rcx,%rax,4)
	movq	-512(%rbp), %rax        # 8-byte Reload
	shlq	$4, %rax
	movl	16(%rcx,%rax,4), %edx
	movq	-512(%rbp), %rax        # 8-byte Reload
	shlq	$4, %rax
	addl	20(%rcx,%rax,4), %edx
	movl	%edx, 20(%rcx,%rax,4)
	movq	-512(%rbp), %rax        # 8-byte Reload
	shlq	$4, %rax
	movl	20(%rcx,%rax,4), %edx
	movq	-512(%rbp), %rax        # 8-byte Reload
	shlq	$4, %rax
	addl	24(%rcx,%rax,4), %edx
	movl	%edx, 24(%rcx,%rax,4)
	movq	-512(%rbp), %rax        # 8-byte Reload
	shlq	$4, %rax
	movl	24(%rcx,%rax,4), %edx
	movq	-512(%rbp), %rax        # 8-byte Reload
	shlq	$4, %rax
	addl	28(%rcx,%rax,4), %edx
	movl	%edx, 28(%rcx,%rax,4)
	movq	-512(%rbp), %rax        # 8-byte Reload
	shlq	$4, %rax
	movl	28(%rcx,%rax,4), %edx
	movq	-512(%rbp), %rax        # 8-byte Reload
	shlq	$4, %rax
	addl	32(%rcx,%rax,4), %edx
	movl	%edx, 32(%rcx,%rax,4)
	movq	-512(%rbp), %rax        # 8-byte Reload
	shlq	$4, %rax
	movl	32(%rcx,%rax,4), %edx
	movq	-512(%rbp), %rax        # 8-byte Reload
	shlq	$4, %rax
	addl	36(%rcx,%rax,4), %edx
	movl	%edx, 36(%rcx,%rax,4)
	movq	-512(%rbp), %rax        # 8-byte Reload
	shlq	$4, %rax
	movl	36(%rcx,%rax,4), %edx
	movq	-512(%rbp), %rax        # 8-byte Reload
	shlq	$4, %rax
	addl	40(%rcx,%rax,4), %edx
	movl	%edx, 40(%rcx,%rax,4)
	movq	-512(%rbp), %rax        # 8-byte Reload
	shlq	$4, %rax
	movl	40(%rcx,%rax,4), %edx
	movq	-512(%rbp), %rax        # 8-byte Reload
	shlq	$4, %rax
	addl	44(%rcx,%rax,4), %edx
	movl	%edx, 44(%rcx,%rax,4)
	movq	-512(%rbp), %rax        # 8-byte Reload
	shlq	$4, %rax
	movl	44(%rcx,%rax,4), %edx
	movq	-512(%rbp), %rax        # 8-byte Reload
	shlq	$4, %rax
	addl	48(%rcx,%rax,4), %edx
	movl	%edx, 48(%rcx,%rax,4)
	movq	-512(%rbp), %rax        # 8-byte Reload
	shlq	$4, %rax
	movl	48(%rcx,%rax,4), %edx
	movq	-512(%rbp), %rax        # 8-byte Reload
	shlq	$4, %rax
	addl	52(%rcx,%rax,4), %edx
	movl	%edx, 52(%rcx,%rax,4)
	movq	-512(%rbp), %rax        # 8-byte Reload
	shlq	$4, %rax
	movl	52(%rcx,%rax,4), %edx
	movq	-512(%rbp), %rax        # 8-byte Reload
	shlq	$4, %rax
	addl	56(%rcx,%rax,4), %edx
	movl	%edx, 56(%rcx,%rax,4)
	movq	-512(%rbp), %rax        # 8-byte Reload
	shlq	$4, %rax
	movl	56(%rcx,%rax,4), %edx
	movq	-512(%rbp), %rax        # 8-byte Reload
	shlq	$4, %rax
	addl	60(%rcx,%rax,4), %edx
	movl	%edx, 60(%rcx,%rax,4)
	movq	-512(%rbp), %rax        # 8-byte Reload
	addq	$1, %rax
	movq	%rax, -520(%rbp)        # 8-byte Spill
# %bb.65:                               # %for.body3.62
                                        #   in Loop: Header=BB1_1 Depth=1
	movq	-520(%rbp), %rax        # 8-byte Reload
	shlq	$4, %rax
	movq	-8(%rbp), %rcx          # 8-byte Reload
	movl	(%rcx,%rax,4), %edx
	movq	-520(%rbp), %rax        # 8-byte Reload
	shlq	$4, %rax
	addl	4(%rcx,%rax,4), %edx
	movl	%edx, 4(%rcx,%rax,4)
	movq	-520(%rbp), %rax        # 8-byte Reload
	shlq	$4, %rax
	movl	4(%rcx,%rax,4), %edx
	movq	-520(%rbp), %rax        # 8-byte Reload
	shlq	$4, %rax
	addl	8(%rcx,%rax,4), %edx
	movl	%edx, 8(%rcx,%rax,4)
	movq	-520(%rbp), %rax        # 8-byte Reload
	shlq	$4, %rax
	movl	8(%rcx,%rax,4), %edx
	movq	-520(%rbp), %rax        # 8-byte Reload
	shlq	$4, %rax
	addl	12(%rcx,%rax,4), %edx
	movl	%edx, 12(%rcx,%rax,4)
	movq	-520(%rbp), %rax        # 8-byte Reload
	shlq	$4, %rax
	movl	12(%rcx,%rax,4), %edx
	movq	-520(%rbp), %rax        # 8-byte Reload
	shlq	$4, %rax
	addl	16(%rcx,%rax,4), %edx
	movl	%edx, 16(%rcx,%rax,4)
	movq	-520(%rbp), %rax        # 8-byte Reload
	shlq	$4, %rax
	movl	16(%rcx,%rax,4), %edx
	movq	-520(%rbp), %rax        # 8-byte Reload
	shlq	$4, %rax
	addl	20(%rcx,%rax,4), %edx
	movl	%edx, 20(%rcx,%rax,4)
	movq	-520(%rbp), %rax        # 8-byte Reload
	shlq	$4, %rax
	movl	20(%rcx,%rax,4), %edx
	movq	-520(%rbp), %rax        # 8-byte Reload
	shlq	$4, %rax
	addl	24(%rcx,%rax,4), %edx
	movl	%edx, 24(%rcx,%rax,4)
	movq	-520(%rbp), %rax        # 8-byte Reload
	shlq	$4, %rax
	movl	24(%rcx,%rax,4), %edx
	movq	-520(%rbp), %rax        # 8-byte Reload
	shlq	$4, %rax
	addl	28(%rcx,%rax,4), %edx
	movl	%edx, 28(%rcx,%rax,4)
	movq	-520(%rbp), %rax        # 8-byte Reload
	shlq	$4, %rax
	movl	28(%rcx,%rax,4), %edx
	movq	-520(%rbp), %rax        # 8-byte Reload
	shlq	$4, %rax
	addl	32(%rcx,%rax,4), %edx
	movl	%edx, 32(%rcx,%rax,4)
	movq	-520(%rbp), %rax        # 8-byte Reload
	shlq	$4, %rax
	movl	32(%rcx,%rax,4), %edx
	movq	-520(%rbp), %rax        # 8-byte Reload
	shlq	$4, %rax
	addl	36(%rcx,%rax,4), %edx
	movl	%edx, 36(%rcx,%rax,4)
	movq	-520(%rbp), %rax        # 8-byte Reload
	shlq	$4, %rax
	movl	36(%rcx,%rax,4), %edx
	movq	-520(%rbp), %rax        # 8-byte Reload
	shlq	$4, %rax
	addl	40(%rcx,%rax,4), %edx
	movl	%edx, 40(%rcx,%rax,4)
	movq	-520(%rbp), %rax        # 8-byte Reload
	shlq	$4, %rax
	movl	40(%rcx,%rax,4), %edx
	movq	-520(%rbp), %rax        # 8-byte Reload
	shlq	$4, %rax
	addl	44(%rcx,%rax,4), %edx
	movl	%edx, 44(%rcx,%rax,4)
	movq	-520(%rbp), %rax        # 8-byte Reload
	shlq	$4, %rax
	movl	44(%rcx,%rax,4), %edx
	movq	-520(%rbp), %rax        # 8-byte Reload
	shlq	$4, %rax
	addl	48(%rcx,%rax,4), %edx
	movl	%edx, 48(%rcx,%rax,4)
	movq	-520(%rbp), %rax        # 8-byte Reload
	shlq	$4, %rax
	movl	48(%rcx,%rax,4), %edx
	movq	-520(%rbp), %rax        # 8-byte Reload
	shlq	$4, %rax
	addl	52(%rcx,%rax,4), %edx
	movl	%edx, 52(%rcx,%rax,4)
	movq	-520(%rbp), %rax        # 8-byte Reload
	shlq	$4, %rax
	movl	52(%rcx,%rax,4), %edx
	movq	-520(%rbp), %rax        # 8-byte Reload
	shlq	$4, %rax
	addl	56(%rcx,%rax,4), %edx
	movl	%edx, 56(%rcx,%rax,4)
	movq	-520(%rbp), %rax        # 8-byte Reload
	shlq	$4, %rax
	movl	56(%rcx,%rax,4), %edx
	movq	-520(%rbp), %rax        # 8-byte Reload
	shlq	$4, %rax
	addl	60(%rcx,%rax,4), %edx
	movl	%edx, 60(%rcx,%rax,4)
	movq	-520(%rbp), %rax        # 8-byte Reload
	addq	$1, %rax
	movq	%rax, -528(%rbp)        # 8-byte Spill
# %bb.66:                               # %for.body3.63
                                        #   in Loop: Header=BB1_1 Depth=1
	movq	-528(%rbp), %rax        # 8-byte Reload
	shlq	$4, %rax
	movq	-8(%rbp), %rcx          # 8-byte Reload
	movl	(%rcx,%rax,4), %edx
	movq	-528(%rbp), %rax        # 8-byte Reload
	shlq	$4, %rax
	addl	4(%rcx,%rax,4), %edx
	movl	%edx, 4(%rcx,%rax,4)
	movq	-528(%rbp), %rax        # 8-byte Reload
	shlq	$4, %rax
	movl	4(%rcx,%rax,4), %edx
	movq	-528(%rbp), %rax        # 8-byte Reload
	shlq	$4, %rax
	addl	8(%rcx,%rax,4), %edx
	movl	%edx, 8(%rcx,%rax,4)
	movq	-528(%rbp), %rax        # 8-byte Reload
	shlq	$4, %rax
	movl	8(%rcx,%rax,4), %edx
	movq	-528(%rbp), %rax        # 8-byte Reload
	shlq	$4, %rax
	addl	12(%rcx,%rax,4), %edx
	movl	%edx, 12(%rcx,%rax,4)
	movq	-528(%rbp), %rax        # 8-byte Reload
	shlq	$4, %rax
	movl	12(%rcx,%rax,4), %edx
	movq	-528(%rbp), %rax        # 8-byte Reload
	shlq	$4, %rax
	addl	16(%rcx,%rax,4), %edx
	movl	%edx, 16(%rcx,%rax,4)
	movq	-528(%rbp), %rax        # 8-byte Reload
	shlq	$4, %rax
	movl	16(%rcx,%rax,4), %edx
	movq	-528(%rbp), %rax        # 8-byte Reload
	shlq	$4, %rax
	addl	20(%rcx,%rax,4), %edx
	movl	%edx, 20(%rcx,%rax,4)
	movq	-528(%rbp), %rax        # 8-byte Reload
	shlq	$4, %rax
	movl	20(%rcx,%rax,4), %edx
	movq	-528(%rbp), %rax        # 8-byte Reload
	shlq	$4, %rax
	addl	24(%rcx,%rax,4), %edx
	movl	%edx, 24(%rcx,%rax,4)
	movq	-528(%rbp), %rax        # 8-byte Reload
	shlq	$4, %rax
	movl	24(%rcx,%rax,4), %edx
	movq	-528(%rbp), %rax        # 8-byte Reload
	shlq	$4, %rax
	addl	28(%rcx,%rax,4), %edx
	movl	%edx, 28(%rcx,%rax,4)
	movq	-528(%rbp), %rax        # 8-byte Reload
	shlq	$4, %rax
	movl	28(%rcx,%rax,4), %edx
	movq	-528(%rbp), %rax        # 8-byte Reload
	shlq	$4, %rax
	addl	32(%rcx,%rax,4), %edx
	movl	%edx, 32(%rcx,%rax,4)
	movq	-528(%rbp), %rax        # 8-byte Reload
	shlq	$4, %rax
	movl	32(%rcx,%rax,4), %edx
	movq	-528(%rbp), %rax        # 8-byte Reload
	shlq	$4, %rax
	addl	36(%rcx,%rax,4), %edx
	movl	%edx, 36(%rcx,%rax,4)
	movq	-528(%rbp), %rax        # 8-byte Reload
	shlq	$4, %rax
	movl	36(%rcx,%rax,4), %edx
	movq	-528(%rbp), %rax        # 8-byte Reload
	shlq	$4, %rax
	addl	40(%rcx,%rax,4), %edx
	movl	%edx, 40(%rcx,%rax,4)
	movq	-528(%rbp), %rax        # 8-byte Reload
	shlq	$4, %rax
	movl	40(%rcx,%rax,4), %edx
	movq	-528(%rbp), %rax        # 8-byte Reload
	shlq	$4, %rax
	addl	44(%rcx,%rax,4), %edx
	movl	%edx, 44(%rcx,%rax,4)
	movq	-528(%rbp), %rax        # 8-byte Reload
	shlq	$4, %rax
	movl	44(%rcx,%rax,4), %edx
	movq	-528(%rbp), %rax        # 8-byte Reload
	shlq	$4, %rax
	addl	48(%rcx,%rax,4), %edx
	movl	%edx, 48(%rcx,%rax,4)
	movq	-528(%rbp), %rax        # 8-byte Reload
	shlq	$4, %rax
	movl	48(%rcx,%rax,4), %edx
	movq	-528(%rbp), %rax        # 8-byte Reload
	shlq	$4, %rax
	addl	52(%rcx,%rax,4), %edx
	movl	%edx, 52(%rcx,%rax,4)
	movq	-528(%rbp), %rax        # 8-byte Reload
	shlq	$4, %rax
	movl	52(%rcx,%rax,4), %edx
	movq	-528(%rbp), %rax        # 8-byte Reload
	shlq	$4, %rax
	addl	56(%rcx,%rax,4), %edx
	movl	%edx, 56(%rcx,%rax,4)
	movq	-528(%rbp), %rax        # 8-byte Reload
	shlq	$4, %rax
	movl	56(%rcx,%rax,4), %edx
	movq	-528(%rbp), %rax        # 8-byte Reload
	shlq	$4, %rax
	addl	60(%rcx,%rax,4), %edx
	movl	%edx, 60(%rcx,%rax,4)
	movq	-528(%rbp), %rax        # 8-byte Reload
	addq	$1, %rax
	cmpq	$524288, %rax           # imm = 0x80000
	movq	%rax, -16(%rbp)         # 8-byte Spill
	jne	.LBB1_1
	jmp	.LBB1_3
.Lfunc_end1:
	.size	local_scan, .Lfunc_end1-local_scan
	.cfi_endproc
                                        # -- End function
	.globl	sum_scan                # -- Begin function sum_scan
	.p2align	4, 0x90
	.type	sum_scan,@function
sum_scan:                               # @sum_scan
	.cfi_startproc
# %bb.0:                                # %entry
	pushq	%rbp
	.cfi_def_cfa_offset 16
	.cfi_offset %rbp, -16
	movq	%rsp, %rbp
	.cfi_def_cfa_register %rbp
	movl	$0, (%rdi)
	movl	$1, %eax
	movq	%rdi, -8(%rbp)          # 8-byte Spill
	movq	%rsi, -16(%rbp)         # 8-byte Spill
	movq	%rax, -24(%rbp)         # 8-byte Spill
.LBB2_1:                                # %for.body
                                        # =>This Inner Loop Header: Depth=1
	movq	-24(%rbp), %rax         # 8-byte Reload
	movq	-8(%rbp), %rcx          # 8-byte Reload
	movl	-4(%rcx,%rax,4), %edx
	movq	%rax, %rsi
	shlq	$4, %rsi
	movq	-16(%rbp), %rdi         # 8-byte Reload
	addl	-4(%rdi,%rsi,4), %edx
	movl	%edx, (%rcx,%rax,4)
	movq	%rax, %rsi
	addq	$1, %rsi
	movl	(%rcx,%rax,4), %edx
	movq	%rsi, %r8
	shlq	$4, %r8
	addl	-4(%rdi,%r8,4), %edx
	movl	%edx, 4(%rcx,%rax,4)
	addq	$1, %rsi
	movl	4(%rcx,%rax,4), %edx
	movq	%rsi, %r8
	shlq	$4, %r8
	addl	-4(%rdi,%r8,4), %edx
	movl	%edx, 8(%rcx,%rax,4)
	addq	$1, %rsi
	movl	8(%rcx,%rax,4), %edx
	movq	%rsi, %r8
	shlq	$4, %r8
	addl	-4(%rdi,%r8,4), %edx
	movl	%edx, 12(%rcx,%rax,4)
	addq	$1, %rsi
	movl	12(%rcx,%rax,4), %edx
	movq	%rsi, %r8
	shlq	$4, %r8
	addl	-4(%rdi,%r8,4), %edx
	movl	%edx, 16(%rcx,%rax,4)
	addq	$1, %rsi
	movl	16(%rcx,%rax,4), %edx
	movq	%rsi, %r8
	shlq	$4, %r8
	addl	-4(%rdi,%r8,4), %edx
	movl	%edx, 20(%rcx,%rax,4)
	addq	$1, %rsi
	movl	20(%rcx,%rax,4), %edx
	movq	%rsi, %r8
	shlq	$4, %r8
	addl	-4(%rdi,%r8,4), %edx
	movl	%edx, 24(%rcx,%rax,4)
	addq	$1, %rsi
	movl	24(%rcx,%rax,4), %edx
	movq	%rsi, %r8
	shlq	$4, %r8
	addl	-4(%rdi,%r8,4), %edx
	movl	%edx, 28(%rcx,%rax,4)
	addq	$1, %rsi
	movl	28(%rcx,%rax,4), %edx
	movq	%rsi, %r8
	shlq	$4, %r8
	addl	-4(%rdi,%r8,4), %edx
	movl	%edx, 32(%rcx,%rax,4)
	addq	$1, %rsi
	movl	32(%rcx,%rax,4), %edx
	movq	%rsi, %r8
	shlq	$4, %r8
	addl	-4(%rdi,%r8,4), %edx
	movl	%edx, 36(%rcx,%rax,4)
	addq	$1, %rsi
	movl	36(%rcx,%rax,4), %edx
	movq	%rsi, %r8
	shlq	$4, %r8
	addl	-4(%rdi,%r8,4), %edx
	movl	%edx, 40(%rcx,%rax,4)
	addq	$1, %rsi
	movl	40(%rcx,%rax,4), %edx
	movq	%rsi, %r8
	shlq	$4, %r8
	addl	-4(%rdi,%r8,4), %edx
	movl	%edx, 44(%rcx,%rax,4)
	addq	$1, %rsi
	movl	44(%rcx,%rax,4), %edx
	movq	%rsi, %r8
	shlq	$4, %r8
	addl	-4(%rdi,%r8,4), %edx
	movl	%edx, 48(%rcx,%rax,4)
	addq	$1, %rsi
	movl	48(%rcx,%rax,4), %edx
	movq	%rsi, %r8
	shlq	$4, %r8
	addl	-4(%rdi,%r8,4), %edx
	movl	%edx, 52(%rcx,%rax,4)
	addq	$1, %rsi
	movl	52(%rcx,%rax,4), %edx
	movq	%rsi, %r8
	shlq	$4, %r8
	addl	-4(%rdi,%r8,4), %edx
	movl	%edx, 56(%rcx,%rax,4)
	movq	%rsi, %rax
	addq	$1, %rax
	cmpq	$524288, %rax           # imm = 0x80000
	movq	%rsi, -32(%rbp)         # 8-byte Spill
	movq	%rax, -40(%rbp)         # 8-byte Spill
	jne	.LBB2_3
# %bb.2:                                # %for.end
	popq	%rbp
	.cfi_def_cfa %rsp, 8
	retq
.LBB2_3:                                # %for.body.15
                                        #   in Loop: Header=BB2_1 Depth=1
	.cfi_def_cfa %rbp, 16
	movq	-8(%rbp), %rax          # 8-byte Reload
	movq	-32(%rbp), %rcx         # 8-byte Reload
	movl	(%rax,%rcx,4), %edx
	movq	-40(%rbp), %rsi         # 8-byte Reload
	shlq	$4, %rsi
	movq	-16(%rbp), %rdi         # 8-byte Reload
	addl	-4(%rdi,%rsi,4), %edx
	movq	-40(%rbp), %rsi         # 8-byte Reload
	movl	%edx, (%rax,%rsi,4)
	addq	$1, %rsi
	movq	%rsi, -24(%rbp)         # 8-byte Spill
	jmp	.LBB2_1
.Lfunc_end2:
	.size	sum_scan, .Lfunc_end2-sum_scan
	.cfi_endproc
                                        # -- End function
	.globl	last_step_scan          # -- Begin function last_step_scan
	.p2align	4, 0x90
	.type	last_step_scan,@function
last_step_scan:                         # @last_step_scan
	.cfi_startproc
# %bb.0:                                # %entry
	pushq	%rbp
	.cfi_def_cfa_offset 16
	.cfi_offset %rbp, -16
	movq	%rsp, %rbp
	.cfi_def_cfa_register %rbp
	subq	$416, %rsp              # imm = 0x1A0
	xorl	%eax, %eax
	movl	%eax, %ecx
	movq	%rdi, -8(%rbp)          # 8-byte Spill
	movq	%rsi, -16(%rbp)         # 8-byte Spill
	movq	%rdx, -24(%rbp)         # 8-byte Spill
	movq	%rcx, -32(%rbp)         # 8-byte Spill
	jmp	.LBB3_1
.LBB3_1:                                # %for.body
                                        # =>This Inner Loop Header: Depth=1
	movq	-32(%rbp), %rax         # 8-byte Reload
	movq	%rax, -40(%rbp)         # 8-byte Spill
# %bb.2:                                # %for.body3
                                        #   in Loop: Header=BB3_1 Depth=1
	movq	-40(%rbp), %rax         # 8-byte Reload
	shlq	$4, %rax
	movq	-8(%rbp), %rcx          # 8-byte Reload
	movl	(%rcx,%rax,4), %edx
	movq	-24(%rbp), %rax         # 8-byte Reload
	movq	-40(%rbp), %rsi         # 8-byte Reload
	addl	(%rax,%rsi,4), %edx
	shlq	$4, %rsi
	movq	-16(%rbp), %rdi         # 8-byte Reload
	movl	%edx, (%rdi,%rsi,4)
	movq	-40(%rbp), %rsi         # 8-byte Reload
	shlq	$4, %rsi
	movl	4(%rcx,%rsi,4), %edx
	movq	-40(%rbp), %rsi         # 8-byte Reload
	addl	(%rax,%rsi,4), %edx
	shlq	$4, %rsi
	movl	%edx, 4(%rdi,%rsi,4)
	movq	-40(%rbp), %rsi         # 8-byte Reload
	shlq	$4, %rsi
	movl	8(%rcx,%rsi,4), %edx
	movq	-40(%rbp), %rsi         # 8-byte Reload
	addl	(%rax,%rsi,4), %edx
	shlq	$4, %rsi
	movl	%edx, 8(%rdi,%rsi,4)
	movq	-40(%rbp), %rsi         # 8-byte Reload
	shlq	$4, %rsi
	movl	12(%rcx,%rsi,4), %edx
	movq	-40(%rbp), %rsi         # 8-byte Reload
	addl	(%rax,%rsi,4), %edx
	shlq	$4, %rsi
	movl	%edx, 12(%rdi,%rsi,4)
	movq	-40(%rbp), %rsi         # 8-byte Reload
	shlq	$4, %rsi
	movl	16(%rcx,%rsi,4), %edx
	movq	-40(%rbp), %rsi         # 8-byte Reload
	addl	(%rax,%rsi,4), %edx
	shlq	$4, %rsi
	movl	%edx, 16(%rdi,%rsi,4)
	movq	-40(%rbp), %rsi         # 8-byte Reload
	shlq	$4, %rsi
	movl	20(%rcx,%rsi,4), %edx
	movq	-40(%rbp), %rsi         # 8-byte Reload
	addl	(%rax,%rsi,4), %edx
	shlq	$4, %rsi
	movl	%edx, 20(%rdi,%rsi,4)
	movq	-40(%rbp), %rsi         # 8-byte Reload
	shlq	$4, %rsi
	movl	24(%rcx,%rsi,4), %edx
	movq	-40(%rbp), %rsi         # 8-byte Reload
	addl	(%rax,%rsi,4), %edx
	shlq	$4, %rsi
	movl	%edx, 24(%rdi,%rsi,4)
	movq	-40(%rbp), %rsi         # 8-byte Reload
	shlq	$4, %rsi
	movl	28(%rcx,%rsi,4), %edx
	movq	-40(%rbp), %rsi         # 8-byte Reload
	addl	(%rax,%rsi,4), %edx
	shlq	$4, %rsi
	movl	%edx, 28(%rdi,%rsi,4)
	movq	-40(%rbp), %rsi         # 8-byte Reload
	shlq	$4, %rsi
	movl	32(%rcx,%rsi,4), %edx
	movq	-40(%rbp), %rsi         # 8-byte Reload
	addl	(%rax,%rsi,4), %edx
	shlq	$4, %rsi
	movl	%edx, 32(%rdi,%rsi,4)
	movq	-40(%rbp), %rsi         # 8-byte Reload
	shlq	$4, %rsi
	movl	36(%rcx,%rsi,4), %edx
	movq	-40(%rbp), %rsi         # 8-byte Reload
	addl	(%rax,%rsi,4), %edx
	shlq	$4, %rsi
	movl	%edx, 36(%rdi,%rsi,4)
	movq	-40(%rbp), %rsi         # 8-byte Reload
	shlq	$4, %rsi
	movl	40(%rcx,%rsi,4), %edx
	movq	-40(%rbp), %rsi         # 8-byte Reload
	addl	(%rax,%rsi,4), %edx
	shlq	$4, %rsi
	movl	%edx, 40(%rdi,%rsi,4)
	movq	-40(%rbp), %rsi         # 8-byte Reload
	shlq	$4, %rsi
	movl	44(%rcx,%rsi,4), %edx
	movq	-40(%rbp), %rsi         # 8-byte Reload
	addl	(%rax,%rsi,4), %edx
	shlq	$4, %rsi
	movl	%edx, 44(%rdi,%rsi,4)
	movq	-40(%rbp), %rsi         # 8-byte Reload
	shlq	$4, %rsi
	movl	48(%rcx,%rsi,4), %edx
	movq	-40(%rbp), %rsi         # 8-byte Reload
	addl	(%rax,%rsi,4), %edx
	shlq	$4, %rsi
	movl	%edx, 48(%rdi,%rsi,4)
	movq	-40(%rbp), %rsi         # 8-byte Reload
	shlq	$4, %rsi
	movl	52(%rcx,%rsi,4), %edx
	movq	-40(%rbp), %rsi         # 8-byte Reload
	addl	(%rax,%rsi,4), %edx
	shlq	$4, %rsi
	movl	%edx, 52(%rdi,%rsi,4)
	movq	-40(%rbp), %rsi         # 8-byte Reload
	shlq	$4, %rsi
	movl	56(%rcx,%rsi,4), %edx
	movq	-40(%rbp), %rsi         # 8-byte Reload
	addl	(%rax,%rsi,4), %edx
	shlq	$4, %rsi
	movl	%edx, 56(%rdi,%rsi,4)
	movq	-40(%rbp), %rsi         # 8-byte Reload
	shlq	$4, %rsi
	movl	60(%rcx,%rsi,4), %edx
	movq	-40(%rbp), %rsi         # 8-byte Reload
	addl	(%rax,%rsi,4), %edx
	shlq	$4, %rsi
	movl	%edx, 60(%rdi,%rsi,4)
	movq	-40(%rbp), %rsi         # 8-byte Reload
	addq	$1, %rsi
	movq	%rsi, -48(%rbp)         # 8-byte Spill
	jmp	.LBB3_4
.LBB3_3:                                # %for.end13
	addq	$416, %rsp              # imm = 0x1A0
	popq	%rbp
	.cfi_def_cfa %rsp, 8
	retq
.LBB3_4:                                # %for.body3.1
                                        #   in Loop: Header=BB3_1 Depth=1
	.cfi_def_cfa %rbp, 16
	movq	-48(%rbp), %rax         # 8-byte Reload
	shlq	$4, %rax
	movq	-8(%rbp), %rcx          # 8-byte Reload
	movl	(%rcx,%rax,4), %edx
	movq	-24(%rbp), %rax         # 8-byte Reload
	movq	-48(%rbp), %rsi         # 8-byte Reload
	addl	(%rax,%rsi,4), %edx
	shlq	$4, %rsi
	movq	-16(%rbp), %rdi         # 8-byte Reload
	movl	%edx, (%rdi,%rsi,4)
	movq	-48(%rbp), %rsi         # 8-byte Reload
	shlq	$4, %rsi
	movl	4(%rcx,%rsi,4), %edx
	movq	-48(%rbp), %rsi         # 8-byte Reload
	addl	(%rax,%rsi,4), %edx
	shlq	$4, %rsi
	movl	%edx, 4(%rdi,%rsi,4)
	movq	-48(%rbp), %rsi         # 8-byte Reload
	shlq	$4, %rsi
	movl	8(%rcx,%rsi,4), %edx
	movq	-48(%rbp), %rsi         # 8-byte Reload
	addl	(%rax,%rsi,4), %edx
	shlq	$4, %rsi
	movl	%edx, 8(%rdi,%rsi,4)
	movq	-48(%rbp), %rsi         # 8-byte Reload
	shlq	$4, %rsi
	movl	12(%rcx,%rsi,4), %edx
	movq	-48(%rbp), %rsi         # 8-byte Reload
	addl	(%rax,%rsi,4), %edx
	shlq	$4, %rsi
	movl	%edx, 12(%rdi,%rsi,4)
	movq	-48(%rbp), %rsi         # 8-byte Reload
	shlq	$4, %rsi
	movl	16(%rcx,%rsi,4), %edx
	movq	-48(%rbp), %rsi         # 8-byte Reload
	addl	(%rax,%rsi,4), %edx
	shlq	$4, %rsi
	movl	%edx, 16(%rdi,%rsi,4)
	movq	-48(%rbp), %rsi         # 8-byte Reload
	shlq	$4, %rsi
	movl	20(%rcx,%rsi,4), %edx
	movq	-48(%rbp), %rsi         # 8-byte Reload
	addl	(%rax,%rsi,4), %edx
	shlq	$4, %rsi
	movl	%edx, 20(%rdi,%rsi,4)
	movq	-48(%rbp), %rsi         # 8-byte Reload
	shlq	$4, %rsi
	movl	24(%rcx,%rsi,4), %edx
	movq	-48(%rbp), %rsi         # 8-byte Reload
	addl	(%rax,%rsi,4), %edx
	shlq	$4, %rsi
	movl	%edx, 24(%rdi,%rsi,4)
	movq	-48(%rbp), %rsi         # 8-byte Reload
	shlq	$4, %rsi
	movl	28(%rcx,%rsi,4), %edx
	movq	-48(%rbp), %rsi         # 8-byte Reload
	addl	(%rax,%rsi,4), %edx
	shlq	$4, %rsi
	movl	%edx, 28(%rdi,%rsi,4)
	movq	-48(%rbp), %rsi         # 8-byte Reload
	shlq	$4, %rsi
	movl	32(%rcx,%rsi,4), %edx
	movq	-48(%rbp), %rsi         # 8-byte Reload
	addl	(%rax,%rsi,4), %edx
	shlq	$4, %rsi
	movl	%edx, 32(%rdi,%rsi,4)
	movq	-48(%rbp), %rsi         # 8-byte Reload
	shlq	$4, %rsi
	movl	36(%rcx,%rsi,4), %edx
	movq	-48(%rbp), %rsi         # 8-byte Reload
	addl	(%rax,%rsi,4), %edx
	shlq	$4, %rsi
	movl	%edx, 36(%rdi,%rsi,4)
	movq	-48(%rbp), %rsi         # 8-byte Reload
	shlq	$4, %rsi
	movl	40(%rcx,%rsi,4), %edx
	movq	-48(%rbp), %rsi         # 8-byte Reload
	addl	(%rax,%rsi,4), %edx
	shlq	$4, %rsi
	movl	%edx, 40(%rdi,%rsi,4)
	movq	-48(%rbp), %rsi         # 8-byte Reload
	shlq	$4, %rsi
	movl	44(%rcx,%rsi,4), %edx
	movq	-48(%rbp), %rsi         # 8-byte Reload
	addl	(%rax,%rsi,4), %edx
	shlq	$4, %rsi
	movl	%edx, 44(%rdi,%rsi,4)
	movq	-48(%rbp), %rsi         # 8-byte Reload
	shlq	$4, %rsi
	movl	48(%rcx,%rsi,4), %edx
	movq	-48(%rbp), %rsi         # 8-byte Reload
	addl	(%rax,%rsi,4), %edx
	shlq	$4, %rsi
	movl	%edx, 48(%rdi,%rsi,4)
	movq	-48(%rbp), %rsi         # 8-byte Reload
	shlq	$4, %rsi
	movl	52(%rcx,%rsi,4), %edx
	movq	-48(%rbp), %rsi         # 8-byte Reload
	addl	(%rax,%rsi,4), %edx
	shlq	$4, %rsi
	movl	%edx, 52(%rdi,%rsi,4)
	movq	-48(%rbp), %rsi         # 8-byte Reload
	shlq	$4, %rsi
	movl	56(%rcx,%rsi,4), %edx
	movq	-48(%rbp), %rsi         # 8-byte Reload
	addl	(%rax,%rsi,4), %edx
	shlq	$4, %rsi
	movl	%edx, 56(%rdi,%rsi,4)
	movq	-48(%rbp), %rsi         # 8-byte Reload
	shlq	$4, %rsi
	movl	60(%rcx,%rsi,4), %edx
	movq	-48(%rbp), %rsi         # 8-byte Reload
	addl	(%rax,%rsi,4), %edx
	shlq	$4, %rsi
	movl	%edx, 60(%rdi,%rsi,4)
	movq	-48(%rbp), %rsi         # 8-byte Reload
	addq	$1, %rsi
	movq	%rsi, -56(%rbp)         # 8-byte Spill
# %bb.5:                                # %for.body3.2
                                        #   in Loop: Header=BB3_1 Depth=1
	movq	-56(%rbp), %rax         # 8-byte Reload
	shlq	$4, %rax
	movq	-8(%rbp), %rcx          # 8-byte Reload
	movl	(%rcx,%rax,4), %edx
	movq	-24(%rbp), %rax         # 8-byte Reload
	movq	-56(%rbp), %rsi         # 8-byte Reload
	addl	(%rax,%rsi,4), %edx
	shlq	$4, %rsi
	movq	-16(%rbp), %rdi         # 8-byte Reload
	movl	%edx, (%rdi,%rsi,4)
	movq	-56(%rbp), %rsi         # 8-byte Reload
	shlq	$4, %rsi
	movl	4(%rcx,%rsi,4), %edx
	movq	-56(%rbp), %rsi         # 8-byte Reload
	addl	(%rax,%rsi,4), %edx
	shlq	$4, %rsi
	movl	%edx, 4(%rdi,%rsi,4)
	movq	-56(%rbp), %rsi         # 8-byte Reload
	shlq	$4, %rsi
	movl	8(%rcx,%rsi,4), %edx
	movq	-56(%rbp), %rsi         # 8-byte Reload
	addl	(%rax,%rsi,4), %edx
	shlq	$4, %rsi
	movl	%edx, 8(%rdi,%rsi,4)
	movq	-56(%rbp), %rsi         # 8-byte Reload
	shlq	$4, %rsi
	movl	12(%rcx,%rsi,4), %edx
	movq	-56(%rbp), %rsi         # 8-byte Reload
	addl	(%rax,%rsi,4), %edx
	shlq	$4, %rsi
	movl	%edx, 12(%rdi,%rsi,4)
	movq	-56(%rbp), %rsi         # 8-byte Reload
	shlq	$4, %rsi
	movl	16(%rcx,%rsi,4), %edx
	movq	-56(%rbp), %rsi         # 8-byte Reload
	addl	(%rax,%rsi,4), %edx
	shlq	$4, %rsi
	movl	%edx, 16(%rdi,%rsi,4)
	movq	-56(%rbp), %rsi         # 8-byte Reload
	shlq	$4, %rsi
	movl	20(%rcx,%rsi,4), %edx
	movq	-56(%rbp), %rsi         # 8-byte Reload
	addl	(%rax,%rsi,4), %edx
	shlq	$4, %rsi
	movl	%edx, 20(%rdi,%rsi,4)
	movq	-56(%rbp), %rsi         # 8-byte Reload
	shlq	$4, %rsi
	movl	24(%rcx,%rsi,4), %edx
	movq	-56(%rbp), %rsi         # 8-byte Reload
	addl	(%rax,%rsi,4), %edx
	shlq	$4, %rsi
	movl	%edx, 24(%rdi,%rsi,4)
	movq	-56(%rbp), %rsi         # 8-byte Reload
	shlq	$4, %rsi
	movl	28(%rcx,%rsi,4), %edx
	movq	-56(%rbp), %rsi         # 8-byte Reload
	addl	(%rax,%rsi,4), %edx
	shlq	$4, %rsi
	movl	%edx, 28(%rdi,%rsi,4)
	movq	-56(%rbp), %rsi         # 8-byte Reload
	shlq	$4, %rsi
	movl	32(%rcx,%rsi,4), %edx
	movq	-56(%rbp), %rsi         # 8-byte Reload
	addl	(%rax,%rsi,4), %edx
	shlq	$4, %rsi
	movl	%edx, 32(%rdi,%rsi,4)
	movq	-56(%rbp), %rsi         # 8-byte Reload
	shlq	$4, %rsi
	movl	36(%rcx,%rsi,4), %edx
	movq	-56(%rbp), %rsi         # 8-byte Reload
	addl	(%rax,%rsi,4), %edx
	shlq	$4, %rsi
	movl	%edx, 36(%rdi,%rsi,4)
	movq	-56(%rbp), %rsi         # 8-byte Reload
	shlq	$4, %rsi
	movl	40(%rcx,%rsi,4), %edx
	movq	-56(%rbp), %rsi         # 8-byte Reload
	addl	(%rax,%rsi,4), %edx
	shlq	$4, %rsi
	movl	%edx, 40(%rdi,%rsi,4)
	movq	-56(%rbp), %rsi         # 8-byte Reload
	shlq	$4, %rsi
	movl	44(%rcx,%rsi,4), %edx
	movq	-56(%rbp), %rsi         # 8-byte Reload
	addl	(%rax,%rsi,4), %edx
	shlq	$4, %rsi
	movl	%edx, 44(%rdi,%rsi,4)
	movq	-56(%rbp), %rsi         # 8-byte Reload
	shlq	$4, %rsi
	movl	48(%rcx,%rsi,4), %edx
	movq	-56(%rbp), %rsi         # 8-byte Reload
	addl	(%rax,%rsi,4), %edx
	shlq	$4, %rsi
	movl	%edx, 48(%rdi,%rsi,4)
	movq	-56(%rbp), %rsi         # 8-byte Reload
	shlq	$4, %rsi
	movl	52(%rcx,%rsi,4), %edx
	movq	-56(%rbp), %rsi         # 8-byte Reload
	addl	(%rax,%rsi,4), %edx
	shlq	$4, %rsi
	movl	%edx, 52(%rdi,%rsi,4)
	movq	-56(%rbp), %rsi         # 8-byte Reload
	shlq	$4, %rsi
	movl	56(%rcx,%rsi,4), %edx
	movq	-56(%rbp), %rsi         # 8-byte Reload
	addl	(%rax,%rsi,4), %edx
	shlq	$4, %rsi
	movl	%edx, 56(%rdi,%rsi,4)
	movq	-56(%rbp), %rsi         # 8-byte Reload
	shlq	$4, %rsi
	movl	60(%rcx,%rsi,4), %edx
	movq	-56(%rbp), %rsi         # 8-byte Reload
	addl	(%rax,%rsi,4), %edx
	shlq	$4, %rsi
	movl	%edx, 60(%rdi,%rsi,4)
	movq	-56(%rbp), %rsi         # 8-byte Reload
	addq	$1, %rsi
	movq	%rsi, -64(%rbp)         # 8-byte Spill
# %bb.6:                                # %for.body3.3
                                        #   in Loop: Header=BB3_1 Depth=1
	movq	-64(%rbp), %rax         # 8-byte Reload
	shlq	$4, %rax
	movq	-8(%rbp), %rcx          # 8-byte Reload
	movl	(%rcx,%rax,4), %edx
	movq	-24(%rbp), %rax         # 8-byte Reload
	movq	-64(%rbp), %rsi         # 8-byte Reload
	addl	(%rax,%rsi,4), %edx
	shlq	$4, %rsi
	movq	-16(%rbp), %rdi         # 8-byte Reload
	movl	%edx, (%rdi,%rsi,4)
	movq	-64(%rbp), %rsi         # 8-byte Reload
	shlq	$4, %rsi
	movl	4(%rcx,%rsi,4), %edx
	movq	-64(%rbp), %rsi         # 8-byte Reload
	addl	(%rax,%rsi,4), %edx
	shlq	$4, %rsi
	movl	%edx, 4(%rdi,%rsi,4)
	movq	-64(%rbp), %rsi         # 8-byte Reload
	shlq	$4, %rsi
	movl	8(%rcx,%rsi,4), %edx
	movq	-64(%rbp), %rsi         # 8-byte Reload
	addl	(%rax,%rsi,4), %edx
	shlq	$4, %rsi
	movl	%edx, 8(%rdi,%rsi,4)
	movq	-64(%rbp), %rsi         # 8-byte Reload
	shlq	$4, %rsi
	movl	12(%rcx,%rsi,4), %edx
	movq	-64(%rbp), %rsi         # 8-byte Reload
	addl	(%rax,%rsi,4), %edx
	shlq	$4, %rsi
	movl	%edx, 12(%rdi,%rsi,4)
	movq	-64(%rbp), %rsi         # 8-byte Reload
	shlq	$4, %rsi
	movl	16(%rcx,%rsi,4), %edx
	movq	-64(%rbp), %rsi         # 8-byte Reload
	addl	(%rax,%rsi,4), %edx
	shlq	$4, %rsi
	movl	%edx, 16(%rdi,%rsi,4)
	movq	-64(%rbp), %rsi         # 8-byte Reload
	shlq	$4, %rsi
	movl	20(%rcx,%rsi,4), %edx
	movq	-64(%rbp), %rsi         # 8-byte Reload
	addl	(%rax,%rsi,4), %edx
	shlq	$4, %rsi
	movl	%edx, 20(%rdi,%rsi,4)
	movq	-64(%rbp), %rsi         # 8-byte Reload
	shlq	$4, %rsi
	movl	24(%rcx,%rsi,4), %edx
	movq	-64(%rbp), %rsi         # 8-byte Reload
	addl	(%rax,%rsi,4), %edx
	shlq	$4, %rsi
	movl	%edx, 24(%rdi,%rsi,4)
	movq	-64(%rbp), %rsi         # 8-byte Reload
	shlq	$4, %rsi
	movl	28(%rcx,%rsi,4), %edx
	movq	-64(%rbp), %rsi         # 8-byte Reload
	addl	(%rax,%rsi,4), %edx
	shlq	$4, %rsi
	movl	%edx, 28(%rdi,%rsi,4)
	movq	-64(%rbp), %rsi         # 8-byte Reload
	shlq	$4, %rsi
	movl	32(%rcx,%rsi,4), %edx
	movq	-64(%rbp), %rsi         # 8-byte Reload
	addl	(%rax,%rsi,4), %edx
	shlq	$4, %rsi
	movl	%edx, 32(%rdi,%rsi,4)
	movq	-64(%rbp), %rsi         # 8-byte Reload
	shlq	$4, %rsi
	movl	36(%rcx,%rsi,4), %edx
	movq	-64(%rbp), %rsi         # 8-byte Reload
	addl	(%rax,%rsi,4), %edx
	shlq	$4, %rsi
	movl	%edx, 36(%rdi,%rsi,4)
	movq	-64(%rbp), %rsi         # 8-byte Reload
	shlq	$4, %rsi
	movl	40(%rcx,%rsi,4), %edx
	movq	-64(%rbp), %rsi         # 8-byte Reload
	addl	(%rax,%rsi,4), %edx
	shlq	$4, %rsi
	movl	%edx, 40(%rdi,%rsi,4)
	movq	-64(%rbp), %rsi         # 8-byte Reload
	shlq	$4, %rsi
	movl	44(%rcx,%rsi,4), %edx
	movq	-64(%rbp), %rsi         # 8-byte Reload
	addl	(%rax,%rsi,4), %edx
	shlq	$4, %rsi
	movl	%edx, 44(%rdi,%rsi,4)
	movq	-64(%rbp), %rsi         # 8-byte Reload
	shlq	$4, %rsi
	movl	48(%rcx,%rsi,4), %edx
	movq	-64(%rbp), %rsi         # 8-byte Reload
	addl	(%rax,%rsi,4), %edx
	shlq	$4, %rsi
	movl	%edx, 48(%rdi,%rsi,4)
	movq	-64(%rbp), %rsi         # 8-byte Reload
	shlq	$4, %rsi
	movl	52(%rcx,%rsi,4), %edx
	movq	-64(%rbp), %rsi         # 8-byte Reload
	addl	(%rax,%rsi,4), %edx
	shlq	$4, %rsi
	movl	%edx, 52(%rdi,%rsi,4)
	movq	-64(%rbp), %rsi         # 8-byte Reload
	shlq	$4, %rsi
	movl	56(%rcx,%rsi,4), %edx
	movq	-64(%rbp), %rsi         # 8-byte Reload
	addl	(%rax,%rsi,4), %edx
	shlq	$4, %rsi
	movl	%edx, 56(%rdi,%rsi,4)
	movq	-64(%rbp), %rsi         # 8-byte Reload
	shlq	$4, %rsi
	movl	60(%rcx,%rsi,4), %edx
	movq	-64(%rbp), %rsi         # 8-byte Reload
	addl	(%rax,%rsi,4), %edx
	shlq	$4, %rsi
	movl	%edx, 60(%rdi,%rsi,4)
	movq	-64(%rbp), %rsi         # 8-byte Reload
	addq	$1, %rsi
	movq	%rsi, -72(%rbp)         # 8-byte Spill
# %bb.7:                                # %for.body3.4
                                        #   in Loop: Header=BB3_1 Depth=1
	movq	-72(%rbp), %rax         # 8-byte Reload
	shlq	$4, %rax
	movq	-8(%rbp), %rcx          # 8-byte Reload
	movl	(%rcx,%rax,4), %edx
	movq	-24(%rbp), %rax         # 8-byte Reload
	movq	-72(%rbp), %rsi         # 8-byte Reload
	addl	(%rax,%rsi,4), %edx
	shlq	$4, %rsi
	movq	-16(%rbp), %rdi         # 8-byte Reload
	movl	%edx, (%rdi,%rsi,4)
	movq	-72(%rbp), %rsi         # 8-byte Reload
	shlq	$4, %rsi
	movl	4(%rcx,%rsi,4), %edx
	movq	-72(%rbp), %rsi         # 8-byte Reload
	addl	(%rax,%rsi,4), %edx
	shlq	$4, %rsi
	movl	%edx, 4(%rdi,%rsi,4)
	movq	-72(%rbp), %rsi         # 8-byte Reload
	shlq	$4, %rsi
	movl	8(%rcx,%rsi,4), %edx
	movq	-72(%rbp), %rsi         # 8-byte Reload
	addl	(%rax,%rsi,4), %edx
	shlq	$4, %rsi
	movl	%edx, 8(%rdi,%rsi,4)
	movq	-72(%rbp), %rsi         # 8-byte Reload
	shlq	$4, %rsi
	movl	12(%rcx,%rsi,4), %edx
	movq	-72(%rbp), %rsi         # 8-byte Reload
	addl	(%rax,%rsi,4), %edx
	shlq	$4, %rsi
	movl	%edx, 12(%rdi,%rsi,4)
	movq	-72(%rbp), %rsi         # 8-byte Reload
	shlq	$4, %rsi
	movl	16(%rcx,%rsi,4), %edx
	movq	-72(%rbp), %rsi         # 8-byte Reload
	addl	(%rax,%rsi,4), %edx
	shlq	$4, %rsi
	movl	%edx, 16(%rdi,%rsi,4)
	movq	-72(%rbp), %rsi         # 8-byte Reload
	shlq	$4, %rsi
	movl	20(%rcx,%rsi,4), %edx
	movq	-72(%rbp), %rsi         # 8-byte Reload
	addl	(%rax,%rsi,4), %edx
	shlq	$4, %rsi
	movl	%edx, 20(%rdi,%rsi,4)
	movq	-72(%rbp), %rsi         # 8-byte Reload
	shlq	$4, %rsi
	movl	24(%rcx,%rsi,4), %edx
	movq	-72(%rbp), %rsi         # 8-byte Reload
	addl	(%rax,%rsi,4), %edx
	shlq	$4, %rsi
	movl	%edx, 24(%rdi,%rsi,4)
	movq	-72(%rbp), %rsi         # 8-byte Reload
	shlq	$4, %rsi
	movl	28(%rcx,%rsi,4), %edx
	movq	-72(%rbp), %rsi         # 8-byte Reload
	addl	(%rax,%rsi,4), %edx
	shlq	$4, %rsi
	movl	%edx, 28(%rdi,%rsi,4)
	movq	-72(%rbp), %rsi         # 8-byte Reload
	shlq	$4, %rsi
	movl	32(%rcx,%rsi,4), %edx
	movq	-72(%rbp), %rsi         # 8-byte Reload
	addl	(%rax,%rsi,4), %edx
	shlq	$4, %rsi
	movl	%edx, 32(%rdi,%rsi,4)
	movq	-72(%rbp), %rsi         # 8-byte Reload
	shlq	$4, %rsi
	movl	36(%rcx,%rsi,4), %edx
	movq	-72(%rbp), %rsi         # 8-byte Reload
	addl	(%rax,%rsi,4), %edx
	shlq	$4, %rsi
	movl	%edx, 36(%rdi,%rsi,4)
	movq	-72(%rbp), %rsi         # 8-byte Reload
	shlq	$4, %rsi
	movl	40(%rcx,%rsi,4), %edx
	movq	-72(%rbp), %rsi         # 8-byte Reload
	addl	(%rax,%rsi,4), %edx
	shlq	$4, %rsi
	movl	%edx, 40(%rdi,%rsi,4)
	movq	-72(%rbp), %rsi         # 8-byte Reload
	shlq	$4, %rsi
	movl	44(%rcx,%rsi,4), %edx
	movq	-72(%rbp), %rsi         # 8-byte Reload
	addl	(%rax,%rsi,4), %edx
	shlq	$4, %rsi
	movl	%edx, 44(%rdi,%rsi,4)
	movq	-72(%rbp), %rsi         # 8-byte Reload
	shlq	$4, %rsi
	movl	48(%rcx,%rsi,4), %edx
	movq	-72(%rbp), %rsi         # 8-byte Reload
	addl	(%rax,%rsi,4), %edx
	shlq	$4, %rsi
	movl	%edx, 48(%rdi,%rsi,4)
	movq	-72(%rbp), %rsi         # 8-byte Reload
	shlq	$4, %rsi
	movl	52(%rcx,%rsi,4), %edx
	movq	-72(%rbp), %rsi         # 8-byte Reload
	addl	(%rax,%rsi,4), %edx
	shlq	$4, %rsi
	movl	%edx, 52(%rdi,%rsi,4)
	movq	-72(%rbp), %rsi         # 8-byte Reload
	shlq	$4, %rsi
	movl	56(%rcx,%rsi,4), %edx
	movq	-72(%rbp), %rsi         # 8-byte Reload
	addl	(%rax,%rsi,4), %edx
	shlq	$4, %rsi
	movl	%edx, 56(%rdi,%rsi,4)
	movq	-72(%rbp), %rsi         # 8-byte Reload
	shlq	$4, %rsi
	movl	60(%rcx,%rsi,4), %edx
	movq	-72(%rbp), %rsi         # 8-byte Reload
	addl	(%rax,%rsi,4), %edx
	shlq	$4, %rsi
	movl	%edx, 60(%rdi,%rsi,4)
	movq	-72(%rbp), %rsi         # 8-byte Reload
	addq	$1, %rsi
	movq	%rsi, -80(%rbp)         # 8-byte Spill
# %bb.8:                                # %for.body3.5
                                        #   in Loop: Header=BB3_1 Depth=1
	movq	-80(%rbp), %rax         # 8-byte Reload
	shlq	$4, %rax
	movq	-8(%rbp), %rcx          # 8-byte Reload
	movl	(%rcx,%rax,4), %edx
	movq	-24(%rbp), %rax         # 8-byte Reload
	movq	-80(%rbp), %rsi         # 8-byte Reload
	addl	(%rax,%rsi,4), %edx
	shlq	$4, %rsi
	movq	-16(%rbp), %rdi         # 8-byte Reload
	movl	%edx, (%rdi,%rsi,4)
	movq	-80(%rbp), %rsi         # 8-byte Reload
	shlq	$4, %rsi
	movl	4(%rcx,%rsi,4), %edx
	movq	-80(%rbp), %rsi         # 8-byte Reload
	addl	(%rax,%rsi,4), %edx
	shlq	$4, %rsi
	movl	%edx, 4(%rdi,%rsi,4)
	movq	-80(%rbp), %rsi         # 8-byte Reload
	shlq	$4, %rsi
	movl	8(%rcx,%rsi,4), %edx
	movq	-80(%rbp), %rsi         # 8-byte Reload
	addl	(%rax,%rsi,4), %edx
	shlq	$4, %rsi
	movl	%edx, 8(%rdi,%rsi,4)
	movq	-80(%rbp), %rsi         # 8-byte Reload
	shlq	$4, %rsi
	movl	12(%rcx,%rsi,4), %edx
	movq	-80(%rbp), %rsi         # 8-byte Reload
	addl	(%rax,%rsi,4), %edx
	shlq	$4, %rsi
	movl	%edx, 12(%rdi,%rsi,4)
	movq	-80(%rbp), %rsi         # 8-byte Reload
	shlq	$4, %rsi
	movl	16(%rcx,%rsi,4), %edx
	movq	-80(%rbp), %rsi         # 8-byte Reload
	addl	(%rax,%rsi,4), %edx
	shlq	$4, %rsi
	movl	%edx, 16(%rdi,%rsi,4)
	movq	-80(%rbp), %rsi         # 8-byte Reload
	shlq	$4, %rsi
	movl	20(%rcx,%rsi,4), %edx
	movq	-80(%rbp), %rsi         # 8-byte Reload
	addl	(%rax,%rsi,4), %edx
	shlq	$4, %rsi
	movl	%edx, 20(%rdi,%rsi,4)
	movq	-80(%rbp), %rsi         # 8-byte Reload
	shlq	$4, %rsi
	movl	24(%rcx,%rsi,4), %edx
	movq	-80(%rbp), %rsi         # 8-byte Reload
	addl	(%rax,%rsi,4), %edx
	shlq	$4, %rsi
	movl	%edx, 24(%rdi,%rsi,4)
	movq	-80(%rbp), %rsi         # 8-byte Reload
	shlq	$4, %rsi
	movl	28(%rcx,%rsi,4), %edx
	movq	-80(%rbp), %rsi         # 8-byte Reload
	addl	(%rax,%rsi,4), %edx
	shlq	$4, %rsi
	movl	%edx, 28(%rdi,%rsi,4)
	movq	-80(%rbp), %rsi         # 8-byte Reload
	shlq	$4, %rsi
	movl	32(%rcx,%rsi,4), %edx
	movq	-80(%rbp), %rsi         # 8-byte Reload
	addl	(%rax,%rsi,4), %edx
