	.text
	.file	"md_manual.c"
	.globl	md                      # -- Begin function md
	.p2align	4, 0x90
	.type	md,@function
md:                                     # @md
	.cfi_startproc
# %bb.0:                                # %entry
	pushq	%rbp
	.cfi_def_cfa_offset 16
	.cfi_offset %rbp, -16
	movq	%rsp, %rbp
	.cfi_def_cfa_register %rbp
	pushq	%r15
	pushq	%r14
	pushq	%r13
	pushq	%r12
	pushq	%rbx
	.cfi_offset %rbx, -56
	.cfi_offset %r12, -48
	.cfi_offset %r13, -40
	.cfi_offset %r14, -32
	.cfi_offset %r15, -24
	movq	16(%rbp), %rax
	xorl	%r10d, %r10d
	movl	%r10d, %r11d
	movq	%r9, -48(%rbp)          # 8-byte Spill
	movq	%r8, -56(%rbp)          # 8-byte Spill
	movq	%rcx, -64(%rbp)         # 8-byte Spill
	movq	%rdx, -72(%rbp)         # 8-byte Spill
	movq	%rsi, -80(%rbp)         # 8-byte Spill
	movq	%rdi, -88(%rbp)         # 8-byte Spill
	movq	%rax, -96(%rbp)         # 8-byte Spill
	movq	%r11, -104(%rbp)        # 8-byte Spill
	jmp	.LBB0_1
.LBB0_1:                                # %for.body
                                        # =>This Loop Header: Depth=1
                                        #     Child Loop BB0_2 Depth 2
	movq	-104(%rbp), %rax        # 8-byte Reload
	xorl	%ecx, %ecx
	movl	%ecx, %edx
	xorl	%ecx, %ecx
	movq	-64(%rbp), %rsi         # 8-byte Reload
	movl	(%rsi,%rax,4), %edi
	movq	-56(%rbp), %r8          # 8-byte Reload
	movl	(%r8,%rax,4), %r9d
	movq	-48(%rbp), %r10         # 8-byte Reload
	movl	(%r10,%rax,4), %r11d
	movl	%ecx, %ebx
	movl	%ecx, %r14d
	movq	%rax, -112(%rbp)        # 8-byte Spill
	movl	%edi, -116(%rbp)        # 4-byte Spill
	movl	%r9d, -120(%rbp)        # 4-byte Spill
	movl	%r11d, -124(%rbp)       # 4-byte Spill
	movq	%rdx, -136(%rbp)        # 8-byte Spill
	movl	%ebx, -140(%rbp)        # 4-byte Spill
	movl	%r14d, -144(%rbp)       # 4-byte Spill
	movl	%ecx, -148(%rbp)        # 4-byte Spill
.LBB0_2:                                # %for.body7
                                        #   Parent Loop BB0_1 Depth=1
                                        # =>  This Inner Loop Header: Depth=2
	movl	-148(%rbp), %eax        # 4-byte Reload
	movl	-144(%rbp), %ecx        # 4-byte Reload
	movl	-140(%rbp), %edx        # 4-byte Reload
	movq	-136(%rbp), %rsi        # 8-byte Reload
	movq	-112(%rbp), %rdi        # 8-byte Reload
	shlq	$5, %rdi
	addq	%rsi, %rdi
	movq	-96(%rbp), %r8          # 8-byte Reload
	movl	(%r8,%rdi,4), %r9d
	movslq	%r9d, %rdi
	movq	-64(%rbp), %r10         # 8-byte Reload
	movl	(%r10,%rdi,4), %r11d
	movslq	%r9d, %rdi
	movq	-56(%rbp), %rbx         # 8-byte Reload
	movl	(%rbx,%rdi,4), %r14d
	movslq	%r9d, %rdi
	movq	-48(%rbp), %r15         # 8-byte Reload
	movl	(%r15,%rdi,4), %r9d
	movl	-116(%rbp), %r12d       # 4-byte Reload
	subl	%r11d, %r12d
	movl	-120(%rbp), %r11d       # 4-byte Reload
	subl	%r14d, %r11d
	movl	-124(%rbp), %r14d       # 4-byte Reload
	subl	%r9d, %r14d
	movl	%r12d, %r9d
	imull	%r9d, %r9d
	movl	%r11d, %r13d
	imull	%r13d, %r13d
	movl	%r14d, %edi
	imull	%edi, %edi
	addl	%r13d, %r9d
	addl	%edi, %r9d
	movl	%r9d, %edi
	imull	%edi, %edi
	imull	%r9d, %edi
	imull	%edi, %r9d
	imull	$15, %edi, %edi
	addl	$-20, %edi
	imull	%edi, %r9d
	imull	%r9d, %r12d
	addl	%r12d, %eax
	imull	%r9d, %r11d
	addl	%r11d, %ecx
	imull	%r9d, %r14d
	addl	%r14d, %edx
	addq	$1, %rsi
	movq	-112(%rbp), %rdi        # 8-byte Reload
	shlq	$5, %rdi
	addq	%rsi, %rdi
	movl	(%r8,%rdi,4), %r9d
	movslq	%r9d, %rdi
	movl	(%r10,%rdi,4), %r11d
	movslq	%r9d, %rdi
	movl	(%rbx,%rdi,4), %r14d
	movslq	%r9d, %rdi
	movl	(%r15,%rdi,4), %r9d
	movl	-116(%rbp), %r12d       # 4-byte Reload
	subl	%r11d, %r12d
	movl	-120(%rbp), %r11d       # 4-byte Reload
	subl	%r14d, %r11d
	movl	-124(%rbp), %r14d       # 4-byte Reload
	subl	%r9d, %r14d
	movl	%r12d, %r9d
	imull	%r9d, %r9d
	movl	%r11d, %r13d
	imull	%r13d, %r13d
	movl	%r14d, %edi
	imull	%edi, %edi
	addl	%r13d, %r9d
	addl	%edi, %r9d
	movl	%r9d, %edi
	imull	%edi, %edi
	imull	%r9d, %edi
	imull	%edi, %r9d
	imull	$15, %edi, %edi
	addl	$-20, %edi
	imull	%edi, %r9d
	imull	%r9d, %r12d
	addl	%r12d, %eax
	imull	%r9d, %r11d
	addl	%r11d, %ecx
	imull	%r9d, %r14d
	addl	%r14d, %edx
	addq	$1, %rsi
	movq	-112(%rbp), %rdi        # 8-byte Reload
	shlq	$5, %rdi
	addq	%rsi, %rdi
	movl	(%r8,%rdi,4), %r9d
	movslq	%r9d, %rdi
	movl	(%r10,%rdi,4), %r11d
	movslq	%r9d, %rdi
	movl	(%rbx,%rdi,4), %r14d
	movslq	%r9d, %rdi
	movl	(%r15,%rdi,4), %r9d
	movl	-116(%rbp), %r12d       # 4-byte Reload
	subl	%r11d, %r12d
	movl	-120(%rbp), %r11d       # 4-byte Reload
	subl	%r14d, %r11d
	movl	-124(%rbp), %r14d       # 4-byte Reload
	subl	%r9d, %r14d
	movl	%r12d, %r9d
	imull	%r9d, %r9d
	movl	%r11d, %r13d
	imull	%r13d, %r13d
	movl	%r14d, %edi
	imull	%edi, %edi
	addl	%r13d, %r9d
	addl	%edi, %r9d
	movl	%r9d, %edi
	imull	%edi, %edi
	imull	%r9d, %edi
	imull	%edi, %r9d
	imull	$15, %edi, %edi
	addl	$-20, %edi
	imull	%edi, %r9d
	imull	%r9d, %r12d
	addl	%r12d, %eax
	imull	%r9d, %r11d
	addl	%r11d, %ecx
	imull	%r9d, %r14d
	addl	%r14d, %edx
	addq	$1, %rsi
	movq	-112(%rbp), %rdi        # 8-byte Reload
	shlq	$5, %rdi
	addq	%rsi, %rdi
	movl	(%r8,%rdi,4), %r9d
	movslq	%r9d, %rdi
	movl	(%r10,%rdi,4), %r11d
	movslq	%r9d, %rdi
	movl	(%rbx,%rdi,4), %r14d
	movslq	%r9d, %rdi
	movl	(%r15,%rdi,4), %r9d
	movl	-116(%rbp), %r12d       # 4-byte Reload
	subl	%r11d, %r12d
	movl	-120(%rbp), %r11d       # 4-byte Reload
	subl	%r14d, %r11d
	movl	-124(%rbp), %r14d       # 4-byte Reload
	subl	%r9d, %r14d
	movl	%r12d, %r9d
	imull	%r9d, %r9d
	movl	%r11d, %r13d
	imull	%r13d, %r13d
	movl	%r14d, %edi
	imull	%edi, %edi
	addl	%r13d, %r9d
	addl	%edi, %r9d
	movl	%r9d, %edi
	imull	%edi, %edi
	imull	%r9d, %edi
	imull	%edi, %r9d
	imull	$15, %edi, %edi
	addl	$-20, %edi
	imull	%edi, %r9d
	imull	%r9d, %r12d
	addl	%r12d, %eax
	imull	%r9d, %r11d
	addl	%r11d, %ecx
	imull	%r9d, %r14d
	addl	%r14d, %edx
	addq	$1, %rsi
	movq	-112(%rbp), %rdi        # 8-byte Reload
	shlq	$5, %rdi
	addq	%rsi, %rdi
	movl	(%r8,%rdi,4), %r9d
	movslq	%r9d, %rdi
	movl	(%r10,%rdi,4), %r11d
	movslq	%r9d, %rdi
	movl	(%rbx,%rdi,4), %r14d
	movslq	%r9d, %rdi
	movl	(%r15,%rdi,4), %r9d
	movl	-116(%rbp), %r12d       # 4-byte Reload
	subl	%r11d, %r12d
	movl	-120(%rbp), %r11d       # 4-byte Reload
	subl	%r14d, %r11d
	movl	-124(%rbp), %r14d       # 4-byte Reload
	subl	%r9d, %r14d
	movl	%r12d, %r9d
	imull	%r9d, %r9d
	movl	%r11d, %r13d
	imull	%r13d, %r13d
	movl	%r14d, %edi
	imull	%edi, %edi
	addl	%r13d, %r9d
	addl	%edi, %r9d
	movl	%r9d, %edi
	imull	%edi, %edi
	imull	%r9d, %edi
	imull	%edi, %r9d
	imull	$15, %edi, %edi
	addl	$-20, %edi
	imull	%edi, %r9d
	imull	%r9d, %r12d
	addl	%r12d, %eax
	imull	%r9d, %r11d
	addl	%r11d, %ecx
	imull	%r9d, %r14d
	addl	%r14d, %edx
	addq	$1, %rsi
	movq	-112(%rbp), %rdi        # 8-byte Reload
	shlq	$5, %rdi
	addq	%rsi, %rdi
	movl	(%r8,%rdi,4), %r9d
	movslq	%r9d, %rdi
	movl	(%r10,%rdi,4), %r11d
	movslq	%r9d, %rdi
	movl	(%rbx,%rdi,4), %r14d
	movslq	%r9d, %rdi
	movl	(%r15,%rdi,4), %r9d
	movl	-116(%rbp), %r12d       # 4-byte Reload
	subl	%r11d, %r12d
	movl	-120(%rbp), %r11d       # 4-byte Reload
	subl	%r14d, %r11d
	movl	-124(%rbp), %r14d       # 4-byte Reload
	subl	%r9d, %r14d
	movl	%r12d, %r9d
	imull	%r9d, %r9d
	movl	%r11d, %r13d
	imull	%r13d, %r13d
	movl	%r14d, %edi
	imull	%edi, %edi
	addl	%r13d, %r9d
	addl	%edi, %r9d
	movl	%r9d, %edi
	imull	%edi, %edi
	imull	%r9d, %edi
	imull	%edi, %r9d
	imull	$15, %edi, %edi
	addl	$-20, %edi
	imull	%edi, %r9d
	imull	%r9d, %r12d
	addl	%r12d, %eax
	imull	%r9d, %r11d
	addl	%r11d, %ecx
	imull	%r9d, %r14d
	addl	%r14d, %edx
	addq	$1, %rsi
	movq	-112(%rbp), %rdi        # 8-byte Reload
	shlq	$5, %rdi
	addq	%rsi, %rdi
	movl	(%r8,%rdi,4), %r9d
	movslq	%r9d, %rdi
	movl	(%r10,%rdi,4), %r11d
	movslq	%r9d, %rdi
	movl	(%rbx,%rdi,4), %r14d
	movslq	%r9d, %rdi
	movl	(%r15,%rdi,4), %r9d
	movl	-116(%rbp), %r12d       # 4-byte Reload
	subl	%r11d, %r12d
	movl	-120(%rbp), %r11d       # 4-byte Reload
	subl	%r14d, %r11d
	movl	-124(%rbp), %r14d       # 4-byte Reload
	subl	%r9d, %r14d
	movl	%r12d, %r9d
	imull	%r9d, %r9d
	movl	%r11d, %r13d
	imull	%r13d, %r13d
	movl	%r14d, %edi
	imull	%edi, %edi
	addl	%r13d, %r9d
	addl	%edi, %r9d
	movl	%r9d, %edi
	imull	%edi, %edi
	imull	%r9d, %edi
	imull	%edi, %r9d
	imull	$15, %edi, %edi
	addl	$-20, %edi
	imull	%edi, %r9d
	imull	%r9d, %r12d
	addl	%r12d, %eax
	imull	%r9d, %r11d
	addl	%r11d, %ecx
	imull	%r9d, %r14d
	addl	%r14d, %edx
	addq	$1, %rsi
	movq	-112(%rbp), %rdi        # 8-byte Reload
	shlq	$5, %rdi
	addq	%rsi, %rdi
	movl	(%r8,%rdi,4), %r9d
	movslq	%r9d, %rdi
	movl	(%r10,%rdi,4), %r11d
	movslq	%r9d, %rdi
	movl	(%rbx,%rdi,4), %r14d
	movslq	%r9d, %rdi
	movl	(%r15,%rdi,4), %r9d
	movl	-116(%rbp), %r12d       # 4-byte Reload
	subl	%r11d, %r12d
	movl	-120(%rbp), %r11d       # 4-byte Reload
	subl	%r14d, %r11d
	movl	-124(%rbp), %r14d       # 4-byte Reload
	subl	%r9d, %r14d
	movl	%r12d, %r9d
	imull	%r9d, %r9d
	movl	%r11d, %r13d
	imull	%r13d, %r13d
	movl	%r14d, %edi
	imull	%edi, %edi
	addl	%r13d, %r9d
	addl	%edi, %r9d
	movl	%r9d, %edi
	imull	%edi, %edi
	imull	%r9d, %edi
	imull	%edi, %r9d
	imull	$15, %edi, %edi
	addl	$-20, %edi
	imull	%edi, %r9d
	imull	%r9d, %r12d
	addl	%r12d, %eax
	imull	%r9d, %r11d
	addl	%r11d, %ecx
	imull	%r9d, %r14d
	addl	%r14d, %edx
	addq	$1, %rsi
	movq	-112(%rbp), %rdi        # 8-byte Reload
	shlq	$5, %rdi
	addq	%rsi, %rdi
	movl	(%r8,%rdi,4), %r9d
	movslq	%r9d, %rdi
	movl	(%r10,%rdi,4), %r11d
	movslq	%r9d, %rdi
	movl	(%rbx,%rdi,4), %r14d
	movslq	%r9d, %rdi
	movl	(%r15,%rdi,4), %r9d
	movl	-116(%rbp), %r12d       # 4-byte Reload
	subl	%r11d, %r12d
	movl	-120(%rbp), %r11d       # 4-byte Reload
	subl	%r14d, %r11d
	movl	-124(%rbp), %r14d       # 4-byte Reload
	subl	%r9d, %r14d
	movl	%r12d, %r9d
	imull	%r9d, %r9d
	movl	%r11d, %r13d
	imull	%r13d, %r13d
	movl	%r14d, %edi
	imull	%edi, %edi
	addl	%r13d, %r9d
	addl	%edi, %r9d
	movl	%r9d, %edi
	imull	%edi, %edi
	imull	%r9d, %edi
	imull	%edi, %r9d
	imull	$15, %edi, %edi
	addl	$-20, %edi
	imull	%edi, %r9d
	imull	%r9d, %r12d
	addl	%r12d, %eax
	imull	%r9d, %r11d
	addl	%r11d, %ecx
	imull	%r9d, %r14d
	addl	%r14d, %edx
	addq	$1, %rsi
	movq	-112(%rbp), %rdi        # 8-byte Reload
	shlq	$5, %rdi
	addq	%rsi, %rdi
	movl	(%r8,%rdi,4), %r9d
	movslq	%r9d, %rdi
	movl	(%r10,%rdi,4), %r11d
	movslq	%r9d, %rdi
	movl	(%rbx,%rdi,4), %r14d
	movslq	%r9d, %rdi
	movl	(%r15,%rdi,4), %r9d
	movl	-116(%rbp), %r12d       # 4-byte Reload
	subl	%r11d, %r12d
	movl	-120(%rbp), %r11d       # 4-byte Reload
	subl	%r14d, %r11d
	movl	-124(%rbp), %r14d       # 4-byte Reload
	subl	%r9d, %r14d
	movl	%r12d, %r9d
	imull	%r9d, %r9d
	movl	%r11d, %r13d
	imull	%r13d, %r13d
	movl	%r14d, %edi
	imull	%edi, %edi
	addl	%r13d, %r9d
	addl	%edi, %r9d
	movl	%r9d, %edi
	imull	%edi, %edi
	imull	%r9d, %edi
	imull	%edi, %r9d
	imull	$15, %edi, %edi
	addl	$-20, %edi
	imull	%edi, %r9d
	imull	%r9d, %r12d
	addl	%r12d, %eax
	imull	%r9d, %r11d
	addl	%r11d, %ecx
	imull	%r9d, %r14d
	addl	%r14d, %edx
	addq	$1, %rsi
	movq	-112(%rbp), %rdi        # 8-byte Reload
	shlq	$5, %rdi
	addq	%rsi, %rdi
	movl	(%r8,%rdi,4), %r9d
	movslq	%r9d, %rdi
	movl	(%r10,%rdi,4), %r11d
	movslq	%r9d, %rdi
	movl	(%rbx,%rdi,4), %r14d
	movslq	%r9d, %rdi
	movl	(%r15,%rdi,4), %r9d
	movl	-116(%rbp), %r12d       # 4-byte Reload
	subl	%r11d, %r12d
	movl	-120(%rbp), %r11d       # 4-byte Reload
	subl	%r14d, %r11d
	movl	-124(%rbp), %r14d       # 4-byte Reload
	subl	%r9d, %r14d
	movl	%r12d, %r9d
	imull	%r9d, %r9d
	movl	%r11d, %r13d
	imull	%r13d, %r13d
	movl	%r14d, %edi
	imull	%edi, %edi
	addl	%r13d, %r9d
	addl	%edi, %r9d
	movl	%r9d, %edi
	imull	%edi, %edi
	imull	%r9d, %edi
	imull	%edi, %r9d
	imull	$15, %edi, %edi
	addl	$-20, %edi
	imull	%edi, %r9d
	imull	%r9d, %r12d
	addl	%r12d, %eax
	imull	%r9d, %r11d
	addl	%r11d, %ecx
	imull	%r9d, %r14d
	addl	%r14d, %edx
	addq	$1, %rsi
	movq	-112(%rbp), %rdi        # 8-byte Reload
	shlq	$5, %rdi
	addq	%rsi, %rdi
	movl	(%r8,%rdi,4), %r9d
	movslq	%r9d, %rdi
	movl	(%r10,%rdi,4), %r11d
	movslq	%r9d, %rdi
	movl	(%rbx,%rdi,4), %r14d
	movslq	%r9d, %rdi
	movl	(%r15,%rdi,4), %r9d
	movl	-116(%rbp), %r12d       # 4-byte Reload
	subl	%r11d, %r12d
	movl	-120(%rbp), %r11d       # 4-byte Reload
	subl	%r14d, %r11d
	movl	-124(%rbp), %r14d       # 4-byte Reload
	subl	%r9d, %r14d
	movl	%r12d, %r9d
	imull	%r9d, %r9d
	movl	%r11d, %r13d
	imull	%r13d, %r13d
	movl	%r14d, %edi
	imull	%edi, %edi
	addl	%r13d, %r9d
	addl	%edi, %r9d
	movl	%r9d, %edi
	imull	%edi, %edi
	imull	%r9d, %edi
	imull	%edi, %r9d
	imull	$15, %edi, %edi
	addl	$-20, %edi
	imull	%edi, %r9d
	imull	%r9d, %r12d
	addl	%r12d, %eax
	imull	%r9d, %r11d
	addl	%r11d, %ecx
	imull	%r9d, %r14d
	addl	%r14d, %edx
	addq	$1, %rsi
	movq	-112(%rbp), %rdi        # 8-byte Reload
	shlq	$5, %rdi
	addq	%rsi, %rdi
	movl	(%r8,%rdi,4), %r9d
	movslq	%r9d, %rdi
	movl	(%r10,%rdi,4), %r11d
	movslq	%r9d, %rdi
	movl	(%rbx,%rdi,4), %r14d
	movslq	%r9d, %rdi
	movl	(%r15,%rdi,4), %r9d
	movl	-116(%rbp), %r12d       # 4-byte Reload
	subl	%r11d, %r12d
	movl	-120(%rbp), %r11d       # 4-byte Reload
	subl	%r14d, %r11d
	movl	-124(%rbp), %r14d       # 4-byte Reload
	subl	%r9d, %r14d
	movl	%r12d, %r9d
	imull	%r9d, %r9d
	movl	%r11d, %r13d
	imull	%r13d, %r13d
	movl	%r14d, %edi
	imull	%edi, %edi
	addl	%r13d, %r9d
	addl	%edi, %r9d
	movl	%r9d, %edi
	imull	%edi, %edi
	imull	%r9d, %edi
	imull	%edi, %r9d
	imull	$15, %edi, %edi
	addl	$-20, %edi
	imull	%edi, %r9d
	imull	%r9d, %r12d
	addl	%r12d, %eax
	imull	%r9d, %r11d
	addl	%r11d, %ecx
	imull	%r9d, %r14d
	addl	%r14d, %edx
	addq	$1, %rsi
	movq	-112(%rbp), %rdi        # 8-byte Reload
	shlq	$5, %rdi
	addq	%rsi, %rdi
	movl	(%r8,%rdi,4), %r9d
	movslq	%r9d, %rdi
	movl	(%r10,%rdi,4), %r11d
	movslq	%r9d, %rdi
	movl	(%rbx,%rdi,4), %r14d
	movslq	%r9d, %rdi
	movl	(%r15,%rdi,4), %r9d
	movl	-116(%rbp), %r12d       # 4-byte Reload
	subl	%r11d, %r12d
	movl	-120(%rbp), %r11d       # 4-byte Reload
	subl	%r14d, %r11d
	movl	-124(%rbp), %r14d       # 4-byte Reload
	subl	%r9d, %r14d
	movl	%r12d, %r9d
	imull	%r9d, %r9d
	movl	%r11d, %r13d
	imull	%r13d, %r13d
	movl	%r14d, %edi
	imull	%edi, %edi
	addl	%r13d, %r9d
	addl	%edi, %r9d
	movl	%r9d, %edi
	imull	%edi, %edi
	imull	%r9d, %edi
	imull	%edi, %r9d
	imull	$15, %edi, %edi
	addl	$-20, %edi
	imull	%edi, %r9d
	imull	%r9d, %r12d
	addl	%r12d, %eax
	imull	%r9d, %r11d
	addl	%r11d, %ecx
	imull	%r9d, %r14d
	addl	%r14d, %edx
	addq	$1, %rsi
	movq	-112(%rbp), %rdi        # 8-byte Reload
	shlq	$5, %rdi
	addq	%rsi, %rdi
	movl	(%r8,%rdi,4), %r9d
	movslq	%r9d, %rdi
	movl	(%r10,%rdi,4), %r11d
	movslq	%r9d, %rdi
	movl	(%rbx,%rdi,4), %r14d
	movslq	%r9d, %rdi
	movl	(%r15,%rdi,4), %r9d
	movl	-116(%rbp), %r12d       # 4-byte Reload
	subl	%r11d, %r12d
	movl	-120(%rbp), %r11d       # 4-byte Reload
	subl	%r14d, %r11d
	movl	-124(%rbp), %r14d       # 4-byte Reload
	subl	%r9d, %r14d
	movl	%r12d, %r9d
	imull	%r9d, %r9d
	movl	%r11d, %r13d
	imull	%r13d, %r13d
	movl	%r14d, %edi
	imull	%edi, %edi
	addl	%r13d, %r9d
	addl	%edi, %r9d
	movl	%r9d, %edi
	imull	%edi, %edi
	imull	%r9d, %edi
	imull	%edi, %r9d
	imull	$15, %edi, %edi
	addl	$-20, %edi
	imull	%edi, %r9d
	imull	%r9d, %r12d
	addl	%r12d, %eax
	imull	%r9d, %r11d
	addl	%r11d, %ecx
	imull	%r9d, %r14d
	addl	%r14d, %edx
	addq	$1, %rsi
	movq	-112(%rbp), %rdi        # 8-byte Reload
	shlq	$5, %rdi
	addq	%rsi, %rdi
	movl	(%r8,%rdi,4), %r9d
	movslq	%r9d, %rdi
	movl	(%r10,%rdi,4), %r11d
	movslq	%r9d, %rdi
	movl	(%rbx,%rdi,4), %r14d
	movslq	%r9d, %rdi
	movl	(%r15,%rdi,4), %r9d
	movl	-116(%rbp), %r12d       # 4-byte Reload
	subl	%r11d, %r12d
	movl	-120(%rbp), %r11d       # 4-byte Reload
	subl	%r14d, %r11d
	movl	-124(%rbp), %r14d       # 4-byte Reload
	subl	%r9d, %r14d
	movl	%r12d, %r9d
	imull	%r9d, %r9d
	movl	%r11d, %r13d
	imull	%r13d, %r13d
	movl	%r14d, %edi
	imull	%edi, %edi
	addl	%r13d, %r9d
	addl	%edi, %r9d
	movl	%r9d, %edi
	imull	%edi, %edi
	imull	%r9d, %edi
	imull	%edi, %r9d
	imull	$15, %edi, %edi
	addl	$-20, %edi
	imull	%edi, %r9d
	imull	%r9d, %r12d
	addl	%r12d, %eax
	imull	%r9d, %r11d
	addl	%r11d, %ecx
	imull	%r9d, %r14d
	addl	%r14d, %edx
	addq	$1, %rsi
	movq	-112(%rbp), %rdi        # 8-byte Reload
	shlq	$5, %rdi
	addq	%rsi, %rdi
	movl	(%r8,%rdi,4), %r9d
	movslq	%r9d, %rdi
	movl	(%r10,%rdi,4), %r11d
	movslq	%r9d, %rdi
	movl	(%rbx,%rdi,4), %r14d
	movslq	%r9d, %rdi
	movl	(%r15,%rdi,4), %r9d
	movl	-116(%rbp), %r12d       # 4-byte Reload
	subl	%r11d, %r12d
	movl	-120(%rbp), %r11d       # 4-byte Reload
	subl	%r14d, %r11d
	movl	-124(%rbp), %r14d       # 4-byte Reload
	subl	%r9d, %r14d
	movl	%r12d, %r9d
	imull	%r9d, %r9d
	movl	%r11d, %r13d
	imull	%r13d, %r13d
	movl	%r14d, %edi
	imull	%edi, %edi
	addl	%r13d, %r9d
	addl	%edi, %r9d
	movl	%r9d, %edi
	imull	%edi, %edi
	imull	%r9d, %edi
	imull	%edi, %r9d
	imull	$15, %edi, %edi
	addl	$-20, %edi
	imull	%edi, %r9d
	imull	%r9d, %r12d
	addl	%r12d, %eax
	imull	%r9d, %r11d
	addl	%r11d, %ecx
	imull	%r9d, %r14d
	addl	%r14d, %edx
	addq	$1, %rsi
	movq	-112(%rbp), %rdi        # 8-byte Reload
	shlq	$5, %rdi
	addq	%rsi, %rdi
	movl	(%r8,%rdi,4), %r9d
	movslq	%r9d, %rdi
	movl	(%r10,%rdi,4), %r11d
	movslq	%r9d, %rdi
	movl	(%rbx,%rdi,4), %r14d
	movslq	%r9d, %rdi
	movl	(%r15,%rdi,4), %r9d
	movl	-116(%rbp), %r12d       # 4-byte Reload
	subl	%r11d, %r12d
	movl	-120(%rbp), %r11d       # 4-byte Reload
	subl	%r14d, %r11d
	movl	-124(%rbp), %r14d       # 4-byte Reload
	subl	%r9d, %r14d
	movl	%r12d, %r9d
	imull	%r9d, %r9d
	movl	%r11d, %r13d
	imull	%r13d, %r13d
	movl	%r14d, %edi
	imull	%edi, %edi
	addl	%r13d, %r9d
	addl	%edi, %r9d
	movl	%r9d, %edi
	imull	%edi, %edi
	imull	%r9d, %edi
	imull	%edi, %r9d
	imull	$15, %edi, %edi
	addl	$-20, %edi
	imull	%edi, %r9d
	imull	%r9d, %r12d
	addl	%r12d, %eax
	imull	%r9d, %r11d
	addl	%r11d, %ecx
	imull	%r9d, %r14d
	addl	%r14d, %edx
	addq	$1, %rsi
	movq	-112(%rbp), %rdi        # 8-byte Reload
	shlq	$5, %rdi
	addq	%rsi, %rdi
	movl	(%r8,%rdi,4), %r9d
	movslq	%r9d, %rdi
	movl	(%r10,%rdi,4), %r11d
	movslq	%r9d, %rdi
	movl	(%rbx,%rdi,4), %r14d
	movslq	%r9d, %rdi
	movl	(%r15,%rdi,4), %r9d
	movl	-116(%rbp), %r12d       # 4-byte Reload
	subl	%r11d, %r12d
	movl	-120(%rbp), %r11d       # 4-byte Reload
	subl	%r14d, %r11d
	movl	-124(%rbp), %r14d       # 4-byte Reload
	subl	%r9d, %r14d
	movl	%r12d, %r9d
	imull	%r9d, %r9d
	movl	%r11d, %r13d
	imull	%r13d, %r13d
	movl	%r14d, %edi
	imull	%edi, %edi
	addl	%r13d, %r9d
	addl	%edi, %r9d
	movl	%r9d, %edi
	imull	%edi, %edi
	imull	%r9d, %edi
	imull	%edi, %r9d
	imull	$15, %edi, %edi
	addl	$-20, %edi
	imull	%edi, %r9d
	imull	%r9d, %r12d
	addl	%r12d, %eax
	imull	%r9d, %r11d
	addl	%r11d, %ecx
	imull	%r9d, %r14d
	addl	%r14d, %edx
	addq	$1, %rsi
	movq	-112(%rbp), %rdi        # 8-byte Reload
	shlq	$5, %rdi
	addq	%rsi, %rdi
	movl	(%r8,%rdi,4), %r9d
	movslq	%r9d, %rdi
	movl	(%r10,%rdi,4), %r11d
	movslq	%r9d, %rdi
	movl	(%rbx,%rdi,4), %r14d
	movslq	%r9d, %rdi
	movl	(%r15,%rdi,4), %r9d
	movl	-116(%rbp), %r12d       # 4-byte Reload
	subl	%r11d, %r12d
	movl	-120(%rbp), %r11d       # 4-byte Reload
	subl	%r14d, %r11d
	movl	-124(%rbp), %r14d       # 4-byte Reload
	subl	%r9d, %r14d
	movl	%r12d, %r9d
	imull	%r9d, %r9d
	movl	%r11d, %r13d
	imull	%r13d, %r13d
	movl	%r14d, %edi
	imull	%edi, %edi
	addl	%r13d, %r9d
	addl	%edi, %r9d
	movl	%r9d, %edi
	imull	%edi, %edi
	imull	%r9d, %edi
	imull	%edi, %r9d
	imull	$15, %edi, %edi
	addl	$-20, %edi
	imull	%edi, %r9d
	imull	%r9d, %r12d
	addl	%r12d, %eax
	imull	%r9d, %r11d
	addl	%r11d, %ecx
	imull	%r9d, %r14d
	addl	%r14d, %edx
	addq	$1, %rsi
	movq	-112(%rbp), %rdi        # 8-byte Reload
	shlq	$5, %rdi
	addq	%rsi, %rdi
	movl	(%r8,%rdi,4), %r9d
	movslq	%r9d, %rdi
	movl	(%r10,%rdi,4), %r11d
	movslq	%r9d, %rdi
	movl	(%rbx,%rdi,4), %r14d
	movslq	%r9d, %rdi
	movl	(%r15,%rdi,4), %r9d
	movl	-116(%rbp), %r12d       # 4-byte Reload
	subl	%r11d, %r12d
	movl	-120(%rbp), %r11d       # 4-byte Reload
	subl	%r14d, %r11d
	movl	-124(%rbp), %r14d       # 4-byte Reload
	subl	%r9d, %r14d
	movl	%r12d, %r9d
	imull	%r9d, %r9d
	movl	%r11d, %r13d
	imull	%r13d, %r13d
	movl	%r14d, %edi
	imull	%edi, %edi
	addl	%r13d, %r9d
	addl	%edi, %r9d
	movl	%r9d, %edi
	imull	%edi, %edi
	imull	%r9d, %edi
	imull	%edi, %r9d
	imull	$15, %edi, %edi
	addl	$-20, %edi
	imull	%edi, %r9d
	imull	%r9d, %r12d
	addl	%r12d, %eax
	imull	%r9d, %r11d
	addl	%r11d, %ecx
	imull	%r9d, %r14d
	addl	%r14d, %edx
	addq	$1, %rsi
	movq	-112(%rbp), %rdi        # 8-byte Reload
	shlq	$5, %rdi
	addq	%rsi, %rdi
	movl	(%r8,%rdi,4), %r9d
	movslq	%r9d, %rdi
	movl	(%r10,%rdi,4), %r11d
	movslq	%r9d, %rdi
	movl	(%rbx,%rdi,4), %r14d
	movslq	%r9d, %rdi
	movl	(%r15,%rdi,4), %r9d
	movl	-116(%rbp), %r12d       # 4-byte Reload
	subl	%r11d, %r12d
	movl	-120(%rbp), %r11d       # 4-byte Reload
	subl	%r14d, %r11d
	movl	-124(%rbp), %r14d       # 4-byte Reload
	subl	%r9d, %r14d
	movl	%r12d, %r9d
	imull	%r9d, %r9d
	movl	%r11d, %r13d
	imull	%r13d, %r13d
	movl	%r14d, %edi
	imull	%edi, %edi
	addl	%r13d, %r9d
	addl	%edi, %r9d
	movl	%r9d, %edi
	imull	%edi, %edi
	imull	%r9d, %edi
	imull	%edi, %r9d
	imull	$15, %edi, %edi
	addl	$-20, %edi
	imull	%edi, %r9d
	imull	%r9d, %r12d
	addl	%r12d, %eax
	imull	%r9d, %r11d
	addl	%r11d, %ecx
	imull	%r9d, %r14d
	addl	%r14d, %edx
	addq	$1, %rsi
	movq	-112(%rbp), %rdi        # 8-byte Reload
	shlq	$5, %rdi
	addq	%rsi, %rdi
	movl	(%r8,%rdi,4), %r9d
	movslq	%r9d, %rdi
	movl	(%r10,%rdi,4), %r11d
	movslq	%r9d, %rdi
	movl	(%rbx,%rdi,4), %r14d
	movslq	%r9d, %rdi
	movl	(%r15,%rdi,4), %r9d
	movl	-116(%rbp), %r12d       # 4-byte Reload
	subl	%r11d, %r12d
	movl	-120(%rbp), %r11d       # 4-byte Reload
	subl	%r14d, %r11d
	movl	-124(%rbp), %r14d       # 4-byte Reload
	subl	%r9d, %r14d
	movl	%r12d, %r9d
	imull	%r9d, %r9d
	movl	%r11d, %r13d
	imull	%r13d, %r13d
	movl	%r14d, %edi
	imull	%edi, %edi
	addl	%r13d, %r9d
	addl	%edi, %r9d
	movl	%r9d, %edi
	imull	%edi, %edi
	imull	%r9d, %edi
	imull	%edi, %r9d
	imull	$15, %edi, %edi
	addl	$-20, %edi
	imull	%edi, %r9d
	imull	%r9d, %r12d
	addl	%r12d, %eax
	imull	%r9d, %r11d
	addl	%r11d, %ecx
	imull	%r9d, %r14d
	addl	%r14d, %edx
	addq	$1, %rsi
	movq	-112(%rbp), %rdi        # 8-byte Reload
	shlq	$5, %rdi
	addq	%rsi, %rdi
	movl	(%r8,%rdi,4), %r9d
	movslq	%r9d, %rdi
	movl	(%r10,%rdi,4), %r11d
	movslq	%r9d, %rdi
	movl	(%rbx,%rdi,4), %r14d
	movslq	%r9d, %rdi
	movl	(%r15,%rdi,4), %r9d
	movl	-116(%rbp), %r12d       # 4-byte Reload
	subl	%r11d, %r12d
	movl	-120(%rbp), %r11d       # 4-byte Reload
	subl	%r14d, %r11d
	movl	-124(%rbp), %r14d       # 4-byte Reload
	subl	%r9d, %r14d
	movl	%r12d, %r9d
	imull	%r9d, %r9d
	movl	%r11d, %r13d
	imull	%r13d, %r13d
	movl	%r14d, %edi
	imull	%edi, %edi
	addl	%r13d, %r9d
	addl	%edi, %r9d
	movl	%r9d, %edi
	imull	%edi, %edi
	imull	%r9d, %edi
	imull	%edi, %r9d
	imull	$15, %edi, %edi
	addl	$-20, %edi
	imull	%edi, %r9d
	imull	%r9d, %r12d
	addl	%r12d, %eax
	imull	%r9d, %r11d
	addl	%r11d, %ecx
	imull	%r9d, %r14d
	addl	%r14d, %edx
	addq	$1, %rsi
	movq	-112(%rbp), %rdi        # 8-byte Reload
	shlq	$5, %rdi
	addq	%rsi, %rdi
	movl	(%r8,%rdi,4), %r9d
	movslq	%r9d, %rdi
	movl	(%r10,%rdi,4), %r11d
	movslq	%r9d, %rdi
	movl	(%rbx,%rdi,4), %r14d
	movslq	%r9d, %rdi
	movl	(%r15,%rdi,4), %r9d
	movl	-116(%rbp), %r12d       # 4-byte Reload
	subl	%r11d, %r12d
	movl	-120(%rbp), %r11d       # 4-byte Reload
	subl	%r14d, %r11d
	movl	-124(%rbp), %r14d       # 4-byte Reload
	subl	%r9d, %r14d
	movl	%r12d, %r9d
	imull	%r9d, %r9d
	movl	%r11d, %r13d
	imull	%r13d, %r13d
	movl	%r14d, %edi
	imull	%edi, %edi
	addl	%r13d, %r9d
	addl	%edi, %r9d
	movl	%r9d, %edi
	imull	%edi, %edi
	imull	%r9d, %edi
	imull	%edi, %r9d
	imull	$15, %edi, %edi
	addl	$-20, %edi
	imull	%edi, %r9d
	imull	%r9d, %r12d
	addl	%r12d, %eax
	imull	%r9d, %r11d
	addl	%r11d, %ecx
	imull	%r9d, %r14d
	addl	%r14d, %edx
	addq	$1, %rsi
	movq	-112(%rbp), %rdi        # 8-byte Reload
	shlq	$5, %rdi
	addq	%rsi, %rdi
	movl	(%r8,%rdi,4), %r9d
	movslq	%r9d, %rdi
	movl	(%r10,%rdi,4), %r11d
	movslq	%r9d, %rdi
	movl	(%rbx,%rdi,4), %r14d
	movslq	%r9d, %rdi
	movl	(%r15,%rdi,4), %r9d
	movl	-116(%rbp), %r12d       # 4-byte Reload
	subl	%r11d, %r12d
	movl	-120(%rbp), %r11d       # 4-byte Reload
	subl	%r14d, %r11d
	movl	-124(%rbp), %r14d       # 4-byte Reload
	subl	%r9d, %r14d
	movl	%r12d, %r9d
	imull	%r9d, %r9d
	movl	%r11d, %r13d
	imull	%r13d, %r13d
	movl	%r14d, %edi
	imull	%edi, %edi
	addl	%r13d, %r9d
	addl	%edi, %r9d
	movl	%r9d, %edi
	imull	%edi, %edi
	imull	%r9d, %edi
	imull	%edi, %r9d
	imull	$15, %edi, %edi
	addl	$-20, %edi
	imull	%edi, %r9d
	imull	%r9d, %r12d
	addl	%r12d, %eax
	imull	%r9d, %r11d
	addl	%r11d, %ecx
	imull	%r9d, %r14d
	addl	%r14d, %edx
	addq	$1, %rsi
	movq	-112(%rbp), %rdi        # 8-byte Reload
	shlq	$5, %rdi
	addq	%rsi, %rdi
	movl	(%r8,%rdi,4), %r9d
	movslq	%r9d, %rdi
	movl	(%r10,%rdi,4), %r11d
	movslq	%r9d, %rdi
	movl	(%rbx,%rdi,4), %r14d
	movslq	%r9d, %rdi
	movl	(%r15,%rdi,4), %r9d
	movl	-116(%rbp), %r12d       # 4-byte Reload
	subl	%r11d, %r12d
	movl	-120(%rbp), %r11d       # 4-byte Reload
	subl	%r14d, %r11d
	movl	-124(%rbp), %r14d       # 4-byte Reload
	subl	%r9d, %r14d
	movl	%r12d, %r9d
	imull	%r9d, %r9d
	movl	%r11d, %r13d
	imull	%r13d, %r13d
	movl	%r14d, %edi
	imull	%edi, %edi
	addl	%r13d, %r9d
	addl	%edi, %r9d
	movl	%r9d, %edi
	imull	%edi, %edi
	imull	%r9d, %edi
	imull	%edi, %r9d
	imull	$15, %edi, %edi
	addl	$-20, %edi
	imull	%edi, %r9d
	imull	%r9d, %r12d
	addl	%r12d, %eax
	imull	%r9d, %r11d
	addl	%r11d, %ecx
	imull	%r9d, %r14d
	addl	%r14d, %edx
	addq	$1, %rsi
	movq	-112(%rbp), %rdi        # 8-byte Reload
	shlq	$5, %rdi
	addq	%rsi, %rdi
	movl	(%r8,%rdi,4), %r9d
	movslq	%r9d, %rdi
	movl	(%r10,%rdi,4), %r11d
	movslq	%r9d, %rdi
	movl	(%rbx,%rdi,4), %r14d
	movslq	%r9d, %rdi
	movl	(%r15,%rdi,4), %r9d
	movl	-116(%rbp), %r12d       # 4-byte Reload
	subl	%r11d, %r12d
	movl	-120(%rbp), %r11d       # 4-byte Reload
	subl	%r14d, %r11d
	movl	-124(%rbp), %r14d       # 4-byte Reload
	subl	%r9d, %r14d
	movl	%r12d, %r9d
	imull	%r9d, %r9d
	movl	%r11d, %r13d
	imull	%r13d, %r13d
	movl	%r14d, %edi
	imull	%edi, %edi
	addl	%r13d, %r9d
	addl	%edi, %r9d
	movl	%r9d, %edi
	imull	%edi, %edi
	imull	%r9d, %edi
	imull	%edi, %r9d
	imull	$15, %edi, %edi
	addl	$-20, %edi
	imull	%edi, %r9d
	imull	%r9d, %r12d
	addl	%r12d, %eax
	imull	%r9d, %r11d
	addl	%r11d, %ecx
	imull	%r9d, %r14d
	addl	%r14d, %edx
	addq	$1, %rsi
	movq	-112(%rbp), %rdi        # 8-byte Reload
	shlq	$5, %rdi
	addq	%rsi, %rdi
	movl	(%r8,%rdi,4), %r9d
	movslq	%r9d, %rdi
	movl	(%r10,%rdi,4), %r11d
	movslq	%r9d, %rdi
	movl	(%rbx,%rdi,4), %r14d
	movslq	%r9d, %rdi
	movl	(%r15,%rdi,4), %r9d
	movl	-116(%rbp), %r12d       # 4-byte Reload
	subl	%r11d, %r12d
	movl	-120(%rbp), %r11d       # 4-byte Reload
	subl	%r14d, %r11d
	movl	-124(%rbp), %r14d       # 4-byte Reload
	subl	%r9d, %r14d
	movl	%r12d, %r9d
	imull	%r9d, %r9d
	movl	%r11d, %r13d
	imull	%r13d, %r13d
	movl	%r14d, %edi
	imull	%edi, %edi
	addl	%r13d, %r9d
	addl	%edi, %r9d
	movl	%r9d, %edi
	imull	%edi, %edi
	imull	%r9d, %edi
	imull	%edi, %r9d
	imull	$15, %edi, %edi
	addl	$-20, %edi
	imull	%edi, %r9d
	imull	%r9d, %r12d
	addl	%r12d, %eax
	imull	%r9d, %r11d
	addl	%r11d, %ecx
	imull	%r9d, %r14d
	addl	%r14d, %edx
	addq	$1, %rsi
	movq	-112(%rbp), %rdi        # 8-byte Reload
	shlq	$5, %rdi
	addq	%rsi, %rdi
	movl	(%r8,%rdi,4), %r9d
	movslq	%r9d, %rdi
	movl	(%r10,%rdi,4), %r11d
	movslq	%r9d, %rdi
	movl	(%rbx,%rdi,4), %r14d
	movslq	%r9d, %rdi
	movl	(%r15,%rdi,4), %r9d
	movl	-116(%rbp), %r12d       # 4-byte Reload
	subl	%r11d, %r12d
	movl	-120(%rbp), %r11d       # 4-byte Reload
	subl	%r14d, %r11d
	movl	-124(%rbp), %r14d       # 4-byte Reload
	subl	%r9d, %r14d
	movl	%r12d, %r9d
	imull	%r9d, %r9d
	movl	%r11d, %r13d
	imull	%r13d, %r13d
	movl	%r14d, %edi
	imull	%edi, %edi
	addl	%r13d, %r9d
	addl	%edi, %r9d
	movl	%r9d, %edi
	imull	%edi, %edi
	imull	%r9d, %edi
	imull	%edi, %r9d
	imull	$15, %edi, %edi
	addl	$-20, %edi
	imull	%edi, %r9d
	imull	%r9d, %r12d
	addl	%r12d, %eax
	imull	%r9d, %r11d
	addl	%r11d, %ecx
	imull	%r9d, %r14d
	addl	%r14d, %edx
	addq	$1, %rsi
	movq	-112(%rbp), %rdi        # 8-byte Reload
	shlq	$5, %rdi
	addq	%rsi, %rdi
	movl	(%r8,%rdi,4), %r9d
	movslq	%r9d, %rdi
	movl	(%r10,%rdi,4), %r11d
	movslq	%r9d, %rdi
	movl	(%rbx,%rdi,4), %r14d
	movslq	%r9d, %rdi
	movl	(%r15,%rdi,4), %r9d
	movl	-116(%rbp), %r12d       # 4-byte Reload
	subl	%r11d, %r12d
	movl	-120(%rbp), %r11d       # 4-byte Reload
	subl	%r14d, %r11d
	movl	-124(%rbp), %r14d       # 4-byte Reload
	subl	%r9d, %r14d
	movl	%r12d, %r9d
	imull	%r9d, %r9d
	movl	%r11d, %r13d
	imull	%r13d, %r13d
	movl	%r14d, %edi
	imull	%edi, %edi
	addl	%r13d, %r9d
	addl	%edi, %r9d
	movl	%r9d, %edi
	imull	%edi, %edi
	imull	%r9d, %edi
	imull	%edi, %r9d
	imull	$15, %edi, %edi
	addl	$-20, %edi
	imull	%edi, %r9d
	imull	%r9d, %r12d
	addl	%r12d, %eax
	imull	%r9d, %r11d
	addl	%r11d, %ecx
	imull	%r9d, %r14d
	addl	%r14d, %edx
	addq	$1, %rsi
	movq	-112(%rbp), %rdi        # 8-byte Reload
	shlq	$5, %rdi
	addq	%rsi, %rdi
	movl	(%r8,%rdi,4), %r9d
	movslq	%r9d, %rdi
	movl	(%r10,%rdi,4), %r11d
	movslq	%r9d, %rdi
	movl	(%rbx,%rdi,4), %r14d
	movslq	%r9d, %rdi
	movl	(%r15,%rdi,4), %r9d
	movl	-116(%rbp), %r12d       # 4-byte Reload
	subl	%r11d, %r12d
	movl	-120(%rbp), %r11d       # 4-byte Reload
	subl	%r14d, %r11d
	movl	-124(%rbp), %r14d       # 4-byte Reload
	subl	%r9d, %r14d
	movl	%r12d, %r9d
	imull	%r9d, %r9d
	movl	%r11d, %r13d
	imull	%r13d, %r13d
	movl	%r14d, %edi
	imull	%edi, %edi
	addl	%r13d, %r9d
	addl	%edi, %r9d
	movl	%r9d, %edi
	imull	%edi, %edi
	imull	%r9d, %edi
	imull	%edi, %r9d
	imull	$15, %edi, %edi
	addl	$-20, %edi
	imull	%edi, %r9d
	imull	%r9d, %r12d
	addl	%r12d, %eax
	imull	%r9d, %r11d
	addl	%r11d, %ecx
	imull	%r9d, %r14d
	addl	%r14d, %edx
	addq	$1, %rsi
	movq	-112(%rbp), %rdi        # 8-byte Reload
	shlq	$5, %rdi
	addq	%rsi, %rdi
	movl	(%r8,%rdi,4), %r9d
	movslq	%r9d, %rdi
	movl	(%r10,%rdi,4), %r11d
	movslq	%r9d, %rdi
	movl	(%rbx,%rdi,4), %r14d
	movslq	%r9d, %rdi
	movl	(%r15,%rdi,4), %r9d
	movl	-116(%rbp), %r12d       # 4-byte Reload
	subl	%r11d, %r12d
	movl	-120(%rbp), %r11d       # 4-byte Reload
	subl	%r14d, %r11d
	movl	-124(%rbp), %r14d       # 4-byte Reload
	subl	%r9d, %r14d
	movl	%r12d, %r9d
	imull	%r9d, %r9d
	movl	%r11d, %r13d
	imull	%r13d, %r13d
	movl	%r14d, %edi
	imull	%edi, %edi
	addl	%r13d, %r9d
	addl	%edi, %r9d
	movl	%r9d, %edi
	imull	%edi, %edi
	imull	%r9d, %edi
	imull	%edi, %r9d
	imull	$15, %edi, %edi
	addl	$-20, %edi
	imull	%edi, %r9d
	imull	%r9d, %r12d
	addl	%r12d, %eax
	imull	%r9d, %r11d
	addl	%r11d, %ecx
	imull	%r9d, %r14d
	addl	%r14d, %edx
	addq	$1, %rsi
	movq	-112(%rbp), %rdi        # 8-byte Reload
	shlq	$5, %rdi
	addq	%rsi, %rdi
	movl	(%r8,%rdi,4), %r9d
	movslq	%r9d, %rdi
	movl	(%r10,%rdi,4), %r11d
	movslq	%r9d, %rdi
	movl	(%rbx,%rdi,4), %r14d
	movslq	%r9d, %rdi
	movl	(%r15,%rdi,4), %r9d
	movl	-116(%rbp), %r12d       # 4-byte Reload
	subl	%r11d, %r12d
	movl	-120(%rbp), %r11d       # 4-byte Reload
	subl	%r14d, %r11d
	movl	-124(%rbp), %r14d       # 4-byte Reload
	subl	%r9d, %r14d
	movl	%r12d, %r9d
	imull	%r9d, %r9d
	movl	%r11d, %r13d
	imull	%r13d, %r13d
	movl	%r14d, %edi
	imull	%edi, %edi
	addl	%r13d, %r9d
	addl	%edi, %r9d
	movl	%r9d, %edi
	imull	%edi, %edi
	imull	%r9d, %edi
	imull	%edi, %r9d
	imull	$15, %edi, %edi
	addl	$-20, %edi
	imull	%edi, %r9d
	imull	%r9d, %r12d
	addl	%r12d, %eax
	imull	%r9d, %r11d
	addl	%r11d, %ecx
	imull	%r9d, %r14d
	addl	%r14d, %edx
	addq	$1, %rsi
	movq	-112(%rbp), %rdi        # 8-byte Reload
	shlq	$5, %rdi
	addq	%rsi, %rdi
	movl	(%r8,%rdi,4), %r9d
	movslq	%r9d, %rdi
	movl	(%r10,%rdi,4), %r11d
	movslq	%r9d, %rdi
	movl	(%rbx,%rdi,4), %r14d
	movslq	%r9d, %rdi
	movl	(%r15,%rdi,4), %r9d
	movl	-116(%rbp), %r12d       # 4-byte Reload
	subl	%r11d, %r12d
	movl	-120(%rbp), %r11d       # 4-byte Reload
	subl	%r14d, %r11d
	movl	-124(%rbp), %r14d       # 4-byte Reload
	subl	%r9d, %r14d
	movl	%r12d, %r9d
	imull	%r9d, %r9d
	movl	%r11d, %r13d
	imull	%r13d, %r13d
	movl	%r14d, %edi
	imull	%edi, %edi
	addl	%r13d, %r9d
	addl	%edi, %r9d
	movl	%r9d, %edi
	imull	%edi, %edi
	imull	%r9d, %edi
	imull	%edi, %r9d
	imull	$15, %edi, %edi
	addl	$-20, %edi
	imull	%edi, %r9d
	imull	%r9d, %r12d
	addl	%r12d, %eax
	imull	%r9d, %r11d
	addl	%r11d, %ecx
	imull	%r9d, %r14d
	addl	%r14d, %edx
	addq	$1, %rsi
	movq	-112(%rbp), %rdi        # 8-byte Reload
	shlq	$5, %rdi
	addq	%rsi, %rdi
	movl	(%r8,%rdi,4), %r9d
	movslq	%r9d, %rdi
	movl	(%r10,%rdi,4), %r11d
	movslq	%r9d, %rdi
	movl	(%rbx,%rdi,4), %r14d
	movslq	%r9d, %rdi
	movl	(%r15,%rdi,4), %r9d
	movl	-116(%rbp), %r12d       # 4-byte Reload
	subl	%r11d, %r12d
	movl	-120(%rbp), %r11d       # 4-byte Reload
	subl	%r14d, %r11d
	movl	-124(%rbp), %r14d       # 4-byte Reload
	subl	%r9d, %r14d
	movl	%r12d, %r9d
	imull	%r9d, %r9d
	movl	%r11d, %r13d
	imull	%r13d, %r13d
	movl	%r14d, %edi
	imull	%edi, %edi
	addl	%r13d, %r9d
	addl	%edi, %r9d
	movl	%r9d, %edi
	imull	%edi, %edi
	imull	%r9d, %edi
	imull	%edi, %r9d
	imull	$15, %edi, %edi
	addl	$-20, %edi
	imull	%edi, %r9d
	imull	%r9d, %r12d
	addl	%r12d, %eax
	imull	%r9d, %r11d
	addl	%r11d, %ecx
	imull	%r9d, %r14d
	addl	%r14d, %edx
	addq	$1, %rsi
	movq	-112(%rbp), %rdi        # 8-byte Reload
	shlq	$5, %rdi
	addq	%rsi, %rdi
	movl	(%r8,%rdi,4), %r9d
	movslq	%r9d, %rdi
	movl	(%r10,%rdi,4), %r11d
	movslq	%r9d, %rdi
	movl	(%rbx,%rdi,4), %r14d
	movslq	%r9d, %rdi
	movl	(%r15,%rdi,4), %r9d
	movl	-116(%rbp), %r12d       # 4-byte Reload
	subl	%r11d, %r12d
	movl	-120(%rbp), %r11d       # 4-byte Reload
	subl	%r14d, %r11d
	movl	-124(%rbp), %r14d       # 4-byte Reload
	subl	%r9d, %r14d
	movl	%r12d, %r9d
	imull	%r9d, %r9d
	movl	%r11d, %r13d
	imull	%r13d, %r13d
	movl	%r14d, %edi
	imull	%edi, %edi
	addl	%r13d, %r9d
	addl	%edi, %r9d
	movl	%r9d, %edi
	imull	%edi, %edi
	imull	%r9d, %edi
	imull	%edi, %r9d
	imull	$15, %edi, %edi
	addl	$-20, %edi
	imull	%edi, %r9d
	imull	%r9d, %r12d
	addl	%r12d, %eax
	imull	%r9d, %r11d
	addl	%r11d, %ecx
	imull	%r9d, %r14d
	addl	%r14d, %edx
	addq	$1, %rsi
	movq	-112(%rbp), %rdi        # 8-byte Reload
	shlq	$5, %rdi
	addq	%rsi, %rdi
	movl	(%r8,%rdi,4), %r9d
	movslq	%r9d, %rdi
	movl	(%r10,%rdi,4), %r11d
	movslq	%r9d, %rdi
	movl	(%rbx,%rdi,4), %r14d
	movslq	%r9d, %rdi
	movl	(%r15,%rdi,4), %r9d
	movl	-116(%rbp), %r12d       # 4-byte Reload
	subl	%r11d, %r12d
	movl	-120(%rbp), %r11d       # 4-byte Reload
	subl	%r14d, %r11d
	movl	-124(%rbp), %r14d       # 4-byte Reload
	subl	%r9d, %r14d
	movl	%r12d, %r9d
	imull	%r9d, %r9d
	movl	%r11d, %r13d
	imull	%r13d, %r13d
	movl	%r14d, %edi
	imull	%edi, %edi
	addl	%r13d, %r9d
	addl	%edi, %r9d
	movl	%r9d, %edi
	imull	%edi, %edi
	imull	%r9d, %edi
	imull	%edi, %r9d
	imull	$15, %edi, %edi
	addl	$-20, %edi
	imull	%edi, %r9d
	imull	%r9d, %r12d
	addl	%r12d, %eax
	imull	%r9d, %r11d
	addl	%r11d, %ecx
	imull	%r9d, %r14d
	addl	%r14d, %edx
	addq	$1, %rsi
	movq	-112(%rbp), %rdi        # 8-byte Reload
	shlq	$5, %rdi
	addq	%rsi, %rdi
	movl	(%r8,%rdi,4), %r9d
	movslq	%r9d, %rdi
	movl	(%r10,%rdi,4), %r11d
	movslq	%r9d, %rdi
	movl	(%rbx,%rdi,4), %r14d
	movslq	%r9d, %rdi
	movl	(%r15,%rdi,4), %r9d
	movl	-116(%rbp), %r12d       # 4-byte Reload
	subl	%r11d, %r12d
	movl	-120(%rbp), %r11d       # 4-byte Reload
	subl	%r14d, %r11d
	movl	-124(%rbp), %r14d       # 4-byte Reload
	subl	%r9d, %r14d
	movl	%r12d, %r9d
	imull	%r9d, %r9d
	movl	%r11d, %r13d
	imull	%r13d, %r13d
	movl	%r14d, %edi
	imull	%edi, %edi
	addl	%r13d, %r9d
	addl	%edi, %r9d
	movl	%r9d, %edi
	imull	%edi, %edi
	imull	%r9d, %edi
	imull	%edi, %r9d
	imull	$15, %edi, %edi
	addl	$-20, %edi
	imull	%edi, %r9d
	imull	%r9d, %r12d
	addl	%r12d, %eax
	imull	%r9d, %r11d
	addl	%r11d, %ecx
	imull	%r9d, %r14d
	addl	%r14d, %edx
	addq	$1, %rsi
	movq	-112(%rbp), %rdi        # 8-byte Reload
	shlq	$5, %rdi
	addq	%rsi, %rdi
	movl	(%r8,%rdi,4), %r9d
	movslq	%r9d, %rdi
	movl	(%r10,%rdi,4), %r11d
	movslq	%r9d, %rdi
	movl	(%rbx,%rdi,4), %r14d
	movslq	%r9d, %rdi
	movl	(%r15,%rdi,4), %r9d
	movl	-116(%rbp), %r12d       # 4-byte Reload
	subl	%r11d, %r12d
	movl	-120(%rbp), %r11d       # 4-byte Reload
	subl	%r14d, %r11d
	movl	-124(%rbp), %r14d       # 4-byte Reload
	subl	%r9d, %r14d
	movl	%r12d, %r9d
	imull	%r9d, %r9d
	movl	%r11d, %r13d
	imull	%r13d, %r13d
	movl	%r14d, %edi
	imull	%edi, %edi
	addl	%r13d, %r9d
	addl	%edi, %r9d
	movl	%r9d, %edi
	imull	%edi, %edi
	imull	%r9d, %edi
	imull	%edi, %r9d
	imull	$15, %edi, %edi
	addl	$-20, %edi
	imull	%edi, %r9d
	imull	%r9d, %r12d
	addl	%r12d, %eax
	imull	%r9d, %r11d
	addl	%r11d, %ecx
	imull	%r9d, %r14d
	addl	%r14d, %edx
	addq	$1, %rsi
	movq	-112(%rbp), %rdi        # 8-byte Reload
	shlq	$5, %rdi
	addq	%rsi, %rdi
	movl	(%r8,%rdi,4), %r9d
	movslq	%r9d, %rdi
	movl	(%r10,%rdi,4), %r11d
	movslq	%r9d, %rdi
	movl	(%rbx,%rdi,4), %r14d
	movslq	%r9d, %rdi
	movl	(%r15,%rdi,4), %r9d
	movl	-116(%rbp), %r12d       # 4-byte Reload
	subl	%r11d, %r12d
	movl	-120(%rbp), %r11d       # 4-byte Reload
	subl	%r14d, %r11d
	movl	-124(%rbp), %r14d       # 4-byte Reload
	subl	%r9d, %r14d
	movl	%r12d, %r9d
	imull	%r9d, %r9d
	movl	%r11d, %r13d
	imull	%r13d, %r13d
	movl	%r14d, %edi
	imull	%edi, %edi
	addl	%r13d, %r9d
	addl	%edi, %r9d
	movl	%r9d, %edi
	imull	%edi, %edi
	imull	%r9d, %edi
	imull	%edi, %r9d
	imull	$15, %edi, %edi
	addl	$-20, %edi
	imull	%edi, %r9d
	imull	%r9d, %r12d
	addl	%r12d, %eax
	imull	%r9d, %r11d
	addl	%r11d, %ecx
	imull	%r9d, %r14d
	addl	%r14d, %edx
	addq	$1, %rsi
	movq	-112(%rbp), %rdi        # 8-byte Reload
	shlq	$5, %rdi
	addq	%rsi, %rdi
	movl	(%r8,%rdi,4), %r9d
	movslq	%r9d, %rdi
	movl	(%r10,%rdi,4), %r11d
	movslq	%r9d, %rdi
	movl	(%rbx,%rdi,4), %r14d
	movslq	%r9d, %rdi
	movl	(%r15,%rdi,4), %r9d
	movl	-116(%rbp), %r12d       # 4-byte Reload
	subl	%r11d, %r12d
	movl	-120(%rbp), %r11d       # 4-byte Reload
	subl	%r14d, %r11d
	movl	-124(%rbp), %r14d       # 4-byte Reload
	subl	%r9d, %r14d
	movl	%r12d, %r9d
	imull	%r9d, %r9d
	movl	%r11d, %r13d
	imull	%r13d, %r13d
	movl	%r14d, %edi
	imull	%edi, %edi
	addl	%r13d, %r9d
	addl	%edi, %r9d
	movl	%r9d, %edi
	imull	%edi, %edi
	imull	%r9d, %edi
	imull	%edi, %r9d
	imull	$15, %edi, %edi
	addl	$-20, %edi
	imull	%edi, %r9d
	imull	%r9d, %r12d
	addl	%r12d, %eax
	imull	%r9d, %r11d
	addl	%r11d, %ecx
	imull	%r9d, %r14d
	addl	%r14d, %edx
	addq	$1, %rsi
	movq	-112(%rbp), %rdi        # 8-byte Reload
	shlq	$5, %rdi
	addq	%rsi, %rdi
	movl	(%r8,%rdi,4), %r9d
	movslq	%r9d, %rdi
	movl	(%r10,%rdi,4), %r11d
	movslq	%r9d, %rdi
	movl	(%rbx,%rdi,4), %r14d
	movslq	%r9d, %rdi
	movl	(%r15,%rdi,4), %r9d
	movl	-116(%rbp), %r12d       # 4-byte Reload
	subl	%r11d, %r12d
	movl	-120(%rbp), %r11d       # 4-byte Reload
	subl	%r14d, %r11d
	movl	-124(%rbp), %r14d       # 4-byte Reload
	subl	%r9d, %r14d
	movl	%r12d, %r9d
	imull	%r9d, %r9d
	movl	%r11d, %r13d
	imull	%r13d, %r13d
	movl	%r14d, %edi
	imull	%edi, %edi
	addl	%r13d, %r9d
	addl	%edi, %r9d
	movl	%r9d, %edi
	imull	%edi, %edi
	imull	%r9d, %edi
	imull	%edi, %r9d
	imull	$15, %edi, %edi
	addl	$-20, %edi
	imull	%edi, %r9d
	imull	%r9d, %r12d
	addl	%r12d, %eax
	imull	%r9d, %r11d
	addl	%r11d, %ecx
	imull	%r9d, %r14d
	addl	%r14d, %edx
	addq	$1, %rsi
	movq	-112(%rbp), %rdi        # 8-byte Reload
	shlq	$5, %rdi
	addq	%rsi, %rdi
	movl	(%r8,%rdi,4), %r9d
	movslq	%r9d, %rdi
	movl	(%r10,%rdi,4), %r11d
	movslq	%r9d, %rdi
	movl	(%rbx,%rdi,4), %r14d
	movslq	%r9d, %rdi
	movl	(%r15,%rdi,4), %r9d
	movl	-116(%rbp), %r12d       # 4-byte Reload
	subl	%r11d, %r12d
	movl	-120(%rbp), %r11d       # 4-byte Reload
	subl	%r14d, %r11d
	movl	-124(%rbp), %r14d       # 4-byte Reload
	subl	%r9d, %r14d
	movl	%r12d, %r9d
	imull	%r9d, %r9d
	movl	%r11d, %r13d
	imull	%r13d, %r13d
	movl	%r14d, %edi
	imull	%edi, %edi
	addl	%r13d, %r9d
	addl	%edi, %r9d
	movl	%r9d, %edi
	imull	%edi, %edi
	imull	%r9d, %edi
	imull	%edi, %r9d
	imull	$15, %edi, %edi
	addl	$-20, %edi
	imull	%edi, %r9d
	imull	%r9d, %r12d
	addl	%r12d, %eax
	imull	%r9d, %r11d
	addl	%r11d, %ecx
	imull	%r9d, %r14d
	addl	%r14d, %edx
	addq	$1, %rsi
	movq	-112(%rbp), %rdi        # 8-byte Reload
	shlq	$5, %rdi
	addq	%rsi, %rdi
	movl	(%r8,%rdi,4), %r9d
	movslq	%r9d, %rdi
	movl	(%r10,%rdi,4), %r11d
	movslq	%r9d, %rdi
	movl	(%rbx,%rdi,4), %r14d
	movslq	%r9d, %rdi
	movl	(%r15,%rdi,4), %r9d
	movl	-116(%rbp), %r12d       # 4-byte Reload
	subl	%r11d, %r12d
	movl	-120(%rbp), %r11d       # 4-byte Reload
	subl	%r14d, %r11d
	movl	-124(%rbp), %r14d       # 4-byte Reload
	subl	%r9d, %r14d
	movl	%r12d, %r9d
	imull	%r9d, %r9d
	movl	%r11d, %r13d
	imull	%r13d, %r13d
	movl	%r14d, %edi
	imull	%edi, %edi
	addl	%r13d, %r9d
	addl	%edi, %r9d
	movl	%r9d, %edi
	imull	%edi, %edi
	imull	%r9d, %edi
	imull	%edi, %r9d
	imull	$15, %edi, %edi
	addl	$-20, %edi
	imull	%edi, %r9d
	imull	%r9d, %r12d
	addl	%r12d, %eax
	imull	%r9d, %r11d
	addl	%r11d, %ecx
	imull	%r9d, %r14d
	addl	%r14d, %edx
	addq	$1, %rsi
	movq	-112(%rbp), %rdi        # 8-byte Reload
	shlq	$5, %rdi
	addq	%rsi, %rdi
	movl	(%r8,%rdi,4), %r9d
	movslq	%r9d, %rdi
	movl	(%r10,%rdi,4), %r11d
	movslq	%r9d, %rdi
	movl	(%rbx,%rdi,4), %r14d
	movslq	%r9d, %rdi
	movl	(%r15,%rdi,4), %r9d
	movl	-116(%rbp), %r12d       # 4-byte Reload
	subl	%r11d, %r12d
	movl	-120(%rbp), %r11d       # 4-byte Reload
	subl	%r14d, %r11d
	movl	-124(%rbp), %r14d       # 4-byte Reload
	subl	%r9d, %r14d
	movl	%r12d, %r9d
	imull	%r9d, %r9d
	movl	%r11d, %r13d
	imull	%r13d, %r13d
	movl	%r14d, %edi
	imull	%edi, %edi
	addl	%r13d, %r9d
	addl	%edi, %r9d
	movl	%r9d, %edi
	imull	%edi, %edi
	imull	%r9d, %edi
	imull	%edi, %r9d
	imull	$15, %edi, %edi
	addl	$-20, %edi
	imull	%edi, %r9d
	imull	%r9d, %r12d
	addl	%r12d, %eax
	imull	%r9d, %r11d
	addl	%r11d, %ecx
	imull	%r9d, %r14d
	addl	%r14d, %edx
	addq	$1, %rsi
	movq	-112(%rbp), %rdi        # 8-byte Reload
	shlq	$5, %rdi
	addq	%rsi, %rdi
	movl	(%r8,%rdi,4), %r9d
	movslq	%r9d, %rdi
	movl	(%r10,%rdi,4), %r11d
	movslq	%r9d, %rdi
	movl	(%rbx,%rdi,4), %r14d
	movslq	%r9d, %rdi
	movl	(%r15,%rdi,4), %r9d
	movl	-116(%rbp), %r12d       # 4-byte Reload
	subl	%r11d, %r12d
	movl	-120(%rbp), %r11d       # 4-byte Reload
	subl	%r14d, %r11d
	movl	-124(%rbp), %r14d       # 4-byte Reload
	subl	%r9d, %r14d
	movl	%r12d, %r9d
	imull	%r9d, %r9d
	movl	%r11d, %r13d
	imull	%r13d, %r13d
	movl	%r14d, %edi
	imull	%edi, %edi
	addl	%r13d, %r9d
	addl	%edi, %r9d
	movl	%r9d, %edi
	imull	%edi, %edi
	imull	%r9d, %edi
	imull	%edi, %r9d
	imull	$15, %edi, %edi
	addl	$-20, %edi
	imull	%edi, %r9d
	imull	%r9d, %r12d
	addl	%r12d, %eax
	imull	%r9d, %r11d
	addl	%r11d, %ecx
	imull	%r9d, %r14d
	addl	%r14d, %edx
	addq	$1, %rsi
	movq	-112(%rbp), %rdi        # 8-byte Reload
	shlq	$5, %rdi
	addq	%rsi, %rdi
	movl	(%r8,%rdi,4), %r9d
	movslq	%r9d, %rdi
	movl	(%r10,%rdi,4), %r11d
	movslq	%r9d, %rdi
	movl	(%rbx,%rdi,4), %r14d
	movslq	%r9d, %rdi
	movl	(%r15,%rdi,4), %r9d
	movl	-116(%rbp), %r12d       # 4-byte Reload
	subl	%r11d, %r12d
	movl	-120(%rbp), %r11d       # 4-byte Reload
	subl	%r14d, %r11d
	movl	-124(%rbp), %r14d       # 4-byte Reload
	subl	%r9d, %r14d
	movl	%r12d, %r9d
	imull	%r9d, %r9d
	movl	%r11d, %r13d
	imull	%r13d, %r13d
	movl	%r14d, %edi
	imull	%edi, %edi
	addl	%r13d, %r9d
	addl	%edi, %r9d
	movl	%r9d, %edi
	imull	%edi, %edi
	imull	%r9d, %edi
	imull	%edi, %r9d
	imull	$15, %edi, %edi
	addl	$-20, %edi
	imull	%edi, %r9d
	imull	%r9d, %r12d
	addl	%r12d, %eax
	imull	%r9d, %r11d
	addl	%r11d, %ecx
	imull	%r9d, %r14d
	addl	%r14d, %edx
	addq	$1, %rsi
	movq	-112(%rbp), %rdi        # 8-byte Reload
	shlq	$5, %rdi
	addq	%rsi, %rdi
	movl	(%r8,%rdi,4), %r9d
	movslq	%r9d, %rdi
	movl	(%r10,%rdi,4), %r11d
	movslq	%r9d, %rdi
	movl	(%rbx,%rdi,4), %r14d
	movslq	%r9d, %rdi
	movl	(%r15,%rdi,4), %r9d
	movl	-116(%rbp), %r12d       # 4-byte Reload
	subl	%r11d, %r12d
	movl	-120(%rbp), %r11d       # 4-byte Reload
	subl	%r14d, %r11d
	movl	-124(%rbp), %r14d       # 4-byte Reload
	subl	%r9d, %r14d
	movl	%r12d, %r9d
	imull	%r9d, %r9d
	movl	%r11d, %r13d
	imull	%r13d, %r13d
	movl	%r14d, %edi
	imull	%edi, %edi
	addl	%r13d, %r9d
	addl	%edi, %r9d
	movl	%r9d, %edi
	imull	%edi, %edi
	imull	%r9d, %edi
	imull	%edi, %r9d
	imull	$15, %edi, %edi
	addl	$-20, %edi
	imull	%edi, %r9d
	imull	%r9d, %r12d
	addl	%r12d, %eax
	imull	%r9d, %r11d
	addl	%r11d, %ecx
	imull	%r9d, %r14d
	addl	%r14d, %edx
	addq	$1, %rsi
	movq	-112(%rbp), %rdi        # 8-byte Reload
	shlq	$5, %rdi
	addq	%rsi, %rdi
	movl	(%r8,%rdi,4), %r9d
	movslq	%r9d, %rdi
	movl	(%r10,%rdi,4), %r11d
	movslq	%r9d, %rdi
	movl	(%rbx,%rdi,4), %r14d
	movslq	%r9d, %rdi
	movl	(%r15,%rdi,4), %r9d
	movl	-116(%rbp), %r12d       # 4-byte Reload
	subl	%r11d, %r12d
	movl	-120(%rbp), %r11d       # 4-byte Reload
	subl	%r14d, %r11d
	movl	-124(%rbp), %r14d       # 4-byte Reload
	subl	%r9d, %r14d
	movl	%r12d, %r9d
	imull	%r9d, %r9d
	movl	%r11d, %r13d
	imull	%r13d, %r13d
	movl	%r14d, %edi
	imull	%edi, %edi
	addl	%r13d, %r9d
	addl	%edi, %r9d
	movl	%r9d, %edi
	imull	%edi, %edi
	imull	%r9d, %edi
	imull	%edi, %r9d
	imull	$15, %edi, %edi
	addl	$-20, %edi
	imull	%edi, %r9d
	imull	%r9d, %r12d
	addl	%r12d, %eax
	imull	%r9d, %r11d
	addl	%r11d, %ecx
	imull	%r9d, %r14d
	addl	%r14d, %edx
	addq	$1, %rsi
	movq	-112(%rbp), %rdi        # 8-byte Reload
	shlq	$5, %rdi
	addq	%rsi, %rdi
	movl	(%r8,%rdi,4), %r9d
	movslq	%r9d, %rdi
	movl	(%r10,%rdi,4), %r11d
	movslq	%r9d, %rdi
	movl	(%rbx,%rdi,4), %r14d
	movslq	%r9d, %rdi
	movl	(%r15,%rdi,4), %r9d
	movl	-116(%rbp), %r12d       # 4-byte Reload
	subl	%r11d, %r12d
	movl	-120(%rbp), %r11d       # 4-byte Reload
	subl	%r14d, %r11d
	movl	-124(%rbp), %r14d       # 4-byte Reload
	subl	%r9d, %r14d
	movl	%r12d, %r9d
	imull	%r9d, %r9d
	movl	%r11d, %r13d
	imull	%r13d, %r13d
	movl	%r14d, %edi
	imull	%edi, %edi
	addl	%r13d, %r9d
	addl	%edi, %r9d
	movl	%r9d, %edi
	imull	%edi, %edi
	imull	%r9d, %edi
	imull	%edi, %r9d
	imull	$15, %edi, %edi
	addl	$-20, %edi
	imull	%edi, %r9d
	imull	%r9d, %r12d
	addl	%r12d, %eax
	imull	%r9d, %r11d
	addl	%r11d, %ecx
	imull	%r9d, %r14d
	addl	%r14d, %edx
	addq	$1, %rsi
	movq	-112(%rbp), %rdi        # 8-byte Reload
	shlq	$5, %rdi
	addq	%rsi, %rdi
	movl	(%r8,%rdi,4), %r9d
	movslq	%r9d, %rdi
	movl	(%r10,%rdi,4), %r11d
	movslq	%r9d, %rdi
	movl	(%rbx,%rdi,4), %r14d
	movslq	%r9d, %rdi
	movl	(%r15,%rdi,4), %r9d
	movl	-116(%rbp), %r12d       # 4-byte Reload
	subl	%r11d, %r12d
	movl	-120(%rbp), %r11d       # 4-byte Reload
	subl	%r14d, %r11d
	movl	-124(%rbp), %r14d       # 4-byte Reload
	subl	%r9d, %r14d
	movl	%r12d, %r9d
	imull	%r9d, %r9d
	movl	%r11d, %r13d
	imull	%r13d, %r13d
	movl	%r14d, %edi
	imull	%edi, %edi
	addl	%r13d, %r9d
	addl	%edi, %r9d
	movl	%r9d, %edi
	imull	%edi, %edi
	imull	%r9d, %edi
	imull	%edi, %r9d
	imull	$15, %edi, %edi
	addl	$-20, %edi
	imull	%edi, %r9d
	imull	%r9d, %r12d
	addl	%r12d, %eax
	imull	%r9d, %r11d
	addl	%r11d, %ecx
	imull	%r9d, %r14d
	addl	%r14d, %edx
	addq	$1, %rsi
	movq	-112(%rbp), %rdi        # 8-byte Reload
	shlq	$5, %rdi
	addq	%rsi, %rdi
	movl	(%r8,%rdi,4), %r9d
	movslq	%r9d, %rdi
	movl	(%r10,%rdi,4), %r11d
	movslq	%r9d, %rdi
	movl	(%rbx,%rdi,4), %r14d
	movslq	%r9d, %rdi
	movl	(%r15,%rdi,4), %r9d
	movl	-116(%rbp), %r12d       # 4-byte Reload
	subl	%r11d, %r12d
	movl	-120(%rbp), %r11d       # 4-byte Reload
	subl	%r14d, %r11d
	movl	-124(%rbp), %r14d       # 4-byte Reload
	subl	%r9d, %r14d
	movl	%r12d, %r9d
	imull	%r9d, %r9d
	movl	%r11d, %r13d
	imull	%r13d, %r13d
	movl	%r14d, %edi
	imull	%edi, %edi
	addl	%r13d, %r9d
	addl	%edi, %r9d
	movl	%r9d, %edi
	imull	%edi, %edi
	imull	%r9d, %edi
	imull	%edi, %r9d
	imull	$15, %edi, %edi
	addl	$-20, %edi
	imull	%edi, %r9d
	imull	%r9d, %r12d
	addl	%r12d, %eax
	imull	%r9d, %r11d
	addl	%r11d, %ecx
	imull	%r9d, %r14d
	addl	%r14d, %edx
	addq	$1, %rsi
	movq	-112(%rbp), %rdi        # 8-byte Reload
	shlq	$5, %rdi
	addq	%rsi, %rdi
	movl	(%r8,%rdi,4), %r9d
	movslq	%r9d, %rdi
	movl	(%r10,%rdi,4), %r11d
	movslq	%r9d, %rdi
	movl	(%rbx,%rdi,4), %r14d
	movslq	%r9d, %rdi
	movl	(%r15,%rdi,4), %r9d
	movl	-116(%rbp), %r12d       # 4-byte Reload
	subl	%r11d, %r12d
	movl	-120(%rbp), %r11d       # 4-byte Reload
	subl	%r14d, %r11d
	movl	-124(%rbp), %r14d       # 4-byte Reload
	subl	%r9d, %r14d
	movl	%r12d, %r9d
	imull	%r9d, %r9d
	movl	%r11d, %r13d
	imull	%r13d, %r13d
	movl	%r14d, %edi
	imull	%edi, %edi
	addl	%r13d, %r9d
	addl	%edi, %r9d
	movl	%r9d, %edi
	imull	%edi, %edi
	imull	%r9d, %edi
	imull	%edi, %r9d
	imull	$15, %edi, %edi
	addl	$-20, %edi
	imull	%edi, %r9d
	imull	%r9d, %r12d
	addl	%r12d, %eax
	imull	%r9d, %r11d
	addl	%r11d, %ecx
	imull	%r9d, %r14d
	addl	%r14d, %edx
	addq	$1, %rsi
	movq	-112(%rbp), %rdi        # 8-byte Reload
	shlq	$5, %rdi
	addq	%rsi, %rdi
	movl	(%r8,%rdi,4), %r9d
	movslq	%r9d, %rdi
	movl	(%r10,%rdi,4), %r11d
	movslq	%r9d, %rdi
	movl	(%rbx,%rdi,4), %r14d
	movslq	%r9d, %rdi
	movl	(%r15,%rdi,4), %r9d
	movl	-116(%rbp), %r12d       # 4-byte Reload
	subl	%r11d, %r12d
	movl	-120(%rbp), %r11d       # 4-byte Reload
	subl	%r14d, %r11d
	movl	-124(%rbp), %r14d       # 4-byte Reload
	subl	%r9d, %r14d
	movl	%r12d, %r9d
	imull	%r9d, %r9d
	movl	%r11d, %r13d
	imull	%r13d, %r13d
	movl	%r14d, %edi
	imull	%edi, %edi
	addl	%r13d, %r9d
	addl	%edi, %r9d
	movl	%r9d, %edi
	imull	%edi, %edi
	imull	%r9d, %edi
	imull	%edi, %r9d
	imull	$15, %edi, %edi
	addl	$-20, %edi
	imull	%edi, %r9d
	imull	%r9d, %r12d
	addl	%r12d, %eax
	imull	%r9d, %r11d
	addl	%r11d, %ecx
	imull	%r9d, %r14d
	addl	%r14d, %edx
	addq	$1, %rsi
	movq	-112(%rbp), %rdi        # 8-byte Reload
	shlq	$5, %rdi
	addq	%rsi, %rdi
	movl	(%r8,%rdi,4), %r9d
	movslq	%r9d, %rdi
	movl	(%r10,%rdi,4), %r11d
	movslq	%r9d, %rdi
	movl	(%rbx,%rdi,4), %r14d
	movslq	%r9d, %rdi
	movl	(%r15,%rdi,4), %r9d
	movl	-116(%rbp), %r12d       # 4-byte Reload
	subl	%r11d, %r12d
	movl	-120(%rbp), %r11d       # 4-byte Reload
	subl	%r14d, %r11d
	movl	-124(%rbp), %r14d       # 4-byte Reload
	subl	%r9d, %r14d
	movl	%r12d, %r9d
	imull	%r9d, %r9d
	movl	%r11d, %r13d
	imull	%r13d, %r13d
	movl	%r14d, %edi
	imull	%edi, %edi
	addl	%r13d, %r9d
	addl	%edi, %r9d
	movl	%r9d, %edi
	imull	%edi, %edi
	imull	%r9d, %edi
	imull	%edi, %r9d
	imull	$15, %edi, %edi
	addl	$-20, %edi
	imull	%edi, %r9d
	imull	%r9d, %r12d
	addl	%r12d, %eax
	imull	%r9d, %r11d
	addl	%r11d, %ecx
	imull	%r9d, %r14d
	addl	%r14d, %edx
	addq	$1, %rsi
	movq	-112(%rbp), %rdi        # 8-byte Reload
	shlq	$5, %rdi
	addq	%rsi, %rdi
	movl	(%r8,%rdi,4), %r9d
	movslq	%r9d, %rdi
	movl	(%r10,%rdi,4), %r11d
	movslq	%r9d, %rdi
	movl	(%rbx,%rdi,4), %r14d
	movslq	%r9d, %rdi
	movl	(%r15,%rdi,4), %r9d
	movl	-116(%rbp), %r12d       # 4-byte Reload
	subl	%r11d, %r12d
	movl	-120(%rbp), %r11d       # 4-byte Reload
	subl	%r14d, %r11d
	movl	-124(%rbp), %r14d       # 4-byte Reload
	subl	%r9d, %r14d
	movl	%r12d, %r9d
	imull	%r9d, %r9d
	movl	%r11d, %r13d
	imull	%r13d, %r13d
	movl	%r14d, %edi
	imull	%edi, %edi
	addl	%r13d, %r9d
	addl	%edi, %r9d
	movl	%r9d, %edi
	imull	%edi, %edi
	imull	%r9d, %edi
	imull	%edi, %r9d
	imull	$15, %edi, %edi
	addl	$-20, %edi
	imull	%edi, %r9d
	imull	%r9d, %r12d
	addl	%r12d, %eax
	imull	%r9d, %r11d
	addl	%r11d, %ecx
	imull	%r9d, %r14d
	addl	%r14d, %edx
	addq	$1, %rsi
	movq	-112(%rbp), %rdi        # 8-byte Reload
	shlq	$5, %rdi
	addq	%rsi, %rdi
	movl	(%r8,%rdi,4), %r9d
	movslq	%r9d, %rdi
	movl	(%r10,%rdi,4), %r11d
	movslq	%r9d, %rdi
	movl	(%rbx,%rdi,4), %r14d
	movslq	%r9d, %rdi
	movl	(%r15,%rdi,4), %r9d
	movl	-116(%rbp), %r12d       # 4-byte Reload
	subl	%r11d, %r12d
	movl	-120(%rbp), %r11d       # 4-byte Reload
	subl	%r14d, %r11d
	movl	-124(%rbp), %r14d       # 4-byte Reload
	subl	%r9d, %r14d
	movl	%r12d, %r9d
	imull	%r9d, %r9d
	movl	%r11d, %r13d
	imull	%r13d, %r13d
	movl	%r14d, %edi
	imull	%edi, %edi
	addl	%r13d, %r9d
	addl	%edi, %r9d
	movl	%r9d, %edi
	imull	%edi, %edi
	imull	%r9d, %edi
	imull	%edi, %r9d
	imull	$15, %edi, %edi
	addl	$-20, %edi
	imull	%edi, %r9d
	imull	%r9d, %r12d
	addl	%r12d, %eax
	imull	%r9d, %r11d
	addl	%r11d, %ecx
	imull	%r9d, %r14d
	addl	%r14d, %edx
	addq	$1, %rsi
	movq	-112(%rbp), %rdi        # 8-byte Reload
	shlq	$5, %rdi
	addq	%rsi, %rdi
	movl	(%r8,%rdi,4), %r9d
	movslq	%r9d, %rdi
	movl	(%r10,%rdi,4), %r11d
	movslq	%r9d, %rdi
	movl	(%rbx,%rdi,4), %r14d
	movslq	%r9d, %rdi
	movl	(%r15,%rdi,4), %r9d
	movl	-116(%rbp), %r12d       # 4-byte Reload
	subl	%r11d, %r12d
	movl	-120(%rbp), %r11d       # 4-byte Reload
	subl	%r14d, %r11d
	movl	-124(%rbp), %r14d       # 4-byte Reload
	subl	%r9d, %r14d
	movl	%r12d, %r9d
	imull	%r9d, %r9d
	movl	%r11d, %r13d
	imull	%r13d, %r13d
	movl	%r14d, %edi
	imull	%edi, %edi
	addl	%r13d, %r9d
	addl	%edi, %r9d
	movl	%r9d, %edi
	imull	%edi, %edi
	imull	%r9d, %edi
	imull	%edi, %r9d
	imull	$15, %edi, %edi
	addl	$-20, %edi
	imull	%edi, %r9d
	imull	%r9d, %r12d
	addl	%r12d, %eax
	imull	%r9d, %r11d
	addl	%r11d, %ecx
	imull	%r9d, %r14d
	addl	%r14d, %edx
	addq	$1, %rsi
	movq	-112(%rbp), %rdi        # 8-byte Reload
	shlq	$5, %rdi
	addq	%rsi, %rdi
	movl	(%r8,%rdi,4), %r9d
	movslq	%r9d, %rdi
	movl	(%r10,%rdi,4), %r11d
	movslq	%r9d, %rdi
	movl	(%rbx,%rdi,4), %r14d
	movslq	%r9d, %rdi
	movl	(%r15,%rdi,4), %r9d
	movl	-116(%rbp), %r12d       # 4-byte Reload
	subl	%r11d, %r12d
	movl	-120(%rbp), %r11d       # 4-byte Reload
	subl	%r14d, %r11d
	movl	-124(%rbp), %r14d       # 4-byte Reload
	subl	%r9d, %r14d
	movl	%r12d, %r9d
	imull	%r9d, %r9d
	movl	%r11d, %r13d
	imull	%r13d, %r13d
	movl	%r14d, %edi
	imull	%edi, %edi
	addl	%r13d, %r9d
	addl	%edi, %r9d
	movl	%r9d, %edi
	imull	%edi, %edi
	imull	%r9d, %edi
	imull	%edi, %r9d
	imull	$15, %edi, %edi
	addl	$-20, %edi
	imull	%edi, %r9d
	imull	%r9d, %r12d
	addl	%r12d, %eax
	imull	%r9d, %r11d
	addl	%r11d, %ecx
	imull	%r9d, %r14d
	addl	%r14d, %edx
	addq	$1, %rsi
	movq	-112(%rbp), %rdi        # 8-byte Reload
	shlq	$5, %rdi
	addq	%rsi, %rdi
	movl	(%r8,%rdi,4), %r9d
	movslq	%r9d, %rdi
	movl	(%r10,%rdi,4), %r11d
	movslq	%r9d, %rdi
	movl	(%rbx,%rdi,4), %r14d
	movslq	%r9d, %rdi
	movl	(%r15,%rdi,4), %r9d
	movl	-116(%rbp), %r12d       # 4-byte Reload
	subl	%r11d, %r12d
	movl	-120(%rbp), %r11d       # 4-byte Reload
	subl	%r14d, %r11d
	movl	-124(%rbp), %r14d       # 4-byte Reload
	subl	%r9d, %r14d
	movl	%r12d, %r9d
	imull	%r9d, %r9d
	movl	%r11d, %r13d
	imull	%r13d, %r13d
	movl	%r14d, %edi
	imull	%edi, %edi
	addl	%r13d, %r9d
	addl	%edi, %r9d
	movl	%r9d, %edi
	imull	%edi, %edi
	imull	%r9d, %edi
	imull	%edi, %r9d
	imull	$15, %edi, %edi
	addl	$-20, %edi
	imull	%edi, %r9d
	imull	%r9d, %r12d
	addl	%r12d, %eax
	imull	%r9d, %r11d
	addl	%r11d, %ecx
	imull	%r9d, %r14d
	addl	%r14d, %edx
	addq	$1, %rsi
	movq	-112(%rbp), %rdi        # 8-byte Reload
	shlq	$5, %rdi
	addq	%rsi, %rdi
	movl	(%r8,%rdi,4), %r9d
	movslq	%r9d, %rdi
	movl	(%r10,%rdi,4), %r11d
	movslq	%r9d, %rdi
	movl	(%rbx,%rdi,4), %r14d
	movslq	%r9d, %rdi
	movl	(%r15,%rdi,4), %r9d
	movl	-116(%rbp), %r12d       # 4-byte Reload
	subl	%r11d, %r12d
	movl	-120(%rbp), %r11d       # 4-byte Reload
	subl	%r14d, %r11d
	movl	-124(%rbp), %r14d       # 4-byte Reload
	subl	%r9d, %r14d
	movl	%r12d, %r9d
	imull	%r9d, %r9d
	movl	%r11d, %r13d
	imull	%r13d, %r13d
	movl	%r14d, %edi
	imull	%edi, %edi
	addl	%r13d, %r9d
	addl	%edi, %r9d
	movl	%r9d, %edi
	imull	%edi, %edi
	imull	%r9d, %edi
	imull	%edi, %r9d
	imull	$15, %edi, %edi
	addl	$-20, %edi
	imull	%edi, %r9d
	imull	%r9d, %r12d
	addl	%r12d, %eax
	imull	%r9d, %r11d
	addl	%r11d, %ecx
	imull	%r9d, %r14d
	addl	%r14d, %edx
	addq	$1, %rsi
	movq	-112(%rbp), %rdi        # 8-byte Reload
	shlq	$5, %rdi
	addq	%rsi, %rdi
	movl	(%r8,%rdi,4), %r9d
	movslq	%r9d, %rdi
	movl	(%r10,%rdi,4), %r11d
	movslq	%r9d, %rdi
	movl	(%rbx,%rdi,4), %r14d
	movslq	%r9d, %rdi
	movl	(%r15,%rdi,4), %r9d
	movl	-116(%rbp), %r12d       # 4-byte Reload
	subl	%r11d, %r12d
	movl	-120(%rbp), %r11d       # 4-byte Reload
	subl	%r14d, %r11d
	movl	-124(%rbp), %r14d       # 4-byte Reload
	subl	%r9d, %r14d
	movl	%r12d, %r9d
	imull	%r9d, %r9d
	movl	%r11d, %r13d
	imull	%r13d, %r13d
	movl	%r14d, %edi
	imull	%edi, %edi
	addl	%r13d, %r9d
	addl	%edi, %r9d
	movl	%r9d, %edi
	imull	%edi, %edi
	imull	%r9d, %edi
	imull	%edi, %r9d
	imull	$15, %edi, %edi
	addl	$-20, %edi
	imull	%edi, %r9d
	imull	%r9d, %r12d
	addl	%r12d, %eax
	imull	%r9d, %r11d
	addl	%r11d, %ecx
	imull	%r9d, %r14d
	addl	%r14d, %edx
	addq	$1, %rsi
	movq	-112(%rbp), %rdi        # 8-byte Reload
	shlq	$5, %rdi
	addq	%rsi, %rdi
	movl	(%r8,%rdi,4), %r9d
	movslq	%r9d, %rdi
	movl	(%r10,%rdi,4), %r11d
	movslq	%r9d, %rdi
	movl	(%rbx,%rdi,4), %r14d
	movslq	%r9d, %rdi
	movl	(%r15,%rdi,4), %r9d
	movl	-116(%rbp), %r12d       # 4-byte Reload
	subl	%r11d, %r12d
	movl	-120(%rbp), %r11d       # 4-byte Reload
	subl	%r14d, %r11d
	movl	-124(%rbp), %r14d       # 4-byte Reload
	subl	%r9d, %r14d
	movl	%r12d, %r9d
	imull	%r9d, %r9d
	movl	%r11d, %r13d
	imull	%r13d, %r13d
	movl	%r14d, %edi
	imull	%edi, %edi
	addl	%r13d, %r9d
	addl	%edi, %r9d
	movl	%r9d, %edi
	imull	%edi, %edi
	imull	%r9d, %edi
	imull	%edi, %r9d
	imull	$15, %edi, %edi
	addl	$-20, %edi
	imull	%edi, %r9d
	imull	%r9d, %r12d
	addl	%r12d, %eax
	imull	%r9d, %r11d
	addl	%r11d, %ecx
	imull	%r9d, %r14d
	addl	%r14d, %edx
	addq	$1, %rsi
	cmpq	$1024, %rsi             # imm = 0x400
	movl	%edx, %edi
	movl	%ecx, %r9d
	movl	%eax, %r11d
	movl	%r11d, -148(%rbp)       # 4-byte Spill
	movl	%r9d, -144(%rbp)        # 4-byte Spill
	movl	%edi, -140(%rbp)        # 4-byte Spill
	movq	%rsi, -136(%rbp)        # 8-byte Spill
	movl	%eax, -152(%rbp)        # 4-byte Spill
	movl	%ecx, -156(%rbp)        # 4-byte Spill
	movl	%edx, -160(%rbp)        # 4-byte Spill
	jne	.LBB0_2
# %bb.3:                                # %for.end
                                        #   in Loop: Header=BB0_1 Depth=1
	movl	-160(%rbp), %eax        # 4-byte Reload
	movl	-156(%rbp), %ecx        # 4-byte Reload
	movl	-152(%rbp), %edx        # 4-byte Reload
	movq	-88(%rbp), %rsi         # 8-byte Reload
	movq	-112(%rbp), %rdi        # 8-byte Reload
	movl	%edx, (%rsi,%rdi,4)
	movq	-80(%rbp), %r8          # 8-byte Reload
	movl	%ecx, (%r8,%rdi,4)
	movq	-72(%rbp), %r9          # 8-byte Reload
	movl	%eax, (%r9,%rdi,4)
	addq	$1, %rdi
	cmpq	$1024, %rdi             # imm = 0x400
	movq	%rdi, -104(%rbp)        # 8-byte Spill
	jne	.LBB0_1
# %bb.4:                                # %for.end43
	popq	%rbx
	popq	%r12
	popq	%r13
	popq	%r14
	popq	%r15
	popq	%rbp
	.cfi_def_cfa %rsp, 8
	retq
.Lfunc_end0:
	.size	md, .Lfunc_end0-md
	.cfi_endproc
                                        # -- End function
	.globl	distance                # -- Begin function distance
	.p2align	4, 0x90
	.type	distance,@function
distance:                               # @distance
	.cfi_startproc
# %bb.0:                                # %entry
	pushq	%rbp
	.cfi_def_cfa_offset 16
	.cfi_offset %rbp, -16
	movq	%rsp, %rbp
	.cfi_def_cfa_register %rbp
	movslq	%ecx, %rax
	movl	(%rdi,%rax,4), %r9d
	movslq	%r8d, %rax
	subl	(%rdi,%rax,4), %r9d
	movslq	%ecx, %rax
	movl	(%rsi,%rax,4), %r10d
	movslq	%r8d, %rax
	subl	(%rsi,%rax,4), %r10d
	movslq	%ecx, %rax
	movl	(%rdx,%rax,4), %ecx
	movslq	%r8d, %rax
	subl	(%rdx,%rax,4), %ecx
	imull	%r9d, %r9d
	imull	%r10d, %r10d
	addl	%r10d, %r9d
	imull	%ecx, %ecx
	addl	%ecx, %r9d
	movl	%r9d, %eax
	popq	%rbp
	.cfi_def_cfa %rsp, 8
	retq
.Lfunc_end1:
	.size	distance, .Lfunc_end1-distance
	.cfi_endproc
                                        # -- End function
	.globl	buildNeighborList       # -- Begin function buildNeighborList
	.p2align	4, 0x90
	.type	buildNeighborList,@function
buildNeighborList:                      # @buildNeighborList
	.cfi_startproc
# %bb.0:                                # %entry
	pushq	%rbp
	.cfi_def_cfa_offset 16
	.cfi_offset %rbp, -16
	movq	%rsp, %rbp
	.cfi_def_cfa_register %rbp
	subq	$9328, %rsp             # imm = 0x2470
	xorl	%eax, %eax
	movl	%eax, %r8d
	xorl	%eax, %eax
	leaq	-4096(%rbp), %r9
	leaq	-8192(%rbp), %r10
	movq	%rdi, -8200(%rbp)       # 8-byte Spill
	movq	%rsi, -8208(%rbp)       # 8-byte Spill
	movq	%rdx, -8216(%rbp)       # 8-byte Spill
	movq	%rcx, -8224(%rbp)       # 8-byte Spill
	movq	%r9, -8232(%rbp)        # 8-byte Spill
	movq	%r10, -8240(%rbp)       # 8-byte Spill
	movq	%r8, -8248(%rbp)        # 8-byte Spill
	movl	%eax, -8252(%rbp)       # 4-byte Spill
.LBB2_1:                                # %for.body
                                        # =>This Loop Header: Depth=1
                                        #     Child Loop BB2_2 Depth 2
                                        #     Child Loop BB2_4 Depth 2
	movl	-8252(%rbp), %eax       # 4-byte Reload
	movq	-8248(%rbp), %rcx       # 8-byte Reload
	xorl	%edx, %edx
	movl	%edx, %esi
	movl	%eax, -8256(%rbp)       # 4-byte Spill
	movq	%rcx, -8264(%rbp)       # 8-byte Spill
	movq	%rsi, -8272(%rbp)       # 8-byte Spill
.LBB2_2:                                # %for.body3
                                        #   Parent Loop BB2_1 Depth=1
                                        # =>  This Inner Loop Header: Depth=2
	movq	-8272(%rbp), %rax       # 8-byte Reload
	movl	$0, -4096(%rbp,%rax,4)
	movl	$999999999, -8192(%rbp,%rax,4) # imm = 0x3B9AC9FF
	movq	%rax, %rcx
	addq	$1, %rcx
	movl	$0, -4092(%rbp,%rax,4)
	movl	$999999999, -8188(%rbp,%rax,4) # imm = 0x3B9AC9FF
	addq	$1, %rcx
	movl	$0, -4088(%rbp,%rax,4)
	movl	$999999999, -8184(%rbp,%rax,4) # imm = 0x3B9AC9FF
	addq	$1, %rcx
	movl	$0, -4084(%rbp,%rax,4)
	movl	$999999999, -8180(%rbp,%rax,4) # imm = 0x3B9AC9FF
	addq	$1, %rcx
	movl	$0, -4080(%rbp,%rax,4)
	movl	$999999999, -8176(%rbp,%rax,4) # imm = 0x3B9AC9FF
	addq	$1, %rcx
	movl	$0, -4076(%rbp,%rax,4)
	movl	$999999999, -8172(%rbp,%rax,4) # imm = 0x3B9AC9FF
	addq	$1, %rcx
	movl	$0, -4072(%rbp,%rax,4)
	movl	$999999999, -8168(%rbp,%rax,4) # imm = 0x3B9AC9FF
	addq	$1, %rcx
	movl	$0, -4068(%rbp,%rax,4)
	movl	$999999999, -8164(%rbp,%rax,4) # imm = 0x3B9AC9FF
	addq	$1, %rcx
	movl	$0, -4064(%rbp,%rax,4)
	movl	$999999999, -8160(%rbp,%rax,4) # imm = 0x3B9AC9FF
	addq	$1, %rcx
	movl	$0, -4060(%rbp,%rax,4)
	movl	$999999999, -8156(%rbp,%rax,4) # imm = 0x3B9AC9FF
	addq	$1, %rcx
	movl	$0, -4056(%rbp,%rax,4)
	movl	$999999999, -8152(%rbp,%rax,4) # imm = 0x3B9AC9FF
	addq	$1, %rcx
	movl	$0, -4052(%rbp,%rax,4)
	movl	$999999999, -8148(%rbp,%rax,4) # imm = 0x3B9AC9FF
	addq	$1, %rcx
	movl	$0, -4048(%rbp,%rax,4)
	movl	$999999999, -8144(%rbp,%rax,4) # imm = 0x3B9AC9FF
	addq	$1, %rcx
	movl	$0, -4044(%rbp,%rax,4)
	movl	$999999999, -8140(%rbp,%rax,4) # imm = 0x3B9AC9FF
	addq	$1, %rcx
	movl	$0, -4040(%rbp,%rax,4)
	movl	$999999999, -8136(%rbp,%rax,4) # imm = 0x3B9AC9FF
	addq	$1, %rcx
	movl	$0, -4036(%rbp,%rax,4)
	movl	$999999999, -8132(%rbp,%rax,4) # imm = 0x3B9AC9FF
	addq	$1, %rcx
	movl	$0, -4032(%rbp,%rax,4)
	movl	$999999999, -8128(%rbp,%rax,4) # imm = 0x3B9AC9FF
	addq	$1, %rcx
	movl	$0, -4028(%rbp,%rax,4)
	movl	$999999999, -8124(%rbp,%rax,4) # imm = 0x3B9AC9FF
	addq	$1, %rcx
	movl	$0, -4024(%rbp,%rax,4)
	movl	$999999999, -8120(%rbp,%rax,4) # imm = 0x3B9AC9FF
	addq	$1, %rcx
	movl	$0, -4020(%rbp,%rax,4)
	movl	$999999999, -8116(%rbp,%rax,4) # imm = 0x3B9AC9FF
	addq	$1, %rcx
	movl	$0, -4016(%rbp,%rax,4)
	movl	$999999999, -8112(%rbp,%rax,4) # imm = 0x3B9AC9FF
	addq	$1, %rcx
	movl	$0, -4012(%rbp,%rax,4)
	movl	$999999999, -8108(%rbp,%rax,4) # imm = 0x3B9AC9FF
	addq	$1, %rcx
	movl	$0, -4008(%rbp,%rax,4)
	movl	$999999999, -8104(%rbp,%rax,4) # imm = 0x3B9AC9FF
	addq	$1, %rcx
	movl	$0, -4004(%rbp,%rax,4)
	movl	$999999999, -8100(%rbp,%rax,4) # imm = 0x3B9AC9FF
	addq	$1, %rcx
	movl	$0, -4000(%rbp,%rax,4)
	movl	$999999999, -8096(%rbp,%rax,4) # imm = 0x3B9AC9FF
	addq	$1, %rcx
	movl	$0, -3996(%rbp,%rax,4)
	movl	$999999999, -8092(%rbp,%rax,4) # imm = 0x3B9AC9FF
	addq	$1, %rcx
	movl	$0, -3992(%rbp,%rax,4)
	movl	$999999999, -8088(%rbp,%rax,4) # imm = 0x3B9AC9FF
	addq	$1, %rcx
	movl	$0, -3988(%rbp,%rax,4)
	movl	$999999999, -8084(%rbp,%rax,4) # imm = 0x3B9AC9FF
	addq	$1, %rcx
	movl	$0, -3984(%rbp,%rax,4)
	movl	$999999999, -8080(%rbp,%rax,4) # imm = 0x3B9AC9FF
	addq	$1, %rcx
	movl	$0, -3980(%rbp,%rax,4)
	movl	$999999999, -8076(%rbp,%rax,4) # imm = 0x3B9AC9FF
	addq	$1, %rcx
	movl	$0, -3976(%rbp,%rax,4)
	movl	$999999999, -8072(%rbp,%rax,4) # imm = 0x3B9AC9FF
	addq	$1, %rcx
	movl	$0, -3972(%rbp,%rax,4)
	movl	$999999999, -8068(%rbp,%rax,4) # imm = 0x3B9AC9FF
	addq	$1, %rcx
	movl	$0, -3968(%rbp,%rax,4)
	movl	$999999999, -8064(%rbp,%rax,4) # imm = 0x3B9AC9FF
	addq	$1, %rcx
	movl	$0, -3964(%rbp,%rax,4)
	movl	$999999999, -8060(%rbp,%rax,4) # imm = 0x3B9AC9FF
	addq	$1, %rcx
	movl	$0, -3960(%rbp,%rax,4)
	movl	$999999999, -8056(%rbp,%rax,4) # imm = 0x3B9AC9FF
	addq	$1, %rcx
	movl	$0, -3956(%rbp,%rax,4)
	movl	$999999999, -8052(%rbp,%rax,4) # imm = 0x3B9AC9FF
	addq	$1, %rcx
	movl	$0, -3952(%rbp,%rax,4)
	movl	$999999999, -8048(%rbp,%rax,4) # imm = 0x3B9AC9FF
	addq	$1, %rcx
	movl	$0, -3948(%rbp,%rax,4)
	movl	$999999999, -8044(%rbp,%rax,4) # imm = 0x3B9AC9FF
	addq	$1, %rcx
	movl	$0, -3944(%rbp,%rax,4)
	movl	$999999999, -8040(%rbp,%rax,4) # imm = 0x3B9AC9FF
	addq	$1, %rcx
	movl	$0, -3940(%rbp,%rax,4)
	movl	$999999999, -8036(%rbp,%rax,4) # imm = 0x3B9AC9FF
	addq	$1, %rcx
	movl	$0, -3936(%rbp,%rax,4)
	movl	$999999999, -8032(%rbp,%rax,4) # imm = 0x3B9AC9FF
	addq	$1, %rcx
	movl	$0, -3932(%rbp,%rax,4)
	movl	$999999999, -8028(%rbp,%rax,4) # imm = 0x3B9AC9FF
	addq	$1, %rcx
	movl	$0, -3928(%rbp,%rax,4)
	movl	$999999999, -8024(%rbp,%rax,4) # imm = 0x3B9AC9FF
	addq	$1, %rcx
	movl	$0, -3924(%rbp,%rax,4)
	movl	$999999999, -8020(%rbp,%rax,4) # imm = 0x3B9AC9FF
	addq	$1, %rcx
	movl	$0, -3920(%rbp,%rax,4)
	movl	$999999999, -8016(%rbp,%rax,4) # imm = 0x3B9AC9FF
	addq	$1, %rcx
	movl	$0, -3916(%rbp,%rax,4)
	movl	$999999999, -8012(%rbp,%rax,4) # imm = 0x3B9AC9FF
	addq	$1, %rcx
	movl	$0, -3912(%rbp,%rax,4)
	movl	$999999999, -8008(%rbp,%rax,4) # imm = 0x3B9AC9FF
	addq	$1, %rcx
	movl	$0, -3908(%rbp,%rax,4)
	movl	$999999999, -8004(%rbp,%rax,4) # imm = 0x3B9AC9FF
	addq	$1, %rcx
	movl	$0, -3904(%rbp,%rax,4)
	movl	$999999999, -8000(%rbp,%rax,4) # imm = 0x3B9AC9FF
	addq	$1, %rcx
	movl	$0, -3900(%rbp,%rax,4)
	movl	$999999999, -7996(%rbp,%rax,4) # imm = 0x3B9AC9FF
	addq	$1, %rcx
	movl	$0, -3896(%rbp,%rax,4)
	movl	$999999999, -7992(%rbp,%rax,4) # imm = 0x3B9AC9FF
	addq	$1, %rcx
	movl	$0, -3892(%rbp,%rax,4)
	movl	$999999999, -7988(%rbp,%rax,4) # imm = 0x3B9AC9FF
	addq	$1, %rcx
	movl	$0, -3888(%rbp,%rax,4)
	movl	$999999999, -7984(%rbp,%rax,4) # imm = 0x3B9AC9FF
	addq	$1, %rcx
	movl	$0, -3884(%rbp,%rax,4)
	movl	$999999999, -7980(%rbp,%rax,4) # imm = 0x3B9AC9FF
	addq	$1, %rcx
	movl	$0, -3880(%rbp,%rax,4)
	movl	$999999999, -7976(%rbp,%rax,4) # imm = 0x3B9AC9FF
	addq	$1, %rcx
	movl	$0, -3876(%rbp,%rax,4)
	movl	$999999999, -7972(%rbp,%rax,4) # imm = 0x3B9AC9FF
	addq	$1, %rcx
	movl	$0, -3872(%rbp,%rax,4)
	movl	$999999999, -7968(%rbp,%rax,4) # imm = 0x3B9AC9FF
	addq	$1, %rcx
	movl	$0, -3868(%rbp,%rax,4)
	movl	$999999999, -7964(%rbp,%rax,4) # imm = 0x3B9AC9FF
	addq	$1, %rcx
	movl	$0, -3864(%rbp,%rax,4)
	movl	$999999999, -7960(%rbp,%rax,4) # imm = 0x3B9AC9FF
	addq	$1, %rcx
	movl	$0, -3860(%rbp,%rax,4)
	movl	$999999999, -7956(%rbp,%rax,4) # imm = 0x3B9AC9FF
	addq	$1, %rcx
	movl	$0, -3856(%rbp,%rax,4)
	movl	$999999999, -7952(%rbp,%rax,4) # imm = 0x3B9AC9FF
	addq	$1, %rcx
	movl	$0, -3852(%rbp,%rax,4)
	movl	$999999999, -7948(%rbp,%rax,4) # imm = 0x3B9AC9FF
	addq	$1, %rcx
	movl	$0, -3848(%rbp,%rax,4)
	movl	$999999999, -7944(%rbp,%rax,4) # imm = 0x3B9AC9FF
	addq	$1, %rcx
	movl	$0, -3844(%rbp,%rax,4)
	movl	$999999999, -7940(%rbp,%rax,4) # imm = 0x3B9AC9FF
	addq	$1, %rcx
	cmpq	$1024, %rcx             # imm = 0x400
	movq	%rcx, -8272(%rbp)       # 8-byte Spill
	jne	.LBB2_2
# %bb.3:                                # %for.body8.preheader
                                        #   in Loop: Header=BB2_1 Depth=1
	xorl	%eax, %eax
	movl	%eax, %ecx
	movq	%rcx, -8280(%rbp)       # 8-byte Spill
	jmp	.LBB2_4
.LBB2_4:                                # %for.body8
                                        #   Parent Loop BB2_1 Depth=1
                                        # =>  This Inner Loop Header: Depth=2
	movq	-8280(%rbp), %rax       # 8-byte Reload
	movq	-8264(%rbp), %rcx       # 8-byte Reload
	cmpq	%rax, %rcx
	movq	%rax, -8288(%rbp)       # 8-byte Spill
	je	.LBB2_6
# %bb.5:                                # %if.end
                                        #   in Loop: Header=BB2_4 Depth=2
	movq	-8288(%rbp), %rax       # 8-byte Reload
	movl	%eax, %ecx
	movq	-8264(%rbp), %rdx       # 8-byte Reload
	movl	%edx, %esi
	movq	-8200(%rbp), %rdi       # 8-byte Reload
	movq	-8208(%rbp), %r8        # 8-byte Reload
	movl	%esi, -8292(%rbp)       # 4-byte Spill
	movq	%r8, %rsi
	movq	-8216(%rbp), %rdx       # 8-byte Reload
	movl	-8292(%rbp), %r9d       # 4-byte Reload
	movl	%ecx, -8296(%rbp)       # 4-byte Spill
	movl	%r9d, %ecx
	movl	-8296(%rbp), %r10d      # 4-byte Reload
	movl	%r10d, %r8d
	callq	distance
	movq	-8288(%rbp), %rdx       # 8-byte Reload
	movl	%edx, %ecx
	movl	%ecx, -4096(%rbp,%rdx,4)
	movl	%eax, -8192(%rbp,%rdx,4)
.LBB2_6:                                # %for.inc14
                                        #   in Loop: Header=BB2_4 Depth=2
	movq	-8288(%rbp), %rax       # 8-byte Reload
	addq	$1, %rax
	movq	-8264(%rbp), %rcx       # 8-byte Reload
	cmpq	%rax, %rcx
	movq	%rax, -8304(%rbp)       # 8-byte Spill
	je	.LBB2_10
	jmp	.LBB2_9
.LBB2_7:                                # %for.end16
                                        #   in Loop: Header=BB2_1 Depth=1
	movq	-8264(%rbp), %rax       # 8-byte Reload
	movl	%eax, %ecx
	movq	-8240(%rbp), %rdi       # 8-byte Reload
	movq	-8232(%rbp), %rsi       # 8-byte Reload
	movl	%ecx, %edx
	movq	-8224(%rbp), %rcx       # 8-byte Reload
	callq	populateNeighborList
	movl	-8256(%rbp), %edx       # 4-byte Reload
	addl	%eax, %edx
	movq	-8264(%rbp), %rcx       # 8-byte Reload
	addq	$1, %rcx
	cmpq	$1024, %rcx             # imm = 0x400
	movl	%edx, %eax
	movq	%rcx, -8248(%rbp)       # 8-byte Spill
	movl	%eax, -8252(%rbp)       # 4-byte Spill
	movl	%edx, -8308(%rbp)       # 4-byte Spill
	jne	.LBB2_1
# %bb.8:                                # %for.end21
	movl	-8308(%rbp), %eax       # 4-byte Reload
	movabsq	$.L.str, %rdi
	movl	%eax, %esi
	movl	%eax, -8312(%rbp)       # 4-byte Spill
	movb	$0, %al
	callq	printf
	movl	-8312(%rbp), %ecx       # 4-byte Reload
	movl	%eax, -8316(%rbp)       # 4-byte Spill
	movl	%ecx, %eax
	addq	$9328, %rsp             # imm = 0x2470
	popq	%rbp
	.cfi_def_cfa %rsp, 8
	retq
.LBB2_9:                                # %if.end.1
                                        #   in Loop: Header=BB2_4 Depth=2
	.cfi_def_cfa %rbp, 16
	movq	-8304(%rbp), %rax       # 8-byte Reload
	movl	%eax, %ecx
	movq	-8264(%rbp), %rdx       # 8-byte Reload
	movl	%edx, %esi
	movq	-8200(%rbp), %rdi       # 8-byte Reload
	movq	-8208(%rbp), %r8        # 8-byte Reload
	movl	%esi, -8320(%rbp)       # 4-byte Spill
	movq	%r8, %rsi
	movq	-8216(%rbp), %rdx       # 8-byte Reload
	movl	-8320(%rbp), %r9d       # 4-byte Reload
	movl	%ecx, -8324(%rbp)       # 4-byte Spill
	movl	%r9d, %ecx
	movl	-8324(%rbp), %r10d      # 4-byte Reload
	movl	%r10d, %r8d
	callq	distance
	movq	-8304(%rbp), %rdx       # 8-byte Reload
	movl	%edx, %ecx
	movl	%ecx, -4096(%rbp,%rdx,4)
	movl	%eax, -8192(%rbp,%rdx,4)
.LBB2_10:                               # %for.inc14.1
                                        #   in Loop: Header=BB2_4 Depth=2
	movq	-8304(%rbp), %rax       # 8-byte Reload
	addq	$1, %rax
	movq	-8264(%rbp), %rcx       # 8-byte Reload
	cmpq	%rax, %rcx
	movq	%rax, -8336(%rbp)       # 8-byte Spill
	je	.LBB2_12
# %bb.11:                               # %if.end.2
                                        #   in Loop: Header=BB2_4 Depth=2
	movq	-8336(%rbp), %rax       # 8-byte Reload
	movl	%eax, %ecx
	movq	-8264(%rbp), %rdx       # 8-byte Reload
	movl	%edx, %esi
	movq	-8200(%rbp), %rdi       # 8-byte Reload
	movq	-8208(%rbp), %r8        # 8-byte Reload
	movl	%esi, -8340(%rbp)       # 4-byte Spill
	movq	%r8, %rsi
	movq	-8216(%rbp), %rdx       # 8-byte Reload
	movl	-8340(%rbp), %r9d       # 4-byte Reload
	movl	%ecx, -8344(%rbp)       # 4-byte Spill
	movl	%r9d, %ecx
	movl	-8344(%rbp), %r10d      # 4-byte Reload
	movl	%r10d, %r8d
	callq	distance
	movq	-8336(%rbp), %rdx       # 8-byte Reload
	movl	%edx, %ecx
	movl	%ecx, -4096(%rbp,%rdx,4)
	movl	%eax, -8192(%rbp,%rdx,4)
.LBB2_12:                               # %for.inc14.2
                                        #   in Loop: Header=BB2_4 Depth=2
	movq	-8336(%rbp), %rax       # 8-byte Reload
	addq	$1, %rax
	movq	-8264(%rbp), %rcx       # 8-byte Reload
	cmpq	%rax, %rcx
	movq	%rax, -8352(%rbp)       # 8-byte Spill
	je	.LBB2_14
# %bb.13:                               # %if.end.3
                                        #   in Loop: Header=BB2_4 Depth=2
	movq	-8352(%rbp), %rax       # 8-byte Reload
	movl	%eax, %ecx
	movq	-8264(%rbp), %rdx       # 8-byte Reload
	movl	%edx, %esi
	movq	-8200(%rbp), %rdi       # 8-byte Reload
	movq	-8208(%rbp), %r8        # 8-byte Reload
	movl	%esi, -8356(%rbp)       # 4-byte Spill
	movq	%r8, %rsi
	movq	-8216(%rbp), %rdx       # 8-byte Reload
	movl	-8356(%rbp), %r9d       # 4-byte Reload
	movl	%ecx, -8360(%rbp)       # 4-byte Spill
	movl	%r9d, %ecx
	movl	-8360(%rbp), %r10d      # 4-byte Reload
	movl	%r10d, %r8d
	callq	distance
	movq	-8352(%rbp), %rdx       # 8-byte Reload
	movl	%edx, %ecx
	movl	%ecx, -4096(%rbp,%rdx,4)
	movl	%eax, -8192(%rbp,%rdx,4)
.LBB2_14:                               # %for.inc14.3
                                        #   in Loop: Header=BB2_4 Depth=2
	movq	-8352(%rbp), %rax       # 8-byte Reload
	addq	$1, %rax
	movq	-8264(%rbp), %rcx       # 8-byte Reload
	cmpq	%rax, %rcx
	movq	%rax, -8368(%rbp)       # 8-byte Spill
	je	.LBB2_16
# %bb.15:                               # %if.end.4
                                        #   in Loop: Header=BB2_4 Depth=2
	movq	-8368(%rbp), %rax       # 8-byte Reload
	movl	%eax, %ecx
	movq	-8264(%rbp), %rdx       # 8-byte Reload
	movl	%edx, %esi
	movq	-8200(%rbp), %rdi       # 8-byte Reload
	movq	-8208(%rbp), %r8        # 8-byte Reload
	movl	%esi, -8372(%rbp)       # 4-byte Spill
	movq	%r8, %rsi
	movq	-8216(%rbp), %rdx       # 8-byte Reload
	movl	-8372(%rbp), %r9d       # 4-byte Reload
	movl	%ecx, -8376(%rbp)       # 4-byte Spill
	movl	%r9d, %ecx
	movl	-8376(%rbp), %r10d      # 4-byte Reload
	movl	%r10d, %r8d
	callq	distance
	movq	-8368(%rbp), %rdx       # 8-byte Reload
	movl	%edx, %ecx
	movl	%ecx, -4096(%rbp,%rdx,4)
	movl	%eax, -8192(%rbp,%rdx,4)
.LBB2_16:                               # %for.inc14.4
                                        #   in Loop: Header=BB2_4 Depth=2
	movq	-8368(%rbp), %rax       # 8-byte Reload
	addq	$1, %rax
	movq	-8264(%rbp), %rcx       # 8-byte Reload
	cmpq	%rax, %rcx
	movq	%rax, -8384(%rbp)       # 8-byte Spill
	je	.LBB2_18
# %bb.17:                               # %if.end.5
                                        #   in Loop: Header=BB2_4 Depth=2
	movq	-8384(%rbp), %rax       # 8-byte Reload
	movl	%eax, %ecx
	movq	-8264(%rbp), %rdx       # 8-byte Reload
	movl	%edx, %esi
	movq	-8200(%rbp), %rdi       # 8-byte Reload
	movq	-8208(%rbp), %r8        # 8-byte Reload
	movl	%esi, -8388(%rbp)       # 4-byte Spill
	movq	%r8, %rsi
	movq	-8216(%rbp), %rdx       # 8-byte Reload
	movl	-8388(%rbp), %r9d       # 4-byte Reload
	movl	%ecx, -8392(%rbp)       # 4-byte Spill
	movl	%r9d, %ecx
	movl	-8392(%rbp), %r10d      # 4-byte Reload
	movl	%r10d, %r8d
	callq	distance
	movq	-8384(%rbp), %rdx       # 8-byte Reload
	movl	%edx, %ecx
	movl	%ecx, -4096(%rbp,%rdx,4)
	movl	%eax, -8192(%rbp,%rdx,4)
.LBB2_18:                               # %for.inc14.5
                                        #   in Loop: Header=BB2_4 Depth=2
	movq	-8384(%rbp), %rax       # 8-byte Reload
	addq	$1, %rax
	movq	-8264(%rbp), %rcx       # 8-byte Reload
	cmpq	%rax, %rcx
	movq	%rax, -8400(%rbp)       # 8-byte Spill
	je	.LBB2_20
# %bb.19:                               # %if.end.6
                                        #   in Loop: Header=BB2_4 Depth=2
	movq	-8400(%rbp), %rax       # 8-byte Reload
	movl	%eax, %ecx
	movq	-8264(%rbp), %rdx       # 8-byte Reload
	movl	%edx, %esi
	movq	-8200(%rbp), %rdi       # 8-byte Reload
	movq	-8208(%rbp), %r8        # 8-byte Reload
	movl	%esi, -8404(%rbp)       # 4-byte Spill
	movq	%r8, %rsi
	movq	-8216(%rbp), %rdx       # 8-byte Reload
	movl	-8404(%rbp), %r9d       # 4-byte Reload
	movl	%ecx, -8408(%rbp)       # 4-byte Spill
	movl	%r9d, %ecx
	movl	-8408(%rbp), %r10d      # 4-byte Reload
	movl	%r10d, %r8d
	callq	distance
	movq	-8400(%rbp), %rdx       # 8-byte Reload
	movl	%edx, %ecx
	movl	%ecx, -4096(%rbp,%rdx,4)
	movl	%eax, -8192(%rbp,%rdx,4)
.LBB2_20:                               # %for.inc14.6
                                        #   in Loop: Header=BB2_4 Depth=2
	movq	-8400(%rbp), %rax       # 8-byte Reload
	addq	$1, %rax
	movq	-8264(%rbp), %rcx       # 8-byte Reload
	cmpq	%rax, %rcx
	movq	%rax, -8416(%rbp)       # 8-byte Spill
	je	.LBB2_22
# %bb.21:                               # %if.end.7
                                        #   in Loop: Header=BB2_4 Depth=2
	movq	-8416(%rbp), %rax       # 8-byte Reload
	movl	%eax, %ecx
	movq	-8264(%rbp), %rdx       # 8-byte Reload
	movl	%edx, %esi
	movq	-8200(%rbp), %rdi       # 8-byte Reload
	movq	-8208(%rbp), %r8        # 8-byte Reload
	movl	%esi, -8420(%rbp)       # 4-byte Spill
	movq	%r8, %rsi
	movq	-8216(%rbp), %rdx       # 8-byte Reload
	movl	-8420(%rbp), %r9d       # 4-byte Reload
	movl	%ecx, -8424(%rbp)       # 4-byte Spill
	movl	%r9d, %ecx
	movl	-8424(%rbp), %r10d      # 4-byte Reload
	movl	%r10d, %r8d
	callq	distance
	movq	-8416(%rbp), %rdx       # 8-byte Reload
	movl	%edx, %ecx
	movl	%ecx, -4096(%rbp,%rdx,4)
	movl	%eax, -8192(%rbp,%rdx,4)
.LBB2_22:                               # %for.inc14.7
                                        #   in Loop: Header=BB2_4 Depth=2
	movq	-8416(%rbp), %rax       # 8-byte Reload
	addq	$1, %rax
	movq	-8264(%rbp), %rcx       # 8-byte Reload
	cmpq	%rax, %rcx
	movq	%rax, -8432(%rbp)       # 8-byte Spill
	je	.LBB2_24
# %bb.23:                               # %if.end.8
                                        #   in Loop: Header=BB2_4 Depth=2
	movq	-8432(%rbp), %rax       # 8-byte Reload
	movl	%eax, %ecx
	movq	-8264(%rbp), %rdx       # 8-byte Reload
	movl	%edx, %esi
	movq	-8200(%rbp), %rdi       # 8-byte Reload
	movq	-8208(%rbp), %r8        # 8-byte Reload
	movl	%esi, -8436(%rbp)       # 4-byte Spill
	movq	%r8, %rsi
	movq	-8216(%rbp), %rdx       # 8-byte Reload
	movl	-8436(%rbp), %r9d       # 4-byte Reload
	movl	%ecx, -8440(%rbp)       # 4-byte Spill
	movl	%r9d, %ecx
	movl	-8440(%rbp), %r10d      # 4-byte Reload
	movl	%r10d, %r8d
	callq	distance
	movq	-8432(%rbp), %rdx       # 8-byte Reload
	movl	%edx, %ecx
	movl	%ecx, -4096(%rbp,%rdx,4)
	movl	%eax, -8192(%rbp,%rdx,4)
.LBB2_24:                               # %for.inc14.8
                                        #   in Loop: Header=BB2_4 Depth=2
	movq	-8432(%rbp), %rax       # 8-byte Reload
	addq	$1, %rax
	movq	-8264(%rbp), %rcx       # 8-byte Reload
	cmpq	%rax, %rcx
	movq	%rax, -8448(%rbp)       # 8-byte Spill
	je	.LBB2_26
# %bb.25:                               # %if.end.9
                                        #   in Loop: Header=BB2_4 Depth=2
	movq	-8448(%rbp), %rax       # 8-byte Reload
	movl	%eax, %ecx
	movq	-8264(%rbp), %rdx       # 8-byte Reload
	movl	%edx, %esi
	movq	-8200(%rbp), %rdi       # 8-byte Reload
	movq	-8208(%rbp), %r8        # 8-byte Reload
	movl	%esi, -8452(%rbp)       # 4-byte Spill
	movq	%r8, %rsi
	movq	-8216(%rbp), %rdx       # 8-byte Reload
	movl	-8452(%rbp), %r9d       # 4-byte Reload
	movl	%ecx, -8456(%rbp)       # 4-byte Spill
	movl	%r9d, %ecx
	movl	-8456(%rbp), %r10d      # 4-byte Reload
	movl	%r10d, %r8d
	callq	distance
	movq	-8448(%rbp), %rdx       # 8-byte Reload
	movl	%edx, %ecx
	movl	%ecx, -4096(%rbp,%rdx,4)
	movl	%eax, -8192(%rbp,%rdx,4)
.LBB2_26:                               # %for.inc14.9
                                        #   in Loop: Header=BB2_4 Depth=2
	movq	-8448(%rbp), %rax       # 8-byte Reload
	addq	$1, %rax
	movq	-8264(%rbp), %rcx       # 8-byte Reload
	cmpq	%rax, %rcx
	movq	%rax, -8464(%rbp)       # 8-byte Spill
	je	.LBB2_28
# %bb.27:                               # %if.end.10
                                        #   in Loop: Header=BB2_4 Depth=2
	movq	-8464(%rbp), %rax       # 8-byte Reload
	movl	%eax, %ecx
	movq	-8264(%rbp), %rdx       # 8-byte Reload
	movl	%edx, %esi
	movq	-8200(%rbp), %rdi       # 8-byte Reload
	movq	-8208(%rbp), %r8        # 8-byte Reload
	movl	%esi, -8468(%rbp)       # 4-byte Spill
	movq	%r8, %rsi
	movq	-8216(%rbp), %rdx       # 8-byte Reload
	movl	-8468(%rbp), %r9d       # 4-byte Reload
	movl	%ecx, -8472(%rbp)       # 4-byte Spill
	movl	%r9d, %ecx
	movl	-8472(%rbp), %r10d      # 4-byte Reload
	movl	%r10d, %r8d
	callq	distance
	movq	-8464(%rbp), %rdx       # 8-byte Reload
	movl	%edx, %ecx
	movl	%ecx, -4096(%rbp,%rdx,4)
	movl	%eax, -8192(%rbp,%rdx,4)
.LBB2_28:                               # %for.inc14.10
                                        #   in Loop: Header=BB2_4 Depth=2
	movq	-8464(%rbp), %rax       # 8-byte Reload
	addq	$1, %rax
	movq	-8264(%rbp), %rcx       # 8-byte Reload
	cmpq	%rax, %rcx
	movq	%rax, -8480(%rbp)       # 8-byte Spill
	je	.LBB2_30
# %bb.29:                               # %if.end.11
                                        #   in Loop: Header=BB2_4 Depth=2
	movq	-8480(%rbp), %rax       # 8-byte Reload
	movl	%eax, %ecx
	movq	-8264(%rbp), %rdx       # 8-byte Reload
	movl	%edx, %esi
	movq	-8200(%rbp), %rdi       # 8-byte Reload
	movq	-8208(%rbp), %r8        # 8-byte Reload
	movl	%esi, -8484(%rbp)       # 4-byte Spill
	movq	%r8, %rsi
	movq	-8216(%rbp), %rdx       # 8-byte Reload
	movl	-8484(%rbp), %r9d       # 4-byte Reload
	movl	%ecx, -8488(%rbp)       # 4-byte Spill
	movl	%r9d, %ecx
	movl	-8488(%rbp), %r10d      # 4-byte Reload
	movl	%r10d, %r8d
	callq	distance
	movq	-8480(%rbp), %rdx       # 8-byte Reload
	movl	%edx, %ecx
	movl	%ecx, -4096(%rbp,%rdx,4)
	movl	%eax, -8192(%rbp,%rdx,4)
.LBB2_30:                               # %for.inc14.11
                                        #   in Loop: Header=BB2_4 Depth=2
	movq	-8480(%rbp), %rax       # 8-byte Reload
	addq	$1, %rax
	movq	-8264(%rbp), %rcx       # 8-byte Reload
	cmpq	%rax, %rcx
	movq	%rax, -8496(%rbp)       # 8-byte Spill
	je	.LBB2_32
# %bb.31:                               # %if.end.12
                                        #   in Loop: Header=BB2_4 Depth=2
	movq	-8496(%rbp), %rax       # 8-byte Reload
	movl	%eax, %ecx
	movq	-8264(%rbp), %rdx       # 8-byte Reload
	movl	%edx, %esi
	movq	-8200(%rbp), %rdi       # 8-byte Reload
	movq	-8208(%rbp), %r8        # 8-byte Reload
	movl	%esi, -8500(%rbp)       # 4-byte Spill
	movq	%r8, %rsi
	movq	-8216(%rbp), %rdx       # 8-byte Reload
	movl	-8500(%rbp), %r9d       # 4-byte Reload
	movl	%ecx, -8504(%rbp)       # 4-byte Spill
	movl	%r9d, %ecx
	movl	-8504(%rbp), %r10d      # 4-byte Reload
	movl	%r10d, %r8d
	callq	distance
	movq	-8496(%rbp), %rdx       # 8-byte Reload
	movl	%edx, %ecx
	movl	%ecx, -4096(%rbp,%rdx,4)
	movl	%eax, -8192(%rbp,%rdx,4)
.LBB2_32:                               # %for.inc14.12
                                        #   in Loop: Header=BB2_4 Depth=2
	movq	-8496(%rbp), %rax       # 8-byte Reload
	addq	$1, %rax
	movq	-8264(%rbp), %rcx       # 8-byte Reload
	cmpq	%rax, %rcx
	movq	%rax, -8512(%rbp)       # 8-byte Spill
	je	.LBB2_34
# %bb.33:                               # %if.end.13
                                        #   in Loop: Header=BB2_4 Depth=2
	movq	-8512(%rbp), %rax       # 8-byte Reload
	movl	%eax, %ecx
	movq	-8264(%rbp), %rdx       # 8-byte Reload
	movl	%edx, %esi
	movq	-8200(%rbp), %rdi       # 8-byte Reload
	movq	-8208(%rbp), %r8        # 8-byte Reload
	movl	%esi, -8516(%rbp)       # 4-byte Spill
	movq	%r8, %rsi
	movq	-8216(%rbp), %rdx       # 8-byte Reload
	movl	-8516(%rbp), %r9d       # 4-byte Reload
	movl	%ecx, -8520(%rbp)       # 4-byte Spill
	movl	%r9d, %ecx
	movl	-8520(%rbp), %r10d      # 4-byte Reload
	movl	%r10d, %r8d
	callq	distance
	movq	-8512(%rbp), %rdx       # 8-byte Reload
	movl	%edx, %ecx
	movl	%ecx, -4096(%rbp,%rdx,4)
	movl	%eax, -8192(%rbp,%rdx,4)
.LBB2_34:                               # %for.inc14.13
                                        #   in Loop: Header=BB2_4 Depth=2
	movq	-8512(%rbp), %rax       # 8-byte Reload
	addq	$1, %rax
	movq	-8264(%rbp), %rcx       # 8-byte Reload
	cmpq	%rax, %rcx
	movq	%rax, -8528(%rbp)       # 8-byte Spill
	je	.LBB2_36
# %bb.35:                               # %if.end.14
                                        #   in Loop: Header=BB2_4 Depth=2
	movq	-8528(%rbp), %rax       # 8-byte Reload
	movl	%eax, %ecx
	movq	-8264(%rbp), %rdx       # 8-byte Reload
	movl	%edx, %esi
	movq	-8200(%rbp), %rdi       # 8-byte Reload
	movq	-8208(%rbp), %r8        # 8-byte Reload
	movl	%esi, -8532(%rbp)       # 4-byte Spill
	movq	%r8, %rsi
	movq	-8216(%rbp), %rdx       # 8-byte Reload
	movl	-8532(%rbp), %r9d       # 4-byte Reload
	movl	%ecx, -8536(%rbp)       # 4-byte Spill
	movl	%r9d, %ecx
	movl	-8536(%rbp), %r10d      # 4-byte Reload
	movl	%r10d, %r8d
	callq	distance
	movq	-8528(%rbp), %rdx       # 8-byte Reload
	movl	%edx, %ecx
	movl	%ecx, -4096(%rbp,%rdx,4)
	movl	%eax, -8192(%rbp,%rdx,4)
.LBB2_36:                               # %for.inc14.14
                                        #   in Loop: Header=BB2_4 Depth=2
	movq	-8528(%rbp), %rax       # 8-byte Reload
	addq	$1, %rax
	movq	-8264(%rbp), %rcx       # 8-byte Reload
	cmpq	%rax, %rcx
	movq	%rax, -8544(%rbp)       # 8-byte Spill
	je	.LBB2_38
# %bb.37:                               # %if.end.15
                                        #   in Loop: Header=BB2_4 Depth=2
	movq	-8544(%rbp), %rax       # 8-byte Reload
	movl	%eax, %ecx
	movq	-8264(%rbp), %rdx       # 8-byte Reload
	movl	%edx, %esi
	movq	-8200(%rbp), %rdi       # 8-byte Reload
	movq	-8208(%rbp), %r8        # 8-byte Reload
	movl	%esi, -8548(%rbp)       # 4-byte Spill
	movq	%r8, %rsi
	movq	-8216(%rbp), %rdx       # 8-byte Reload
	movl	-8548(%rbp), %r9d       # 4-byte Reload
	movl	%ecx, -8552(%rbp)       # 4-byte Spill
	movl	%r9d, %ecx
	movl	-8552(%rbp), %r10d      # 4-byte Reload
	movl	%r10d, %r8d
	callq	distance
	movq	-8544(%rbp), %rdx       # 8-byte Reload
	movl	%edx, %ecx
	movl	%ecx, -4096(%rbp,%rdx,4)
	movl	%eax, -8192(%rbp,%rdx,4)
.LBB2_38:                               # %for.inc14.15
                                        #   in Loop: Header=BB2_4 Depth=2
	movq	-8544(%rbp), %rax       # 8-byte Reload
	addq	$1, %rax
	movq	-8264(%rbp), %rcx       # 8-byte Reload
	cmpq	%rax, %rcx
	movq	%rax, -8560(%rbp)       # 8-byte Spill
	je	.LBB2_40
# %bb.39:                               # %if.end.16
                                        #   in Loop: Header=BB2_4 Depth=2
	movq	-8560(%rbp), %rax       # 8-byte Reload
	movl	%eax, %ecx
	movq	-8264(%rbp), %rdx       # 8-byte Reload
	movl	%edx, %esi
	movq	-8200(%rbp), %rdi       # 8-byte Reload
	movq	-8208(%rbp), %r8        # 8-byte Reload
	movl	%esi, -8564(%rbp)       # 4-byte Spill
	movq	%r8, %rsi
	movq	-8216(%rbp), %rdx       # 8-byte Reload
	movl	-8564(%rbp), %r9d       # 4-byte Reload
	movl	%ecx, -8568(%rbp)       # 4-byte Spill
	movl	%r9d, %ecx
	movl	-8568(%rbp), %r10d      # 4-byte Reload
	movl	%r10d, %r8d
	callq	distance
	movq	-8560(%rbp), %rdx       # 8-byte Reload
	movl	%edx, %ecx
	movl	%ecx, -4096(%rbp,%rdx,4)
	movl	%eax, -8192(%rbp,%rdx,4)
.LBB2_40:                               # %for.inc14.16
                                        #   in Loop: Header=BB2_4 Depth=2
	movq	-8560(%rbp), %rax       # 8-byte Reload
	addq	$1, %rax
	movq	-8264(%rbp), %rcx       # 8-byte Reload
	cmpq	%rax, %rcx
	movq	%rax, -8576(%rbp)       # 8-byte Spill
	je	.LBB2_42
# %bb.41:                               # %if.end.17
                                        #   in Loop: Header=BB2_4 Depth=2
	movq	-8576(%rbp), %rax       # 8-byte Reload
	movl	%eax, %ecx
	movq	-8264(%rbp), %rdx       # 8-byte Reload
	movl	%edx, %esi
	movq	-8200(%rbp), %rdi       # 8-byte Reload
	movq	-8208(%rbp), %r8        # 8-byte Reload
	movl	%esi, -8580(%rbp)       # 4-byte Spill
	movq	%r8, %rsi
	movq	-8216(%rbp), %rdx       # 8-byte Reload
	movl	-8580(%rbp), %r9d       # 4-byte Reload
	movl	%ecx, -8584(%rbp)       # 4-byte Spill
	movl	%r9d, %ecx
	movl	-8584(%rbp), %r10d      # 4-byte Reload
	movl	%r10d, %r8d
	callq	distance
	movq	-8576(%rbp), %rdx       # 8-byte Reload
	movl	%edx, %ecx
	movl	%ecx, -4096(%rbp,%rdx,4)
	movl	%eax, -8192(%rbp,%rdx,4)
.LBB2_42:                               # %for.inc14.17
                                        #   in Loop: Header=BB2_4 Depth=2
	movq	-8576(%rbp), %rax       # 8-byte Reload
	addq	$1, %rax
	movq	-8264(%rbp), %rcx       # 8-byte Reload
	cmpq	%rax, %rcx
	movq	%rax, -8592(%rbp)       # 8-byte Spill
	je	.LBB2_44
# %bb.43:                               # %if.end.18
                                        #   in Loop: Header=BB2_4 Depth=2
	movq	-8592(%rbp), %rax       # 8-byte Reload
	movl	%eax, %ecx
	movq	-8264(%rbp), %rdx       # 8-byte Reload
	movl	%edx, %esi
	movq	-8200(%rbp), %rdi       # 8-byte Reload
	movq	-8208(%rbp), %r8        # 8-byte Reload
	movl	%esi, -8596(%rbp)       # 4-byte Spill
	movq	%r8, %rsi
	movq	-8216(%rbp), %rdx       # 8-byte Reload
	movl	-8596(%rbp), %r9d       # 4-byte Reload
	movl	%ecx, -8600(%rbp)       # 4-byte Spill
	movl	%r9d, %ecx
	movl	-8600(%rbp), %r10d      # 4-byte Reload
	movl	%r10d, %r8d
	callq	distance
	movq	-8592(%rbp), %rdx       # 8-byte Reload
	movl	%edx, %ecx
	movl	%ecx, -4096(%rbp,%rdx,4)
	movl	%eax, -8192(%rbp,%rdx,4)
.LBB2_44:                               # %for.inc14.18
                                        #   in Loop: Header=BB2_4 Depth=2
	movq	-8592(%rbp), %rax       # 8-byte Reload
	addq	$1, %rax
	movq	-8264(%rbp), %rcx       # 8-byte Reload
	cmpq	%rax, %rcx
	movq	%rax, -8608(%rbp)       # 8-byte Spill
	je	.LBB2_46
# %bb.45:                               # %if.end.19
                                        #   in Loop: Header=BB2_4 Depth=2
	movq	-8608(%rbp), %rax       # 8-byte Reload
	movl	%eax, %ecx
	movq	-8264(%rbp), %rdx       # 8-byte Reload
	movl	%edx, %esi
	movq	-8200(%rbp), %rdi       # 8-byte Reload
	movq	-8208(%rbp), %r8        # 8-byte Reload
	movl	%esi, -8612(%rbp)       # 4-byte Spill
	movq	%r8, %rsi
	movq	-8216(%rbp), %rdx       # 8-byte Reload
	movl	-8612(%rbp), %r9d       # 4-byte Reload
	movl	%ecx, -8616(%rbp)       # 4-byte Spill
	movl	%r9d, %ecx
	movl	-8616(%rbp), %r10d      # 4-byte Reload
	movl	%r10d, %r8d
	callq	distance
	movq	-8608(%rbp), %rdx       # 8-byte Reload
	movl	%edx, %ecx
	movl	%ecx, -4096(%rbp,%rdx,4)
	movl	%eax, -8192(%rbp,%rdx,4)
.LBB2_46:                               # %for.inc14.19
                                        #   in Loop: Header=BB2_4 Depth=2
	movq	-8608(%rbp), %rax       # 8-byte Reload
	addq	$1, %rax
	movq	-8264(%rbp), %rcx       # 8-byte Reload
	cmpq	%rax, %rcx
	movq	%rax, -8624(%rbp)       # 8-byte Spill
	je	.LBB2_48
# %bb.47:                               # %if.end.20
                                        #   in Loop: Header=BB2_4 Depth=2
	movq	-8624(%rbp), %rax       # 8-byte Reload
	movl	%eax, %ecx
	movq	-8264(%rbp), %rdx       # 8-byte Reload
	movl	%edx, %esi
	movq	-8200(%rbp), %rdi       # 8-byte Reload
	movq	-8208(%rbp), %r8        # 8-byte Reload
	movl	%esi, -8628(%rbp)       # 4-byte Spill
	movq	%r8, %rsi
	movq	-8216(%rbp), %rdx       # 8-byte Reload
	movl	-8628(%rbp), %r9d       # 4-byte Reload
	movl	%ecx, -8632(%rbp)       # 4-byte Spill
	movl	%r9d, %ecx
	movl	-8632(%rbp), %r10d      # 4-byte Reload
	movl	%r10d, %r8d
	callq	distance
	movq	-8624(%rbp), %rdx       # 8-byte Reload
	movl	%edx, %ecx
	movl	%ecx, -4096(%rbp,%rdx,4)
	movl	%eax, -8192(%rbp,%rdx,4)
.LBB2_48:                               # %for.inc14.20
                                        #   in Loop: Header=BB2_4 Depth=2
	movq	-8624(%rbp), %rax       # 8-byte Reload
	addq	$1, %rax
	movq	-8264(%rbp), %rcx       # 8-byte Reload
	cmpq	%rax, %rcx
	movq	%rax, -8640(%rbp)       # 8-byte Spill
	je	.LBB2_50
# %bb.49:                               # %if.end.21
                                        #   in Loop: Header=BB2_4 Depth=2
	movq	-8640(%rbp), %rax       # 8-byte Reload
	movl	%eax, %ecx
	movq	-8264(%rbp), %rdx       # 8-byte Reload
	movl	%edx, %esi
	movq	-8200(%rbp), %rdi       # 8-byte Reload
	movq	-8208(%rbp), %r8        # 8-byte Reload
	movl	%esi, -8644(%rbp)       # 4-byte Spill
	movq	%r8, %rsi
	movq	-8216(%rbp), %rdx       # 8-byte Reload
	movl	-8644(%rbp), %r9d       # 4-byte Reload
	movl	%ecx, -8648(%rbp)       # 4-byte Spill
	movl	%r9d, %ecx
	movl	-8648(%rbp), %r10d      # 4-byte Reload
	movl	%r10d, %r8d
	callq	distance
	movq	-8640(%rbp), %rdx       # 8-byte Reload
	movl	%edx, %ecx
	movl	%ecx, -4096(%rbp,%rdx,4)
	movl	%eax, -8192(%rbp,%rdx,4)
.LBB2_50:                               # %for.inc14.21
                                        #   in Loop: Header=BB2_4 Depth=2
	movq	-8640(%rbp), %rax       # 8-byte Reload
	addq	$1, %rax
	movq	-8264(%rbp), %rcx       # 8-byte Reload
	cmpq	%rax, %rcx
	movq	%rax, -8656(%rbp)       # 8-byte Spill
	je	.LBB2_52
# %bb.51:                               # %if.end.22
                                        #   in Loop: Header=BB2_4 Depth=2
	movq	-8656(%rbp), %rax       # 8-byte Reload
	movl	%eax, %ecx
	movq	-8264(%rbp), %rdx       # 8-byte Reload
	movl	%edx, %esi
	movq	-8200(%rbp), %rdi       # 8-byte Reload
	movq	-8208(%rbp), %r8        # 8-byte Reload
	movl	%esi, -8660(%rbp)       # 4-byte Spill
	movq	%r8, %rsi
	movq	-8216(%rbp), %rdx       # 8-byte Reload
	movl	-8660(%rbp), %r9d       # 4-byte Reload
	movl	%ecx, -8664(%rbp)       # 4-byte Spill
	movl	%r9d, %ecx
	movl	-8664(%rbp), %r10d      # 4-byte Reload
	movl	%r10d, %r8d
	callq	distance
	movq	-8656(%rbp), %rdx       # 8-byte Reload
	movl	%edx, %ecx
	movl	%ecx, -4096(%rbp,%rdx,4)
	movl	%eax, -8192(%rbp,%rdx,4)
.LBB2_52:                               # %for.inc14.22
                                        #   in Loop: Header=BB2_4 Depth=2
	movq	-8656(%rbp), %rax       # 8-byte Reload
	addq	$1, %rax
	movq	-8264(%rbp), %rcx       # 8-byte Reload
	cmpq	%rax, %rcx
	movq	%rax, -8672(%rbp)       # 8-byte Spill
	je	.LBB2_54
# %bb.53:                               # %if.end.23
                                        #   in Loop: Header=BB2_4 Depth=2
	movq	-8672(%rbp), %rax       # 8-byte Reload
	movl	%eax, %ecx
	movq	-8264(%rbp), %rdx       # 8-byte Reload
	movl	%edx, %esi
	movq	-8200(%rbp), %rdi       # 8-byte Reload
	movq	-8208(%rbp), %r8        # 8-byte Reload
	movl	%esi, -8676(%rbp)       # 4-byte Spill
	movq	%r8, %rsi
	movq	-8216(%rbp), %rdx       # 8-byte Reload
	movl	-8676(%rbp), %r9d       # 4-byte Reload
	movl	%ecx, -8680(%rbp)       # 4-byte Spill
	movl	%r9d, %ecx
	movl	-8680(%rbp), %r10d      # 4-byte Reload
	movl	%r10d, %r8d
	callq	distance
	movq	-8672(%rbp), %rdx       # 8-byte Reload
	movl	%edx, %ecx
	movl	%ecx, -4096(%rbp,%rdx,4)
	movl	%eax, -8192(%rbp,%rdx,4)
.LBB2_54:                               # %for.inc14.23
                                        #   in Loop: Header=BB2_4 Depth=2
	movq	-8672(%rbp), %rax       # 8-byte Reload
	addq	$1, %rax
	movq	-8264(%rbp), %rcx       # 8-byte Reload
	cmpq	%rax, %rcx
	movq	%rax, -8688(%rbp)       # 8-byte Spill
	je	.LBB2_56
# %bb.55:                               # %if.end.24
                                        #   in Loop: Header=BB2_4 Depth=2
	movq	-8688(%rbp), %rax       # 8-byte Reload
	movl	%eax, %ecx
	movq	-8264(%rbp), %rdx       # 8-byte Reload
	movl	%edx, %esi
	movq	-8200(%rbp), %rdi       # 8-byte Reload
	movq	-8208(%rbp), %r8        # 8-byte Reload
	movl	%esi, -8692(%rbp)       # 4-byte Spill
	movq	%r8, %rsi
	movq	-8216(%rbp), %rdx       # 8-byte Reload
	movl	-8692(%rbp), %r9d       # 4-byte Reload
	movl	%ecx, -8696(%rbp)       # 4-byte Spill
	movl	%r9d, %ecx
	movl	-8696(%rbp), %r10d      # 4-byte Reload
	movl	%r10d, %r8d
	callq	distance
	movq	-8688(%rbp), %rdx       # 8-byte Reload
	movl	%edx, %ecx
	movl	%ecx, -4096(%rbp,%rdx,4)
	movl	%eax, -8192(%rbp,%rdx,4)
.LBB2_56:                               # %for.inc14.24
                                        #   in Loop: Header=BB2_4 Depth=2
	movq	-8688(%rbp), %rax       # 8-byte Reload
	addq	$1, %rax
	movq	-8264(%rbp), %rcx       # 8-byte Reload
	cmpq	%rax, %rcx
	movq	%rax, -8704(%rbp)       # 8-byte Spill
	je	.LBB2_58
# %bb.57:                               # %if.end.25
                                        #   in Loop: Header=BB2_4 Depth=2
	movq	-8704(%rbp), %rax       # 8-byte Reload
	movl	%eax, %ecx
	movq	-8264(%rbp), %rdx       # 8-byte Reload
	movl	%edx, %esi
	movq	-8200(%rbp), %rdi       # 8-byte Reload
	movq	-8208(%rbp), %r8        # 8-byte Reload
	movl	%esi, -8708(%rbp)       # 4-byte Spill
	movq	%r8, %rsi
	movq	-8216(%rbp), %rdx       # 8-byte Reload
	movl	-8708(%rbp), %r9d       # 4-byte Reload
	movl	%ecx, -8712(%rbp)       # 4-byte Spill
	movl	%r9d, %ecx
	movl	-8712(%rbp), %r10d      # 4-byte Reload
	movl	%r10d, %r8d
	callq	distance
	movq	-8704(%rbp), %rdx       # 8-byte Reload
	movl	%edx, %ecx
	movl	%ecx, -4096(%rbp,%rdx,4)
	movl	%eax, -8192(%rbp,%rdx,4)
.LBB2_58:                               # %for.inc14.25
                                        #   in Loop: Header=BB2_4 Depth=2
	movq	-8704(%rbp), %rax       # 8-byte Reload
	addq	$1, %rax
	movq	-8264(%rbp), %rcx       # 8-byte Reload
	cmpq	%rax, %rcx
	movq	%rax, -8720(%rbp)       # 8-byte Spill
	je	.LBB2_60
# %bb.59:                               # %if.end.26
                                        #   in Loop: Header=BB2_4 Depth=2
	movq	-8720(%rbp), %rax       # 8-byte Reload
	movl	%eax, %ecx
	movq	-8264(%rbp), %rdx       # 8-byte Reload
	movl	%edx, %esi
	movq	-8200(%rbp), %rdi       # 8-byte Reload
	movq	-8208(%rbp), %r8        # 8-byte Reload
	movl	%esi, -8724(%rbp)       # 4-byte Spill
	movq	%r8, %rsi
	movq	-8216(%rbp), %rdx       # 8-byte Reload
	movl	-8724(%rbp), %r9d       # 4-byte Reload
	movl	%ecx, -8728(%rbp)       # 4-byte Spill
	movl	%r9d, %ecx
	movl	-8728(%rbp), %r10d      # 4-byte Reload
	movl	%r10d, %r8d
	callq	distance
	movq	-8720(%rbp), %rdx       # 8-byte Reload
	movl	%edx, %ecx
	movl	%ecx, -4096(%rbp,%rdx,4)
	movl	%eax, -8192(%rbp,%rdx,4)
.LBB2_60:                               # %for.inc14.26
                                        #   in Loop: Header=BB2_4 Depth=2
	movq	-8720(%rbp), %rax       # 8-byte Reload
	addq	$1, %rax
	movq	-8264(%rbp), %rcx       # 8-byte Reload
	cmpq	%rax, %rcx
	movq	%rax, -8736(%rbp)       # 8-byte Spill
	je	.LBB2_62
# %bb.61:                               # %if.end.27
                                        #   in Loop: Header=BB2_4 Depth=2
	movq	-8736(%rbp), %rax       # 8-byte Reload
	movl	%eax, %ecx
	movq	-8264(%rbp), %rdx       # 8-byte Reload
	movl	%edx, %esi
	movq	-8200(%rbp), %rdi       # 8-byte Reload
	movq	-8208(%rbp), %r8        # 8-byte Reload
	movl	%esi, -8740(%rbp)       # 4-byte Spill
	movq	%r8, %rsi
	movq	-8216(%rbp), %rdx       # 8-byte Reload
	movl	-8740(%rbp), %r9d       # 4-byte Reload
	movl	%ecx, -8744(%rbp)       # 4-byte Spill
	movl	%r9d, %ecx
	movl	-8744(%rbp), %r10d      # 4-byte Reload
	movl	%r10d, %r8d
	callq	distance
	movq	-8736(%rbp), %rdx       # 8-byte Reload
	movl	%edx, %ecx
	movl	%ecx, -4096(%rbp,%rdx,4)
	movl	%eax, -8192(%rbp,%rdx,4)
.LBB2_62:                               # %for.inc14.27
                                        #   in Loop: Header=BB2_4 Depth=2
	movq	-8736(%rbp), %rax       # 8-byte Reload
	addq	$1, %rax
	movq	-8264(%rbp), %rcx       # 8-byte Reload
	cmpq	%rax, %rcx
	movq	%rax, -8752(%rbp)       # 8-byte Spill
	je	.LBB2_64
# %bb.63:                               # %if.end.28
                                        #   in Loop: Header=BB2_4 Depth=2
	movq	-8752(%rbp), %rax       # 8-byte Reload
	movl	%eax, %ecx
	movq	-8264(%rbp), %rdx       # 8-byte Reload
	movl	%edx, %esi
	movq	-8200(%rbp), %rdi       # 8-byte Reload
	movq	-8208(%rbp), %r8        # 8-byte Reload
	movl	%esi, -8756(%rbp)       # 4-byte Spill
	movq	%r8, %rsi
	movq	-8216(%rbp), %rdx       # 8-byte Reload
	movl	-8756(%rbp), %r9d       # 4-byte Reload
	movl	%ecx, -8760(%rbp)       # 4-byte Spill
	movl	%r9d, %ecx
	movl	-8760(%rbp), %r10d      # 4-byte Reload
	movl	%r10d, %r8d
	callq	distance
	movq	-8752(%rbp), %rdx       # 8-byte Reload
	movl	%edx, %ecx
	movl	%ecx, -4096(%rbp,%rdx,4)
	movl	%eax, -8192(%rbp,%rdx,4)
.LBB2_64:                               # %for.inc14.28
                                        #   in Loop: Header=BB2_4 Depth=2
	movq	-8752(%rbp), %rax       # 8-byte Reload
	addq	$1, %rax
	movq	-8264(%rbp), %rcx       # 8-byte Reload
	cmpq	%rax, %rcx
	movq	%rax, -8768(%rbp)       # 8-byte Spill
	je	.LBB2_66
# %bb.65:                               # %if.end.29
                                        #   in Loop: Header=BB2_4 Depth=2
	movq	-8768(%rbp), %rax       # 8-byte Reload
	movl	%eax, %ecx
	movq	-8264(%rbp), %rdx       # 8-byte Reload
	movl	%edx, %esi
	movq	-8200(%rbp), %rdi       # 8-byte Reload
	movq	-8208(%rbp), %r8        # 8-byte Reload
	movl	%esi, -8772(%rbp)       # 4-byte Spill
	movq	%r8, %rsi
	movq	-8216(%rbp), %rdx       # 8-byte Reload
	movl	-8772(%rbp), %r9d       # 4-byte Reload
	movl	%ecx, -8776(%rbp)       # 4-byte Spill
	movl	%r9d, %ecx
	movl	-8776(%rbp), %r10d      # 4-byte Reload
	movl	%r10d, %r8d
	callq	distance
	movq	-8768(%rbp), %rdx       # 8-byte Reload
	movl	%edx, %ecx
	movl	%ecx, -4096(%rbp,%rdx,4)
	movl	%eax, -8192(%rbp,%rdx,4)
.LBB2_66:                               # %for.inc14.29
                                        #   in Loop: Header=BB2_4 Depth=2
	movq	-8768(%rbp), %rax       # 8-byte Reload
	addq	$1, %rax
	movq	-8264(%rbp), %rcx       # 8-byte Reload
	cmpq	%rax, %rcx
	movq	%rax, -8784(%rbp)       # 8-byte Spill
	je	.LBB2_68
# %bb.67:                               # %if.end.30
                                        #   in Loop: Header=BB2_4 Depth=2
	movq	-8784(%rbp), %rax       # 8-byte Reload
	movl	%eax, %ecx
	movq	-8264(%rbp), %rdx       # 8-byte Reload
	movl	%edx, %esi
	movq	-8200(%rbp), %rdi       # 8-byte Reload
	movq	-8208(%rbp), %r8        # 8-byte Reload
	movl	%esi, -8788(%rbp)       # 4-byte Spill
	movq	%r8, %rsi
	movq	-8216(%rbp), %rdx       # 8-byte Reload
	movl	-8788(%rbp), %r9d       # 4-byte Reload
	movl	%ecx, -8792(%rbp)       # 4-byte Spill
	movl	%r9d, %ecx
	movl	-8792(%rbp), %r10d      # 4-byte Reload
	movl	%r10d, %r8d
	callq	distance
	movq	-8784(%rbp), %rdx       # 8-byte Reload
	movl	%edx, %ecx
	movl	%ecx, -4096(%rbp,%rdx,4)
	movl	%eax, -8192(%rbp,%rdx,4)
.LBB2_68:                               # %for.inc14.30
                                        #   in Loop: Header=BB2_4 Depth=2
	movq	-8784(%rbp), %rax       # 8-byte Reload
	addq	$1, %rax
	movq	-8264(%rbp), %rcx       # 8-byte Reload
	cmpq	%rax, %rcx
	movq	%rax, -8800(%rbp)       # 8-byte Spill
	je	.LBB2_70
# %bb.69:                               # %if.end.31
                                        #   in Loop: Header=BB2_4 Depth=2
	movq	-8800(%rbp), %rax       # 8-byte Reload
	movl	%eax, %ecx
	movq	-8264(%rbp), %rdx       # 8-byte Reload
	movl	%edx, %esi
	movq	-8200(%rbp), %rdi       # 8-byte Reload
	movq	-8208(%rbp), %r8        # 8-byte Reload
	movl	%esi, -8804(%rbp)       # 4-byte Spill
	movq	%r8, %rsi
	movq	-8216(%rbp), %rdx       # 8-byte Reload
	movl	-8804(%rbp), %r9d       # 4-byte Reload
	movl	%ecx, -8808(%rbp)       # 4-byte Spill
	movl	%r9d, %ecx
	movl	-8808(%rbp), %r10d      # 4-byte Reload
	movl	%r10d, %r8d
	callq	distance
	movq	-8800(%rbp), %rdx       # 8-byte Reload
	movl	%edx, %ecx
	movl	%ecx, -4096(%rbp,%rdx,4)
	movl	%eax, -8192(%rbp,%rdx,4)
.LBB2_70:                               # %for.inc14.31
                                        #   in Loop: Header=BB2_4 Depth=2
	movq	-8800(%rbp), %rax       # 8-byte Reload
	addq	$1, %rax
	movq	-8264(%rbp), %rcx       # 8-byte Reload
	cmpq	%rax, %rcx
	movq	%rax, -8816(%rbp)       # 8-byte Spill
	je	.LBB2_72
# %bb.71:                               # %if.end.32
                                        #   in Loop: Header=BB2_4 Depth=2
	movq	-8816(%rbp), %rax       # 8-byte Reload
	movl	%eax, %ecx
	movq	-8264(%rbp), %rdx       # 8-byte Reload
	movl	%edx, %esi
	movq	-8200(%rbp), %rdi       # 8-byte Reload
	movq	-8208(%rbp), %r8        # 8-byte Reload
	movl	%esi, -8820(%rbp)       # 4-byte Spill
	movq	%r8, %rsi
	movq	-8216(%rbp), %rdx       # 8-byte Reload
	movl	-8820(%rbp), %r9d       # 4-byte Reload
	movl	%ecx, -8824(%rbp)       # 4-byte Spill
	movl	%r9d, %ecx
	movl	-8824(%rbp), %r10d      # 4-byte Reload
	movl	%r10d, %r8d
	callq	distance
	movq	-8816(%rbp), %rdx       # 8-byte Reload
	movl	%edx, %ecx
	movl	%ecx, -4096(%rbp,%rdx,4)
	movl	%eax, -8192(%rbp,%rdx,4)
.LBB2_72:                               # %for.inc14.32
                                        #   in Loop: Header=BB2_4 Depth=2
	movq	-8816(%rbp), %rax       # 8-byte Reload
	addq	$1, %rax
	movq	-8264(%rbp), %rcx       # 8-byte Reload
	cmpq	%rax, %rcx
	movq	%rax, -8832(%rbp)       # 8-byte Spill
	je	.LBB2_74
# %bb.73:                               # %if.end.33
                                        #   in Loop: Header=BB2_4 Depth=2
	movq	-8832(%rbp), %rax       # 8-byte Reload
	movl	%eax, %ecx
	movq	-8264(%rbp), %rdx       # 8-byte Reload
	movl	%edx, %esi
	movq	-8200(%rbp), %rdi       # 8-byte Reload
	movq	-8208(%rbp), %r8        # 8-byte Reload
	movl	%esi, -8836(%rbp)       # 4-byte Spill
	movq	%r8, %rsi
	movq	-8216(%rbp), %rdx       # 8-byte Reload
	movl	-8836(%rbp), %r9d       # 4-byte Reload
	movl	%ecx, -8840(%rbp)       # 4-byte Spill
	movl	%r9d, %ecx
	movl	-8840(%rbp), %r10d      # 4-byte Reload
	movl	%r10d, %r8d
	callq	distance
	movq	-8832(%rbp), %rdx       # 8-byte Reload
	movl	%edx, %ecx
	movl	%ecx, -4096(%rbp,%rdx,4)
	movl	%eax, -8192(%rbp,%rdx,4)
.LBB2_74:                               # %for.inc14.33
                                        #   in Loop: Header=BB2_4 Depth=2
	movq	-8832(%rbp), %rax       # 8-byte Reload
	addq	$1, %rax
	movq	-8264(%rbp), %rcx       # 8-byte Reload
	cmpq	%rax, %rcx
	movq	%rax, -8848(%rbp)       # 8-byte Spill
	je	.LBB2_76
# %bb.75:                               # %if.end.34
                                        #   in Loop: Header=BB2_4 Depth=2
	movq	-8848(%rbp), %rax       # 8-byte Reload
	movl	%eax, %ecx
	movq	-8264(%rbp), %rdx       # 8-byte Reload
	movl	%edx, %esi
	movq	-8200(%rbp), %rdi       # 8-byte Reload
	movq	-8208(%rbp), %r8        # 8-byte Reload
	movl	%esi, -8852(%rbp)       # 4-byte Spill
	movq	%r8, %rsi
	movq	-8216(%rbp), %rdx       # 8-byte Reload
	movl	-8852(%rbp), %r9d       # 4-byte Reload
	movl	%ecx, -8856(%rbp)       # 4-byte Spill
	movl	%r9d, %ecx
	movl	-8856(%rbp), %r10d      # 4-byte Reload
	movl	%r10d, %r8d
	callq	distance
	movq	-8848(%rbp), %rdx       # 8-byte Reload
	movl	%edx, %ecx
	movl	%ecx, -4096(%rbp,%rdx,4)
	movl	%eax, -8192(%rbp,%rdx,4)
.LBB2_76:                               # %for.inc14.34
                                        #   in Loop: Header=BB2_4 Depth=2
	movq	-8848(%rbp), %rax       # 8-byte Reload
	addq	$1, %rax
	movq	-8264(%rbp), %rcx       # 8-byte Reload
	cmpq	%rax, %rcx
	movq	%rax, -8864(%rbp)       # 8-byte Spill
	je	.LBB2_78
# %bb.77:                               # %if.end.35
                                        #   in Loop: Header=BB2_4 Depth=2
	movq	-8864(%rbp), %rax       # 8-byte Reload
	movl	%eax, %ecx
	movq	-8264(%rbp), %rdx       # 8-byte Reload
	movl	%edx, %esi
	movq	-8200(%rbp), %rdi       # 8-byte Reload
	movq	-8208(%rbp), %r8        # 8-byte Reload
	movl	%esi, -8868(%rbp)       # 4-byte Spill
	movq	%r8, %rsi
	movq	-8216(%rbp), %rdx       # 8-byte Reload
	movl	-8868(%rbp), %r9d       # 4-byte Reload
	movl	%ecx, -8872(%rbp)       # 4-byte Spill
	movl	%r9d, %ecx
	movl	-8872(%rbp), %r10d      # 4-byte Reload
	movl	%r10d, %r8d
	callq	distance
	movq	-8864(%rbp), %rdx       # 8-byte Reload
	movl	%edx, %ecx
	movl	%ecx, -4096(%rbp,%rdx,4)
	movl	%eax, -8192(%rbp,%rdx,4)
.LBB2_78:                               # %for.inc14.35
                                        #   in Loop: Header=BB2_4 Depth=2
	movq	-8864(%rbp), %rax       # 8-byte Reload
	addq	$1, %rax
	movq	-8264(%rbp), %rcx       # 8-byte Reload
	cmpq	%rax, %rcx
	movq	%rax, -8880(%rbp)       # 8-byte Spill
	je	.LBB2_80
# %bb.79:                               # %if.end.36
                                        #   in Loop: Header=BB2_4 Depth=2
	movq	-8880(%rbp), %rax       # 8-byte Reload
	movl	%eax, %ecx
	movq	-8264(%rbp), %rdx       # 8-byte Reload
	movl	%edx, %esi
	movq	-8200(%rbp), %rdi       # 8-byte Reload
	movq	-8208(%rbp), %r8        # 8-byte Reload
	movl	%esi, -8884(%rbp)       # 4-byte Spill
	movq	%r8, %rsi
	movq	-8216(%rbp), %rdx       # 8-byte Reload
	movl	-8884(%rbp), %r9d       # 4-byte Reload
	movl	%ecx, -8888(%rbp)       # 4-byte Spill
	movl	%r9d, %ecx
	movl	-8888(%rbp), %r10d      # 4-byte Reload
	movl	%r10d, %r8d
	callq	distance
	movq	-8880(%rbp), %rdx       # 8-byte Reload
	movl	%edx, %ecx
	movl	%ecx, -4096(%rbp,%rdx,4)
	movl	%eax, -8192(%rbp,%rdx,4)
.LBB2_80:                               # %for.inc14.36
                                        #   in Loop: Header=BB2_4 Depth=2
	movq	-8880(%rbp), %rax       # 8-byte Reload
	addq	$1, %rax
	movq	-8264(%rbp), %rcx       # 8-byte Reload
	cmpq	%rax, %rcx
	movq	%rax, -8896(%rbp)       # 8-byte Spill
	je	.LBB2_82
# %bb.81:                               # %if.end.37
                                        #   in Loop: Header=BB2_4 Depth=2
	movq	-8896(%rbp), %rax       # 8-byte Reload
	movl	%eax, %ecx
	movq	-8264(%rbp), %rdx       # 8-byte Reload
	movl	%edx, %esi
	movq	-8200(%rbp), %rdi       # 8-byte Reload
	movq	-8208(%rbp), %r8        # 8-byte Reload
	movl	%esi, -8900(%rbp)       # 4-byte Spill
	movq	%r8, %rsi
	movq	-8216(%rbp), %rdx       # 8-byte Reload
	movl	-8900(%rbp), %r9d       # 4-byte Reload
	movl	%ecx, -8904(%rbp)       # 4-byte Spill
	movl	%r9d, %ecx
	movl	-8904(%rbp), %r10d      # 4-byte Reload
	movl	%r10d, %r8d
	callq	distance
	movq	-8896(%rbp), %rdx       # 8-byte Reload
	movl	%edx, %ecx
	movl	%ecx, -4096(%rbp,%rdx,4)
	movl	%eax, -8192(%rbp,%rdx,4)
.LBB2_82:                               # %for.inc14.37
                                        #   in Loop: Header=BB2_4 Depth=2
	movq	-8896(%rbp), %rax       # 8-byte Reload
	addq	$1, %rax
	movq	-8264(%rbp), %rcx       # 8-byte Reload
	cmpq	%rax, %rcx
	movq	%rax, -8912(%rbp)       # 8-byte Spill
	je	.LBB2_84
# %bb.83:                               # %if.end.38
                                        #   in Loop: Header=BB2_4 Depth=2
	movq	-8912(%rbp), %rax       # 8-byte Reload
	movl	%eax, %ecx
	movq	-8264(%rbp), %rdx       # 8-byte Reload
	movl	%edx, %esi
	movq	-8200(%rbp), %rdi       # 8-byte Reload
	movq	-8208(%rbp), %r8        # 8-byte Reload
	movl	%esi, -8916(%rbp)       # 4-byte Spill
	movq	%r8, %rsi
	movq	-8216(%rbp), %rdx       # 8-byte Reload
	movl	-8916(%rbp), %r9d       # 4-byte Reload
	movl	%ecx, -8920(%rbp)       # 4-byte Spill
	movl	%r9d, %ecx
	movl	-8920(%rbp), %r10d      # 4-byte Reload
	movl	%r10d, %r8d
	callq	distance
	movq	-8912(%rbp), %rdx       # 8-byte Reload
	movl	%edx, %ecx
	movl	%ecx, -4096(%rbp,%rdx,4)
	movl	%eax, -8192(%rbp,%rdx,4)
.LBB2_84:                               # %for.inc14.38
                                        #   in Loop: Header=BB2_4 Depth=2
	movq	-8912(%rbp), %rax       # 8-byte Reload
	addq	$1, %rax
	movq	-8264(%rbp), %rcx       # 8-byte Reload
	cmpq	%rax, %rcx
	movq	%rax, -8928(%rbp)       # 8-byte Spill
	je	.LBB2_86
# %bb.85:                               # %if.end.39
                                        #   in Loop: Header=BB2_4 Depth=2
	movq	-8928(%rbp), %rax       # 8-byte Reload
	movl	%eax, %ecx
	movq	-8264(%rbp), %rdx       # 8-byte Reload
	movl	%edx, %esi
	movq	-8200(%rbp), %rdi       # 8-byte Reload
	movq	-8208(%rbp), %r8        # 8-byte Reload
	movl	%esi, -8932(%rbp)       # 4-byte Spill
	movq	%r8, %rsi
	movq	-8216(%rbp), %rdx       # 8-byte Reload
	movl	-8932(%rbp), %r9d       # 4-byte Reload
	movl	%ecx, -8936(%rbp)       # 4-byte Spill
	movl	%r9d, %ecx
	movl	-8936(%rbp), %r10d      # 4-byte Reload
	movl	%r10d, %r8d
	callq	distance
	movq	-8928(%rbp), %rdx       # 8-byte Reload
	movl	%edx, %ecx
	movl	%ecx, -4096(%rbp,%rdx,4)
	movl	%eax, -8192(%rbp,%rdx,4)
.LBB2_86:                               # %for.inc14.39
                                        #   in Loop: Header=BB2_4 Depth=2
	movq	-8928(%rbp), %rax       # 8-byte Reload
	addq	$1, %rax
	movq	-8264(%rbp), %rcx       # 8-byte Reload
	cmpq	%rax, %rcx
	movq	%rax, -8944(%rbp)       # 8-byte Spill
	je	.LBB2_88
# %bb.87:                               # %if.end.40
                                        #   in Loop: Header=BB2_4 Depth=2
	movq	-8944(%rbp), %rax       # 8-byte Reload
	movl	%eax, %ecx
	movq	-8264(%rbp), %rdx       # 8-byte Reload
	movl	%edx, %esi
	movq	-8200(%rbp), %rdi       # 8-byte Reload
	movq	-8208(%rbp), %r8        # 8-byte Reload
	movl	%esi, -8948(%rbp)       # 4-byte Spill
	movq	%r8, %rsi
	movq	-8216(%rbp), %rdx       # 8-byte Reload
	movl	-8948(%rbp), %r9d       # 4-byte Reload
	movl	%ecx, -8952(%rbp)       # 4-byte Spill
	movl	%r9d, %ecx
	movl	-8952(%rbp), %r10d      # 4-byte Reload
	movl	%r10d, %r8d
	callq	distance
	movq	-8944(%rbp), %rdx       # 8-byte Reload
	movl	%edx, %ecx
	movl	%ecx, -4096(%rbp,%rdx,4)
	movl	%eax, -8192(%rbp,%rdx,4)
.LBB2_88:                               # %for.inc14.40
                                        #   in Loop: Header=BB2_4 Depth=2
	movq	-8944(%rbp), %rax       # 8-byte Reload
	addq	$1, %rax
	movq	-8264(%rbp), %rcx       # 8-byte Reload
	cmpq	%rax, %rcx
	movq	%rax, -8960(%rbp)       # 8-byte Spill
	je	.LBB2_90
# %bb.89:                               # %if.end.41
                                        #   in Loop: Header=BB2_4 Depth=2
	movq	-8960(%rbp), %rax       # 8-byte Reload
	movl	%eax, %ecx
	movq	-8264(%rbp), %rdx       # 8-byte Reload
	movl	%edx, %esi
	movq	-8200(%rbp), %rdi       # 8-byte Reload
	movq	-8208(%rbp), %r8        # 8-byte Reload
	movl	%esi, -8964(%rbp)       # 4-byte Spill
	movq	%r8, %rsi
	movq	-8216(%rbp), %rdx       # 8-byte Reload
	movl	-8964(%rbp), %r9d       # 4-byte Reload
	movl	%ecx, -8968(%rbp)       # 4-byte Spill
	movl	%r9d, %ecx
	movl	-8968(%rbp), %r10d      # 4-byte Reload
	movl	%r10d, %r8d
	callq	distance
	movq	-8960(%rbp), %rdx       # 8-byte Reload
	movl	%edx, %ecx
	movl	%ecx, -4096(%rbp,%rdx,4)
	movl	%eax, -8192(%rbp,%rdx,4)
.LBB2_90:                               # %for.inc14.41
                                        #   in Loop: Header=BB2_4 Depth=2
	movq	-8960(%rbp), %rax       # 8-byte Reload
	addq	$1, %rax
	movq	-8264(%rbp), %rcx       # 8-byte Reload
	cmpq	%rax, %rcx
	movq	%rax, -8976(%rbp)       # 8-byte Spill
	je	.LBB2_92
# %bb.91:                               # %if.end.42
                                        #   in Loop: Header=BB2_4 Depth=2
	movq	-8976(%rbp), %rax       # 8-byte Reload
	movl	%eax, %ecx
	movq	-8264(%rbp), %rdx       # 8-byte Reload
	movl	%edx, %esi
	movq	-8200(%rbp), %rdi       # 8-byte Reload
	movq	-8208(%rbp), %r8        # 8-byte Reload
	movl	%esi, -8980(%rbp)       # 4-byte Spill
	movq	%r8, %rsi
	movq	-8216(%rbp), %rdx       # 8-byte Reload
	movl	-8980(%rbp), %r9d       # 4-byte Reload
	movl	%ecx, -8984(%rbp)       # 4-byte Spill
	movl	%r9d, %ecx
	movl	-8984(%rbp), %r10d      # 4-byte Reload
	movl	%r10d, %r8d
	callq	distance
	movq	-8976(%rbp), %rdx       # 8-byte Reload
	movl	%edx, %ecx
	movl	%ecx, -4096(%rbp,%rdx,4)
	movl	%eax, -8192(%rbp,%rdx,4)
.LBB2_92:                               # %for.inc14.42
                                        #   in Loop: Header=BB2_4 Depth=2
	movq	-8976(%rbp), %rax       # 8-byte Reload
	addq	$1, %rax
	movq	-8264(%rbp), %rcx       # 8-byte Reload
	cmpq	%rax, %rcx
	movq	%rax, -8992(%rbp)       # 8-byte Spill
	je	.LBB2_94
# %bb.93:                               # %if.end.43
                                        #   in Loop: Header=BB2_4 Depth=2
	movq	-8992(%rbp), %rax       # 8-byte Reload
	movl	%eax, %ecx
	movq	-8264(%rbp), %rdx       # 8-byte Reload
	movl	%edx, %esi
	movq	-8200(%rbp), %rdi       # 8-byte Reload
	movq	-8208(%rbp), %r8        # 8-byte Reload
	movl	%esi, -8996(%rbp)       # 4-byte Spill
	movq	%r8, %rsi
	movq	-8216(%rbp), %rdx       # 8-byte Reload
	movl	-8996(%rbp), %r9d       # 4-byte Reload
	movl	%ecx, -9000(%rbp)       # 4-byte Spill
	movl	%r9d, %ecx
	movl	-9000(%rbp), %r10d      # 4-byte Reload
	movl	%r10d, %r8d
	callq	distance
	movq	-8992(%rbp), %rdx       # 8-byte Reload
	movl	%edx, %ecx
	movl	%ecx, -4096(%rbp,%rdx,4)
	movl	%eax, -8192(%rbp,%rdx,4)
.LBB2_94:                               # %for.inc14.43
                                        #   in Loop: Header=BB2_4 Depth=2
	movq	-8992(%rbp), %rax       # 8-byte Reload
	addq	$1, %rax
	movq	-8264(%rbp), %rcx       # 8-byte Reload
	cmpq	%rax, %rcx
	movq	%rax, -9008(%rbp)       # 8-byte Spill
	je	.LBB2_96
# %bb.95:                               # %if.end.44
                                        #   in Loop: Header=BB2_4 Depth=2
	movq	-9008(%rbp), %rax       # 8-byte Reload
	movl	%eax, %ecx
	movq	-8264(%rbp), %rdx       # 8-byte Reload
	movl	%edx, %esi
	movq	-8200(%rbp), %rdi       # 8-byte Reload
	movq	-8208(%rbp), %r8        # 8-byte Reload
	movl	%esi, -9012(%rbp)       # 4-byte Spill
	movq	%r8, %rsi
	movq	-8216(%rbp), %rdx       # 8-byte Reload
	movl	-9012(%rbp), %r9d       # 4-byte Reload
	movl	%ecx, -9016(%rbp)       # 4-byte Spill
	movl	%r9d, %ecx
	movl	-9016(%rbp), %r10d      # 4-byte Reload
	movl	%r10d, %r8d
	callq	distance
	movq	-9008(%rbp), %rdx       # 8-byte Reload
	movl	%edx, %ecx
	movl	%ecx, -4096(%rbp,%rdx,4)
	movl	%eax, -8192(%rbp,%rdx,4)
.LBB2_96:                               # %for.inc14.44
                                        #   in Loop: Header=BB2_4 Depth=2
	movq	-9008(%rbp), %rax       # 8-byte Reload
	addq	$1, %rax
	movq	-8264(%rbp), %rcx       # 8-byte Reload
	cmpq	%rax, %rcx
	movq	%rax, -9024(%rbp)       # 8-byte Spill
	je	.LBB2_98
# %bb.97:                               # %if.end.45
                                        #   in Loop: Header=BB2_4 Depth=2
	movq	-9024(%rbp), %rax       # 8-byte Reload
	movl	%eax, %ecx
	movq	-8264(%rbp), %rdx       # 8-byte Reload
	movl	%edx, %esi
	movq	-8200(%rbp), %rdi       # 8-byte Reload
	movq	-8208(%rbp), %r8        # 8-byte Reload
	movl	%esi, -9028(%rbp)       # 4-byte Spill
	movq	%r8, %rsi
	movq	-8216(%rbp), %rdx       # 8-byte Reload
	movl	-9028(%rbp), %r9d       # 4-byte Reload
	movl	%ecx, -9032(%rbp)       # 4-byte Spill
	movl	%r9d, %ecx
	movl	-9032(%rbp), %r10d      # 4-byte Reload
	movl	%r10d, %r8d
	callq	distance
	movq	-9024(%rbp), %rdx       # 8-byte Reload
	movl	%edx, %ecx
	movl	%ecx, -4096(%rbp,%rdx,4)
	movl	%eax, -8192(%rbp,%rdx,4)
.LBB2_98:                               # %for.inc14.45
                                        #   in Loop: Header=BB2_4 Depth=2
	movq	-9024(%rbp), %rax       # 8-byte Reload
	addq	$1, %rax
	movq	-8264(%rbp), %rcx       # 8-byte Reload
	cmpq	%rax, %rcx
	movq	%rax, -9040(%rbp)       # 8-byte Spill
	je	.LBB2_100
# %bb.99:                               # %if.end.46
                                        #   in Loop: Header=BB2_4 Depth=2
	movq	-9040(%rbp), %rax       # 8-byte Reload
	movl	%eax, %ecx
	movq	-8264(%rbp), %rdx       # 8-byte Reload
	movl	%edx, %esi
	movq	-8200(%rbp), %rdi       # 8-byte Reload
	movq	-8208(%rbp), %r8        # 8-byte Reload
	movl	%esi, -9044(%rbp)       # 4-byte Spill
	movq	%r8, %rsi
	movq	-8216(%rbp), %rdx       # 8-byte Reload
	movl	-9044(%rbp), %r9d       # 4-byte Reload
	movl	%ecx, -9048(%rbp)       # 4-byte Spill
	movl	%r9d, %ecx
	movl	-9048(%rbp), %r10d      # 4-byte Reload
	movl	%r10d, %r8d
	callq	distance
	movq	-9040(%rbp), %rdx       # 8-byte Reload
	movl	%edx, %ecx
	movl	%ecx, -4096(%rbp,%rdx,4)
	movl	%eax, -8192(%rbp,%rdx,4)
.LBB2_100:                              # %for.inc14.46
                                        #   in Loop: Header=BB2_4 Depth=2
	movq	-9040(%rbp), %rax       # 8-byte Reload
	addq	$1, %rax
	movq	-8264(%rbp), %rcx       # 8-byte Reload
	cmpq	%rax, %rcx
	movq	%rax, -9056(%rbp)       # 8-byte Spill
	je	.LBB2_102
# %bb.101:                              # %if.end.47
                                        #   in Loop: Header=BB2_4 Depth=2
	movq	-9056(%rbp), %rax       # 8-byte Reload
	movl	%eax, %ecx
	movq	-8264(%rbp), %rdx       # 8-byte Reload
	movl	%edx, %esi
	movq	-8200(%rbp), %rdi       # 8-byte Reload
	movq	-8208(%rbp), %r8        # 8-byte Reload
	movl	%esi, -9060(%rbp)       # 4-byte Spill
	movq	%r8, %rsi
	movq	-8216(%rbp), %rdx       # 8-byte Reload
	movl	-9060(%rbp), %r9d       # 4-byte Reload
	movl	%ecx, -9064(%rbp)       # 4-byte Spill
	movl	%r9d, %ecx
	movl	-9064(%rbp), %r10d      # 4-byte Reload
	movl	%r10d, %r8d
	callq	distance
	movq	-9056(%rbp), %rdx       # 8-byte Reload
	movl	%edx, %ecx
	movl	%ecx, -4096(%rbp,%rdx,4)
	movl	%eax, -8192(%rbp,%rdx,4)
.LBB2_102:                              # %for.inc14.47
                                        #   in Loop: Header=BB2_4 Depth=2
	movq	-9056(%rbp), %rax       # 8-byte Reload
	addq	$1, %rax
	movq	-8264(%rbp), %rcx       # 8-byte Reload
	cmpq	%rax, %rcx
	movq	%rax, -9072(%rbp)       # 8-byte Spill
	je	.LBB2_104
# %bb.103:                              # %if.end.48
                                        #   in Loop: Header=BB2_4 Depth=2
	movq	-9072(%rbp), %rax       # 8-byte Reload
	movl	%eax, %ecx
	movq	-8264(%rbp), %rdx       # 8-byte Reload
	movl	%edx, %esi
	movq	-8200(%rbp), %rdi       # 8-byte Reload
	movq	-8208(%rbp), %r8        # 8-byte Reload
	movl	%esi, -9076(%rbp)       # 4-byte Spill
	movq	%r8, %rsi
	movq	-8216(%rbp), %rdx       # 8-byte Reload
	movl	-9076(%rbp), %r9d       # 4-byte Reload
	movl	%ecx, -9080(%rbp)       # 4-byte Spill
	movl	%r9d, %ecx
	movl	-9080(%rbp), %r10d      # 4-byte Reload
	movl	%r10d, %r8d
	callq	distance
	movq	-9072(%rbp), %rdx       # 8-byte Reload
	movl	%edx, %ecx
	movl	%ecx, -4096(%rbp,%rdx,4)
	movl	%eax, -8192(%rbp,%rdx,4)
.LBB2_104:                              # %for.inc14.48
                                        #   in Loop: Header=BB2_4 Depth=2
	movq	-9072(%rbp), %rax       # 8-byte Reload
	addq	$1, %rax
	movq	-8264(%rbp), %rcx       # 8-byte Reload
	cmpq	%rax, %rcx
	movq	%rax, -9088(%rbp)       # 8-byte Spill
	je	.LBB2_106
# %bb.105:                              # %if.end.49
                                        #   in Loop: Header=BB2_4 Depth=2
	movq	-9088(%rbp), %rax       # 8-byte Reload
	movl	%eax, %ecx
	movq	-8264(%rbp), %rdx       # 8-byte Reload
	movl	%edx, %esi
	movq	-8200(%rbp), %rdi       # 8-byte Reload
	movq	-8208(%rbp), %r8        # 8-byte Reload
	movl	%esi, -9092(%rbp)       # 4-byte Spill
	movq	%r8, %rsi
	movq	-8216(%rbp), %rdx       # 8-byte Reload
	movl	-9092(%rbp), %r9d       # 4-byte Reload
	movl	%ecx, -9096(%rbp)       # 4-byte Spill
	movl	%r9d, %ecx
	movl	-9096(%rbp), %r10d      # 4-byte Reload
	movl	%r10d, %r8d
	callq	distance
	movq	-9088(%rbp), %rdx       # 8-byte Reload
	movl	%edx, %ecx
	movl	%ecx, -4096(%rbp,%rdx,4)
	movl	%eax, -8192(%rbp,%rdx,4)
.LBB2_106:                              # %for.inc14.49
                                        #   in Loop: Header=BB2_4 Depth=2
	movq	-9088(%rbp), %rax       # 8-byte Reload
	addq	$1, %rax
	movq	-8264(%rbp), %rcx       # 8-byte Reload
	cmpq	%rax, %rcx
	movq	%rax, -9104(%rbp)       # 8-byte Spill
	je	.LBB2_108
# %bb.107:                              # %if.end.50
                                        #   in Loop: Header=BB2_4 Depth=2
	movq	-9104(%rbp), %rax       # 8-byte Reload
	movl	%eax, %ecx
	movq	-8264(%rbp), %rdx       # 8-byte Reload
	movl	%edx, %esi
	movq	-8200(%rbp), %rdi       # 8-byte Reload
	movq	-8208(%rbp), %r8        # 8-byte Reload
	movl	%esi, -9108(%rbp)       # 4-byte Spill
	movq	%r8, %rsi
	movq	-8216(%rbp), %rdx       # 8-byte Reload
	movl	-9108(%rbp), %r9d       # 4-byte Reload
	movl	%ecx, -9112(%rbp)       # 4-byte Spill
	movl	%r9d, %ecx
	movl	-9112(%rbp), %r10d      # 4-byte Reload
	movl	%r10d, %r8d
	callq	distance
	movq	-9104(%rbp), %rdx       # 8-byte Reload
	movl	%edx, %ecx
	movl	%ecx, -4096(%rbp,%rdx,4)
	movl	%eax, -8192(%rbp,%rdx,4)
.LBB2_108:                              # %for.inc14.50
                                        #   in Loop: Header=BB2_4 Depth=2
	movq	-9104(%rbp), %rax       # 8-byte Reload
	addq	$1, %rax
	movq	-8264(%rbp), %rcx       # 8-byte Reload
	cmpq	%rax, %rcx
	movq	%rax, -9120(%rbp)       # 8-byte Spill
	je	.LBB2_110
# %bb.109:                              # %if.end.51
                                        #   in Loop: Header=BB2_4 Depth=2
	movq	-9120(%rbp), %rax       # 8-byte Reload
	movl	%eax, %ecx
	movq	-8264(%rbp), %rdx       # 8-byte Reload
	movl	%edx, %esi
	movq	-8200(%rbp), %rdi       # 8-byte Reload
	movq	-8208(%rbp), %r8        # 8-byte Reload
	movl	%esi, -9124(%rbp)       # 4-byte Spill
	movq	%r8, %rsi
	movq	-8216(%rbp), %rdx       # 8-byte Reload
	movl	-9124(%rbp), %r9d       # 4-byte Reload
	movl	%ecx, -9128(%rbp)       # 4-byte Spill
	movl	%r9d, %ecx
	movl	-9128(%rbp), %r10d      # 4-byte Reload
	movl	%r10d, %r8d
	callq	distance
	movq	-9120(%rbp), %rdx       # 8-byte Reload
	movl	%edx, %ecx
	movl	%ecx, -4096(%rbp,%rdx,4)
	movl	%eax, -8192(%rbp,%rdx,4)
.LBB2_110:                              # %for.inc14.51
                                        #   in Loop: Header=BB2_4 Depth=2
	movq	-9120(%rbp), %rax       # 8-byte Reload
	addq	$1, %rax
	movq	-8264(%rbp), %rcx       # 8-byte Reload
	cmpq	%rax, %rcx
	movq	%rax, -9136(%rbp)       # 8-byte Spill
	je	.LBB2_112
# %bb.111:                              # %if.end.52
                                        #   in Loop: Header=BB2_4 Depth=2
	movq	-9136(%rbp), %rax       # 8-byte Reload
	movl	%eax, %ecx
	movq	-8264(%rbp), %rdx       # 8-byte Reload
	movl	%edx, %esi
	movq	-8200(%rbp), %rdi       # 8-byte Reload
	movq	-8208(%rbp), %r8        # 8-byte Reload
	movl	%esi, -9140(%rbp)       # 4-byte Spill
	movq	%r8, %rsi
	movq	-8216(%rbp), %rdx       # 8-byte Reload
	movl	-9140(%rbp), %r9d       # 4-byte Reload
	movl	%ecx, -9144(%rbp)       # 4-byte Spill
	movl	%r9d, %ecx
	movl	-9144(%rbp), %r10d      # 4-byte Reload
	movl	%r10d, %r8d
	callq	distance
	movq	-9136(%rbp), %rdx       # 8-byte Reload
	movl	%edx, %ecx
	movl	%ecx, -4096(%rbp,%rdx,4)
	movl	%eax, -8192(%rbp,%rdx,4)
.LBB2_112:                              # %for.inc14.52
                                        #   in Loop: Header=BB2_4 Depth=2
	movq	-9136(%rbp), %rax       # 8-byte Reload
	addq	$1, %rax
	movq	-8264(%rbp), %rcx       # 8-byte Reload
	cmpq	%rax, %rcx
	movq	%rax, -9152(%rbp)       # 8-byte Spill
	je	.LBB2_114
# %bb.113:                              # %if.end.53
                                        #   in Loop: Header=BB2_4 Depth=2
	movq	-9152(%rbp), %rax       # 8-byte Reload
	movl	%eax, %ecx
	movq	-8264(%rbp), %rdx       # 8-byte Reload
	movl	%edx, %esi
	movq	-8200(%rbp), %rdi       # 8-byte Reload
	movq	-8208(%rbp), %r8        # 8-byte Reload
	movl	%esi, -9156(%rbp)       # 4-byte Spill
	movq	%r8, %rsi
	movq	-8216(%rbp), %rdx       # 8-byte Reload
	movl	-9156(%rbp), %r9d       # 4-byte Reload
	movl	%ecx, -9160(%rbp)       # 4-byte Spill
	movl	%r9d, %ecx
	movl	-9160(%rbp), %r10d      # 4-byte Reload
	movl	%r10d, %r8d
	callq	distance
	movq	-9152(%rbp), %rdx       # 8-byte Reload
	movl	%edx, %ecx
	movl	%ecx, -4096(%rbp,%rdx,4)
	movl	%eax, -8192(%rbp,%rdx,4)
.LBB2_114:                              # %for.inc14.53
                                        #   in Loop: Header=BB2_4 Depth=2
	movq	-9152(%rbp), %rax       # 8-byte Reload
	addq	$1, %rax
	movq	-8264(%rbp), %rcx       # 8-byte Reload
	cmpq	%rax, %rcx
	movq	%rax, -9168(%rbp)       # 8-byte Spill
	je	.LBB2_116
# %bb.115:                              # %if.end.54
                                        #   in Loop: Header=BB2_4 Depth=2
	movq	-9168(%rbp), %rax       # 8-byte Reload
	movl	%eax, %ecx
	movq	-8264(%rbp), %rdx       # 8-byte Reload
	movl	%edx, %esi
	movq	-8200(%rbp), %rdi       # 8-byte Reload
	movq	-8208(%rbp), %r8        # 8-byte Reload
	movl	%esi, -9172(%rbp)       # 4-byte Spill
	movq	%r8, %rsi
	movq	-8216(%rbp), %rdx       # 8-byte Reload
	movl	-9172(%rbp), %r9d       # 4-byte Reload
	movl	%ecx, -9176(%rbp)       # 4-byte Spill
	movl	%r9d, %ecx
	movl	-9176(%rbp), %r10d      # 4-byte Reload
	movl	%r10d, %r8d
	callq	distance
	movq	-9168(%rbp), %rdx       # 8-byte Reload
	movl	%edx, %ecx
	movl	%ecx, -4096(%rbp,%rdx,4)
	movl	%eax, -8192(%rbp,%rdx,4)
.LBB2_116:                              # %for.inc14.54
                                        #   in Loop: Header=BB2_4 Depth=2
	movq	-9168(%rbp), %rax       # 8-byte Reload
	addq	$1, %rax
	movq	-8264(%rbp), %rcx       # 8-byte Reload
	cmpq	%rax, %rcx
	movq	%rax, -9184(%rbp)       # 8-byte Spill
	je	.LBB2_118
# %bb.117:                              # %if.end.55
                                        #   in Loop: Header=BB2_4 Depth=2
	movq	-9184(%rbp), %rax       # 8-byte Reload
	movl	%eax, %ecx
	movq	-8264(%rbp), %rdx       # 8-byte Reload
	movl	%edx, %esi
	movq	-8200(%rbp), %rdi       # 8-byte Reload
	movq	-8208(%rbp), %r8        # 8-byte Reload
	movl	%esi, -9188(%rbp)       # 4-byte Spill
	movq	%r8, %rsi
	movq	-8216(%rbp), %rdx       # 8-byte Reload
	movl	-9188(%rbp), %r9d       # 4-byte Reload
	movl	%ecx, -9192(%rbp)       # 4-byte Spill
	movl	%r9d, %ecx
	movl	-9192(%rbp), %r10d      # 4-byte Reload
	movl	%r10d, %r8d
	callq	distance
	movq	-9184(%rbp), %rdx       # 8-byte Reload
	movl	%edx, %ecx
	movl	%ecx, -4096(%rbp,%rdx,4)
	movl	%eax, -8192(%rbp,%rdx,4)
.LBB2_118:                              # %for.inc14.55
                                        #   in Loop: Header=BB2_4 Depth=2
	movq	-9184(%rbp), %rax       # 8-byte Reload
	addq	$1, %rax
	movq	-8264(%rbp), %rcx       # 8-byte Reload
	cmpq	%rax, %rcx
	movq	%rax, -9200(%rbp)       # 8-byte Spill
	je	.LBB2_120
# %bb.119:                              # %if.end.56
                                        #   in Loop: Header=BB2_4 Depth=2
	movq	-9200(%rbp), %rax       # 8-byte Reload
	movl	%eax, %ecx
	movq	-8264(%rbp), %rdx       # 8-byte Reload
	movl	%edx, %esi
	movq	-8200(%rbp), %rdi       # 8-byte Reload
	movq	-8208(%rbp), %r8        # 8-byte Reload
	movl	%esi, -9204(%rbp)       # 4-byte Spill
	movq	%r8, %rsi
	movq	-8216(%rbp), %rdx       # 8-byte Reload
	movl	-9204(%rbp), %r9d       # 4-byte Reload
	movl	%ecx, -9208(%rbp)       # 4-byte Spill
	movl	%r9d, %ecx
	movl	-9208(%rbp), %r10d      # 4-byte Reload
	movl	%r10d, %r8d
	callq	distance
	movq	-9200(%rbp), %rdx       # 8-byte Reload
	movl	%edx, %ecx
	movl	%ecx, -4096(%rbp,%rdx,4)
	movl	%eax, -8192(%rbp,%rdx,4)
.LBB2_120:                              # %for.inc14.56
                                        #   in Loop: Header=BB2_4 Depth=2
	movq	-9200(%rbp), %rax       # 8-byte Reload
	addq	$1, %rax
	movq	-8264(%rbp), %rcx       # 8-byte Reload
	cmpq	%rax, %rcx
	movq	%rax, -9216(%rbp)       # 8-byte Spill
	je	.LBB2_122
# %bb.121:                              # %if.end.57
                                        #   in Loop: Header=BB2_4 Depth=2
	movq	-9216(%rbp), %rax       # 8-byte Reload
	movl	%eax, %ecx
	movq	-8264(%rbp), %rdx       # 8-byte Reload
	movl	%edx, %esi
	movq	-8200(%rbp), %rdi       # 8-byte Reload
	movq	-8208(%rbp), %r8        # 8-byte Reload
	movl	%esi, -9220(%rbp)       # 4-byte Spill
	movq	%r8, %rsi
	movq	-8216(%rbp), %rdx       # 8-byte Reload
	movl	-9220(%rbp), %r9d       # 4-byte Reload
	movl	%ecx, -9224(%rbp)       # 4-byte Spill
	movl	%r9d, %ecx
	movl	-9224(%rbp), %r10d      # 4-byte Reload
	movl	%r10d, %r8d
	callq	distance
	movq	-9216(%rbp), %rdx       # 8-byte Reload
	movl	%edx, %ecx
	movl	%ecx, -4096(%rbp,%rdx,4)
	movl	%eax, -8192(%rbp,%rdx,4)
.LBB2_122:                              # %for.inc14.57
                                        #   in Loop: Header=BB2_4 Depth=2
	movq	-9216(%rbp), %rax       # 8-byte Reload
	addq	$1, %rax
	movq	-8264(%rbp), %rcx       # 8-byte Reload
	cmpq	%rax, %rcx
	movq	%rax, -9232(%rbp)       # 8-byte Spill
	je	.LBB2_124
# %bb.123:                              # %if.end.58
                                        #   in Loop: Header=BB2_4 Depth=2
	movq	-9232(%rbp), %rax       # 8-byte Reload
	movl	%eax, %ecx
	movq	-8264(%rbp), %rdx       # 8-byte Reload
	movl	%edx, %esi
	movq	-8200(%rbp), %rdi       # 8-byte Reload
	movq	-8208(%rbp), %r8        # 8-byte Reload
	movl	%esi, -9236(%rbp)       # 4-byte Spill
	movq	%r8, %rsi
	movq	-8216(%rbp), %rdx       # 8-byte Reload
	movl	-9236(%rbp), %r9d       # 4-byte Reload
	movl	%ecx, -9240(%rbp)       # 4-byte Spill
	movl	%r9d, %ecx
	movl	-9240(%rbp), %r10d      # 4-byte Reload
	movl	%r10d, %r8d
	callq	distance
	movq	-9232(%rbp), %rdx       # 8-byte Reload
	movl	%edx, %ecx
	movl	%ecx, -4096(%rbp,%rdx,4)
	movl	%eax, -8192(%rbp,%rdx,4)
.LBB2_124:                              # %for.inc14.58
                                        #   in Loop: Header=BB2_4 Depth=2
	movq	-9232(%rbp), %rax       # 8-byte Reload
	addq	$1, %rax
	movq	-8264(%rbp), %rcx       # 8-byte Reload
	cmpq	%rax, %rcx
	movq	%rax, -9248(%rbp)       # 8-byte Spill
	je	.LBB2_126
# %bb.125:                              # %if.end.59
                                        #   in Loop: Header=BB2_4 Depth=2
	movq	-9248(%rbp), %rax       # 8-byte Reload
	movl	%eax, %ecx
	movq	-8264(%rbp), %rdx       # 8-byte Reload
	movl	%edx, %esi
	movq	-8200(%rbp), %rdi       # 8-byte Reload
	movq	-8208(%rbp), %r8        # 8-byte Reload
	movl	%esi, -9252(%rbp)       # 4-byte Spill
	movq	%r8, %rsi
	movq	-8216(%rbp), %rdx       # 8-byte Reload
	movl	-9252(%rbp), %r9d       # 4-byte Reload
	movl	%ecx, -9256(%rbp)       # 4-byte Spill
	movl	%r9d, %ecx
	movl	-9256(%rbp), %r10d      # 4-byte Reload
	movl	%r10d, %r8d
	callq	distance
	movq	-9248(%rbp), %rdx       # 8-byte Reload
	movl	%edx, %ecx
	movl	%ecx, -4096(%rbp,%rdx,4)
	movl	%eax, -8192(%rbp,%rdx,4)
.LBB2_126:                              # %for.inc14.59
                                        #   in Loop: Header=BB2_4 Depth=2
	movq	-9248(%rbp), %rax       # 8-byte Reload
	addq	$1, %rax
	movq	-8264(%rbp), %rcx       # 8-byte Reload
	cmpq	%rax, %rcx
	movq	%rax, -9264(%rbp)       # 8-byte Spill
	je	.LBB2_128
# %bb.127:                              # %if.end.60
                                        #   in Loop: Header=BB2_4 Depth=2
	movq	-9264(%rbp), %rax       # 8-byte Reload
	movl	%eax, %ecx
	movq	-8264(%rbp), %rdx       # 8-byte Reload
	movl	%edx, %esi
	movq	-8200(%rbp), %rdi       # 8-byte Reload
	movq	-8208(%rbp), %r8        # 8-byte Reload
	movl	%esi, -9268(%rbp)       # 4-byte Spill
	movq	%r8, %rsi
	movq	-8216(%rbp), %rdx       # 8-byte Reload
	movl	-9268(%rbp), %r9d       # 4-byte Reload
	movl	%ecx, -9272(%rbp)       # 4-byte Spill
	movl	%r9d, %ecx
	movl	-9272(%rbp), %r10d      # 4-byte Reload
	movl	%r10d, %r8d
	callq	distance
	movq	-9264(%rbp), %rdx       # 8-byte Reload
	movl	%edx, %ecx
	movl	%ecx, -4096(%rbp,%rdx,4)
	movl	%eax, -8192(%rbp,%rdx,4)
.LBB2_128:                              # %for.inc14.60
                                        #   in Loop: Header=BB2_4 Depth=2
	movq	-9264(%rbp), %rax       # 8-byte Reload
	addq	$1, %rax
	movq	-8264(%rbp), %rcx       # 8-byte Reload
	cmpq	%rax, %rcx
	movq	%rax, -9280(%rbp)       # 8-byte Spill
	je	.LBB2_130
# %bb.129:                              # %if.end.61
                                        #   in Loop: Header=BB2_4 Depth=2
	movq	-9280(%rbp), %rax       # 8-byte Reload
	movl	%eax, %ecx
	movq	-8264(%rbp), %rdx       # 8-byte Reload
	movl	%edx, %esi
	movq	-8200(%rbp), %rdi       # 8-byte Reload
	movq	-8208(%rbp), %r8        # 8-byte Reload
	movl	%esi, -9284(%rbp)       # 4-byte Spill
	movq	%r8, %rsi
	movq	-8216(%rbp), %rdx       # 8-byte Reload
	movl	-9284(%rbp), %r9d       # 4-byte Reload
	movl	%ecx, -9288(%rbp)       # 4-byte Spill
	movl	%r9d, %ecx
	movl	-9288(%rbp), %r10d      # 4-byte Reload
	movl	%r10d, %r8d
	callq	distance
	movq	-9280(%rbp), %rdx       # 8-byte Reload
	movl	%edx, %ecx
	movl	%ecx, -4096(%rbp,%rdx,4)
	movl	%eax, -8192(%rbp,%rdx,4)
.LBB2_130:                              # %for.inc14.61
                                        #   in Loop: Header=BB2_4 Depth=2
	movq	-9280(%rbp), %rax       # 8-byte Reload
	addq	$1, %rax
	movq	-8264(%rbp), %rcx       # 8-byte Reload
	cmpq	%rax, %rcx
	movq	%rax, -9296(%rbp)       # 8-byte Spill
	je	.LBB2_132
# %bb.131:                              # %if.end.62
                                        #   in Loop: Header=BB2_4 Depth=2
	movq	-9296(%rbp), %rax       # 8-byte Reload
	movl	%eax, %ecx
	movq	-8264(%rbp), %rdx       # 8-byte Reload
	movl	%edx, %esi
	movq	-8200(%rbp), %rdi       # 8-byte Reload
	movq	-8208(%rbp), %r8        # 8-byte Reload
	movl	%esi, -9300(%rbp)       # 4-byte Spill
	movq	%r8, %rsi
	movq	-8216(%rbp), %rdx       # 8-byte Reload
	movl	-9300(%rbp), %r9d       # 4-byte Reload
	movl	%ecx, -9304(%rbp)       # 4-byte Spill
	movl	%r9d, %ecx
	movl	-9304(%rbp), %r10d      # 4-byte Reload
	movl	%r10d, %r8d
	callq	distance
	movq	-9296(%rbp), %rdx       # 8-byte Reload
	movl	%edx, %ecx
	movl	%ecx, -4096(%rbp,%rdx,4)
	movl	%eax, -8192(%rbp,%rdx,4)
.LBB2_132:                              # %for.inc14.62
                                        #   in Loop: Header=BB2_4 Depth=2
	movq	-9296(%rbp), %rax       # 8-byte Reload
	addq	$1, %rax
	movq	-8264(%rbp), %rcx       # 8-byte Reload
	cmpq	%rax, %rcx
	movq	%rax, -9312(%rbp)       # 8-byte Spill
	je	.LBB2_134
# %bb.133:                              # %if.end.63
                                        #   in Loop: Header=BB2_4 Depth=2
	movq	-9312(%rbp), %rax       # 8-byte Reload
	movl	%eax, %ecx
	movq	-8264(%rbp), %rdx       # 8-byte Reload
	movl	%edx, %esi
	movq	-8200(%rbp), %rdi       # 8-byte Reload
	movq	-8208(%rbp), %r8        # 8-byte Reload
	movl	%esi, -9316(%rbp)       # 4-byte Spill
	movq	%r8, %rsi
	movq	-8216(%rbp), %rdx       # 8-byte Reload
	movl	-9316(%rbp), %r9d       # 4-byte Reload
	movl	%ecx, -9320(%rbp)       # 4-byte Spill
	movl	%r9d, %ecx
	movl	-9320(%rbp), %r10d      # 4-byte Reload
	movl	%r10d, %r8d
	callq	distance
	movq	-9312(%rbp), %rdx       # 8-byte Reload
	movl	%edx, %ecx
	movl	%ecx, -4096(%rbp,%rdx,4)
	movl	%eax, -8192(%rbp,%rdx,4)
.LBB2_134:                              # %for.inc14.63
                                        #   in Loop: Header=BB2_4 Depth=2
	movq	-9312(%rbp), %rax       # 8-byte Reload
	addq	$1, %rax
	cmpq	$1024, %rax             # imm = 0x400
	movq	%rax, -8280(%rbp)       # 8-byte Spill
	jne	.LBB2_4
	jmp	.LBB2_7
.Lfunc_end2:
	.size	buildNeighborList, .Lfunc_end2-buildNeighborList
	.cfi_endproc
                                        # -- End function
	.globl	populateNeighborList    # -- Begin function populateNeighborList
	.p2align	4, 0x90
	.type	populateNeighborList,@function
populateNeighborList:                   # @populateNeighborList
	.cfi_startproc
# %bb.0:                                # %entry
	pushq	%rbp
	.cfi_def_cfa_offset 16
	.cfi_offset %rbp, -16
	movq	%rsp, %rbp
	.cfi_def_cfa_register %rbp
	xorl	%eax, %eax
	movl	%eax, %r8d
	movq	%rsi, -8(%rbp)          # 8-byte Spill
	movl	%edx, -12(%rbp)         # 4-byte Spill
	movq	%rcx, -24(%rbp)         # 8-byte Spill
	movq	%r8, -32(%rbp)          # 8-byte Spill
	jmp	.LBB3_1
.LBB3_1:                                # %for.body
                                        # =>This Inner Loop Header: Depth=1
	movq	-32(%rbp), %rax         # 8-byte Reload
	movq	-8(%rbp), %rcx          # 8-byte Reload
	movl	(%rcx,%rax,4), %edx
	movl	-12(%rbp), %esi         # 4-byte Reload
	movslq	%esi, %rdi
	shlq	$12, %rdi
	movq	-24(%rbp), %r8          # 8-byte Reload
	addq	%rdi, %r8
	movq	%rax, %rdi
	shlq	$2, %rdi
	addq	%rdi, %r8
	movl	%edx, (%r8)
	movq	%rax, %rdi
	addq	$1, %rdi
	movl	4(%rcx,%rax,4), %edx
	movslq	%esi, %r8
	shlq	$12, %r8
	movq	-24(%rbp), %r9          # 8-byte Reload
	addq	%r8, %r9
	movq	%rdi, %r8
	shlq	$2, %r8
	addq	%r8, %r9
	movl	%edx, (%r9)
	addq	$1, %rdi
	movl	8(%rcx,%rax,4), %edx
	movslq	%esi, %r8
	shlq	$12, %r8
	movq	-24(%rbp), %r9          # 8-byte Reload
	addq	%r8, %r9
	movq	%rdi, %r8
	shlq	$2, %r8
	addq	%r8, %r9
	movl	%edx, (%r9)
	addq	$1, %rdi
	movl	12(%rcx,%rax,4), %edx
	movslq	%esi, %r8
	shlq	$12, %r8
	movq	-24(%rbp), %r9          # 8-byte Reload
	addq	%r8, %r9
	movq	%rdi, %r8
	shlq	$2, %r8
	addq	%r8, %r9
	movl	%edx, (%r9)
	addq	$1, %rdi
	movl	16(%rcx,%rax,4), %edx
	movslq	%esi, %r8
	shlq	$12, %r8
	movq	-24(%rbp), %r9          # 8-byte Reload
	addq	%r8, %r9
	movq	%rdi, %r8
	shlq	$2, %r8
	addq	%r8, %r9
	movl	%edx, (%r9)
	addq	$1, %rdi
	movl	20(%rcx,%rax,4), %edx
	movslq	%esi, %r8
	shlq	$12, %r8
	movq	-24(%rbp), %r9          # 8-byte Reload
	addq	%r8, %r9
	movq	%rdi, %r8
	shlq	$2, %r8
	addq	%r8, %r9
	movl	%edx, (%r9)
	addq	$1, %rdi
	movl	24(%rcx,%rax,4), %edx
	movslq	%esi, %r8
	shlq	$12, %r8
	movq	-24(%rbp), %r9          # 8-byte Reload
	addq	%r8, %r9
	movq	%rdi, %r8
	shlq	$2, %r8
	addq	%r8, %r9
	movl	%edx, (%r9)
	addq	$1, %rdi
	movl	28(%rcx,%rax,4), %edx
	movslq	%esi, %r8
	shlq	$12, %r8
	movq	-24(%rbp), %r9          # 8-byte Reload
	addq	%r8, %r9
	movq	%rdi, %r8
	shlq	$2, %r8
	addq	%r8, %r9
	movl	%edx, (%r9)
	addq	$1, %rdi
	movl	32(%rcx,%rax,4), %edx
	movslq	%esi, %r8
	shlq	$12, %r8
	movq	-24(%rbp), %r9          # 8-byte Reload
	addq	%r8, %r9
	movq	%rdi, %r8
	shlq	$2, %r8
	addq	%r8, %r9
	movl	%edx, (%r9)
	addq	$1, %rdi
	movl	36(%rcx,%rax,4), %edx
	movslq	%esi, %r8
	shlq	$12, %r8
	movq	-24(%rbp), %r9          # 8-byte Reload
	addq	%r8, %r9
	movq	%rdi, %r8
	shlq	$2, %r8
	addq	%r8, %r9
	movl	%edx, (%r9)
	addq	$1, %rdi
	movl	40(%rcx,%rax,4), %edx
	movslq	%esi, %r8
	shlq	$12, %r8
	movq	-24(%rbp), %r9          # 8-byte Reload
	addq	%r8, %r9
	movq	%rdi, %r8
	shlq	$2, %r8
	addq	%r8, %r9
	movl	%edx, (%r9)
	addq	$1, %rdi
	movl	44(%rcx,%rax,4), %edx
	movslq	%esi, %r8
	shlq	$12, %r8
	movq	-24(%rbp), %r9          # 8-byte Reload
	addq	%r8, %r9
	movq	%rdi, %r8
	shlq	$2, %r8
	addq	%r8, %r9
	movl	%edx, (%r9)
	addq	$1, %rdi
	movl	48(%rcx,%rax,4), %edx
	movslq	%esi, %r8
	shlq	$12, %r8
	movq	-24(%rbp), %r9          # 8-byte Reload
	addq	%r8, %r9
	movq	%rdi, %r8
	shlq	$2, %r8
	addq	%r8, %r9
	movl	%edx, (%r9)
	addq	$1, %rdi
	movl	52(%rcx,%rax,4), %edx
	movslq	%esi, %r8
	shlq	$12, %r8
	movq	-24(%rbp), %r9          # 8-byte Reload
	addq	%r8, %r9
	movq	%rdi, %r8
	shlq	$2, %r8
	addq	%r8, %r9
	movl	%edx, (%r9)
	addq	$1, %rdi
	movl	56(%rcx,%rax,4), %edx
	movslq	%esi, %r8
	shlq	$12, %r8
	movq	-24(%rbp), %r9          # 8-byte Reload
	addq	%r8, %r9
	movq	%rdi, %r8
	shlq	$2, %r8
	addq	%r8, %r9
	movl	%edx, (%r9)
	addq	$1, %rdi
	movl	60(%rcx,%rax,4), %edx
	movslq	%esi, %r8
	shlq	$12, %r8
	movq	-24(%rbp), %r9          # 8-byte Reload
	addq	%r8, %r9
	movq	%rdi, %r8
	shlq	$2, %r8
	addq	%r8, %r9
	movl	%edx, (%r9)
	addq	$1, %rdi
	movl	64(%rcx,%rax,4), %edx
	movslq	%esi, %r8
	shlq	$12, %r8
	movq	-24(%rbp), %r9          # 8-byte Reload
	addq	%r8, %r9
	movq	%rdi, %r8
	shlq	$2, %r8
	addq	%r8, %r9
	movl	%edx, (%r9)
	addq	$1, %rdi
	movl	68(%rcx,%rax,4), %edx
	movslq	%esi, %r8
	shlq	$12, %r8
	movq	-24(%rbp), %r9          # 8-byte Reload
	addq	%r8, %r9
	movq	%rdi, %r8
	shlq	$2, %r8
	addq	%r8, %r9
	movl	%edx, (%r9)
	addq	$1, %rdi
	movl	72(%rcx,%rax,4), %edx
	movslq	%esi, %r8
	shlq	$12, %r8
	movq	-24(%rbp), %r9          # 8-byte Reload
	addq	%r8, %r9
	movq	%rdi, %r8
	shlq	$2, %r8
	addq	%r8, %r9
	movl	%edx, (%r9)
	addq	$1, %rdi
	movl	76(%rcx,%rax,4), %edx
	movslq	%esi, %r8
	shlq	$12, %r8
	movq	-24(%rbp), %r9          # 8-byte Reload
	addq	%r8, %r9
	movq	%rdi, %r8
	shlq	$2, %r8
	addq	%r8, %r9
	movl	%edx, (%r9)
	addq	$1, %rdi
	movl	80(%rcx,%rax,4), %edx
	movslq	%esi, %r8
	shlq	$12, %r8
	movq	-24(%rbp), %r9          # 8-byte Reload
	addq	%r8, %r9
	movq	%rdi, %r8
	shlq	$2, %r8
	addq	%r8, %r9
	movl	%edx, (%r9)
	addq	$1, %rdi
	movl	84(%rcx,%rax,4), %edx
	movslq	%esi, %r8
	shlq	$12, %r8
	movq	-24(%rbp), %r9          # 8-byte Reload
	addq	%r8, %r9
	movq	%rdi, %r8
	shlq	$2, %r8
	addq	%r8, %r9
	movl	%edx, (%r9)
	addq	$1, %rdi
	movl	88(%rcx,%rax,4), %edx
	movslq	%esi, %r8
	shlq	$12, %r8
	movq	-24(%rbp), %r9          # 8-byte Reload
	addq	%r8, %r9
	movq	%rdi, %r8
	shlq	$2, %r8
	addq	%r8, %r9
	movl	%edx, (%r9)
	addq	$1, %rdi
	movl	92(%rcx,%rax,4), %edx
	movslq	%esi, %r8
	shlq	$12, %r8
	movq	-24(%rbp), %r9          # 8-byte Reload
	addq	%r8, %r9
	movq	%rdi, %r8
	shlq	$2, %r8
	addq	%r8, %r9
	movl	%edx, (%r9)
	addq	$1, %rdi
	movl	96(%rcx,%rax,4), %edx
	movslq	%esi, %r8
	shlq	$12, %r8
	movq	-24(%rbp), %r9          # 8-byte Reload
	addq	%r8, %r9
	movq	%rdi, %r8
	shlq	$2, %r8
	addq	%r8, %r9
	movl	%edx, (%r9)
	addq	$1, %rdi
	movl	100(%rcx,%rax,4), %edx
	movslq	%esi, %r8
	shlq	$12, %r8
	movq	-24(%rbp), %r9          # 8-byte Reload
	addq	%r8, %r9
	movq	%rdi, %r8
	shlq	$2, %r8
	addq	%r8, %r9
	movl	%edx, (%r9)
	addq	$1, %rdi
	movl	104(%rcx,%rax,4), %edx
	movslq	%esi, %r8
	shlq	$12, %r8
	movq	-24(%rbp), %r9          # 8-byte Reload
	addq	%r8, %r9
	movq	%rdi, %r8
	shlq	$2, %r8
	addq	%r8, %r9
	movl	%edx, (%r9)
	addq	$1, %rdi
	movl	108(%rcx,%rax,4), %edx
	movslq	%esi, %r8
	shlq	$12, %r8
	movq	-24(%rbp), %r9          # 8-byte Reload
	addq	%r8, %r9
	movq	%rdi, %r8
	shlq	$2, %r8
	addq	%r8, %r9
	movl	%edx, (%r9)
	addq	$1, %rdi
	movl	112(%rcx,%rax,4), %edx
	movslq	%esi, %r8
	shlq	$12, %r8
	movq	-24(%rbp), %r9          # 8-byte Reload
	addq	%r8, %r9
	movq	%rdi, %r8
	shlq	$2, %r8
	addq	%r8, %r9
	movl	%edx, (%r9)
	addq	$1, %rdi
	movl	116(%rcx,%rax,4), %edx
	movslq	%esi, %r8
	shlq	$12, %r8
	movq	-24(%rbp), %r9          # 8-byte Reload
	addq	%r8, %r9
	movq	%rdi, %r8
	shlq	$2, %r8
	addq	%r8, %r9
	movl	%edx, (%r9)
	addq	$1, %rdi
	movl	120(%rcx,%rax,4), %edx
	movslq	%esi, %r8
	shlq	$12, %r8
	movq	-24(%rbp), %r9          # 8-byte Reload
	addq	%r8, %r9
	movq	%rdi, %r8
	shlq	$2, %r8
	addq	%r8, %r9
	movl	%edx, (%r9)
	addq	$1, %rdi
	movl	124(%rcx,%rax,4), %edx
	movslq	%esi, %r8
	shlq	$12, %r8
	movq	-24(%rbp), %r9          # 8-byte Reload
	addq	%r8, %r9
	movq	%rdi, %r8
	shlq	$2, %r8
	addq	%r8, %r9
	movl	%edx, (%r9)
	addq	$1, %rdi
	movl	128(%rcx,%rax,4), %edx
	movslq	%esi, %r8
	shlq	$12, %r8
	movq	-24(%rbp), %r9          # 8-byte Reload
	addq	%r8, %r9
	movq	%rdi, %r8
	shlq	$2, %r8
	addq	%r8, %r9
	movl	%edx, (%r9)
	addq	$1, %rdi
	movl	132(%rcx,%rax,4), %edx
	movslq	%esi, %r8
	shlq	$12, %r8
	movq	-24(%rbp), %r9          # 8-byte Reload
	addq	%r8, %r9
	movq	%rdi, %r8
	shlq	$2, %r8
	addq	%r8, %r9
	movl	%edx, (%r9)
	addq	$1, %rdi
	movl	136(%rcx,%rax,4), %edx
	movslq	%esi, %r8
	shlq	$12, %r8
	movq	-24(%rbp), %r9          # 8-byte Reload
	addq	%r8, %r9
	movq	%rdi, %r8
	shlq	$2, %r8
	addq	%r8, %r9
	movl	%edx, (%r9)
	addq	$1, %rdi
	movl	140(%rcx,%rax,4), %edx
	movslq	%esi, %r8
	shlq	$12, %r8
	movq	-24(%rbp), %r9          # 8-byte Reload
	addq	%r8, %r9
	movq	%rdi, %r8
	shlq	$2, %r8
	addq	%r8, %r9
	movl	%edx, (%r9)
	addq	$1, %rdi
	movl	144(%rcx,%rax,4), %edx
	movslq	%esi, %r8
	shlq	$12, %r8
	movq	-24(%rbp), %r9          # 8-byte Reload
	addq	%r8, %r9
	movq	%rdi, %r8
	shlq	$2, %r8
	addq	%r8, %r9
	movl	%edx, (%r9)
	addq	$1, %rdi
	movl	148(%rcx,%rax,4), %edx
	movslq	%esi, %r8
	shlq	$12, %r8
	movq	-24(%rbp), %r9          # 8-byte Reload
	addq	%r8, %r9
	movq	%rdi, %r8
	shlq	$2, %r8
	addq	%r8, %r9
	movl	%edx, (%r9)
	addq	$1, %rdi
	movl	152(%rcx,%rax,4), %edx
	movslq	%esi, %r8
	shlq	$12, %r8
	movq	-24(%rbp), %r9          # 8-byte Reload
	addq	%r8, %r9
	movq	%rdi, %r8
	shlq	$2, %r8
	addq	%r8, %r9
	movl	%edx, (%r9)
	addq	$1, %rdi
	movl	156(%rcx,%rax,4), %edx
	movslq	%esi, %r8
	shlq	$12, %r8
	movq	-24(%rbp), %r9          # 8-byte Reload
	addq	%r8, %r9
	movq	%rdi, %r8
	shlq	$2, %r8
	addq	%r8, %r9
	movl	%edx, (%r9)
	addq	$1, %rdi
	movl	160(%rcx,%rax,4), %edx
	movslq	%esi, %r8
	shlq	$12, %r8
	movq	-24(%rbp), %r9          # 8-byte Reload
	addq	%r8, %r9
	movq	%rdi, %r8
	shlq	$2, %r8
	addq	%r8, %r9
	movl	%edx, (%r9)
	addq	$1, %rdi
	movl	164(%rcx,%rax,4), %edx
	movslq	%esi, %r8
	shlq	$12, %r8
	movq	-24(%rbp), %r9          # 8-byte Reload
	addq	%r8, %r9
	movq	%rdi, %r8
	shlq	$2, %r8
	addq	%r8, %r9
	movl	%edx, (%r9)
	addq	$1, %rdi
	movl	168(%rcx,%rax,4), %edx
	movslq	%esi, %r8
	shlq	$12, %r8
	movq	-24(%rbp), %r9          # 8-byte Reload
	addq	%r8, %r9
	movq	%rdi, %r8
	shlq	$2, %r8
	addq	%r8, %r9
	movl	%edx, (%r9)
	addq	$1, %rdi
	movl	172(%rcx,%rax,4), %edx
	movslq	%esi, %r8
	shlq	$12, %r8
	movq	-24(%rbp), %r9          # 8-byte Reload
	addq	%r8, %r9
	movq	%rdi, %r8
	shlq	$2, %r8
	addq	%r8, %r9
	movl	%edx, (%r9)
	addq	$1, %rdi
	movl	176(%rcx,%rax,4), %edx
	movslq	%esi, %r8
	shlq	$12, %r8
	movq	-24(%rbp), %r9          # 8-byte Reload
	addq	%r8, %r9
	movq	%rdi, %r8
	shlq	$2, %r8
	addq	%r8, %r9
	movl	%edx, (%r9)
	addq	$1, %rdi
	movl	180(%rcx,%rax,4), %edx
	movslq	%esi, %r8
	shlq	$12, %r8
	movq	-24(%rbp), %r9          # 8-byte Reload
	addq	%r8, %r9
	movq	%rdi, %r8
	shlq	$2, %r8
	addq	%r8, %r9
	movl	%edx, (%r9)
	addq	$1, %rdi
	movl	184(%rcx,%rax,4), %edx
	movslq	%esi, %r8
	shlq	$12, %r8
	movq	-24(%rbp), %r9          # 8-byte Reload
	addq	%r8, %r9
	movq	%rdi, %r8
	shlq	$2, %r8
	addq	%r8, %r9
	movl	%edx, (%r9)
	addq	$1, %rdi
	movl	188(%rcx,%rax,4), %edx
	movslq	%esi, %r8
	shlq	$12, %r8
	movq	-24(%rbp), %r9          # 8-byte Reload
	addq	%r8, %r9
	movq	%rdi, %r8
	shlq	$2, %r8
	addq	%r8, %r9
	movl	%edx, (%r9)
	addq	$1, %rdi
	movl	192(%rcx,%rax,4), %edx
	movslq	%esi, %r8
	shlq	$12, %r8
	movq	-24(%rbp), %r9          # 8-byte Reload
	addq	%r8, %r9
	movq	%rdi, %r8
	shlq	$2, %r8
	addq	%r8, %r9
	movl	%edx, (%r9)
	addq	$1, %rdi
	movl	196(%rcx,%rax,4), %edx
	movslq	%esi, %r8
	shlq	$12, %r8
	movq	-24(%rbp), %r9          # 8-byte Reload
	addq	%r8, %r9
	movq	%rdi, %r8
	shlq	$2, %r8
	addq	%r8, %r9
	movl	%edx, (%r9)
	addq	$1, %rdi
	movl	200(%rcx,%rax,4), %edx
	movslq	%esi, %r8
	shlq	$12, %r8
	movq	-24(%rbp), %r9          # 8-byte Reload
	addq	%r8, %r9
	movq	%rdi, %r8
	shlq	$2, %r8
	addq	%r8, %r9
	movl	%edx, (%r9)
	addq	$1, %rdi
	movl	204(%rcx,%rax,4), %edx
	movslq	%esi, %r8
	shlq	$12, %r8
	movq	-24(%rbp), %r9          # 8-byte Reload
	addq	%r8, %r9
	movq	%rdi, %r8
	shlq	$2, %r8
	addq	%r8, %r9
	movl	%edx, (%r9)
	addq	$1, %rdi
	movl	208(%rcx,%rax,4), %edx
	movslq	%esi, %r8
	shlq	$12, %r8
	movq	-24(%rbp), %r9          # 8-byte Reload
	addq	%r8, %r9
	movq	%rdi, %r8
	shlq	$2, %r8
	addq	%r8, %r9
	movl	%edx, (%r9)
	addq	$1, %rdi
	movl	212(%rcx,%rax,4), %edx
	movslq	%esi, %r8
	shlq	$12, %r8
	movq	-24(%rbp), %r9          # 8-byte Reload
	addq	%r8, %r9
	movq	%rdi, %r8
	shlq	$2, %r8
	addq	%r8, %r9
	movl	%edx, (%r9)
	addq	$1, %rdi
	movl	216(%rcx,%rax,4), %edx
	movslq	%esi, %r8
	shlq	$12, %r8
	movq	-24(%rbp), %r9          # 8-byte Reload
	addq	%r8, %r9
	movq	%rdi, %r8
	shlq	$2, %r8
	addq	%r8, %r9
	movl	%edx, (%r9)
	addq	$1, %rdi
	movl	220(%rcx,%rax,4), %edx
	movslq	%esi, %r8
	shlq	$12, %r8
	movq	-24(%rbp), %r9          # 8-byte Reload
	addq	%r8, %r9
	movq	%rdi, %r8
	shlq	$2, %r8
	addq	%r8, %r9
	movl	%edx, (%r9)
	addq	$1, %rdi
	movl	224(%rcx,%rax,4), %edx
	movslq	%esi, %r8
	shlq	$12, %r8
	movq	-24(%rbp), %r9          # 8-byte Reload
	addq	%r8, %r9
	movq	%rdi, %r8
	shlq	$2, %r8
	addq	%r8, %r9
	movl	%edx, (%r9)
	addq	$1, %rdi
	movl	228(%rcx,%rax,4), %edx
	movslq	%esi, %r8
	shlq	$12, %r8
	movq	-24(%rbp), %r9          # 8-byte Reload
	addq	%r8, %r9
	movq	%rdi, %r8
	shlq	$2, %r8
	addq	%r8, %r9
	movl	%edx, (%r9)
	addq	$1, %rdi
	movl	232(%rcx,%rax,4), %edx
	movslq	%esi, %r8
	shlq	$12, %r8
	movq	-24(%rbp), %r9          # 8-byte Reload
	addq	%r8, %r9
	movq	%rdi, %r8
	shlq	$2, %r8
	addq	%r8, %r9
	movl	%edx, (%r9)
	addq	$1, %rdi
	movl	236(%rcx,%rax,4), %edx
	movslq	%esi, %r8
	shlq	$12, %r8
	movq	-24(%rbp), %r9          # 8-byte Reload
	addq	%r8, %r9
	movq	%rdi, %r8
	shlq	$2, %r8
	addq	%r8, %r9
	movl	%edx, (%r9)
	addq	$1, %rdi
	movl	240(%rcx,%rax,4), %edx
	movslq	%esi, %r8
	shlq	$12, %r8
	movq	-24(%rbp), %r9          # 8-byte Reload
	addq	%r8, %r9
	movq	%rdi, %r8
	shlq	$2, %r8
	addq	%r8, %r9
	movl	%edx, (%r9)
	addq	$1, %rdi
	movl	244(%rcx,%rax,4), %edx
	movslq	%esi, %r8
	shlq	$12, %r8
	movq	-24(%rbp), %r9          # 8-byte Reload
	addq	%r8, %r9
	movq	%rdi, %r8
	shlq	$2, %r8
	addq	%r8, %r9
	movl	%edx, (%r9)
	addq	$1, %rdi
	movl	248(%rcx,%rax,4), %edx
	movslq	%esi, %r8
	shlq	$12, %r8
	movq	-24(%rbp), %r9          # 8-byte Reload
	addq	%r8, %r9
	movq	%rdi, %r8
	shlq	$2, %r8
	addq	%r8, %r9
	movl	%edx, (%r9)
	addq	$1, %rdi
	movl	252(%rcx,%rax,4), %edx
	movslq	%esi, %rax
	shlq	$12, %rax
	movq	-24(%rbp), %r8          # 8-byte Reload
	addq	%rax, %r8
	movq	%rdi, %rax
	shlq	$2, %rax
	addq	%rax, %r8
	movl	%edx, (%r8)
	addq	$1, %rdi
	cmpq	$1024, %rdi             # imm = 0x400
	movq	%rdi, -32(%rbp)         # 8-byte Spill
	jne	.LBB3_1
# %bb.2:                                # %for.end
	movl	$1024, %eax             # imm = 0x400
	popq	%rbp
	.cfi_def_cfa %rsp, 8
	retq
.Lfunc_end3:
	.size	populateNeighborList, .Lfunc_end3-populateNeighborList
	.cfi_endproc
                                        # -- End function
	.globl	main                    # -- Begin function main
	.p2align	4, 0x90
	.type	main,@function
main:                                   # @main
	.cfi_startproc
# %bb.0:                                # %entry
	pushq	%rbp
	.cfi_def_cfa_offset 16
	.cfi_offset %rbp, -16
	movq	%rsp, %rbp
	.cfi_def_cfa_register %rbp
	subq	$4224576, %rsp          # imm = 0x407640
	movl	$8650341, %edi          # imm = 0x83FE65
	callq	srand
	xorl	%eax, %eax
	movl	%eax, %ecx
	movq	%rcx, -4222984(%rbp)    # 8-byte Spill
.LBB4_1:                                # %for.body
                                        # =>This Inner Loop Header: Depth=1
	movq	-4222984(%rbp), %rax    # 8-byte Reload
	movq	%rax, -4222992(%rbp)    # 8-byte Spill
	callq	rand
	movq	-4222992(%rbp), %rcx    # 8-byte Reload
	movl	%eax, -4096(%rbp,%rcx,4)
	callq	rand
	movq	-4222992(%rbp), %rcx    # 8-byte Reload
	movl	%eax, -8192(%rbp,%rcx,4)
	callq	rand
	movq	-4222992(%rbp), %rcx    # 8-byte Reload
	movl	%eax, -12288(%rbp,%rcx,4)
	addq	$1, %rcx
	movq	%rcx, -4223000(%rbp)    # 8-byte Spill
	callq	rand
	movq	-4222992(%rbp), %rcx    # 8-byte Reload
	movl	%eax, -4092(%rbp,%rcx,4)
	callq	rand
	movq	-4222992(%rbp), %rcx    # 8-byte Reload
	movl	%eax, -8188(%rbp,%rcx,4)
	callq	rand
	movq	-4222992(%rbp), %rcx    # 8-byte Reload
	movl	%eax, -12284(%rbp,%rcx,4)
	movq	-4223000(%rbp), %rdx    # 8-byte Reload
	addq	$1, %rdx
	movq	%rdx, -4223008(%rbp)    # 8-byte Spill
	callq	rand
	movq	-4222992(%rbp), %rcx    # 8-byte Reload
	movl	%eax, -4088(%rbp,%rcx,4)
	callq	rand
	movq	-4222992(%rbp), %rcx    # 8-byte Reload
	movl	%eax, -8184(%rbp,%rcx,4)
	callq	rand
	movq	-4222992(%rbp), %rcx    # 8-byte Reload
	movl	%eax, -12280(%rbp,%rcx,4)
	movq	-4223008(%rbp), %rdx    # 8-byte Reload
	addq	$1, %rdx
	movq	%rdx, -4223016(%rbp)    # 8-byte Spill
	callq	rand
	movq	-4222992(%rbp), %rcx    # 8-byte Reload
	movl	%eax, -4084(%rbp,%rcx,4)
	callq	rand
	movq	-4222992(%rbp), %rcx    # 8-byte Reload
	movl	%eax, -8180(%rbp,%rcx,4)
	callq	rand
	movq	-4222992(%rbp), %rcx    # 8-byte Reload
	movl	%eax, -12276(%rbp,%rcx,4)
	movq	-4223016(%rbp), %rdx    # 8-byte Reload
	addq	$1, %rdx
	movq	%rdx, -4223024(%rbp)    # 8-byte Spill
	callq	rand
	movq	-4222992(%rbp), %rcx    # 8-byte Reload
	movl	%eax, -4080(%rbp,%rcx,4)
	callq	rand
	movq	-4222992(%rbp), %rcx    # 8-byte Reload
	movl	%eax, -8176(%rbp,%rcx,4)
	callq	rand
	movq	-4222992(%rbp), %rcx    # 8-byte Reload
	movl	%eax, -12272(%rbp,%rcx,4)
	movq	-4223024(%rbp), %rdx    # 8-byte Reload
	addq	$1, %rdx
	movq	%rdx, -4223032(%rbp)    # 8-byte Spill
	callq	rand
	movq	-4222992(%rbp), %rcx    # 8-byte Reload
	movl	%eax, -4076(%rbp,%rcx,4)
	callq	rand
	movq	-4222992(%rbp), %rcx    # 8-byte Reload
	movl	%eax, -8172(%rbp,%rcx,4)
	callq	rand
	movq	-4222992(%rbp), %rcx    # 8-byte Reload
	movl	%eax, -12268(%rbp,%rcx,4)
	movq	-4223032(%rbp), %rdx    # 8-byte Reload
	addq	$1, %rdx
	movq	%rdx, -4223040(%rbp)    # 8-byte Spill
	callq	rand
	movq	-4222992(%rbp), %rcx    # 8-byte Reload
	movl	%eax, -4072(%rbp,%rcx,4)
	callq	rand
	movq	-4222992(%rbp), %rcx    # 8-byte Reload
	movl	%eax, -8168(%rbp,%rcx,4)
	callq	rand
	movq	-4222992(%rbp), %rcx    # 8-byte Reload
	movl	%eax, -12264(%rbp,%rcx,4)
	movq	-4223040(%rbp), %rdx    # 8-byte Reload
	addq	$1, %rdx
	movq	%rdx, -4223048(%rbp)    # 8-byte Spill
	callq	rand
	movq	-4222992(%rbp), %rcx    # 8-byte Reload
	movl	%eax, -4068(%rbp,%rcx,4)
	callq	rand
	movq	-4222992(%rbp), %rcx    # 8-byte Reload
	movl	%eax, -8164(%rbp,%rcx,4)
	callq	rand
	movq	-4222992(%rbp), %rcx    # 8-byte Reload
	movl	%eax, -12260(%rbp,%rcx,4)
	movq	-4223048(%rbp), %rdx    # 8-byte Reload
	addq	$1, %rdx
	movq	%rdx, -4223056(%rbp)    # 8-byte Spill
	callq	rand
	movq	-4222992(%rbp), %rcx    # 8-byte Reload
	movl	%eax, -4064(%rbp,%rcx,4)
	callq	rand
	movq	-4222992(%rbp), %rcx    # 8-byte Reload
	movl	%eax, -8160(%rbp,%rcx,4)
	callq	rand
	movq	-4222992(%rbp), %rcx    # 8-byte Reload
	movl	%eax, -12256(%rbp,%rcx,4)
	movq	-4223056(%rbp), %rdx    # 8-byte Reload
	addq	$1, %rdx
	movq	%rdx, -4223064(%rbp)    # 8-byte Spill
	callq	rand
	movq	-4222992(%rbp), %rcx    # 8-byte Reload
	movl	%eax, -4060(%rbp,%rcx,4)
	callq	rand
	movq	-4222992(%rbp), %rcx    # 8-byte Reload
	movl	%eax, -8156(%rbp,%rcx,4)
	callq	rand
	movq	-4222992(%rbp), %rcx    # 8-byte Reload
	movl	%eax, -12252(%rbp,%rcx,4)
	movq	-4223064(%rbp), %rdx    # 8-byte Reload
	addq	$1, %rdx
	movq	%rdx, -4223072(%rbp)    # 8-byte Spill
	callq	rand
	movq	-4222992(%rbp), %rcx    # 8-byte Reload
	movl	%eax, -4056(%rbp,%rcx,4)
	callq	rand
	movq	-4222992(%rbp), %rcx    # 8-byte Reload
	movl	%eax, -8152(%rbp,%rcx,4)
	callq	rand
	movq	-4222992(%rbp), %rcx    # 8-byte Reload
	movl	%eax, -12248(%rbp,%rcx,4)
	movq	-4223072(%rbp), %rdx    # 8-byte Reload
	addq	$1, %rdx
	movq	%rdx, -4223080(%rbp)    # 8-byte Spill
	callq	rand
	movq	-4222992(%rbp), %rcx    # 8-byte Reload
	movl	%eax, -4052(%rbp,%rcx,4)
	callq	rand
	movq	-4222992(%rbp), %rcx    # 8-byte Reload
	movl	%eax, -8148(%rbp,%rcx,4)
	callq	rand
	movq	-4222992(%rbp), %rcx    # 8-byte Reload
	movl	%eax, -12244(%rbp,%rcx,4)
	movq	-4223080(%rbp), %rdx    # 8-byte Reload
	addq	$1, %rdx
	movq	%rdx, -4223088(%rbp)    # 8-byte Spill
	callq	rand
	movq	-4222992(%rbp), %rcx    # 8-byte Reload
	movl	%eax, -4048(%rbp,%rcx,4)
	callq	rand
	movq	-4222992(%rbp), %rcx    # 8-byte Reload
	movl	%eax, -8144(%rbp,%rcx,4)
	callq	rand
	movq	-4222992(%rbp), %rcx    # 8-byte Reload
	movl	%eax, -12240(%rbp,%rcx,4)
	movq	-4223088(%rbp), %rdx    # 8-byte Reload
	addq	$1, %rdx
	movq	%rdx, -4223096(%rbp)    # 8-byte Spill
	callq	rand
	movq	-4222992(%rbp), %rcx    # 8-byte Reload
	movl	%eax, -4044(%rbp,%rcx,4)
	callq	rand
	movq	-4222992(%rbp), %rcx    # 8-byte Reload
	movl	%eax, -8140(%rbp,%rcx,4)
	callq	rand
	movq	-4222992(%rbp), %rcx    # 8-byte Reload
	movl	%eax, -12236(%rbp,%rcx,4)
	movq	-4223096(%rbp), %rdx    # 8-byte Reload
	addq	$1, %rdx
	movq	%rdx, -4223104(%rbp)    # 8-byte Spill
	callq	rand
	movq	-4222992(%rbp), %rcx    # 8-byte Reload
	movl	%eax, -4040(%rbp,%rcx,4)
	callq	rand
	movq	-4222992(%rbp), %rcx    # 8-byte Reload
	movl	%eax, -8136(%rbp,%rcx,4)
	callq	rand
	movq	-4222992(%rbp), %rcx    # 8-byte Reload
	movl	%eax, -12232(%rbp,%rcx,4)
	movq	-4223104(%rbp), %rdx    # 8-byte Reload
	addq	$1, %rdx
	movq	%rdx, -4223112(%rbp)    # 8-byte Spill
	callq	rand
	movq	-4222992(%rbp), %rcx    # 8-byte Reload
	movl	%eax, -4036(%rbp,%rcx,4)
	callq	rand
	movq	-4222992(%rbp), %rcx    # 8-byte Reload
	movl	%eax, -8132(%rbp,%rcx,4)
	callq	rand
	movq	-4222992(%rbp), %rcx    # 8-byte Reload
	movl	%eax, -12228(%rbp,%rcx,4)
	movq	-4223112(%rbp), %rdx    # 8-byte Reload
	addq	$1, %rdx
	movq	%rdx, -4223120(%rbp)    # 8-byte Spill
	callq	rand
	movq	-4222992(%rbp), %rcx    # 8-byte Reload
	movl	%eax, -4032(%rbp,%rcx,4)
	callq	rand
	movq	-4222992(%rbp), %rcx    # 8-byte Reload
	movl	%eax, -8128(%rbp,%rcx,4)
	callq	rand
	movq	-4222992(%rbp), %rcx    # 8-byte Reload
	movl	%eax, -12224(%rbp,%rcx,4)
	movq	-4223120(%rbp), %rdx    # 8-byte Reload
	addq	$1, %rdx
	movq	%rdx, -4223128(%rbp)    # 8-byte Spill
	callq	rand
	movq	-4222992(%rbp), %rcx    # 8-byte Reload
	movl	%eax, -4028(%rbp,%rcx,4)
	callq	rand
	movq	-4222992(%rbp), %rcx    # 8-byte Reload
	movl	%eax, -8124(%rbp,%rcx,4)
	callq	rand
	movq	-4222992(%rbp), %rcx    # 8-byte Reload
	movl	%eax, -12220(%rbp,%rcx,4)
	movq	-4223128(%rbp), %rdx    # 8-byte Reload
	addq	$1, %rdx
	movq	%rdx, -4223136(%rbp)    # 8-byte Spill
	callq	rand
	movq	-4222992(%rbp), %rcx    # 8-byte Reload
	movl	%eax, -4024(%rbp,%rcx,4)
	callq	rand
	movq	-4222992(%rbp), %rcx    # 8-byte Reload
	movl	%eax, -8120(%rbp,%rcx,4)
	callq	rand
	movq	-4222992(%rbp), %rcx    # 8-byte Reload
	movl	%eax, -12216(%rbp,%rcx,4)
	movq	-4223136(%rbp), %rdx    # 8-byte Reload
	addq	$1, %rdx
	movq	%rdx, -4223144(%rbp)    # 8-byte Spill
	callq	rand
	movq	-4222992(%rbp), %rcx    # 8-byte Reload
	movl	%eax, -4020(%rbp,%rcx,4)
	callq	rand
	movq	-4222992(%rbp), %rcx    # 8-byte Reload
	movl	%eax, -8116(%rbp,%rcx,4)
	callq	rand
	movq	-4222992(%rbp), %rcx    # 8-byte Reload
	movl	%eax, -12212(%rbp,%rcx,4)
	movq	-4223144(%rbp), %rdx    # 8-byte Reload
	addq	$1, %rdx
	movq	%rdx, -4223152(%rbp)    # 8-byte Spill
	callq	rand
	movq	-4222992(%rbp), %rcx    # 8-byte Reload
	movl	%eax, -4016(%rbp,%rcx,4)
	callq	rand
	movq	-4222992(%rbp), %rcx    # 8-byte Reload
	movl	%eax, -8112(%rbp,%rcx,4)
	callq	rand
	movq	-4222992(%rbp), %rcx    # 8-byte Reload
	movl	%eax, -12208(%rbp,%rcx,4)
	movq	-4223152(%rbp), %rdx    # 8-byte Reload
	addq	$1, %rdx
	movq	%rdx, -4223160(%rbp)    # 8-byte Spill
	callq	rand
	movq	-4222992(%rbp), %rcx    # 8-byte Reload
	movl	%eax, -4012(%rbp,%rcx,4)
	callq	rand
	movq	-4222992(%rbp), %rcx    # 8-byte Reload
	movl	%eax, -8108(%rbp,%rcx,4)
	callq	rand
	movq	-4222992(%rbp), %rcx    # 8-byte Reload
	movl	%eax, -12204(%rbp,%rcx,4)
	movq	-4223160(%rbp), %rdx    # 8-byte Reload
	addq	$1, %rdx
	movq	%rdx, -4223168(%rbp)    # 8-byte Spill
	callq	rand
	movq	-4222992(%rbp), %rcx    # 8-byte Reload
	movl	%eax, -4008(%rbp,%rcx,4)
	callq	rand
	movq	-4222992(%rbp), %rcx    # 8-byte Reload
	movl	%eax, -8104(%rbp,%rcx,4)
	callq	rand
	movq	-4222992(%rbp), %rcx    # 8-byte Reload
	movl	%eax, -12200(%rbp,%rcx,4)
	movq	-4223168(%rbp), %rdx    # 8-byte Reload
	addq	$1, %rdx
	movq	%rdx, -4223176(%rbp)    # 8-byte Spill
	callq	rand
	movq	-4222992(%rbp), %rcx    # 8-byte Reload
	movl	%eax, -4004(%rbp,%rcx,4)
	callq	rand
	movq	-4222992(%rbp), %rcx    # 8-byte Reload
	movl	%eax, -8100(%rbp,%rcx,4)
	callq	rand
	movq	-4222992(%rbp), %rcx    # 8-byte Reload
	movl	%eax, -12196(%rbp,%rcx,4)
	movq	-4223176(%rbp), %rdx    # 8-byte Reload
	addq	$1, %rdx
	movq	%rdx, -4223184(%rbp)    # 8-byte Spill
	callq	rand
	movq	-4222992(%rbp), %rcx    # 8-byte Reload
	movl	%eax, -4000(%rbp,%rcx,4)
	callq	rand
	movq	-4222992(%rbp), %rcx    # 8-byte Reload
	movl	%eax, -8096(%rbp,%rcx,4)
	callq	rand
	movq	-4222992(%rbp), %rcx    # 8-byte Reload
	movl	%eax, -12192(%rbp,%rcx,4)
	movq	-4223184(%rbp), %rdx    # 8-byte Reload
	addq	$1, %rdx
	movq	%rdx, -4223192(%rbp)    # 8-byte Spill
	callq	rand
	movq	-4222992(%rbp), %rcx    # 8-byte Reload
	movl	%eax, -3996(%rbp,%rcx,4)
	callq	rand
	movq	-4222992(%rbp), %rcx    # 8-byte Reload
	movl	%eax, -8092(%rbp,%rcx,4)
	callq	rand
	movq	-4222992(%rbp), %rcx    # 8-byte Reload
	movl	%eax, -12188(%rbp,%rcx,4)
	movq	-4223192(%rbp), %rdx    # 8-byte Reload
	addq	$1, %rdx
	movq	%rdx, -4223200(%rbp)    # 8-byte Spill
	callq	rand
	movq	-4222992(%rbp), %rcx    # 8-byte Reload
	movl	%eax, -3992(%rbp,%rcx,4)
	callq	rand
	movq	-4222992(%rbp), %rcx    # 8-byte Reload
	movl	%eax, -8088(%rbp,%rcx,4)
	callq	rand
	movq	-4222992(%rbp), %rcx    # 8-byte Reload
	movl	%eax, -12184(%rbp,%rcx,4)
	movq	-4223200(%rbp), %rdx    # 8-byte Reload
	addq	$1, %rdx
	movq	%rdx, -4223208(%rbp)    # 8-byte Spill
	callq	rand
	movq	-4222992(%rbp), %rcx    # 8-byte Reload
	movl	%eax, -3988(%rbp,%rcx,4)
	callq	rand
	movq	-4222992(%rbp), %rcx    # 8-byte Reload
	movl	%eax, -8084(%rbp,%rcx,4)
	callq	rand
	movq	-4222992(%rbp), %rcx    # 8-byte Reload
	movl	%eax, -12180(%rbp,%rcx,4)
	movq	-4223208(%rbp), %rdx    # 8-byte Reload
	addq	$1, %rdx
	movq	%rdx, -4223216(%rbp)    # 8-byte Spill
	callq	rand
	movq	-4222992(%rbp), %rcx    # 8-byte Reload
	movl	%eax, -3984(%rbp,%rcx,4)
	callq	rand
	movq	-4222992(%rbp), %rcx    # 8-byte Reload
	movl	%eax, -8080(%rbp,%rcx,4)
	callq	rand
	movq	-4222992(%rbp), %rcx    # 8-byte Reload
	movl	%eax, -12176(%rbp,%rcx,4)
	movq	-4223216(%rbp), %rdx    # 8-byte Reload
	addq	$1, %rdx
	movq	%rdx, -4223224(%rbp)    # 8-byte Spill
	callq	rand
	movq	-4222992(%rbp), %rcx    # 8-byte Reload
	movl	%eax, -3980(%rbp,%rcx,4)
	callq	rand
	movq	-4222992(%rbp), %rcx    # 8-byte Reload
	movl	%eax, -8076(%rbp,%rcx,4)
	callq	rand
	movq	-4222992(%rbp), %rcx    # 8-byte Reload
	movl	%eax, -12172(%rbp,%rcx,4)
	movq	-4223224(%rbp), %rdx    # 8-byte Reload
	addq	$1, %rdx
	movq	%rdx, -4223232(%rbp)    # 8-byte Spill
	callq	rand
	movq	-4222992(%rbp), %rcx    # 8-byte Reload
	movl	%eax, -3976(%rbp,%rcx,4)
	callq	rand
	movq	-4222992(%rbp), %rcx    # 8-byte Reload
	movl	%eax, -8072(%rbp,%rcx,4)
	callq	rand
	movq	-4222992(%rbp), %rcx    # 8-byte Reload
	movl	%eax, -12168(%rbp,%rcx,4)
	movq	-4223232(%rbp), %rdx    # 8-byte Reload
	addq	$1, %rdx
	movq	%rdx, -4223240(%rbp)    # 8-byte Spill
	callq	rand
	movq	-4222992(%rbp), %rcx    # 8-byte Reload
	movl	%eax, -3972(%rbp,%rcx,4)
	callq	rand
	movq	-4222992(%rbp), %rcx    # 8-byte Reload
	movl	%eax, -8068(%rbp,%rcx,4)
	callq	rand
	movq	-4222992(%rbp), %rcx    # 8-byte Reload
	movl	%eax, -12164(%rbp,%rcx,4)
	movq	-4223240(%rbp), %rdx    # 8-byte Reload
	addq	$1, %rdx
	movq	%rdx, -4223248(%rbp)    # 8-byte Spill
	callq	rand
	movq	-4222992(%rbp), %rcx    # 8-byte Reload
	movl	%eax, -3968(%rbp,%rcx,4)
	callq	rand
	movq	-4222992(%rbp), %rcx    # 8-byte Reload
	movl	%eax, -8064(%rbp,%rcx,4)
	callq	rand
	movq	-4222992(%rbp), %rcx    # 8-byte Reload
	movl	%eax, -12160(%rbp,%rcx,4)
	movq	-4223248(%rbp), %rdx    # 8-byte Reload
	addq	$1, %rdx
	movq	%rdx, -4223256(%rbp)    # 8-byte Spill
	callq	rand
	movq	-4222992(%rbp), %rcx    # 8-byte Reload
	movl	%eax, -3964(%rbp,%rcx,4)
	callq	rand
	movq	-4222992(%rbp), %rcx    # 8-byte Reload
	movl	%eax, -8060(%rbp,%rcx,4)
	callq	rand
	movq	-4222992(%rbp), %rcx    # 8-byte Reload
	movl	%eax, -12156(%rbp,%rcx,4)
	movq	-4223256(%rbp), %rdx    # 8-byte Reload
	addq	$1, %rdx
	movq	%rdx, -4223264(%rbp)    # 8-byte Spill
	callq	rand
	movq	-4222992(%rbp), %rcx    # 8-byte Reload
	movl	%eax, -3960(%rbp,%rcx,4)
	callq	rand
	movq	-4222992(%rbp), %rcx    # 8-byte Reload
	movl	%eax, -8056(%rbp,%rcx,4)
	callq	rand
	movq	-4222992(%rbp), %rcx    # 8-byte Reload
	movl	%eax, -12152(%rbp,%rcx,4)
	movq	-4223264(%rbp), %rdx    # 8-byte Reload
	addq	$1, %rdx
	movq	%rdx, -4223272(%rbp)    # 8-byte Spill
	callq	rand
	movq	-4222992(%rbp), %rcx    # 8-byte Reload
	movl	%eax, -3956(%rbp,%rcx,4)
	callq	rand
	movq	-4222992(%rbp), %rcx    # 8-byte Reload
	movl	%eax, -8052(%rbp,%rcx,4)
	callq	rand
	movq	-4222992(%rbp), %rcx    # 8-byte Reload
	movl	%eax, -12148(%rbp,%rcx,4)
	movq	-4223272(%rbp), %rdx    # 8-byte Reload
	addq	$1, %rdx
	movq	%rdx, -4223280(%rbp)    # 8-byte Spill
	callq	rand
	movq	-4222992(%rbp), %rcx    # 8-byte Reload
	movl	%eax, -3952(%rbp,%rcx,4)
	callq	rand
	movq	-4222992(%rbp), %rcx    # 8-byte Reload
	movl	%eax, -8048(%rbp,%rcx,4)
	callq	rand
	movq	-4222992(%rbp), %rcx    # 8-byte Reload
	movl	%eax, -12144(%rbp,%rcx,4)
	movq	-4223280(%rbp), %rdx    # 8-byte Reload
	addq	$1, %rdx
	movq	%rdx, -4223288(%rbp)    # 8-byte Spill
	callq	rand
	movq	-4222992(%rbp), %rcx    # 8-byte Reload
	movl	%eax, -3948(%rbp,%rcx,4)
	callq	rand
	movq	-4222992(%rbp), %rcx    # 8-byte Reload
	movl	%eax, -8044(%rbp,%rcx,4)
	callq	rand
	movq	-4222992(%rbp), %rcx    # 8-byte Reload
	movl	%eax, -12140(%rbp,%rcx,4)
	movq	-4223288(%rbp), %rdx    # 8-byte Reload
	addq	$1, %rdx
	movq	%rdx, -4223296(%rbp)    # 8-byte Spill
	callq	rand
	movq	-4222992(%rbp), %rcx    # 8-byte Reload
	movl	%eax, -3944(%rbp,%rcx,4)
	callq	rand
	movq	-4222992(%rbp), %rcx    # 8-byte Reload
	movl	%eax, -8040(%rbp,%rcx,4)
	callq	rand
	movq	-4222992(%rbp), %rcx    # 8-byte Reload
	movl	%eax, -12136(%rbp,%rcx,4)
	movq	-4223296(%rbp), %rdx    # 8-byte Reload
	addq	$1, %rdx
	movq	%rdx, -4223304(%rbp)    # 8-byte Spill
	callq	rand
	movq	-4222992(%rbp), %rcx    # 8-byte Reload
	movl	%eax, -3940(%rbp,%rcx,4)
	callq	rand
	movq	-4222992(%rbp), %rcx    # 8-byte Reload
	movl	%eax, -8036(%rbp,%rcx,4)
	callq	rand
	movq	-4222992(%rbp), %rcx    # 8-byte Reload
	movl	%eax, -12132(%rbp,%rcx,4)
	movq	-4223304(%rbp), %rdx    # 8-byte Reload
	addq	$1, %rdx
	movq	%rdx, -4223312(%rbp)    # 8-byte Spill
	callq	rand
	movq	-4222992(%rbp), %rcx    # 8-byte Reload
	movl	%eax, -3936(%rbp,%rcx,4)
	callq	rand
	movq	-4222992(%rbp), %rcx    # 8-byte Reload
	movl	%eax, -8032(%rbp,%rcx,4)
	callq	rand
	movq	-4222992(%rbp), %rcx    # 8-byte Reload
	movl	%eax, -12128(%rbp,%rcx,4)
	movq	-4223312(%rbp), %rdx    # 8-byte Reload
	addq	$1, %rdx
	movq	%rdx, -4223320(%rbp)    # 8-byte Spill
	callq	rand
	movq	-4222992(%rbp), %rcx    # 8-byte Reload
	movl	%eax, -3932(%rbp,%rcx,4)
	callq	rand
	movq	-4222992(%rbp), %rcx    # 8-byte Reload
	movl	%eax, -8028(%rbp,%rcx,4)
	callq	rand
	movq	-4222992(%rbp), %rcx    # 8-byte Reload
	movl	%eax, -12124(%rbp,%rcx,4)
	movq	-4223320(%rbp), %rdx    # 8-byte Reload
	addq	$1, %rdx
	movq	%rdx, -4223328(%rbp)    # 8-byte Spill
	callq	rand
	movq	-4222992(%rbp), %rcx    # 8-byte Reload
	movl	%eax, -3928(%rbp,%rcx,4)
	callq	rand
	movq	-4222992(%rbp), %rcx    # 8-byte Reload
	movl	%eax, -8024(%rbp,%rcx,4)
	callq	rand
	movq	-4222992(%rbp), %rcx    # 8-byte Reload
	movl	%eax, -12120(%rbp,%rcx,4)
	movq	-4223328(%rbp), %rdx    # 8-byte Reload
	addq	$1, %rdx
	movq	%rdx, -4223336(%rbp)    # 8-byte Spill
	callq	rand
	movq	-4222992(%rbp), %rcx    # 8-byte Reload
	movl	%eax, -3924(%rbp,%rcx,4)
	callq	rand
	movq	-4222992(%rbp), %rcx    # 8-byte Reload
	movl	%eax, -8020(%rbp,%rcx,4)
	callq	rand
	movq	-4222992(%rbp), %rcx    # 8-byte Reload
	movl	%eax, -12116(%rbp,%rcx,4)
	movq	-4223336(%rbp), %rdx    # 8-byte Reload
	addq	$1, %rdx
	movq	%rdx, -4223344(%rbp)    # 8-byte Spill
	callq	rand
	movq	-4222992(%rbp), %rcx    # 8-byte Reload
	movl	%eax, -3920(%rbp,%rcx,4)
	callq	rand
	movq	-4222992(%rbp), %rcx    # 8-byte Reload
	movl	%eax, -8016(%rbp,%rcx,4)
	callq	rand
	movq	-4222992(%rbp), %rcx    # 8-byte Reload
	movl	%eax, -12112(%rbp,%rcx,4)
	movq	-4223344(%rbp), %rdx    # 8-byte Reload
	addq	$1, %rdx
	movq	%rdx, -4223352(%rbp)    # 8-byte Spill
	callq	rand
	movq	-4222992(%rbp), %rcx    # 8-byte Reload
	movl	%eax, -3916(%rbp,%rcx,4)
	callq	rand
	movq	-4222992(%rbp), %rcx    # 8-byte Reload
	movl	%eax, -8012(%rbp,%rcx,4)
	callq	rand
	movq	-4222992(%rbp), %rcx    # 8-byte Reload
	movl	%eax, -12108(%rbp,%rcx,4)
	movq	-4223352(%rbp), %rdx    # 8-byte Reload
	addq	$1, %rdx
	movq	%rdx, -4223360(%rbp)    # 8-byte Spill
	callq	rand
	movq	-4222992(%rbp), %rcx    # 8-byte Reload
	movl	%eax, -3912(%rbp,%rcx,4)
	callq	rand
	movq	-4222992(%rbp), %rcx    # 8-byte Reload
	movl	%eax, -8008(%rbp,%rcx,4)
	callq	rand
	movq	-4222992(%rbp), %rcx    # 8-byte Reload
	movl	%eax, -12104(%rbp,%rcx,4)
	movq	-4223360(%rbp), %rdx    # 8-byte Reload
	addq	$1, %rdx
	movq	%rdx, -4223368(%rbp)    # 8-byte Spill
	callq	rand
	movq	-4222992(%rbp), %rcx    # 8-byte Reload
	movl	%eax, -3908(%rbp,%rcx,4)
	callq	rand
	movq	-4222992(%rbp), %rcx    # 8-byte Reload
	movl	%eax, -8004(%rbp,%rcx,4)
	callq	rand
	movq	-4222992(%rbp), %rcx    # 8-byte Reload
	movl	%eax, -12100(%rbp,%rcx,4)
	movq	-4223368(%rbp), %rdx    # 8-byte Reload
	addq	$1, %rdx
	movq	%rdx, -4223376(%rbp)    # 8-byte Spill
	callq	rand
	movq	-4222992(%rbp), %rcx    # 8-byte Reload
	movl	%eax, -3904(%rbp,%rcx,4)
	callq	rand
	movq	-4222992(%rbp), %rcx    # 8-byte Reload
	movl	%eax, -8000(%rbp,%rcx,4)
	callq	rand
	movq	-4222992(%rbp), %rcx    # 8-byte Reload
	movl	%eax, -12096(%rbp,%rcx,4)
	movq	-4223376(%rbp), %rdx    # 8-byte Reload
	addq	$1, %rdx
	movq	%rdx, -4223384(%rbp)    # 8-byte Spill
	callq	rand
	movq	-4222992(%rbp), %rcx    # 8-byte Reload
	movl	%eax, -3900(%rbp,%rcx,4)
	callq	rand
	movq	-4222992(%rbp), %rcx    # 8-byte Reload
	movl	%eax, -7996(%rbp,%rcx,4)
	callq	rand
	movq	-4222992(%rbp), %rcx    # 8-byte Reload
	movl	%eax, -12092(%rbp,%rcx,4)
	movq	-4223384(%rbp), %rdx    # 8-byte Reload
	addq	$1, %rdx
	movq	%rdx, -4223392(%rbp)    # 8-byte Spill
	callq	rand
	movq	-4222992(%rbp), %rcx    # 8-byte Reload
	movl	%eax, -3896(%rbp,%rcx,4)
	callq	rand
	movq	-4222992(%rbp), %rcx    # 8-byte Reload
	movl	%eax, -7992(%rbp,%rcx,4)
	callq	rand
	movq	-4222992(%rbp), %rcx    # 8-byte Reload
	movl	%eax, -12088(%rbp,%rcx,4)
	movq	-4223392(%rbp), %rdx    # 8-byte Reload
	addq	$1, %rdx
	movq	%rdx, -4223400(%rbp)    # 8-byte Spill
	callq	rand
	movq	-4222992(%rbp), %rcx    # 8-byte Reload
	movl	%eax, -3892(%rbp,%rcx,4)
	callq	rand
	movq	-4222992(%rbp), %rcx    # 8-byte Reload
	movl	%eax, -7988(%rbp,%rcx,4)
	callq	rand
	movq	-4222992(%rbp), %rcx    # 8-byte Reload
	movl	%eax, -12084(%rbp,%rcx,4)
	movq	-4223400(%rbp), %rdx    # 8-byte Reload
	addq	$1, %rdx
	movq	%rdx, -4223408(%rbp)    # 8-byte Spill
	callq	rand
	movq	-4222992(%rbp), %rcx    # 8-byte Reload
	movl	%eax, -3888(%rbp,%rcx,4)
	callq	rand
	movq	-4222992(%rbp), %rcx    # 8-byte Reload
	movl	%eax, -7984(%rbp,%rcx,4)
	callq	rand
	movq	-4222992(%rbp), %rcx    # 8-byte Reload
	movl	%eax, -12080(%rbp,%rcx,4)
	movq	-4223408(%rbp), %rdx    # 8-byte Reload
	addq	$1, %rdx
	movq	%rdx, -4223416(%rbp)    # 8-byte Spill
	callq	rand
	movq	-4222992(%rbp), %rcx    # 8-byte Reload
	movl	%eax, -3884(%rbp,%rcx,4)
	callq	rand
	movq	-4222992(%rbp), %rcx    # 8-byte Reload
	movl	%eax, -7980(%rbp,%rcx,4)
	callq	rand
	movq	-4222992(%rbp), %rcx    # 8-byte Reload
	movl	%eax, -12076(%rbp,%rcx,4)
	movq	-4223416(%rbp), %rdx    # 8-byte Reload
	addq	$1, %rdx
	movq	%rdx, -4223424(%rbp)    # 8-byte Spill
	callq	rand
	movq	-4222992(%rbp), %rcx    # 8-byte Reload
	movl	%eax, -3880(%rbp,%rcx,4)
	callq	rand
	movq	-4222992(%rbp), %rcx    # 8-byte Reload
	movl	%eax, -7976(%rbp,%rcx,4)
	callq	rand
	movq	-4222992(%rbp), %rcx    # 8-byte Reload
	movl	%eax, -12072(%rbp,%rcx,4)
	movq	-4223424(%rbp), %rdx    # 8-byte Reload
	addq	$1, %rdx
	movq	%rdx, -4223432(%rbp)    # 8-byte Spill
	callq	rand
	movq	-4222992(%rbp), %rcx    # 8-byte Reload
	movl	%eax, -3876(%rbp,%rcx,4)
	callq	rand
	movq	-4222992(%rbp), %rcx    # 8-byte Reload
	movl	%eax, -7972(%rbp,%rcx,4)
	callq	rand
	movq	-4222992(%rbp), %rcx    # 8-byte Reload
	movl	%eax, -12068(%rbp,%rcx,4)
	movq	-4223432(%rbp), %rdx    # 8-byte Reload
	addq	$1, %rdx
	movq	%rdx, -4223440(%rbp)    # 8-byte Spill
	callq	rand
	movq	-4222992(%rbp), %rcx    # 8-byte Reload
	movl	%eax, -3872(%rbp,%rcx,4)
	callq	rand
	movq	-4222992(%rbp), %rcx    # 8-byte Reload
	movl	%eax, -7968(%rbp,%rcx,4)
	callq	rand
	movq	-4222992(%rbp), %rcx    # 8-byte Reload
	movl	%eax, -12064(%rbp,%rcx,4)
	movq	-4223440(%rbp), %rdx    # 8-byte Reload
	addq	$1, %rdx
	movq	%rdx, -4223448(%rbp)    # 8-byte Spill
	callq	rand
	movq	-4222992(%rbp), %rcx    # 8-byte Reload
	movl	%eax, -3868(%rbp,%rcx,4)
	callq	rand
	movq	-4222992(%rbp), %rcx    # 8-byte Reload
	movl	%eax, -7964(%rbp,%rcx,4)
	callq	rand
	movq	-4222992(%rbp), %rcx    # 8-byte Reload
	movl	%eax, -12060(%rbp,%rcx,4)
	movq	-4223448(%rbp), %rdx    # 8-byte Reload
	addq	$1, %rdx
	movq	%rdx, -4223456(%rbp)    # 8-byte Spill
	callq	rand
	movq	-4222992(%rbp), %rcx    # 8-byte Reload
	movl	%eax, -3864(%rbp,%rcx,4)
	callq	rand
	movq	-4222992(%rbp), %rcx    # 8-byte Reload
	movl	%eax, -7960(%rbp,%rcx,4)
	callq	rand
	movq	-4222992(%rbp), %rcx    # 8-byte Reload
	movl	%eax, -12056(%rbp,%rcx,4)
	movq	-4223456(%rbp), %rdx    # 8-byte Reload
	addq	$1, %rdx
	movq	%rdx, -4223464(%rbp)    # 8-byte Spill
	callq	rand
	movq	-4222992(%rbp), %rcx    # 8-byte Reload
	movl	%eax, -3860(%rbp,%rcx,4)
	callq	rand
	movq	-4222992(%rbp), %rcx    # 8-byte Reload
	movl	%eax, -7956(%rbp,%rcx,4)
	callq	rand
	movq	-4222992(%rbp), %rcx    # 8-byte Reload
	movl	%eax, -12052(%rbp,%rcx,4)
	movq	-4223464(%rbp), %rdx    # 8-byte Reload
	addq	$1, %rdx
	movq	%rdx, -4223472(%rbp)    # 8-byte Spill
	callq	rand
	movq	-4222992(%rbp), %rcx    # 8-byte Reload
	movl	%eax, -3856(%rbp,%rcx,4)
	callq	rand
	movq	-4222992(%rbp), %rcx    # 8-byte Reload
	movl	%eax, -7952(%rbp,%rcx,4)
	callq	rand
	movq	-4222992(%rbp), %rcx    # 8-byte Reload
	movl	%eax, -12048(%rbp,%rcx,4)
	movq	-4223472(%rbp), %rdx    # 8-byte Reload
	addq	$1, %rdx
	movq	%rdx, -4223480(%rbp)    # 8-byte Spill
	callq	rand
	movq	-4222992(%rbp), %rcx    # 8-byte Reload
	movl	%eax, -3852(%rbp,%rcx,4)
	callq	rand
	movq	-4222992(%rbp), %rcx    # 8-byte Reload
	movl	%eax, -7948(%rbp,%rcx,4)
	callq	rand
	movq	-4222992(%rbp), %rcx    # 8-byte Reload
	movl	%eax, -12044(%rbp,%rcx,4)
	movq	-4223480(%rbp), %rdx    # 8-byte Reload
	addq	$1, %rdx
	movq	%rdx, -4223488(%rbp)    # 8-byte Spill
	callq	rand
	movq	-4222992(%rbp), %rcx    # 8-byte Reload
	movl	%eax, -3848(%rbp,%rcx,4)
	callq	rand
	movq	-4222992(%rbp), %rcx    # 8-byte Reload
	movl	%eax, -7944(%rbp,%rcx,4)
	callq	rand
	movq	-4222992(%rbp), %rcx    # 8-byte Reload
	movl	%eax, -12040(%rbp,%rcx,4)
	movq	-4223488(%rbp), %rdx    # 8-byte Reload
	addq	$1, %rdx
	movq	%rdx, -4223496(%rbp)    # 8-byte Spill
	callq	rand
	movq	-4222992(%rbp), %rcx    # 8-byte Reload
	movl	%eax, -3844(%rbp,%rcx,4)
	callq	rand
	movq	-4222992(%rbp), %rcx    # 8-byte Reload
	movl	%eax, -7940(%rbp,%rcx,4)
	callq	rand
	movq	-4222992(%rbp), %rcx    # 8-byte Reload
	movl	%eax, -12036(%rbp,%rcx,4)
	movq	-4223496(%rbp), %rdx    # 8-byte Reload
	addq	$1, %rdx
	cmpq	$1024, %rdx             # imm = 0x400
	movq	%rdx, -4222984(%rbp)    # 8-byte Spill
	jne	.LBB4_1
# %bb.2:                                # %for.body9.preheader
	xorl	%eax, %eax
	movl	%eax, %ecx
	movq	%rcx, -4223504(%rbp)    # 8-byte Spill
	jmp	.LBB4_3
.LBB4_3:                                # %for.body9
                                        # =>This Loop Header: Depth=1
                                        #     Child Loop BB4_4 Depth 2
	movq	-4223504(%rbp), %rax    # 8-byte Reload
	xorl	%ecx, %ecx
	movl	%ecx, %edx
	movq	%rax, -4223512(%rbp)    # 8-byte Spill
	movq	%rdx, -4223520(%rbp)    # 8-byte Spill
.LBB4_4:                                # %for.body12
                                        #   Parent Loop BB4_3 Depth=1
                                        # =>  This Inner Loop Header: Depth=2
	movq	-4223520(%rbp), %rax    # 8-byte Reload
	movq	-4223512(%rbp), %rcx    # 8-byte Reload
	shlq	$12, %rcx
	leaq	-4218880(%rbp), %rdx
	movq	%rdx, %rsi
	addq	%rcx, %rsi
	movq	%rax, %rcx
	shlq	$2, %rcx
	addq	%rcx, %rsi
	movl	$0, (%rsi)
	addq	$1, %rax
	movq	-4223512(%rbp), %rcx    # 8-byte Reload
	shlq	$12, %rcx
	movq	%rdx, %rsi
	addq	%rcx, %rsi
	movq	%rax, %rcx
	shlq	$2, %rcx
	addq	%rcx, %rsi
	movl	$0, (%rsi)
	addq	$1, %rax
	movq	-4223512(%rbp), %rcx    # 8-byte Reload
	shlq	$12, %rcx
	movq	%rdx, %rsi
	addq	%rcx, %rsi
	movq	%rax, %rcx
	shlq	$2, %rcx
	addq	%rcx, %rsi
	movl	$0, (%rsi)
	addq	$1, %rax
	movq	-4223512(%rbp), %rcx    # 8-byte Reload
	shlq	$12, %rcx
	movq	%rdx, %rsi
	addq	%rcx, %rsi
	movq	%rax, %rcx
	shlq	$2, %rcx
	addq	%rcx, %rsi
	movl	$0, (%rsi)
	addq	$1, %rax
	movq	-4223512(%rbp), %rcx    # 8-byte Reload
	shlq	$12, %rcx
	movq	%rdx, %rsi
	addq	%rcx, %rsi
	movq	%rax, %rcx
	shlq	$2, %rcx
	addq	%rcx, %rsi
	movl	$0, (%rsi)
	addq	$1, %rax
	movq	-4223512(%rbp), %rcx    # 8-byte Reload
	shlq	$12, %rcx
	movq	%rdx, %rsi
	addq	%rcx, %rsi
	movq	%rax, %rcx
	shlq	$2, %rcx
	addq	%rcx, %rsi
	movl	$0, (%rsi)
	addq	$1, %rax
	movq	-4223512(%rbp), %rcx    # 8-byte Reload
	shlq	$12, %rcx
	movq	%rdx, %rsi
	addq	%rcx, %rsi
	movq	%rax, %rcx
	shlq	$2, %rcx
	addq	%rcx, %rsi
	movl	$0, (%rsi)
	addq	$1, %rax
	movq	-4223512(%rbp), %rcx    # 8-byte Reload
	shlq	$12, %rcx
	movq	%rdx, %rsi
	addq	%rcx, %rsi
	movq	%rax, %rcx
	shlq	$2, %rcx
	addq	%rcx, %rsi
	movl	$0, (%rsi)
	addq	$1, %rax
	movq	-4223512(%rbp), %rcx    # 8-byte Reload
	shlq	$12, %rcx
	movq	%rdx, %rsi
	addq	%rcx, %rsi
	movq	%rax, %rcx
	shlq	$2, %rcx
	addq	%rcx, %rsi
	movl	$0, (%rsi)
	addq	$1, %rax
	movq	-4223512(%rbp), %rcx    # 8-byte Reload
	shlq	$12, %rcx
	movq	%rdx, %rsi
	addq	%rcx, %rsi
	movq	%rax, %rcx
	shlq	$2, %rcx
	addq	%rcx, %rsi
	movl	$0, (%rsi)
	addq	$1, %rax
	movq	-4223512(%rbp), %rcx    # 8-byte Reload
	shlq	$12, %rcx
	movq	%rdx, %rsi
	addq	%rcx, %rsi
	movq	%rax, %rcx
	shlq	$2, %rcx
	addq	%rcx, %rsi
	movl	$0, (%rsi)
	addq	$1, %rax
	movq	-4223512(%rbp), %rcx    # 8-byte Reload
	shlq	$12, %rcx
	movq	%rdx, %rsi
	addq	%rcx, %rsi
	movq	%rax, %rcx
	shlq	$2, %rcx
	addq	%rcx, %rsi
	movl	$0, (%rsi)
	addq	$1, %rax
	movq	-4223512(%rbp), %rcx    # 8-byte Reload
	shlq	$12, %rcx
	movq	%rdx, %rsi
	addq	%rcx, %rsi
	movq	%rax, %rcx
	shlq	$2, %rcx
	addq	%rcx, %rsi
	movl	$0, (%rsi)
	addq	$1, %rax
	movq	-4223512(%rbp), %rcx    # 8-byte Reload
	shlq	$12, %rcx
	movq	%rdx, %rsi
	addq	%rcx, %rsi
	movq	%rax, %rcx
	shlq	$2, %rcx
	addq	%rcx, %rsi
	movl	$0, (%rsi)
	addq	$1, %rax
	movq	-4223512(%rbp), %rcx    # 8-byte Reload
	shlq	$12, %rcx
	movq	%rdx, %rsi
	addq	%rcx, %rsi
	movq	%rax, %rcx
	shlq	$2, %rcx
	addq	%rcx, %rsi
	movl	$0, (%rsi)
	addq	$1, %rax
	movq	-4223512(%rbp), %rcx    # 8-byte Reload
	shlq	$12, %rcx
	movq	%rdx, %rsi
	addq	%rcx, %rsi
	movq	%rax, %rcx
	shlq	$2, %rcx
	addq	%rcx, %rsi
	movl	$0, (%rsi)
	addq	$1, %rax
	movq	-4223512(%rbp), %rcx    # 8-byte Reload
	shlq	$12, %rcx
	movq	%rdx, %rsi
	addq	%rcx, %rsi
	movq	%rax, %rcx
	shlq	$2, %rcx
	addq	%rcx, %rsi
	movl	$0, (%rsi)
	addq	$1, %rax
	movq	-4223512(%rbp), %rcx    # 8-byte Reload
	shlq	$12, %rcx
	movq	%rdx, %rsi
	addq	%rcx, %rsi
	movq	%rax, %rcx
	shlq	$2, %rcx
	addq	%rcx, %rsi
	movl	$0, (%rsi)
	addq	$1, %rax
	movq	-4223512(%rbp), %rcx    # 8-byte Reload
	shlq	$12, %rcx
	movq	%rdx, %rsi
	addq	%rcx, %rsi
	movq	%rax, %rcx
	shlq	$2, %rcx
	addq	%rcx, %rsi
	movl	$0, (%rsi)
	addq	$1, %rax
	movq	-4223512(%rbp), %rcx    # 8-byte Reload
	shlq	$12, %rcx
	movq	%rdx, %rsi
	addq	%rcx, %rsi
	movq	%rax, %rcx
	shlq	$2, %rcx
	addq	%rcx, %rsi
	movl	$0, (%rsi)
	addq	$1, %rax
	movq	-4223512(%rbp), %rcx    # 8-byte Reload
	shlq	$12, %rcx
	movq	%rdx, %rsi
	addq	%rcx, %rsi
	movq	%rax, %rcx
	shlq	$2, %rcx
	addq	%rcx, %rsi
	movl	$0, (%rsi)
	addq	$1, %rax
	movq	-4223512(%rbp), %rcx    # 8-byte Reload
	shlq	$12, %rcx
	movq	%rdx, %rsi
	addq	%rcx, %rsi
	movq	%rax, %rcx
	shlq	$2, %rcx
	addq	%rcx, %rsi
	movl	$0, (%rsi)
	addq	$1, %rax
	movq	-4223512(%rbp), %rcx    # 8-byte Reload
	shlq	$12, %rcx
	movq	%rdx, %rsi
	addq	%rcx, %rsi
	movq	%rax, %rcx
	shlq	$2, %rcx
	addq	%rcx, %rsi
	movl	$0, (%rsi)
	addq	$1, %rax
	movq	-4223512(%rbp), %rcx    # 8-byte Reload
	shlq	$12, %rcx
	movq	%rdx, %rsi
	addq	%rcx, %rsi
	movq	%rax, %rcx
	shlq	$2, %rcx
	addq	%rcx, %rsi
	movl	$0, (%rsi)
	addq	$1, %rax
	movq	-4223512(%rbp), %rcx    # 8-byte Reload
	shlq	$12, %rcx
	movq	%rdx, %rsi
	addq	%rcx, %rsi
	movq	%rax, %rcx
	shlq	$2, %rcx
	addq	%rcx, %rsi
	movl	$0, (%rsi)
	addq	$1, %rax
	movq	-4223512(%rbp), %rcx    # 8-byte Reload
	shlq	$12, %rcx
	movq	%rdx, %rsi
	addq	%rcx, %rsi
	movq	%rax, %rcx
	shlq	$2, %rcx
	addq	%rcx, %rsi
	movl	$0, (%rsi)
	addq	$1, %rax
	movq	-4223512(%rbp), %rcx    # 8-byte Reload
	shlq	$12, %rcx
	movq	%rdx, %rsi
	addq	%rcx, %rsi
	movq	%rax, %rcx
	shlq	$2, %rcx
	addq	%rcx, %rsi
	movl	$0, (%rsi)
	addq	$1, %rax
	movq	-4223512(%rbp), %rcx    # 8-byte Reload
	shlq	$12, %rcx
	movq	%rdx, %rsi
	addq	%rcx, %rsi
	movq	%rax, %rcx
	shlq	$2, %rcx
	addq	%rcx, %rsi
	movl	$0, (%rsi)
	addq	$1, %rax
	movq	-4223512(%rbp), %rcx    # 8-byte Reload
	shlq	$12, %rcx
	movq	%rdx, %rsi
	addq	%rcx, %rsi
	movq	%rax, %rcx
	shlq	$2, %rcx
	addq	%rcx, %rsi
	movl	$0, (%rsi)
	addq	$1, %rax
	movq	-4223512(%rbp), %rcx    # 8-byte Reload
	shlq	$12, %rcx
	movq	%rdx, %rsi
	addq	%rcx, %rsi
	movq	%rax, %rcx
	shlq	$2, %rcx
	addq	%rcx, %rsi
	movl	$0, (%rsi)
	addq	$1, %rax
	movq	-4223512(%rbp), %rcx    # 8-byte Reload
	shlq	$12, %rcx
	movq	%rdx, %rsi
	addq	%rcx, %rsi
	movq	%rax, %rcx
	shlq	$2, %rcx
	addq	%rcx, %rsi
	movl	$0, (%rsi)
	addq	$1, %rax
	movq	-4223512(%rbp), %rcx    # 8-byte Reload
	shlq	$12, %rcx
	movq	%rdx, %rsi
	addq	%rcx, %rsi
	movq	%rax, %rcx
	shlq	$2, %rcx
	addq	%rcx, %rsi
	movl	$0, (%rsi)
	addq	$1, %rax
	movq	-4223512(%rbp), %rcx    # 8-byte Reload
	shlq	$12, %rcx
	movq	%rdx, %rsi
	addq	%rcx, %rsi
	movq	%rax, %rcx
	shlq	$2, %rcx
	addq	%rcx, %rsi
	movl	$0, (%rsi)
	addq	$1, %rax
	movq	-4223512(%rbp), %rcx    # 8-byte Reload
	shlq	$12, %rcx
	movq	%rdx, %rsi
	addq	%rcx, %rsi
	movq	%rax, %rcx
	shlq	$2, %rcx
	addq	%rcx, %rsi
	movl	$0, (%rsi)
	addq	$1, %rax
	movq	-4223512(%rbp), %rcx    # 8-byte Reload
	shlq	$12, %rcx
	movq	%rdx, %rsi
	addq	%rcx, %rsi
	movq	%rax, %rcx
	shlq	$2, %rcx
	addq	%rcx, %rsi
	movl	$0, (%rsi)
	addq	$1, %rax
	movq	-4223512(%rbp), %rcx    # 8-byte Reload
	shlq	$12, %rcx
	movq	%rdx, %rsi
	addq	%rcx, %rsi
	movq	%rax, %rcx
	shlq	$2, %rcx
	addq	%rcx, %rsi
	movl	$0, (%rsi)
	addq	$1, %rax
	movq	-4223512(%rbp), %rcx    # 8-byte Reload
	shlq	$12, %rcx
	movq	%rdx, %rsi
	addq	%rcx, %rsi
	movq	%rax, %rcx
	shlq	$2, %rcx
	addq	%rcx, %rsi
	movl	$0, (%rsi)
	addq	$1, %rax
	movq	-4223512(%rbp), %rcx    # 8-byte Reload
	shlq	$12, %rcx
	movq	%rdx, %rsi
	addq	%rcx, %rsi
	movq	%rax, %rcx
	shlq	$2, %rcx
	addq	%rcx, %rsi
	movl	$0, (%rsi)
	addq	$1, %rax
	movq	-4223512(%rbp), %rcx    # 8-byte Reload
	shlq	$12, %rcx
	movq	%rdx, %rsi
	addq	%rcx, %rsi
	movq	%rax, %rcx
	shlq	$2, %rcx
	addq	%rcx, %rsi
	movl	$0, (%rsi)
	addq	$1, %rax
	movq	-4223512(%rbp), %rcx    # 8-byte Reload
	shlq	$12, %rcx
	movq	%rdx, %rsi
	addq	%rcx, %rsi
	movq	%rax, %rcx
	shlq	$2, %rcx
	addq	%rcx, %rsi
	movl	$0, (%rsi)
	addq	$1, %rax
	movq	-4223512(%rbp), %rcx    # 8-byte Reload
	shlq	$12, %rcx
	movq	%rdx, %rsi
	addq	%rcx, %rsi
	movq	%rax, %rcx
	shlq	$2, %rcx
	addq	%rcx, %rsi
	movl	$0, (%rsi)
	addq	$1, %rax
	movq	-4223512(%rbp), %rcx    # 8-byte Reload
	shlq	$12, %rcx
	movq	%rdx, %rsi
	addq	%rcx, %rsi
	movq	%rax, %rcx
	shlq	$2, %rcx
	addq	%rcx, %rsi
	movl	$0, (%rsi)
	addq	$1, %rax
	movq	-4223512(%rbp), %rcx    # 8-byte Reload
	shlq	$12, %rcx
	movq	%rdx, %rsi
	addq	%rcx, %rsi
	movq	%rax, %rcx
	shlq	$2, %rcx
	addq	%rcx, %rsi
	movl	$0, (%rsi)
	addq	$1, %rax
	movq	-4223512(%rbp), %rcx    # 8-byte Reload
	shlq	$12, %rcx
	movq	%rdx, %rsi
	addq	%rcx, %rsi
	movq	%rax, %rcx
	shlq	$2, %rcx
	addq	%rcx, %rsi
	movl	$0, (%rsi)
	addq	$1, %rax
	movq	-4223512(%rbp), %rcx    # 8-byte Reload
	shlq	$12, %rcx
	movq	%rdx, %rsi
	addq	%rcx, %rsi
	movq	%rax, %rcx
	shlq	$2, %rcx
	addq	%rcx, %rsi
	movl	$0, (%rsi)
	addq	$1, %rax
	movq	-4223512(%rbp), %rcx    # 8-byte Reload
	shlq	$12, %rcx
	movq	%rdx, %rsi
	addq	%rcx, %rsi
	movq	%rax, %rcx
	shlq	$2, %rcx
	addq	%rcx, %rsi
	movl	$0, (%rsi)
	addq	$1, %rax
	movq	-4223512(%rbp), %rcx    # 8-byte Reload
	shlq	$12, %rcx
	movq	%rdx, %rsi
	addq	%rcx, %rsi
	movq	%rax, %rcx
	shlq	$2, %rcx
	addq	%rcx, %rsi
	movl	$0, (%rsi)
	addq	$1, %rax
	movq	-4223512(%rbp), %rcx    # 8-byte Reload
	shlq	$12, %rcx
	movq	%rdx, %rsi
	addq	%rcx, %rsi
	movq	%rax, %rcx
	shlq	$2, %rcx
	addq	%rcx, %rsi
	movl	$0, (%rsi)
	addq	$1, %rax
	movq	-4223512(%rbp), %rcx    # 8-byte Reload
	shlq	$12, %rcx
	movq	%rdx, %rsi
	addq	%rcx, %rsi
	movq	%rax, %rcx
	shlq	$2, %rcx
	addq	%rcx, %rsi
	movl	$0, (%rsi)
	addq	$1, %rax
	movq	-4223512(%rbp), %rcx    # 8-byte Reload
	shlq	$12, %rcx
	movq	%rdx, %rsi
	addq	%rcx, %rsi
	movq	%rax, %rcx
	shlq	$2, %rcx
	addq	%rcx, %rsi
	movl	$0, (%rsi)
	addq	$1, %rax
	movq	-4223512(%rbp), %rcx    # 8-byte Reload
	shlq	$12, %rcx
	movq	%rdx, %rsi
	addq	%rcx, %rsi
	movq	%rax, %rcx
	shlq	$2, %rcx
	addq	%rcx, %rsi
	movl	$0, (%rsi)
	addq	$1, %rax
	movq	-4223512(%rbp), %rcx    # 8-byte Reload
	shlq	$12, %rcx
	movq	%rdx, %rsi
	addq	%rcx, %rsi
	movq	%rax, %rcx
	shlq	$2, %rcx
	addq	%rcx, %rsi
	movl	$0, (%rsi)
	addq	$1, %rax
	movq	-4223512(%rbp), %rcx    # 8-byte Reload
	shlq	$12, %rcx
	movq	%rdx, %rsi
	addq	%rcx, %rsi
	movq	%rax, %rcx
	shlq	$2, %rcx
	addq	%rcx, %rsi
	movl	$0, (%rsi)
	addq	$1, %rax
	movq	-4223512(%rbp), %rcx    # 8-byte Reload
	shlq	$12, %rcx
	movq	%rdx, %rsi
	addq	%rcx, %rsi
	movq	%rax, %rcx
	shlq	$2, %rcx
	addq	%rcx, %rsi
	movl	$0, (%rsi)
	addq	$1, %rax
	movq	-4223512(%rbp), %rcx    # 8-byte Reload
	shlq	$12, %rcx
	movq	%rdx, %rsi
	addq	%rcx, %rsi
	movq	%rax, %rcx
	shlq	$2, %rcx
	addq	%rcx, %rsi
	movl	$0, (%rsi)
	addq	$1, %rax
	movq	-4223512(%rbp), %rcx    # 8-byte Reload
	shlq	$12, %rcx
	movq	%rdx, %rsi
	addq	%rcx, %rsi
	movq	%rax, %rcx
	shlq	$2, %rcx
	addq	%rcx, %rsi
	movl	$0, (%rsi)
	addq	$1, %rax
	movq	-4223512(%rbp), %rcx    # 8-byte Reload
	shlq	$12, %rcx
	movq	%rdx, %rsi
	addq	%rcx, %rsi
	movq	%rax, %rcx
	shlq	$2, %rcx
	addq	%rcx, %rsi
	movl	$0, (%rsi)
	addq	$1, %rax
	movq	-4223512(%rbp), %rcx    # 8-byte Reload
	shlq	$12, %rcx
	movq	%rdx, %rsi
	addq	%rcx, %rsi
	movq	%rax, %rcx
	shlq	$2, %rcx
	addq	%rcx, %rsi
	movl	$0, (%rsi)
	addq	$1, %rax
	movq	-4223512(%rbp), %rcx    # 8-byte Reload
	shlq	$12, %rcx
	movq	%rdx, %rsi
	addq	%rcx, %rsi
	movq	%rax, %rcx
	shlq	$2, %rcx
	addq	%rcx, %rsi
	movl	$0, (%rsi)
	addq	$1, %rax
	movq	-4223512(%rbp), %rcx    # 8-byte Reload
	shlq	$12, %rcx
	movq	%rdx, %rsi
	addq	%rcx, %rsi
	movq	%rax, %rcx
	shlq	$2, %rcx
	addq	%rcx, %rsi
	movl	$0, (%rsi)
	addq	$1, %rax
	movq	-4223512(%rbp), %rcx    # 8-byte Reload
	shlq	$12, %rcx
	movq	%rdx, %rsi
	addq	%rcx, %rsi
	movq	%rax, %rcx
	shlq	$2, %rcx
	addq	%rcx, %rsi
	movl	$0, (%rsi)
	addq	$1, %rax
	movq	-4223512(%rbp), %rcx    # 8-byte Reload
	shlq	$12, %rcx
	movq	%rdx, %rsi
	addq	%rcx, %rsi
	movq	%rax, %rcx
	shlq	$2, %rcx
	addq	%rcx, %rsi
	movl	$0, (%rsi)
	addq	$1, %rax
	movq	-4223512(%rbp), %rcx    # 8-byte Reload
	shlq	$12, %rcx
	movq	%rdx, %rsi
	addq	%rcx, %rsi
	movq	%rax, %rcx
	shlq	$2, %rcx
	addq	%rcx, %rsi
	movl	$0, (%rsi)
	addq	$1, %rax
	movq	-4223512(%rbp), %rcx    # 8-byte Reload
	shlq	$12, %rcx
	addq	%rcx, %rdx
	movq	%rax, %rcx
	shlq	$2, %rcx
	addq	%rcx, %rdx
	movl	$0, (%rdx)
	addq	$1, %rax
	cmpq	$1024, %rax             # imm = 0x400
	movq	%rax, -4223520(%rbp)    # 8-byte Spill
	jne	.LBB4_4
# %bb.5:                                # %for.inc20
                                        #   in Loop: Header=BB4_3 Depth=1
	movq	-4223512(%rbp), %rax    # 8-byte Reload
	addq	$1, %rax
	cmpq	$1024, %rax             # imm = 0x400
	movq	%rax, -4223504(%rbp)    # 8-byte Spill
	jne	.LBB4_3
# %bb.6:                                # %for.end22
	leaq	-4218880(%rbp), %rcx
	leaq	-12288(%rbp), %rdx
	leaq	-8192(%rbp), %rsi
	leaq	-4096(%rbp), %rdi
	callq	buildNeighborList
	xorl	%r8d, %r8d
	movl	%r8d, %ecx
	movq	%rcx, -4223528(%rbp)    # 8-byte Spill
.LBB4_7:                                # %for.body29
                                        # =>This Inner Loop Header: Depth=1
	movq	-4223528(%rbp), %rax    # 8-byte Reload
	movq	%rax, -4223536(%rbp)    # 8-byte Spill
# %bb.8:                                # %for.body32
                                        #   in Loop: Header=BB4_7 Depth=1
	movq	-4223536(%rbp), %rax    # 8-byte Reload
	shlq	$12, %rax
	leaq	-4218880(%rbp), %rcx
	movq	%rcx, %rdx
	addq	%rax, %rdx
	movl	(%rdx), %esi
	movq	-4223536(%rbp), %rax    # 8-byte Reload
	shlq	$5, %rax
	movl	%esi, -4222976(%rbp,%rax,4)
	movq	-4223536(%rbp), %rax    # 8-byte Reload
	shlq	$12, %rax
	movq	%rcx, %rdx
	addq	%rax, %rdx
	addq	$4, %rdx
	movl	(%rdx), %esi
	movq	-4223536(%rbp), %rax    # 8-byte Reload
	shlq	$5, %rax
	movl	%esi, -4222972(%rbp,%rax,4)
	movq	-4223536(%rbp), %rax    # 8-byte Reload
	shlq	$12, %rax
	movq	%rcx, %rdx
	addq	%rax, %rdx
	addq	$8, %rdx
	movl	(%rdx), %esi
	movq	-4223536(%rbp), %rax    # 8-byte Reload
	shlq	$5, %rax
	movl	%esi, -4222968(%rbp,%rax,4)
	movq	-4223536(%rbp), %rax    # 8-byte Reload
	shlq	$12, %rax
	movq	%rcx, %rdx
	addq	%rax, %rdx
	addq	$12, %rdx
	movl	(%rdx), %esi
	movq	-4223536(%rbp), %rax    # 8-byte Reload
	shlq	$5, %rax
	movl	%esi, -4222964(%rbp,%rax,4)
	movq	-4223536(%rbp), %rax    # 8-byte Reload
	shlq	$12, %rax
	movq	%rcx, %rdx
	addq	%rax, %rdx
	addq	$16, %rdx
	movl	(%rdx), %esi
	movq	-4223536(%rbp), %rax    # 8-byte Reload
	shlq	$5, %rax
	movl	%esi, -4222960(%rbp,%rax,4)
	movq	-4223536(%rbp), %rax    # 8-byte Reload
	shlq	$12, %rax
	movq	%rcx, %rdx
	addq	%rax, %rdx
	addq	$20, %rdx
	movl	(%rdx), %esi
	movq	-4223536(%rbp), %rax    # 8-byte Reload
	shlq	$5, %rax
	movl	%esi, -4222956(%rbp,%rax,4)
	movq	-4223536(%rbp), %rax    # 8-byte Reload
	shlq	$12, %rax
	movq	%rcx, %rdx
	addq	%rax, %rdx
	addq	$24, %rdx
	movl	(%rdx), %esi
	movq	-4223536(%rbp), %rax    # 8-byte Reload
	shlq	$5, %rax
	movl	%esi, -4222952(%rbp,%rax,4)
	movq	-4223536(%rbp), %rax    # 8-byte Reload
	shlq	$12, %rax
	movq	%rcx, %rdx
	addq	%rax, %rdx
	addq	$28, %rdx
	movl	(%rdx), %esi
	movq	-4223536(%rbp), %rax    # 8-byte Reload
	shlq	$5, %rax
	movl	%esi, -4222948(%rbp,%rax,4)
	movq	-4223536(%rbp), %rax    # 8-byte Reload
	shlq	$12, %rax
	movq	%rcx, %rdx
	addq	%rax, %rdx
	addq	$32, %rdx
	movl	(%rdx), %esi
	movq	-4223536(%rbp), %rax    # 8-byte Reload
	shlq	$5, %rax
	movl	%esi, -4222944(%rbp,%rax,4)
	movq	-4223536(%rbp), %rax    # 8-byte Reload
	shlq	$12, %rax
	movq	%rcx, %rdx
	addq	%rax, %rdx
	addq	$36, %rdx
	movl	(%rdx), %esi
	movq	-4223536(%rbp), %rax    # 8-byte Reload
	shlq	$5, %rax
	movl	%esi, -4222940(%rbp,%rax,4)
	movq	-4223536(%rbp), %rax    # 8-byte Reload
	shlq	$12, %rax
	movq	%rcx, %rdx
	addq	%rax, %rdx
	addq	$40, %rdx
	movl	(%rdx), %esi
	movq	-4223536(%rbp), %rax    # 8-byte Reload
	shlq	$5, %rax
	movl	%esi, -4222936(%rbp,%rax,4)
	movq	-4223536(%rbp), %rax    # 8-byte Reload
	shlq	$12, %rax
	movq	%rcx, %rdx
	addq	%rax, %rdx
	addq	$44, %rdx
	movl	(%rdx), %esi
	movq	-4223536(%rbp), %rax    # 8-byte Reload
	shlq	$5, %rax
	movl	%esi, -4222932(%rbp,%rax,4)
	movq	-4223536(%rbp), %rax    # 8-byte Reload
	shlq	$12, %rax
	movq	%rcx, %rdx
	addq	%rax, %rdx
	addq	$48, %rdx
	movl	(%rdx), %esi
	movq	-4223536(%rbp), %rax    # 8-byte Reload
	shlq	$5, %rax
	movl	%esi, -4222928(%rbp,%rax,4)
	movq	-4223536(%rbp), %rax    # 8-byte Reload
	shlq	$12, %rax
	movq	%rcx, %rdx
	addq	%rax, %rdx
	addq	$52, %rdx
	movl	(%rdx), %esi
	movq	-4223536(%rbp), %rax    # 8-byte Reload
	shlq	$5, %rax
	movl	%esi, -4222924(%rbp,%rax,4)
	movq	-4223536(%rbp), %rax    # 8-byte Reload
	shlq	$12, %rax
	movq	%rcx, %rdx
	addq	%rax, %rdx
	addq	$56, %rdx
	movl	(%rdx), %esi
	movq	-4223536(%rbp), %rax    # 8-byte Reload
	shlq	$5, %rax
	movl	%esi, -4222920(%rbp,%rax,4)
	movq	-4223536(%rbp), %rax    # 8-byte Reload
	shlq	$12, %rax
	movq	%rcx, %rdx
	addq	%rax, %rdx
	addq	$60, %rdx
	movl	(%rdx), %esi
	movq	-4223536(%rbp), %rax    # 8-byte Reload
	shlq	$5, %rax
	movl	%esi, -4222916(%rbp,%rax,4)
	movq	-4223536(%rbp), %rax    # 8-byte Reload
	shlq	$12, %rax
	movq	%rcx, %rdx
	addq	%rax, %rdx
	addq	$64, %rdx
	movl	(%rdx), %esi
	movq	-4223536(%rbp), %rax    # 8-byte Reload
	shlq	$5, %rax
	movl	%esi, -4222912(%rbp,%rax,4)
	movq	-4223536(%rbp), %rax    # 8-byte Reload
	shlq	$12, %rax
	movq	%rcx, %rdx
	addq	%rax, %rdx
	addq	$68, %rdx
	movl	(%rdx), %esi
	movq	-4223536(%rbp), %rax    # 8-byte Reload
	shlq	$5, %rax
	movl	%esi, -4222908(%rbp,%rax,4)
	movq	-4223536(%rbp), %rax    # 8-byte Reload
	shlq	$12, %rax
	movq	%rcx, %rdx
	addq	%rax, %rdx
	addq	$72, %rdx
	movl	(%rdx), %esi
	movq	-4223536(%rbp), %rax    # 8-byte Reload
	shlq	$5, %rax
	movl	%esi, -4222904(%rbp,%rax,4)
	movq	-4223536(%rbp), %rax    # 8-byte Reload
	shlq	$12, %rax
	movq	%rcx, %rdx
	addq	%rax, %rdx
	addq	$76, %rdx
	movl	(%rdx), %esi
	movq	-4223536(%rbp), %rax    # 8-byte Reload
	shlq	$5, %rax
	movl	%esi, -4222900(%rbp,%rax,4)
	movq	-4223536(%rbp), %rax    # 8-byte Reload
	shlq	$12, %rax
	movq	%rcx, %rdx
	addq	%rax, %rdx
	addq	$80, %rdx
	movl	(%rdx), %esi
	movq	-4223536(%rbp), %rax    # 8-byte Reload
	shlq	$5, %rax
	movl	%esi, -4222896(%rbp,%rax,4)
	movq	-4223536(%rbp), %rax    # 8-byte Reload
	shlq	$12, %rax
	movq	%rcx, %rdx
	addq	%rax, %rdx
	addq	$84, %rdx
	movl	(%rdx), %esi
	movq	-4223536(%rbp), %rax    # 8-byte Reload
	shlq	$5, %rax
	movl	%esi, -4222892(%rbp,%rax,4)
	movq	-4223536(%rbp), %rax    # 8-byte Reload
	shlq	$12, %rax
	movq	%rcx, %rdx
	addq	%rax, %rdx
	addq	$88, %rdx
	movl	(%rdx), %esi
	movq	-4223536(%rbp), %rax    # 8-byte Reload
	shlq	$5, %rax
	movl	%esi, -4222888(%rbp,%rax,4)
	movq	-4223536(%rbp), %rax    # 8-byte Reload
	shlq	$12, %rax
	movq	%rcx, %rdx
	addq	%rax, %rdx
	addq	$92, %rdx
	movl	(%rdx), %esi
	movq	-4223536(%rbp), %rax    # 8-byte Reload
	shlq	$5, %rax
	movl	%esi, -4222884(%rbp,%rax,4)
	movq	-4223536(%rbp), %rax    # 8-byte Reload
	shlq	$12, %rax
	movq	%rcx, %rdx
	addq	%rax, %rdx
	addq	$96, %rdx
	movl	(%rdx), %esi
	movq	-4223536(%rbp), %rax    # 8-byte Reload
	shlq	$5, %rax
	movl	%esi, -4222880(%rbp,%rax,4)
	movq	-4223536(%rbp), %rax    # 8-byte Reload
	shlq	$12, %rax
	movq	%rcx, %rdx
	addq	%rax, %rdx
	addq	$100, %rdx
	movl	(%rdx), %esi
	movq	-4223536(%rbp), %rax    # 8-byte Reload
	shlq	$5, %rax
	movl	%esi, -4222876(%rbp,%rax,4)
	movq	-4223536(%rbp), %rax    # 8-byte Reload
	shlq	$12, %rax
	movq	%rcx, %rdx
	addq	%rax, %rdx
	addq	$104, %rdx
	movl	(%rdx), %esi
	movq	-4223536(%rbp), %rax    # 8-byte Reload
	shlq	$5, %rax
	movl	%esi, -4222872(%rbp,%rax,4)
	movq	-4223536(%rbp), %rax    # 8-byte Reload
	shlq	$12, %rax
	movq	%rcx, %rdx
	addq	%rax, %rdx
	addq	$108, %rdx
	movl	(%rdx), %esi
	movq	-4223536(%rbp), %rax    # 8-byte Reload
	shlq	$5, %rax
	movl	%esi, -4222868(%rbp,%rax,4)
	movq	-4223536(%rbp), %rax    # 8-byte Reload
	shlq	$12, %rax
	movq	%rcx, %rdx
	addq	%rax, %rdx
	addq	$112, %rdx
	movl	(%rdx), %esi
	movq	-4223536(%rbp), %rax    # 8-byte Reload
	shlq	$5, %rax
	movl	%esi, -4222864(%rbp,%rax,4)
	movq	-4223536(%rbp), %rax    # 8-byte Reload
	shlq	$12, %rax
	movq	%rcx, %rdx
	addq	%rax, %rdx
	addq	$116, %rdx
	movl	(%rdx), %esi
	movq	-4223536(%rbp), %rax    # 8-byte Reload
	shlq	$5, %rax
	movl	%esi, -4222860(%rbp,%rax,4)
	movq	-4223536(%rbp), %rax    # 8-byte Reload
	shlq	$12, %rax
	movq	%rcx, %rdx
	addq	%rax, %rdx
	addq	$120, %rdx
	movl	(%rdx), %esi
	movq	-4223536(%rbp), %rax    # 8-byte Reload
	shlq	$5, %rax
	movl	%esi, -4222856(%rbp,%rax,4)
	movq	-4223536(%rbp), %rax    # 8-byte Reload
	shlq	$12, %rax
	addq	%rax, %rcx
	addq	$124, %rcx
	movl	(%rcx), %esi
	movq	-4223536(%rbp), %rax    # 8-byte Reload
	shlq	$5, %rax
	movl	%esi, -4222852(%rbp,%rax,4)
	movq	-4223536(%rbp), %rax    # 8-byte Reload
	addq	$1, %rax
	cmpq	$32, %rax
	movq	%rax, -4223528(%rbp)    # 8-byte Spill
	jne	.LBB4_7
# %bb.9:                                # %for.end44
	leaq	-4222976(%rbp), %rax
	leaq	-12288(%rbp), %r9
	leaq	-8192(%rbp), %r8
	leaq	-4096(%rbp), %rcx
	leaq	-24576(%rbp), %rdx
	leaq	-20480(%rbp), %rsi
	leaq	-16384(%rbp), %rdi
	movq	%rax, (%rsp)
	callq	md
	xorl	%r10d, %r10d
	movl	%r10d, %eax
	movq	%rax, -4223544(%rbp)    # 8-byte Spill
.LBB4_10:                               # %for.body54
                                        # =>This Inner Loop Header: Depth=1
	movq	-4223544(%rbp), %rax    # 8-byte Reload
	movl	-16384(%rbp,%rax,4), %esi
	movl	-20480(%rbp,%rax,4), %edx
	movl	-24576(%rbp,%rax,4), %ecx
	movabsq	$.L.str.1, %rdi
	movq	%rax, -4223552(%rbp)    # 8-byte Spill
	movb	$0, %al
	callq	printf
	movq	-4223552(%rbp), %rdi    # 8-byte Reload
	addq	$1, %rdi
	movq	-4223552(%rbp), %r8     # 8-byte Reload
	movl	-16380(%rbp,%r8,4), %esi
	movl	-20476(%rbp,%r8,4), %edx
	movl	-24572(%rbp,%r8,4), %ecx
	movabsq	$.L.str.1, %r9
	movq	%rdi, -4223560(%rbp)    # 8-byte Spill
	movq	%r9, %rdi
	movl	%eax, -4223564(%rbp)    # 4-byte Spill
	movb	$0, %al
	callq	printf
	movq	-4223560(%rbp), %rdi    # 8-byte Reload
	addq	$1, %rdi
	movq	-4223552(%rbp), %r8     # 8-byte Reload
	movl	-16376(%rbp,%r8,4), %esi
	movl	-20472(%rbp,%r8,4), %edx
	movl	-24568(%rbp,%r8,4), %ecx
	movabsq	$.L.str.1, %r9
	movq	%rdi, -4223576(%rbp)    # 8-byte Spill
	movq	%r9, %rdi
	movl	%eax, -4223580(%rbp)    # 4-byte Spill
	movb	$0, %al
	callq	printf
	movq	-4223576(%rbp), %rdi    # 8-byte Reload
	addq	$1, %rdi
	movq	-4223552(%rbp), %r8     # 8-byte Reload
	movl	-16372(%rbp,%r8,4), %esi
	movl	-20468(%rbp,%r8,4), %edx
	movl	-24564(%rbp,%r8,4), %ecx
	movabsq	$.L.str.1, %r9
	movq	%rdi, -4223592(%rbp)    # 8-byte Spill
	movq	%r9, %rdi
	movl	%eax, -4223596(%rbp)    # 4-byte Spill
	movb	$0, %al
	callq	printf
	movq	-4223592(%rbp), %rdi    # 8-byte Reload
	addq	$1, %rdi
	movq	-4223552(%rbp), %r8     # 8-byte Reload
	movl	-16368(%rbp,%r8,4), %esi
	movl	-20464(%rbp,%r8,4), %edx
	movl	-24560(%rbp,%r8,4), %ecx
	movabsq	$.L.str.1, %r9
	movq	%rdi, -4223608(%rbp)    # 8-byte Spill
	movq	%r9, %rdi
	movl	%eax, -4223612(%rbp)    # 4-byte Spill
	movb	$0, %al
	callq	printf
	movq	-4223608(%rbp), %rdi    # 8-byte Reload
	addq	$1, %rdi
	movq	-4223552(%rbp), %r8     # 8-byte Reload
	movl	-16364(%rbp,%r8,4), %esi
	movl	-20460(%rbp,%r8,4), %edx
	movl	-24556(%rbp,%r8,4), %ecx
	movabsq	$.L.str.1, %r9
	movq	%rdi, -4223624(%rbp)    # 8-byte Spill
	movq	%r9, %rdi
	movl	%eax, -4223628(%rbp)    # 4-byte Spill
	movb	$0, %al
	callq	printf
	movq	-4223624(%rbp), %rdi    # 8-byte Reload
	addq	$1, %rdi
	movq	-4223552(%rbp), %r8     # 8-byte Reload
	movl	-16360(%rbp,%r8,4), %esi
	movl	-20456(%rbp,%r8,4), %edx
	movl	-24552(%rbp,%r8,4), %ecx
	movabsq	$.L.str.1, %r9
	movq	%rdi, -4223640(%rbp)    # 8-byte Spill
	movq	%r9, %rdi
	movl	%eax, -4223644(%rbp)    # 4-byte Spill
	movb	$0, %al
	callq	printf
	movq	-4223640(%rbp), %rdi    # 8-byte Reload
	addq	$1, %rdi
	movq	-4223552(%rbp), %r8     # 8-byte Reload
	movl	-16356(%rbp,%r8,4), %esi
	movl	-20452(%rbp,%r8,4), %edx
	movl	-24548(%rbp,%r8,4), %ecx
	movabsq	$.L.str.1, %r9
	movq	%rdi, -4223656(%rbp)    # 8-byte Spill
	movq	%r9, %rdi
	movl	%eax, -4223660(%rbp)    # 4-byte Spill
	movb	$0, %al
	callq	printf
	movq	-4223656(%rbp), %rdi    # 8-byte Reload
	addq	$1, %rdi
	movq	-4223552(%rbp), %r8     # 8-byte Reload
	movl	-16352(%rbp,%r8,4), %esi
	movl	-20448(%rbp,%r8,4), %edx
	movl	-24544(%rbp,%r8,4), %ecx
	movabsq	$.L.str.1, %r9
	movq	%rdi, -4223672(%rbp)    # 8-byte Spill
	movq	%r9, %rdi
	movl	%eax, -4223676(%rbp)    # 4-byte Spill
	movb	$0, %al
	callq	printf
	movq	-4223672(%rbp), %rdi    # 8-byte Reload
	addq	$1, %rdi
	movq	-4223552(%rbp), %r8     # 8-byte Reload
	movl	-16348(%rbp,%r8,4), %esi
	movl	-20444(%rbp,%r8,4), %edx
	movl	-24540(%rbp,%r8,4), %ecx
	movabsq	$.L.str.1, %r9
	movq	%rdi, -4223688(%rbp)    # 8-byte Spill
	movq	%r9, %rdi
	movl	%eax, -4223692(%rbp)    # 4-byte Spill
	movb	$0, %al
	callq	printf
	movq	-4223688(%rbp), %rdi    # 8-byte Reload
	addq	$1, %rdi
	movq	-4223552(%rbp), %r8     # 8-byte Reload
	movl	-16344(%rbp,%r8,4), %esi
	movl	-20440(%rbp,%r8,4), %edx
	movl	-24536(%rbp,%r8,4), %ecx
	movabsq	$.L.str.1, %r9
	movq	%rdi, -4223704(%rbp)    # 8-byte Spill
	movq	%r9, %rdi
	movl	%eax, -4223708(%rbp)    # 4-byte Spill
	movb	$0, %al
	callq	printf
	movq	-4223704(%rbp), %rdi    # 8-byte Reload
	addq	$1, %rdi
	movq	-4223552(%rbp), %r8     # 8-byte Reload
	movl	-16340(%rbp,%r8,4), %esi
	movl	-20436(%rbp,%r8,4), %edx
	movl	-24532(%rbp,%r8,4), %ecx
	movabsq	$.L.str.1, %r9
	movq	%rdi, -4223720(%rbp)    # 8-byte Spill
	movq	%r9, %rdi
	movl	%eax, -4223724(%rbp)    # 4-byte Spill
	movb	$0, %al
	callq	printf
	movq	-4223720(%rbp), %rdi    # 8-byte Reload
	addq	$1, %rdi
	movq	-4223552(%rbp), %r8     # 8-byte Reload
	movl	-16336(%rbp,%r8,4), %esi
	movl	-20432(%rbp,%r8,4), %edx
	movl	-24528(%rbp,%r8,4), %ecx
	movabsq	$.L.str.1, %r9
	movq	%rdi, -4223736(%rbp)    # 8-byte Spill
	movq	%r9, %rdi
	movl	%eax, -4223740(%rbp)    # 4-byte Spill
	movb	$0, %al
	callq	printf
	movq	-4223736(%rbp), %rdi    # 8-byte Reload
	addq	$1, %rdi
	movq	-4223552(%rbp), %r8     # 8-byte Reload
	movl	-16332(%rbp,%r8,4), %esi
	movl	-20428(%rbp,%r8,4), %edx
	movl	-24524(%rbp,%r8,4), %ecx
	movabsq	$.L.str.1, %r9
	movq	%rdi, -4223752(%rbp)    # 8-byte Spill
	movq	%r9, %rdi
	movl	%eax, -4223756(%rbp)    # 4-byte Spill
	movb	$0, %al
	callq	printf
	movq	-4223752(%rbp), %rdi    # 8-byte Reload
	addq	$1, %rdi
	movq	-4223552(%rbp), %r8     # 8-byte Reload
	movl	-16328(%rbp,%r8,4), %esi
	movl	-20424(%rbp,%r8,4), %edx
	movl	-24520(%rbp,%r8,4), %ecx
	movabsq	$.L.str.1, %r9
	movq	%rdi, -4223768(%rbp)    # 8-byte Spill
	movq	%r9, %rdi
	movl	%eax, -4223772(%rbp)    # 4-byte Spill
	movb	$0, %al
	callq	printf
	movq	-4223768(%rbp), %rdi    # 8-byte Reload
	addq	$1, %rdi
	movq	-4223552(%rbp), %r8     # 8-byte Reload
	movl	-16324(%rbp,%r8,4), %esi
	movl	-20420(%rbp,%r8,4), %edx
	movl	-24516(%rbp,%r8,4), %ecx
	movabsq	$.L.str.1, %r9
	movq	%rdi, -4223784(%rbp)    # 8-byte Spill
	movq	%r9, %rdi
	movl	%eax, -4223788(%rbp)    # 4-byte Spill
	movb	$0, %al
	callq	printf
	movq	-4223784(%rbp), %rdi    # 8-byte Reload
	addq	$1, %rdi
	movq	-4223552(%rbp), %r8     # 8-byte Reload
	movl	-16320(%rbp,%r8,4), %esi
	movl	-20416(%rbp,%r8,4), %edx
	movl	-24512(%rbp,%r8,4), %ecx
	movabsq	$.L.str.1, %r9
	movq	%rdi, -4223800(%rbp)    # 8-byte Spill
	movq	%r9, %rdi
	movl	%eax, -4223804(%rbp)    # 4-byte Spill
	movb	$0, %al
	callq	printf
	movq	-4223800(%rbp), %rdi    # 8-byte Reload
	addq	$1, %rdi
	movq	-4223552(%rbp), %r8     # 8-byte Reload
	movl	-16316(%rbp,%r8,4), %esi
	movl	-20412(%rbp,%r8,4), %edx
	movl	-24508(%rbp,%r8,4), %ecx
	movabsq	$.L.str.1, %r9
	movq	%rdi, -4223816(%rbp)    # 8-byte Spill
	movq	%r9, %rdi
	movl	%eax, -4223820(%rbp)    # 4-byte Spill
	movb	$0, %al
	callq	printf
	movq	-4223816(%rbp), %rdi    # 8-byte Reload
	addq	$1, %rdi
	movq	-4223552(%rbp), %r8     # 8-byte Reload
	movl	-16312(%rbp,%r8,4), %esi
	movl	-20408(%rbp,%r8,4), %edx
	movl	-24504(%rbp,%r8,4), %ecx
	movabsq	$.L.str.1, %r9
	movq	%rdi, -4223832(%rbp)    # 8-byte Spill
	movq	%r9, %rdi
	movl	%eax, -4223836(%rbp)    # 4-byte Spill
	movb	$0, %al
	callq	printf
	movq	-4223832(%rbp), %rdi    # 8-byte Reload
	addq	$1, %rdi
	movq	-4223552(%rbp), %r8     # 8-byte Reload
	movl	-16308(%rbp,%r8,4), %esi
	movl	-20404(%rbp,%r8,4), %edx
	movl	-24500(%rbp,%r8,4), %ecx
	movabsq	$.L.str.1, %r9
	movq	%rdi, -4223848(%rbp)    # 8-byte Spill
	movq	%r9, %rdi
	movl	%eax, -4223852(%rbp)    # 4-byte Spill
	movb	$0, %al
	callq	printf
	movq	-4223848(%rbp), %rdi    # 8-byte Reload
	addq	$1, %rdi
	movq	-4223552(%rbp), %r8     # 8-byte Reload
	movl	-16304(%rbp,%r8,4), %esi
	movl	-20400(%rbp,%r8,4), %edx
	movl	-24496(%rbp,%r8,4), %ecx
	movabsq	$.L.str.1, %r9
	movq	%rdi, -4223864(%rbp)    # 8-byte Spill
	movq	%r9, %rdi
	movl	%eax, -4223868(%rbp)    # 4-byte Spill
	movb	$0, %al
	callq	printf
	movq	-4223864(%rbp), %rdi    # 8-byte Reload
	addq	$1, %rdi
	movq	-4223552(%rbp), %r8     # 8-byte Reload
	movl	-16300(%rbp,%r8,4), %esi
	movl	-20396(%rbp,%r8,4), %edx
	movl	-24492(%rbp,%r8,4), %ecx
	movabsq	$.L.str.1, %r9
	movq	%rdi, -4223880(%rbp)    # 8-byte Spill
	movq	%r9, %rdi
	movl	%eax, -4223884(%rbp)    # 4-byte Spill
	movb	$0, %al
	callq	printf
	movq	-4223880(%rbp), %rdi    # 8-byte Reload
	addq	$1, %rdi
	movq	-4223552(%rbp), %r8     # 8-byte Reload
	movl	-16296(%rbp,%r8,4), %esi
	movl	-20392(%rbp,%r8,4), %edx
	movl	-24488(%rbp,%r8,4), %ecx
	movabsq	$.L.str.1, %r9
	movq	%rdi, -4223896(%rbp)    # 8-byte Spill
	movq	%r9, %rdi
	movl	%eax, -4223900(%rbp)    # 4-byte Spill
	movb	$0, %al
	callq	printf
	movq	-4223896(%rbp), %rdi    # 8-byte Reload
	addq	$1, %rdi
	movq	-4223552(%rbp), %r8     # 8-byte Reload
	movl	-16292(%rbp,%r8,4), %esi
	movl	-20388(%rbp,%r8,4), %edx
	movl	-24484(%rbp,%r8,4), %ecx
	movabsq	$.L.str.1, %r9
	movq	%rdi, -4223912(%rbp)    # 8-byte Spill
	movq	%r9, %rdi
	movl	%eax, -4223916(%rbp)    # 4-byte Spill
	movb	$0, %al
	callq	printf
	movq	-4223912(%rbp), %rdi    # 8-byte Reload
	addq	$1, %rdi
	movq	-4223552(%rbp), %r8     # 8-byte Reload
	movl	-16288(%rbp,%r8,4), %esi
	movl	-20384(%rbp,%r8,4), %edx
	movl	-24480(%rbp,%r8,4), %ecx
	movabsq	$.L.str.1, %r9
	movq	%rdi, -4223928(%rbp)    # 8-byte Spill
	movq	%r9, %rdi
	movl	%eax, -4223932(%rbp)    # 4-byte Spill
	movb	$0, %al
	callq	printf
	movq	-4223928(%rbp), %rdi    # 8-byte Reload
	addq	$1, %rdi
	movq	-4223552(%rbp), %r8     # 8-byte Reload
	movl	-16284(%rbp,%r8,4), %esi
	movl	-20380(%rbp,%r8,4), %edx
	movl	-24476(%rbp,%r8,4), %ecx
	movabsq	$.L.str.1, %r9
	movq	%rdi, -4223944(%rbp)    # 8-byte Spill
	movq	%r9, %rdi
	movl	%eax, -4223948(%rbp)    # 4-byte Spill
	movb	$0, %al
	callq	printf
	movq	-4223944(%rbp), %rdi    # 8-byte Reload
	addq	$1, %rdi
	movq	-4223552(%rbp), %r8     # 8-byte Reload
	movl	-16280(%rbp,%r8,4), %esi
	movl	-20376(%rbp,%r8,4), %edx
	movl	-24472(%rbp,%r8,4), %ecx
	movabsq	$.L.str.1, %r9
	movq	%rdi, -4223960(%rbp)    # 8-byte Spill
	movq	%r9, %rdi
	movl	%eax, -4223964(%rbp)    # 4-byte Spill
	movb	$0, %al
	callq	printf
	movq	-4223960(%rbp), %rdi    # 8-byte Reload
	addq	$1, %rdi
	movq	-4223552(%rbp), %r8     # 8-byte Reload
	movl	-16276(%rbp,%r8,4), %esi
	movl	-20372(%rbp,%r8,4), %edx
	movl	-24468(%rbp,%r8,4), %ecx
	movabsq	$.L.str.1, %r9
	movq	%rdi, -4223976(%rbp)    # 8-byte Spill
	movq	%r9, %rdi
	movl	%eax, -4223980(%rbp)    # 4-byte Spill
	movb	$0, %al
	callq	printf
	movq	-4223976(%rbp), %rdi    # 8-byte Reload
	addq	$1, %rdi
	movq	-4223552(%rbp), %r8     # 8-byte Reload
	movl	-16272(%rbp,%r8,4), %esi
	movl	-20368(%rbp,%r8,4), %edx
	movl	-24464(%rbp,%r8,4), %ecx
	movabsq	$.L.str.1, %r9
	movq	%rdi, -4223992(%rbp)    # 8-byte Spill
	movq	%r9, %rdi
	movl	%eax, -4223996(%rbp)    # 4-byte Spill
	movb	$0, %al
	callq	printf
	movq	-4223992(%rbp), %rdi    # 8-byte Reload
	addq	$1, %rdi
	movq	-4223552(%rbp), %r8     # 8-byte Reload
	movl	-16268(%rbp,%r8,4), %esi
	movl	-20364(%rbp,%r8,4), %edx
	movl	-24460(%rbp,%r8,4), %ecx
	movabsq	$.L.str.1, %r9
	movq	%rdi, -4224008(%rbp)    # 8-byte Spill
	movq	%r9, %rdi
	movl	%eax, -4224012(%rbp)    # 4-byte Spill
	movb	$0, %al
	callq	printf
	movq	-4224008(%rbp), %rdi    # 8-byte Reload
	addq	$1, %rdi
	movq	-4223552(%rbp), %r8     # 8-byte Reload
	movl	-16264(%rbp,%r8,4), %esi
	movl	-20360(%rbp,%r8,4), %edx
	movl	-24456(%rbp,%r8,4), %ecx
	movabsq	$.L.str.1, %r9
	movq	%rdi, -4224024(%rbp)    # 8-byte Spill
	movq	%r9, %rdi
	movl	%eax, -4224028(%rbp)    # 4-byte Spill
	movb	$0, %al
	callq	printf
	movq	-4224024(%rbp), %rdi    # 8-byte Reload
	addq	$1, %rdi
	movq	-4223552(%rbp), %r8     # 8-byte Reload
	movl	-16260(%rbp,%r8,4), %esi
	movl	-20356(%rbp,%r8,4), %edx
	movl	-24452(%rbp,%r8,4), %ecx
	movabsq	$.L.str.1, %r9
	movq	%rdi, -4224040(%rbp)    # 8-byte Spill
	movq	%r9, %rdi
	movl	%eax, -4224044(%rbp)    # 4-byte Spill
	movb	$0, %al
	callq	printf
	movq	-4224040(%rbp), %rdi    # 8-byte Reload
	addq	$1, %rdi
	movq	-4223552(%rbp), %r8     # 8-byte Reload
	movl	-16256(%rbp,%r8,4), %esi
	movl	-20352(%rbp,%r8,4), %edx
	movl	-24448(%rbp,%r8,4), %ecx
	movabsq	$.L.str.1, %r9
	movq	%rdi, -4224056(%rbp)    # 8-byte Spill
	movq	%r9, %rdi
	movl	%eax, -4224060(%rbp)    # 4-byte Spill
	movb	$0, %al
	callq	printf
	movq	-4224056(%rbp), %rdi    # 8-byte Reload
	addq	$1, %rdi
	movq	-4223552(%rbp), %r8     # 8-byte Reload
	movl	-16252(%rbp,%r8,4), %esi
	movl	-20348(%rbp,%r8,4), %edx
	movl	-24444(%rbp,%r8,4), %ecx
	movabsq	$.L.str.1, %r9
	movq	%rdi, -4224072(%rbp)    # 8-byte Spill
	movq	%r9, %rdi
	movl	%eax, -4224076(%rbp)    # 4-byte Spill
	movb	$0, %al
	callq	printf
	movq	-4224072(%rbp), %rdi    # 8-byte Reload
	addq	$1, %rdi
	movq	-4223552(%rbp), %r8     # 8-byte Reload
	movl	-16248(%rbp,%r8,4), %esi
	movl	-20344(%rbp,%r8,4), %edx
	movl	-24440(%rbp,%r8,4), %ecx
	movabsq	$.L.str.1, %r9
	movq	%rdi, -4224088(%rbp)    # 8-byte Spill
	movq	%r9, %rdi
	movl	%eax, -4224092(%rbp)    # 4-byte Spill
	movb	$0, %al
	callq	printf
	movq	-4224088(%rbp), %rdi    # 8-byte Reload
	addq	$1, %rdi
	movq	-4223552(%rbp), %r8     # 8-byte Reload
	movl	-16244(%rbp,%r8,4), %esi
	movl	-20340(%rbp,%r8,4), %edx
	movl	-24436(%rbp,%r8,4), %ecx
	movabsq	$.L.str.1, %r9
	movq	%rdi, -4224104(%rbp)    # 8-byte Spill
	movq	%r9, %rdi
	movl	%eax, -4224108(%rbp)    # 4-byte Spill
	movb	$0, %al
	callq	printf
	movq	-4224104(%rbp), %rdi    # 8-byte Reload
	addq	$1, %rdi
	movq	-4223552(%rbp), %r8     # 8-byte Reload
	movl	-16240(%rbp,%r8,4), %esi
	movl	-20336(%rbp,%r8,4), %edx
	movl	-24432(%rbp,%r8,4), %ecx
	movabsq	$.L.str.1, %r9
	movq	%rdi, -4224120(%rbp)    # 8-byte Spill
	movq	%r9, %rdi
	movl	%eax, -4224124(%rbp)    # 4-byte Spill
	movb	$0, %al
	callq	printf
	movq	-4224120(%rbp), %rdi    # 8-byte Reload
	addq	$1, %rdi
	movq	-4223552(%rbp), %r8     # 8-byte Reload
	movl	-16236(%rbp,%r8,4), %esi
	movl	-20332(%rbp,%r8,4), %edx
	movl	-24428(%rbp,%r8,4), %ecx
	movabsq	$.L.str.1, %r9
	movq	%rdi, -4224136(%rbp)    # 8-byte Spill
	movq	%r9, %rdi
	movl	%eax, -4224140(%rbp)    # 4-byte Spill
	movb	$0, %al
	callq	printf
	movq	-4224136(%rbp), %rdi    # 8-byte Reload
	addq	$1, %rdi
	movq	-4223552(%rbp), %r8     # 8-byte Reload
	movl	-16232(%rbp,%r8,4), %esi
	movl	-20328(%rbp,%r8,4), %edx
	movl	-24424(%rbp,%r8,4), %ecx
	movabsq	$.L.str.1, %r9
	movq	%rdi, -4224152(%rbp)    # 8-byte Spill
	movq	%r9, %rdi
	movl	%eax, -4224156(%rbp)    # 4-byte Spill
	movb	$0, %al
	callq	printf
	movq	-4224152(%rbp), %rdi    # 8-byte Reload
	addq	$1, %rdi
	movq	-4223552(%rbp), %r8     # 8-byte Reload
	movl	-16228(%rbp,%r8,4), %esi
	movl	-20324(%rbp,%r8,4), %edx
	movl	-24420(%rbp,%r8,4), %ecx
	movabsq	$.L.str.1, %r9
	movq	%rdi, -4224168(%rbp)    # 8-byte Spill
	movq	%r9, %rdi
	movl	%eax, -4224172(%rbp)    # 4-byte Spill
	movb	$0, %al
	callq	printf
	movq	-4224168(%rbp), %rdi    # 8-byte Reload
	addq	$1, %rdi
	movq	-4223552(%rbp), %r8     # 8-byte Reload
	movl	-16224(%rbp,%r8,4), %esi
	movl	-20320(%rbp,%r8,4), %edx
	movl	-24416(%rbp,%r8,4), %ecx
	movabsq	$.L.str.1, %r9
	movq	%rdi, -4224184(%rbp)    # 8-byte Spill
	movq	%r9, %rdi
	movl	%eax, -4224188(%rbp)    # 4-byte Spill
	movb	$0, %al
	callq	printf
	movq	-4224184(%rbp), %rdi    # 8-byte Reload
	addq	$1, %rdi
	movq	-4223552(%rbp), %r8     # 8-byte Reload
	movl	-16220(%rbp,%r8,4), %esi
	movl	-20316(%rbp,%r8,4), %edx
	movl	-24412(%rbp,%r8,4), %ecx
	movabsq	$.L.str.1, %r9
	movq	%rdi, -4224200(%rbp)    # 8-byte Spill
	movq	%r9, %rdi
	movl	%eax, -4224204(%rbp)    # 4-byte Spill
	movb	$0, %al
	callq	printf
	movq	-4224200(%rbp), %rdi    # 8-byte Reload
	addq	$1, %rdi
	movq	-4223552(%rbp), %r8     # 8-byte Reload
	movl	-16216(%rbp,%r8,4), %esi
	movl	-20312(%rbp,%r8,4), %edx
	movl	-24408(%rbp,%r8,4), %ecx
	movabsq	$.L.str.1, %r9
	movq	%rdi, -4224216(%rbp)    # 8-byte Spill
	movq	%r9, %rdi
	movl	%eax, -4224220(%rbp)    # 4-byte Spill
	movb	$0, %al
	callq	printf
	movq	-4224216(%rbp), %rdi    # 8-byte Reload
	addq	$1, %rdi
	movq	-4223552(%rbp), %r8     # 8-byte Reload
	movl	-16212(%rbp,%r8,4), %esi
	movl	-20308(%rbp,%r8,4), %edx
	movl	-24404(%rbp,%r8,4), %ecx
	movabsq	$.L.str.1, %r9
	movq	%rdi, -4224232(%rbp)    # 8-byte Spill
	movq	%r9, %rdi
	movl	%eax, -4224236(%rbp)    # 4-byte Spill
	movb	$0, %al
	callq	printf
	movq	-4224232(%rbp), %rdi    # 8-byte Reload
	addq	$1, %rdi
	movq	-4223552(%rbp), %r8     # 8-byte Reload
	movl	-16208(%rbp,%r8,4), %esi
	movl	-20304(%rbp,%r8,4), %edx
	movl	-24400(%rbp,%r8,4), %ecx
	movabsq	$.L.str.1, %r9
	movq	%rdi, -4224248(%rbp)    # 8-byte Spill
	movq	%r9, %rdi
	movl	%eax, -4224252(%rbp)    # 4-byte Spill
	movb	$0, %al
	callq	printf
	movq	-4224248(%rbp), %rdi    # 8-byte Reload
	addq	$1, %rdi
	movq	-4223552(%rbp), %r8     # 8-byte Reload
	movl	-16204(%rbp,%r8,4), %esi
	movl	-20300(%rbp,%r8,4), %edx
	movl	-24396(%rbp,%r8,4), %ecx
	movabsq	$.L.str.1, %r9
	movq	%rdi, -4224264(%rbp)    # 8-byte Spill
	movq	%r9, %rdi
	movl	%eax, -4224268(%rbp)    # 4-byte Spill
	movb	$0, %al
	callq	printf
	movq	-4224264(%rbp), %rdi    # 8-byte Reload
	addq	$1, %rdi
	movq	-4223552(%rbp), %r8     # 8-byte Reload
	movl	-16200(%rbp,%r8,4), %esi
	movl	-20296(%rbp,%r8,4), %edx
	movl	-24392(%rbp,%r8,4), %ecx
	movabsq	$.L.str.1, %r9
	movq	%rdi, -4224280(%rbp)    # 8-byte Spill
	movq	%r9, %rdi
	movl	%eax, -4224284(%rbp)    # 4-byte Spill
	movb	$0, %al
	callq	printf
	movq	-4224280(%rbp), %rdi    # 8-byte Reload
	addq	$1, %rdi
	movq	-4223552(%rbp), %r8     # 8-byte Reload
	movl	-16196(%rbp,%r8,4), %esi
	movl	-20292(%rbp,%r8,4), %edx
	movl	-24388(%rbp,%r8,4), %ecx
	movabsq	$.L.str.1, %r9
	movq	%rdi, -4224296(%rbp)    # 8-byte Spill
	movq	%r9, %rdi
	movl	%eax, -4224300(%rbp)    # 4-byte Spill
	movb	$0, %al
	callq	printf
	movq	-4224296(%rbp), %rdi    # 8-byte Reload
	addq	$1, %rdi
	movq	-4223552(%rbp), %r8     # 8-byte Reload
	movl	-16192(%rbp,%r8,4), %esi
	movl	-20288(%rbp,%r8,4), %edx
	movl	-24384(%rbp,%r8,4), %ecx
	movabsq	$.L.str.1, %r9
	movq	%rdi, -4224312(%rbp)    # 8-byte Spill
	movq	%r9, %rdi
	movl	%eax, -4224316(%rbp)    # 4-byte Spill
	movb	$0, %al
	callq	printf
	movq	-4224312(%rbp), %rdi    # 8-byte Reload
	addq	$1, %rdi
	movq	-4223552(%rbp), %r8     # 8-byte Reload
	movl	-16188(%rbp,%r8,4), %esi
	movl	-20284(%rbp,%r8,4), %edx
	movl	-24380(%rbp,%r8,4), %ecx
	movabsq	$.L.str.1, %r9
	movq	%rdi, -4224328(%rbp)    # 8-byte Spill
	movq	%r9, %rdi
	movl	%eax, -4224332(%rbp)    # 4-byte Spill
	movb	$0, %al
	callq	printf
	movq	-4224328(%rbp), %rdi    # 8-byte Reload
	addq	$1, %rdi
	movq	-4223552(%rbp), %r8     # 8-byte Reload
	movl	-16184(%rbp,%r8,4), %esi
	movl	-20280(%rbp,%r8,4), %edx
	movl	-24376(%rbp,%r8,4), %ecx
	movabsq	$.L.str.1, %r9
	movq	%rdi, -4224344(%rbp)    # 8-byte Spill
	movq	%r9, %rdi
	movl	%eax, -4224348(%rbp)    # 4-byte Spill
	movb	$0, %al
	callq	printf
	movq	-4224344(%rbp), %rdi    # 8-byte Reload
	addq	$1, %rdi
	movq	-4223552(%rbp), %r8     # 8-byte Reload
	movl	-16180(%rbp,%r8,4), %esi
	movl	-20276(%rbp,%r8,4), %edx
	movl	-24372(%rbp,%r8,4), %ecx
	movabsq	$.L.str.1, %r9
	movq	%rdi, -4224360(%rbp)    # 8-byte Spill
	movq	%r9, %rdi
	movl	%eax, -4224364(%rbp)    # 4-byte Spill
	movb	$0, %al
	callq	printf
	movq	-4224360(%rbp), %rdi    # 8-byte Reload
	addq	$1, %rdi
	movq	-4223552(%rbp), %r8     # 8-byte Reload
	movl	-16176(%rbp,%r8,4), %esi
	movl	-20272(%rbp,%r8,4), %edx
	movl	-24368(%rbp,%r8,4), %ecx
	movabsq	$.L.str.1, %r9
	movq	%rdi, -4224376(%rbp)    # 8-byte Spill
	movq	%r9, %rdi
	movl	%eax, -4224380(%rbp)    # 4-byte Spill
	movb	$0, %al
	callq	printf
	movq	-4224376(%rbp), %rdi    # 8-byte Reload
	addq	$1, %rdi
	movq	-4223552(%rbp), %r8     # 8-byte Reload
	movl	-16172(%rbp,%r8,4), %esi
	movl	-20268(%rbp,%r8,4), %edx
	movl	-24364(%rbp,%r8,4), %ecx
	movabsq	$.L.str.1, %r9
	movq	%rdi, -4224392(%rbp)    # 8-byte Spill
	movq	%r9, %rdi
	movl	%eax, -4224396(%rbp)    # 4-byte Spill
	movb	$0, %al
	callq	printf
	movq	-4224392(%rbp), %rdi    # 8-byte Reload
	addq	$1, %rdi
	movq	-4223552(%rbp), %r8     # 8-byte Reload
	movl	-16168(%rbp,%r8,4), %esi
	movl	-20264(%rbp,%r8,4), %edx
	movl	-24360(%rbp,%r8,4), %ecx
	movabsq	$.L.str.1, %r9
	movq	%rdi, -4224408(%rbp)    # 8-byte Spill
	movq	%r9, %rdi
	movl	%eax, -4224412(%rbp)    # 4-byte Spill
	movb	$0, %al
	callq	printf
	movq	-4224408(%rbp), %rdi    # 8-byte Reload
	addq	$1, %rdi
	movq	-4223552(%rbp), %r8     # 8-byte Reload
	movl	-16164(%rbp,%r8,4), %esi
	movl	-20260(%rbp,%r8,4), %edx
	movl	-24356(%rbp,%r8,4), %ecx
	movabsq	$.L.str.1, %r9
	movq	%rdi, -4224424(%rbp)    # 8-byte Spill
	movq	%r9, %rdi
	movl	%eax, -4224428(%rbp)    # 4-byte Spill
	movb	$0, %al
	callq	printf
	movq	-4224424(%rbp), %rdi    # 8-byte Reload
	addq	$1, %rdi
	movq	-4223552(%rbp), %r8     # 8-byte Reload
	movl	-16160(%rbp,%r8,4), %esi
	movl	-20256(%rbp,%r8,4), %edx
	movl	-24352(%rbp,%r8,4), %ecx
	movabsq	$.L.str.1, %r9
	movq	%rdi, -4224440(%rbp)    # 8-byte Spill
	movq	%r9, %rdi
	movl	%eax, -4224444(%rbp)    # 4-byte Spill
	movb	$0, %al
	callq	printf
	movq	-4224440(%rbp), %rdi    # 8-byte Reload
	addq	$1, %rdi
	movq	-4223552(%rbp), %r8     # 8-byte Reload
	movl	-16156(%rbp,%r8,4), %esi
	movl	-20252(%rbp,%r8,4), %edx
	movl	-24348(%rbp,%r8,4), %ecx
	movabsq	$.L.str.1, %r9
	movq	%rdi, -4224456(%rbp)    # 8-byte Spill
	movq	%r9, %rdi
	movl	%eax, -4224460(%rbp)    # 4-byte Spill
	movb	$0, %al
	callq	printf
	movq	-4224456(%rbp), %rdi    # 8-byte Reload
	addq	$1, %rdi
	movq	-4223552(%rbp), %r8     # 8-byte Reload
	movl	-16152(%rbp,%r8,4), %esi
	movl	-20248(%rbp,%r8,4), %edx
	movl	-24344(%rbp,%r8,4), %ecx
	movabsq	$.L.str.1, %r9
	movq	%rdi, -4224472(%rbp)    # 8-byte Spill
	movq	%r9, %rdi
	movl	%eax, -4224476(%rbp)    # 4-byte Spill
	movb	$0, %al
	callq	printf
	movq	-4224472(%rbp), %rdi    # 8-byte Reload
	addq	$1, %rdi
	movq	-4223552(%rbp), %r8     # 8-byte Reload
	movl	-16148(%rbp,%r8,4), %esi
	movl	-20244(%rbp,%r8,4), %edx
	movl	-24340(%rbp,%r8,4), %ecx
	movabsq	$.L.str.1, %r9
	movq	%rdi, -4224488(%rbp)    # 8-byte Spill
	movq	%r9, %rdi
	movl	%eax, -4224492(%rbp)    # 4-byte Spill
	movb	$0, %al
	callq	printf
	movq	-4224488(%rbp), %rdi    # 8-byte Reload
	addq	$1, %rdi
	movq	-4223552(%rbp), %r8     # 8-byte Reload
	movl	-16144(%rbp,%r8,4), %esi
	movl	-20240(%rbp,%r8,4), %edx
	movl	-24336(%rbp,%r8,4), %ecx
	movabsq	$.L.str.1, %r9
	movq	%rdi, -4224504(%rbp)    # 8-byte Spill
	movq	%r9, %rdi
	movl	%eax, -4224508(%rbp)    # 4-byte Spill
	movb	$0, %al
	callq	printf
	movq	-4224504(%rbp), %rdi    # 8-byte Reload
	addq	$1, %rdi
	movq	-4223552(%rbp), %r8     # 8-byte Reload
	movl	-16140(%rbp,%r8,4), %esi
	movl	-20236(%rbp,%r8,4), %edx
	movl	-24332(%rbp,%r8,4), %ecx
	movabsq	$.L.str.1, %r9
	movq	%rdi, -4224520(%rbp)    # 8-byte Spill
	movq	%r9, %rdi
	movl	%eax, -4224524(%rbp)    # 4-byte Spill
	movb	$0, %al
	callq	printf
	movq	-4224520(%rbp), %rdi    # 8-byte Reload
	addq	$1, %rdi
	movq	-4223552(%rbp), %r8     # 8-byte Reload
	movl	-16136(%rbp,%r8,4), %esi
	movl	-20232(%rbp,%r8,4), %edx
	movl	-24328(%rbp,%r8,4), %ecx
	movabsq	$.L.str.1, %r9
	movq	%rdi, -4224536(%rbp)    # 8-byte Spill
	movq	%r9, %rdi
	movl	%eax, -4224540(%rbp)    # 4-byte Spill
	movb	$0, %al
	callq	printf
	movq	-4224536(%rbp), %rdi    # 8-byte Reload
	addq	$1, %rdi
	movq	-4223552(%rbp), %r8     # 8-byte Reload
	movl	-16132(%rbp,%r8,4), %esi
	movl	-20228(%rbp,%r8,4), %edx
	movl	-24324(%rbp,%r8,4), %ecx
	movabsq	$.L.str.1, %r9
	movq	%rdi, -4224552(%rbp)    # 8-byte Spill
	movq	%r9, %rdi
	movl	%eax, -4224556(%rbp)    # 4-byte Spill
	movb	$0, %al
	callq	printf
	movq	-4224552(%rbp), %rdi    # 8-byte Reload
	addq	$1, %rdi
	cmpq	$1024, %rdi             # imm = 0x400
	movl	%eax, -4224560(%rbp)    # 4-byte Spill
	movq	%rdi, -4223544(%rbp)    # 8-byte Spill
	jne	.LBB4_10
# %bb.11:                               # %for.end64
	xorl	%eax, %eax
	addq	$4224576, %rsp          # imm = 0x407640
	popq	%rbp
	.cfi_def_cfa %rsp, 8
	retq
.Lfunc_end4:
	.size	main, .Lfunc_end4-main
	.cfi_endproc
                                        # -- End function
	.type	.L.str,@object          # @.str
	.section	.rodata.str1.1,"aMS",@progbits,1
.L.str:
	.asciz	"total pairs - %i \n"
	.size	.L.str, 19

	.type	.L__const.main.probSizes,@object # @__const.main.probSizes
	.section	.rodata.cst16,"aM",@progbits,16
	.p2align	4
.L__const.main.probSizes:
	.long	12288                   # 0x3000
	.long	24576                   # 0x6000
	.long	36864                   # 0x9000
	.long	73728                   # 0x12000
	.size	.L__const.main.probSizes, 16

	.type	.L.str.1,@object        # @.str.1
	.section	.rodata.str1.1,"aMS",@progbits,1
.L.str.1:
	.asciz	"after, X:%i Y:%i Z%i \n"
	.size	.L.str.1, 23

	.ident	"clang version 10.0.1 "
	.section	".note.GNU-stack","",@progbits
