	.text
	.file	"bb_gemm.c"
	.globl	bb_gemm                 # -- Begin function bb_gemm
	.p2align	4, 0x90
	.type	bb_gemm,@function
bb_gemm:                                # @bb_gemm
	.cfi_startproc
# %bb.0:                                # %entry
	pushq	%rbp
	.cfi_def_cfa_offset 16
	.cfi_offset %rbp, -16
	movq	%rsp, %rbp
	.cfi_def_cfa_register %rbp
	xorl	%eax, %eax
	movl	%eax, %ecx
	movq	%rdi, -8(%rbp)          # 8-byte Spill
	movq	%rsi, -16(%rbp)         # 8-byte Spill
	movq	%rdx, -24(%rbp)         # 8-byte Spill
	movq	%rcx, -32(%rbp)         # 8-byte Spill
	jmp	.LBB0_1
.LBB0_1:                                # %for.body
                                        # =>This Loop Header: Depth=1
                                        #     Child Loop BB0_2 Depth 2
	movq	-32(%rbp), %rax         # 8-byte Reload
	xorl	%ecx, %ecx
	movl	%ecx, %edx
	movq	%rax, -40(%rbp)         # 8-byte Spill
	movq	%rdx, -48(%rbp)         # 8-byte Spill
.LBB0_2:                                # %for.body3
                                        #   Parent Loop BB0_1 Depth=1
                                        # =>  This Inner Loop Header: Depth=2
	movq	-48(%rbp), %rax         # 8-byte Reload
	movq	-40(%rbp), %rcx         # 8-byte Reload
	shlq	$10, %rcx
	addq	%rax, %rcx
	movq	-8(%rbp), %rdx          # 8-byte Reload
	movl	(%rdx,%rcx,4), %esi
	movq	%rax, -56(%rbp)         # 8-byte Spill
	movl	%esi, -60(%rbp)         # 4-byte Spill
# %bb.3:                                # %for.body6
                                        #   in Loop: Header=BB0_2 Depth=2
	movq	-56(%rbp), %rax         # 8-byte Reload
	shlq	$10, %rax
	movl	-60(%rbp), %ecx         # 4-byte Reload
	movq	-16(%rbp), %rdx         # 8-byte Reload
	imull	(%rdx,%rax,4), %ecx
	movq	-40(%rbp), %rax         # 8-byte Reload
	shlq	$10, %rax
	movq	-24(%rbp), %rsi         # 8-byte Reload
	addl	(%rsi,%rax,4), %ecx
	movl	%ecx, (%rsi,%rax,4)
	movq	-56(%rbp), %rax         # 8-byte Reload
	shlq	$10, %rax
	movl	-60(%rbp), %ecx         # 4-byte Reload
	imull	4(%rdx,%rax,4), %ecx
	movq	-40(%rbp), %rax         # 8-byte Reload
	shlq	$10, %rax
	addl	4(%rsi,%rax,4), %ecx
	movl	%ecx, 4(%rsi,%rax,4)
	movq	-56(%rbp), %rax         # 8-byte Reload
	shlq	$10, %rax
	movl	-60(%rbp), %ecx         # 4-byte Reload
	imull	8(%rdx,%rax,4), %ecx
	movq	-40(%rbp), %rax         # 8-byte Reload
	shlq	$10, %rax
	addl	8(%rsi,%rax,4), %ecx
	movl	%ecx, 8(%rsi,%rax,4)
	movq	-56(%rbp), %rax         # 8-byte Reload
	shlq	$10, %rax
	movl	-60(%rbp), %ecx         # 4-byte Reload
	imull	12(%rdx,%rax,4), %ecx
	movq	-40(%rbp), %rax         # 8-byte Reload
	shlq	$10, %rax
	addl	12(%rsi,%rax,4), %ecx
	movl	%ecx, 12(%rsi,%rax,4)
	movq	-56(%rbp), %rax         # 8-byte Reload
	shlq	$10, %rax
	movl	-60(%rbp), %ecx         # 4-byte Reload
	imull	16(%rdx,%rax,4), %ecx
	movq	-40(%rbp), %rax         # 8-byte Reload
	shlq	$10, %rax
	addl	16(%rsi,%rax,4), %ecx
	movl	%ecx, 16(%rsi,%rax,4)
	movq	-56(%rbp), %rax         # 8-byte Reload
	shlq	$10, %rax
	movl	-60(%rbp), %ecx         # 4-byte Reload
	imull	20(%rdx,%rax,4), %ecx
	movq	-40(%rbp), %rax         # 8-byte Reload
	shlq	$10, %rax
	addl	20(%rsi,%rax,4), %ecx
	movl	%ecx, 20(%rsi,%rax,4)
	movq	-56(%rbp), %rax         # 8-byte Reload
	shlq	$10, %rax
	movl	-60(%rbp), %ecx         # 4-byte Reload
	imull	24(%rdx,%rax,4), %ecx
	movq	-40(%rbp), %rax         # 8-byte Reload
	shlq	$10, %rax
	addl	24(%rsi,%rax,4), %ecx
	movl	%ecx, 24(%rsi,%rax,4)
	movq	-56(%rbp), %rax         # 8-byte Reload
	shlq	$10, %rax
	movl	-60(%rbp), %ecx         # 4-byte Reload
	imull	28(%rdx,%rax,4), %ecx
	movq	-40(%rbp), %rax         # 8-byte Reload
	shlq	$10, %rax
	addl	28(%rsi,%rax,4), %ecx
	movl	%ecx, 28(%rsi,%rax,4)
	movq	-56(%rbp), %rax         # 8-byte Reload
	shlq	$10, %rax
	movl	-60(%rbp), %ecx         # 4-byte Reload
	imull	32(%rdx,%rax,4), %ecx
	movq	-40(%rbp), %rax         # 8-byte Reload
	shlq	$10, %rax
	addl	32(%rsi,%rax,4), %ecx
	movl	%ecx, 32(%rsi,%rax,4)
	movq	-56(%rbp), %rax         # 8-byte Reload
	shlq	$10, %rax
	movl	-60(%rbp), %ecx         # 4-byte Reload
	imull	36(%rdx,%rax,4), %ecx
	movq	-40(%rbp), %rax         # 8-byte Reload
	shlq	$10, %rax
	addl	36(%rsi,%rax,4), %ecx
	movl	%ecx, 36(%rsi,%rax,4)
	movq	-56(%rbp), %rax         # 8-byte Reload
	shlq	$10, %rax
	movl	-60(%rbp), %ecx         # 4-byte Reload
	imull	40(%rdx,%rax,4), %ecx
	movq	-40(%rbp), %rax         # 8-byte Reload
	shlq	$10, %rax
	addl	40(%rsi,%rax,4), %ecx
	movl	%ecx, 40(%rsi,%rax,4)
	movq	-56(%rbp), %rax         # 8-byte Reload
	shlq	$10, %rax
	movl	-60(%rbp), %ecx         # 4-byte Reload
	imull	44(%rdx,%rax,4), %ecx
	movq	-40(%rbp), %rax         # 8-byte Reload
	shlq	$10, %rax
	addl	44(%rsi,%rax,4), %ecx
	movl	%ecx, 44(%rsi,%rax,4)
	movq	-56(%rbp), %rax         # 8-byte Reload
	shlq	$10, %rax
	movl	-60(%rbp), %ecx         # 4-byte Reload
	imull	48(%rdx,%rax,4), %ecx
	movq	-40(%rbp), %rax         # 8-byte Reload
	shlq	$10, %rax
	addl	48(%rsi,%rax,4), %ecx
	movl	%ecx, 48(%rsi,%rax,4)
	movq	-56(%rbp), %rax         # 8-byte Reload
	shlq	$10, %rax
	movl	-60(%rbp), %ecx         # 4-byte Reload
	imull	52(%rdx,%rax,4), %ecx
	movq	-40(%rbp), %rax         # 8-byte Reload
	shlq	$10, %rax
	addl	52(%rsi,%rax,4), %ecx
	movl	%ecx, 52(%rsi,%rax,4)
	movq	-56(%rbp), %rax         # 8-byte Reload
	shlq	$10, %rax
	movl	-60(%rbp), %ecx         # 4-byte Reload
	imull	56(%rdx,%rax,4), %ecx
	movq	-40(%rbp), %rax         # 8-byte Reload
	shlq	$10, %rax
	addl	56(%rsi,%rax,4), %ecx
	movl	%ecx, 56(%rsi,%rax,4)
	movq	-56(%rbp), %rax         # 8-byte Reload
	shlq	$10, %rax
	movl	-60(%rbp), %ecx         # 4-byte Reload
	imull	60(%rdx,%rax,4), %ecx
	movq	-40(%rbp), %rax         # 8-byte Reload
	shlq	$10, %rax
	addl	60(%rsi,%rax,4), %ecx
	movl	%ecx, 60(%rsi,%rax,4)
	movq	-56(%rbp), %rax         # 8-byte Reload
	shlq	$10, %rax
	movl	-60(%rbp), %ecx         # 4-byte Reload
	imull	64(%rdx,%rax,4), %ecx
	movq	-40(%rbp), %rax         # 8-byte Reload
	shlq	$10, %rax
	addl	64(%rsi,%rax,4), %ecx
	movl	%ecx, 64(%rsi,%rax,4)
	movq	-56(%rbp), %rax         # 8-byte Reload
	shlq	$10, %rax
	movl	-60(%rbp), %ecx         # 4-byte Reload
	imull	68(%rdx,%rax,4), %ecx
	movq	-40(%rbp), %rax         # 8-byte Reload
	shlq	$10, %rax
	addl	68(%rsi,%rax,4), %ecx
	movl	%ecx, 68(%rsi,%rax,4)
	movq	-56(%rbp), %rax         # 8-byte Reload
	shlq	$10, %rax
	movl	-60(%rbp), %ecx         # 4-byte Reload
	imull	72(%rdx,%rax,4), %ecx
	movq	-40(%rbp), %rax         # 8-byte Reload
	shlq	$10, %rax
	addl	72(%rsi,%rax,4), %ecx
	movl	%ecx, 72(%rsi,%rax,4)
	movq	-56(%rbp), %rax         # 8-byte Reload
	shlq	$10, %rax
	movl	-60(%rbp), %ecx         # 4-byte Reload
	imull	76(%rdx,%rax,4), %ecx
	movq	-40(%rbp), %rax         # 8-byte Reload
	shlq	$10, %rax
	addl	76(%rsi,%rax,4), %ecx
	movl	%ecx, 76(%rsi,%rax,4)
	movq	-56(%rbp), %rax         # 8-byte Reload
	shlq	$10, %rax
	movl	-60(%rbp), %ecx         # 4-byte Reload
	imull	80(%rdx,%rax,4), %ecx
	movq	-40(%rbp), %rax         # 8-byte Reload
	shlq	$10, %rax
	addl	80(%rsi,%rax,4), %ecx
	movl	%ecx, 80(%rsi,%rax,4)
	movq	-56(%rbp), %rax         # 8-byte Reload
	shlq	$10, %rax
	movl	-60(%rbp), %ecx         # 4-byte Reload
	imull	84(%rdx,%rax,4), %ecx
	movq	-40(%rbp), %rax         # 8-byte Reload
	shlq	$10, %rax
	addl	84(%rsi,%rax,4), %ecx
	movl	%ecx, 84(%rsi,%rax,4)
	movq	-56(%rbp), %rax         # 8-byte Reload
	shlq	$10, %rax
	movl	-60(%rbp), %ecx         # 4-byte Reload
	imull	88(%rdx,%rax,4), %ecx
	movq	-40(%rbp), %rax         # 8-byte Reload
	shlq	$10, %rax
	addl	88(%rsi,%rax,4), %ecx
	movl	%ecx, 88(%rsi,%rax,4)
	movq	-56(%rbp), %rax         # 8-byte Reload
	shlq	$10, %rax
	movl	-60(%rbp), %ecx         # 4-byte Reload
	imull	92(%rdx,%rax,4), %ecx
	movq	-40(%rbp), %rax         # 8-byte Reload
	shlq	$10, %rax
	addl	92(%rsi,%rax,4), %ecx
	movl	%ecx, 92(%rsi,%rax,4)
	movq	-56(%rbp), %rax         # 8-byte Reload
	shlq	$10, %rax
	movl	-60(%rbp), %ecx         # 4-byte Reload
	imull	96(%rdx,%rax,4), %ecx
	movq	-40(%rbp), %rax         # 8-byte Reload
	shlq	$10, %rax
	addl	96(%rsi,%rax,4), %ecx
	movl	%ecx, 96(%rsi,%rax,4)
	movq	-56(%rbp), %rax         # 8-byte Reload
	shlq	$10, %rax
	movl	-60(%rbp), %ecx         # 4-byte Reload
	imull	100(%rdx,%rax,4), %ecx
	movq	-40(%rbp), %rax         # 8-byte Reload
	shlq	$10, %rax
	addl	100(%rsi,%rax,4), %ecx
	movl	%ecx, 100(%rsi,%rax,4)
	movq	-56(%rbp), %rax         # 8-byte Reload
	shlq	$10, %rax
	movl	-60(%rbp), %ecx         # 4-byte Reload
	imull	104(%rdx,%rax,4), %ecx
	movq	-40(%rbp), %rax         # 8-byte Reload
	shlq	$10, %rax
	addl	104(%rsi,%rax,4), %ecx
	movl	%ecx, 104(%rsi,%rax,4)
	movq	-56(%rbp), %rax         # 8-byte Reload
	shlq	$10, %rax
	movl	-60(%rbp), %ecx         # 4-byte Reload
	imull	108(%rdx,%rax,4), %ecx
	movq	-40(%rbp), %rax         # 8-byte Reload
	shlq	$10, %rax
	addl	108(%rsi,%rax,4), %ecx
	movl	%ecx, 108(%rsi,%rax,4)
	movq	-56(%rbp), %rax         # 8-byte Reload
	shlq	$10, %rax
	movl	-60(%rbp), %ecx         # 4-byte Reload
	imull	112(%rdx,%rax,4), %ecx
	movq	-40(%rbp), %rax         # 8-byte Reload
	shlq	$10, %rax
	addl	112(%rsi,%rax,4), %ecx
	movl	%ecx, 112(%rsi,%rax,4)
	movq	-56(%rbp), %rax         # 8-byte Reload
	shlq	$10, %rax
	movl	-60(%rbp), %ecx         # 4-byte Reload
	imull	116(%rdx,%rax,4), %ecx
	movq	-40(%rbp), %rax         # 8-byte Reload
	shlq	$10, %rax
	addl	116(%rsi,%rax,4), %ecx
	movl	%ecx, 116(%rsi,%rax,4)
	movq	-56(%rbp), %rax         # 8-byte Reload
	shlq	$10, %rax
	movl	-60(%rbp), %ecx         # 4-byte Reload
	imull	120(%rdx,%rax,4), %ecx
	movq	-40(%rbp), %rax         # 8-byte Reload
	shlq	$10, %rax
	addl	120(%rsi,%rax,4), %ecx
	movl	%ecx, 120(%rsi,%rax,4)
	movq	-56(%rbp), %rax         # 8-byte Reload
	shlq	$10, %rax
	movl	-60(%rbp), %ecx         # 4-byte Reload
	imull	124(%rdx,%rax,4), %ecx
	movq	-40(%rbp), %rax         # 8-byte Reload
	shlq	$10, %rax
	addl	124(%rsi,%rax,4), %ecx
	movl	%ecx, 124(%rsi,%rax,4)
	movq	-56(%rbp), %rax         # 8-byte Reload
	shlq	$10, %rax
	movl	-60(%rbp), %ecx         # 4-byte Reload
	imull	128(%rdx,%rax,4), %ecx
	movq	-40(%rbp), %rax         # 8-byte Reload
	shlq	$10, %rax
	addl	128(%rsi,%rax,4), %ecx
	movl	%ecx, 128(%rsi,%rax,4)
	movq	-56(%rbp), %rax         # 8-byte Reload
	shlq	$10, %rax
	movl	-60(%rbp), %ecx         # 4-byte Reload
	imull	132(%rdx,%rax,4), %ecx
	movq	-40(%rbp), %rax         # 8-byte Reload
	shlq	$10, %rax
	addl	132(%rsi,%rax,4), %ecx
	movl	%ecx, 132(%rsi,%rax,4)
	movq	-56(%rbp), %rax         # 8-byte Reload
	shlq	$10, %rax
	movl	-60(%rbp), %ecx         # 4-byte Reload
	imull	136(%rdx,%rax,4), %ecx
	movq	-40(%rbp), %rax         # 8-byte Reload
	shlq	$10, %rax
	addl	136(%rsi,%rax,4), %ecx
	movl	%ecx, 136(%rsi,%rax,4)
	movq	-56(%rbp), %rax         # 8-byte Reload
	shlq	$10, %rax
	movl	-60(%rbp), %ecx         # 4-byte Reload
	imull	140(%rdx,%rax,4), %ecx
	movq	-40(%rbp), %rax         # 8-byte Reload
	shlq	$10, %rax
	addl	140(%rsi,%rax,4), %ecx
	movl	%ecx, 140(%rsi,%rax,4)
	movq	-56(%rbp), %rax         # 8-byte Reload
	shlq	$10, %rax
	movl	-60(%rbp), %ecx         # 4-byte Reload
	imull	144(%rdx,%rax,4), %ecx
	movq	-40(%rbp), %rax         # 8-byte Reload
	shlq	$10, %rax
	addl	144(%rsi,%rax,4), %ecx
	movl	%ecx, 144(%rsi,%rax,4)
	movq	-56(%rbp), %rax         # 8-byte Reload
	shlq	$10, %rax
	movl	-60(%rbp), %ecx         # 4-byte Reload
	imull	148(%rdx,%rax,4), %ecx
	movq	-40(%rbp), %rax         # 8-byte Reload
	shlq	$10, %rax
	addl	148(%rsi,%rax,4), %ecx
	movl	%ecx, 148(%rsi,%rax,4)
	movq	-56(%rbp), %rax         # 8-byte Reload
	shlq	$10, %rax
	movl	-60(%rbp), %ecx         # 4-byte Reload
	imull	152(%rdx,%rax,4), %ecx
	movq	-40(%rbp), %rax         # 8-byte Reload
	shlq	$10, %rax
	addl	152(%rsi,%rax,4), %ecx
	movl	%ecx, 152(%rsi,%rax,4)
	movq	-56(%rbp), %rax         # 8-byte Reload
	shlq	$10, %rax
	movl	-60(%rbp), %ecx         # 4-byte Reload
	imull	156(%rdx,%rax,4), %ecx
	movq	-40(%rbp), %rax         # 8-byte Reload
	shlq	$10, %rax
	addl	156(%rsi,%rax,4), %ecx
	movl	%ecx, 156(%rsi,%rax,4)
	movq	-56(%rbp), %rax         # 8-byte Reload
	shlq	$10, %rax
	movl	-60(%rbp), %ecx         # 4-byte Reload
	imull	160(%rdx,%rax,4), %ecx
	movq	-40(%rbp), %rax         # 8-byte Reload
	shlq	$10, %rax
	addl	160(%rsi,%rax,4), %ecx
	movl	%ecx, 160(%rsi,%rax,4)
	movq	-56(%rbp), %rax         # 8-byte Reload
	shlq	$10, %rax
	movl	-60(%rbp), %ecx         # 4-byte Reload
	imull	164(%rdx,%rax,4), %ecx
	movq	-40(%rbp), %rax         # 8-byte Reload
	shlq	$10, %rax
	addl	164(%rsi,%rax,4), %ecx
	movl	%ecx, 164(%rsi,%rax,4)
	movq	-56(%rbp), %rax         # 8-byte Reload
	shlq	$10, %rax
	movl	-60(%rbp), %ecx         # 4-byte Reload
	imull	168(%rdx,%rax,4), %ecx
	movq	-40(%rbp), %rax         # 8-byte Reload
	shlq	$10, %rax
	addl	168(%rsi,%rax,4), %ecx
	movl	%ecx, 168(%rsi,%rax,4)
	movq	-56(%rbp), %rax         # 8-byte Reload
	shlq	$10, %rax
	movl	-60(%rbp), %ecx         # 4-byte Reload
	imull	172(%rdx,%rax,4), %ecx
	movq	-40(%rbp), %rax         # 8-byte Reload
	shlq	$10, %rax
	addl	172(%rsi,%rax,4), %ecx
	movl	%ecx, 172(%rsi,%rax,4)
	movq	-56(%rbp), %rax         # 8-byte Reload
	shlq	$10, %rax
	movl	-60(%rbp), %ecx         # 4-byte Reload
	imull	176(%rdx,%rax,4), %ecx
	movq	-40(%rbp), %rax         # 8-byte Reload
	shlq	$10, %rax
	addl	176(%rsi,%rax,4), %ecx
	movl	%ecx, 176(%rsi,%rax,4)
	movq	-56(%rbp), %rax         # 8-byte Reload
	shlq	$10, %rax
	movl	-60(%rbp), %ecx         # 4-byte Reload
	imull	180(%rdx,%rax,4), %ecx
	movq	-40(%rbp), %rax         # 8-byte Reload
	shlq	$10, %rax
	addl	180(%rsi,%rax,4), %ecx
	movl	%ecx, 180(%rsi,%rax,4)
	movq	-56(%rbp), %rax         # 8-byte Reload
	shlq	$10, %rax
	movl	-60(%rbp), %ecx         # 4-byte Reload
	imull	184(%rdx,%rax,4), %ecx
	movq	-40(%rbp), %rax         # 8-byte Reload
	shlq	$10, %rax
	addl	184(%rsi,%rax,4), %ecx
	movl	%ecx, 184(%rsi,%rax,4)
	movq	-56(%rbp), %rax         # 8-byte Reload
	shlq	$10, %rax
	movl	-60(%rbp), %ecx         # 4-byte Reload
	imull	188(%rdx,%rax,4), %ecx
	movq	-40(%rbp), %rax         # 8-byte Reload
	shlq	$10, %rax
	addl	188(%rsi,%rax,4), %ecx
	movl	%ecx, 188(%rsi,%rax,4)
	movq	-56(%rbp), %rax         # 8-byte Reload
	shlq	$10, %rax
	movl	-60(%rbp), %ecx         # 4-byte Reload
	imull	192(%rdx,%rax,4), %ecx
	movq	-40(%rbp), %rax         # 8-byte Reload
	shlq	$10, %rax
	addl	192(%rsi,%rax,4), %ecx
	movl	%ecx, 192(%rsi,%rax,4)
	movq	-56(%rbp), %rax         # 8-byte Reload
	shlq	$10, %rax
	movl	-60(%rbp), %ecx         # 4-byte Reload
	imull	196(%rdx,%rax,4), %ecx
	movq	-40(%rbp), %rax         # 8-byte Reload
	shlq	$10, %rax
	addl	196(%rsi,%rax,4), %ecx
	movl	%ecx, 196(%rsi,%rax,4)
	movq	-56(%rbp), %rax         # 8-byte Reload
	shlq	$10, %rax
	movl	-60(%rbp), %ecx         # 4-byte Reload
	imull	200(%rdx,%rax,4), %ecx
	movq	-40(%rbp), %rax         # 8-byte Reload
	shlq	$10, %rax
	addl	200(%rsi,%rax,4), %ecx
	movl	%ecx, 200(%rsi,%rax,4)
	movq	-56(%rbp), %rax         # 8-byte Reload
	shlq	$10, %rax
	movl	-60(%rbp), %ecx         # 4-byte Reload
	imull	204(%rdx,%rax,4), %ecx
	movq	-40(%rbp), %rax         # 8-byte Reload
	shlq	$10, %rax
	addl	204(%rsi,%rax,4), %ecx
	movl	%ecx, 204(%rsi,%rax,4)
	movq	-56(%rbp), %rax         # 8-byte Reload
	shlq	$10, %rax
	movl	-60(%rbp), %ecx         # 4-byte Reload
	imull	208(%rdx,%rax,4), %ecx
	movq	-40(%rbp), %rax         # 8-byte Reload
	shlq	$10, %rax
	addl	208(%rsi,%rax,4), %ecx
	movl	%ecx, 208(%rsi,%rax,4)
	movq	-56(%rbp), %rax         # 8-byte Reload
	shlq	$10, %rax
	movl	-60(%rbp), %ecx         # 4-byte Reload
	imull	212(%rdx,%rax,4), %ecx
	movq	-40(%rbp), %rax         # 8-byte Reload
	shlq	$10, %rax
	addl	212(%rsi,%rax,4), %ecx
	movl	%ecx, 212(%rsi,%rax,4)
	movq	-56(%rbp), %rax         # 8-byte Reload
	shlq	$10, %rax
	movl	-60(%rbp), %ecx         # 4-byte Reload
	imull	216(%rdx,%rax,4), %ecx
	movq	-40(%rbp), %rax         # 8-byte Reload
	shlq	$10, %rax
	addl	216(%rsi,%rax,4), %ecx
	movl	%ecx, 216(%rsi,%rax,4)
	movq	-56(%rbp), %rax         # 8-byte Reload
	shlq	$10, %rax
	movl	-60(%rbp), %ecx         # 4-byte Reload
	imull	220(%rdx,%rax,4), %ecx
	movq	-40(%rbp), %rax         # 8-byte Reload
	shlq	$10, %rax
	addl	220(%rsi,%rax,4), %ecx
	movl	%ecx, 220(%rsi,%rax,4)
	movq	-56(%rbp), %rax         # 8-byte Reload
	shlq	$10, %rax
	movl	-60(%rbp), %ecx         # 4-byte Reload
	imull	224(%rdx,%rax,4), %ecx
	movq	-40(%rbp), %rax         # 8-byte Reload
	shlq	$10, %rax
	addl	224(%rsi,%rax,4), %ecx
	movl	%ecx, 224(%rsi,%rax,4)
	movq	-56(%rbp), %rax         # 8-byte Reload
	shlq	$10, %rax
	movl	-60(%rbp), %ecx         # 4-byte Reload
	imull	228(%rdx,%rax,4), %ecx
	movq	-40(%rbp), %rax         # 8-byte Reload
	shlq	$10, %rax
	addl	228(%rsi,%rax,4), %ecx
	movl	%ecx, 228(%rsi,%rax,4)
	movq	-56(%rbp), %rax         # 8-byte Reload
	shlq	$10, %rax
	movl	-60(%rbp), %ecx         # 4-byte Reload
	imull	232(%rdx,%rax,4), %ecx
	movq	-40(%rbp), %rax         # 8-byte Reload
	shlq	$10, %rax
	addl	232(%rsi,%rax,4), %ecx
	movl	%ecx, 232(%rsi,%rax,4)
	movq	-56(%rbp), %rax         # 8-byte Reload
	shlq	$10, %rax
	movl	-60(%rbp), %ecx         # 4-byte Reload
	imull	236(%rdx,%rax,4), %ecx
	movq	-40(%rbp), %rax         # 8-byte Reload
	shlq	$10, %rax
	addl	236(%rsi,%rax,4), %ecx
	movl	%ecx, 236(%rsi,%rax,4)
	movq	-56(%rbp), %rax         # 8-byte Reload
	shlq	$10, %rax
	movl	-60(%rbp), %ecx         # 4-byte Reload
	imull	240(%rdx,%rax,4), %ecx
	movq	-40(%rbp), %rax         # 8-byte Reload
	shlq	$10, %rax
	addl	240(%rsi,%rax,4), %ecx
	movl	%ecx, 240(%rsi,%rax,4)
	movq	-56(%rbp), %rax         # 8-byte Reload
	shlq	$10, %rax
	movl	-60(%rbp), %ecx         # 4-byte Reload
	imull	244(%rdx,%rax,4), %ecx
	movq	-40(%rbp), %rax         # 8-byte Reload
	shlq	$10, %rax
	addl	244(%rsi,%rax,4), %ecx
	movl	%ecx, 244(%rsi,%rax,4)
	movq	-56(%rbp), %rax         # 8-byte Reload
	shlq	$10, %rax
	movl	-60(%rbp), %ecx         # 4-byte Reload
	imull	248(%rdx,%rax,4), %ecx
	movq	-40(%rbp), %rax         # 8-byte Reload
	shlq	$10, %rax
	addl	248(%rsi,%rax,4), %ecx
	movl	%ecx, 248(%rsi,%rax,4)
	movq	-56(%rbp), %rax         # 8-byte Reload
	shlq	$10, %rax
	movl	-60(%rbp), %ecx         # 4-byte Reload
	imull	252(%rdx,%rax,4), %ecx
	movq	-40(%rbp), %rax         # 8-byte Reload
	shlq	$10, %rax
	addl	252(%rsi,%rax,4), %ecx
	movl	%ecx, 252(%rsi,%rax,4)
	movq	-56(%rbp), %rax         # 8-byte Reload
	shlq	$10, %rax
	movl	-60(%rbp), %ecx         # 4-byte Reload
	imull	256(%rdx,%rax,4), %ecx
	movq	-40(%rbp), %rax         # 8-byte Reload
	shlq	$10, %rax
	addl	256(%rsi,%rax,4), %ecx
	movl	%ecx, 256(%rsi,%rax,4)
	movq	-56(%rbp), %rax         # 8-byte Reload
	shlq	$10, %rax
	movl	-60(%rbp), %ecx         # 4-byte Reload
	imull	260(%rdx,%rax,4), %ecx
	movq	-40(%rbp), %rax         # 8-byte Reload
	shlq	$10, %rax
	addl	260(%rsi,%rax,4), %ecx
	movl	%ecx, 260(%rsi,%rax,4)
	movq	-56(%rbp), %rax         # 8-byte Reload
	shlq	$10, %rax
	movl	-60(%rbp), %ecx         # 4-byte Reload
	imull	264(%rdx,%rax,4), %ecx
	movq	-40(%rbp), %rax         # 8-byte Reload
	shlq	$10, %rax
	addl	264(%rsi,%rax,4), %ecx
	movl	%ecx, 264(%rsi,%rax,4)
	movq	-56(%rbp), %rax         # 8-byte Reload
	shlq	$10, %rax
	movl	-60(%rbp), %ecx         # 4-byte Reload
	imull	268(%rdx,%rax,4), %ecx
	movq	-40(%rbp), %rax         # 8-byte Reload
	shlq	$10, %rax
	addl	268(%rsi,%rax,4), %ecx
	movl	%ecx, 268(%rsi,%rax,4)
	movq	-56(%rbp), %rax         # 8-byte Reload
	shlq	$10, %rax
	movl	-60(%rbp), %ecx         # 4-byte Reload
	imull	272(%rdx,%rax,4), %ecx
	movq	-40(%rbp), %rax         # 8-byte Reload
	shlq	$10, %rax
	addl	272(%rsi,%rax,4), %ecx
	movl	%ecx, 272(%rsi,%rax,4)
	movq	-56(%rbp), %rax         # 8-byte Reload
	shlq	$10, %rax
	movl	-60(%rbp), %ecx         # 4-byte Reload
	imull	276(%rdx,%rax,4), %ecx
	movq	-40(%rbp), %rax         # 8-byte Reload
	shlq	$10, %rax
	addl	276(%rsi,%rax,4), %ecx
	movl	%ecx, 276(%rsi,%rax,4)
	movq	-56(%rbp), %rax         # 8-byte Reload
	shlq	$10, %rax
	movl	-60(%rbp), %ecx         # 4-byte Reload
	imull	280(%rdx,%rax,4), %ecx
	movq	-40(%rbp), %rax         # 8-byte Reload
	shlq	$10, %rax
	addl	280(%rsi,%rax,4), %ecx
	movl	%ecx, 280(%rsi,%rax,4)
	movq	-56(%rbp), %rax         # 8-byte Reload
	shlq	$10, %rax
	movl	-60(%rbp), %ecx         # 4-byte Reload
	imull	284(%rdx,%rax,4), %ecx
	movq	-40(%rbp), %rax         # 8-byte Reload
	shlq	$10, %rax
	addl	284(%rsi,%rax,4), %ecx
	movl	%ecx, 284(%rsi,%rax,4)
	movq	-56(%rbp), %rax         # 8-byte Reload
	shlq	$10, %rax
	movl	-60(%rbp), %ecx         # 4-byte Reload
	imull	288(%rdx,%rax,4), %ecx
	movq	-40(%rbp), %rax         # 8-byte Reload
	shlq	$10, %rax
	addl	288(%rsi,%rax,4), %ecx
	movl	%ecx, 288(%rsi,%rax,4)
	movq	-56(%rbp), %rax         # 8-byte Reload
	shlq	$10, %rax
	movl	-60(%rbp), %ecx         # 4-byte Reload
	imull	292(%rdx,%rax,4), %ecx
	movq	-40(%rbp), %rax         # 8-byte Reload
	shlq	$10, %rax
	addl	292(%rsi,%rax,4), %ecx
	movl	%ecx, 292(%rsi,%rax,4)
	movq	-56(%rbp), %rax         # 8-byte Reload
	shlq	$10, %rax
	movl	-60(%rbp), %ecx         # 4-byte Reload
	imull	296(%rdx,%rax,4), %ecx
	movq	-40(%rbp), %rax         # 8-byte Reload
	shlq	$10, %rax
	addl	296(%rsi,%rax,4), %ecx
	movl	%ecx, 296(%rsi,%rax,4)
	movq	-56(%rbp), %rax         # 8-byte Reload
	shlq	$10, %rax
	movl	-60(%rbp), %ecx         # 4-byte Reload
	imull	300(%rdx,%rax,4), %ecx
	movq	-40(%rbp), %rax         # 8-byte Reload
	shlq	$10, %rax
	addl	300(%rsi,%rax,4), %ecx
	movl	%ecx, 300(%rsi,%rax,4)
	movq	-56(%rbp), %rax         # 8-byte Reload
	shlq	$10, %rax
	movl	-60(%rbp), %ecx         # 4-byte Reload
	imull	304(%rdx,%rax,4), %ecx
	movq	-40(%rbp), %rax         # 8-byte Reload
	shlq	$10, %rax
	addl	304(%rsi,%rax,4), %ecx
	movl	%ecx, 304(%rsi,%rax,4)
	movq	-56(%rbp), %rax         # 8-byte Reload
	shlq	$10, %rax
	movl	-60(%rbp), %ecx         # 4-byte Reload
	imull	308(%rdx,%rax,4), %ecx
	movq	-40(%rbp), %rax         # 8-byte Reload
	shlq	$10, %rax
	addl	308(%rsi,%rax,4), %ecx
	movl	%ecx, 308(%rsi,%rax,4)
	movq	-56(%rbp), %rax         # 8-byte Reload
	shlq	$10, %rax
	movl	-60(%rbp), %ecx         # 4-byte Reload
	imull	312(%rdx,%rax,4), %ecx
	movq	-40(%rbp), %rax         # 8-byte Reload
	shlq	$10, %rax
	addl	312(%rsi,%rax,4), %ecx
	movl	%ecx, 312(%rsi,%rax,4)
	movq	-56(%rbp), %rax         # 8-byte Reload
	shlq	$10, %rax
	movl	-60(%rbp), %ecx         # 4-byte Reload
	imull	316(%rdx,%rax,4), %ecx
	movq	-40(%rbp), %rax         # 8-byte Reload
	shlq	$10, %rax
	addl	316(%rsi,%rax,4), %ecx
	movl	%ecx, 316(%rsi,%rax,4)
	movq	-56(%rbp), %rax         # 8-byte Reload
	shlq	$10, %rax
	movl	-60(%rbp), %ecx         # 4-byte Reload
	imull	320(%rdx,%rax,4), %ecx
	movq	-40(%rbp), %rax         # 8-byte Reload
	shlq	$10, %rax
	addl	320(%rsi,%rax,4), %ecx
	movl	%ecx, 320(%rsi,%rax,4)
	movq	-56(%rbp), %rax         # 8-byte Reload
	shlq	$10, %rax
	movl	-60(%rbp), %ecx         # 4-byte Reload
	imull	324(%rdx,%rax,4), %ecx
	movq	-40(%rbp), %rax         # 8-byte Reload
	shlq	$10, %rax
	addl	324(%rsi,%rax,4), %ecx
	movl	%ecx, 324(%rsi,%rax,4)
	movq	-56(%rbp), %rax         # 8-byte Reload
	shlq	$10, %rax
	movl	-60(%rbp), %ecx         # 4-byte Reload
	imull	328(%rdx,%rax,4), %ecx
	movq	-40(%rbp), %rax         # 8-byte Reload
	shlq	$10, %rax
	addl	328(%rsi,%rax,4), %ecx
	movl	%ecx, 328(%rsi,%rax,4)
	movq	-56(%rbp), %rax         # 8-byte Reload
	shlq	$10, %rax
	movl	-60(%rbp), %ecx         # 4-byte Reload
	imull	332(%rdx,%rax,4), %ecx
	movq	-40(%rbp), %rax         # 8-byte Reload
	shlq	$10, %rax
	addl	332(%rsi,%rax,4), %ecx
	movl	%ecx, 332(%rsi,%rax,4)
	movq	-56(%rbp), %rax         # 8-byte Reload
	shlq	$10, %rax
	movl	-60(%rbp), %ecx         # 4-byte Reload
	imull	336(%rdx,%rax,4), %ecx
	movq	-40(%rbp), %rax         # 8-byte Reload
	shlq	$10, %rax
	addl	336(%rsi,%rax,4), %ecx
	movl	%ecx, 336(%rsi,%rax,4)
	movq	-56(%rbp), %rax         # 8-byte Reload
	shlq	$10, %rax
	movl	-60(%rbp), %ecx         # 4-byte Reload
	imull	340(%rdx,%rax,4), %ecx
	movq	-40(%rbp), %rax         # 8-byte Reload
	shlq	$10, %rax
	addl	340(%rsi,%rax,4), %ecx
	movl	%ecx, 340(%rsi,%rax,4)
	movq	-56(%rbp), %rax         # 8-byte Reload
	shlq	$10, %rax
	movl	-60(%rbp), %ecx         # 4-byte Reload
	imull	344(%rdx,%rax,4), %ecx
	movq	-40(%rbp), %rax         # 8-byte Reload
	shlq	$10, %rax
	addl	344(%rsi,%rax,4), %ecx
	movl	%ecx, 344(%rsi,%rax,4)
	movq	-56(%rbp), %rax         # 8-byte Reload
	shlq	$10, %rax
	movl	-60(%rbp), %ecx         # 4-byte Reload
	imull	348(%rdx,%rax,4), %ecx
	movq	-40(%rbp), %rax         # 8-byte Reload
	shlq	$10, %rax
	addl	348(%rsi,%rax,4), %ecx
	movl	%ecx, 348(%rsi,%rax,4)
	movq	-56(%rbp), %rax         # 8-byte Reload
	shlq	$10, %rax
	movl	-60(%rbp), %ecx         # 4-byte Reload
	imull	352(%rdx,%rax,4), %ecx
	movq	-40(%rbp), %rax         # 8-byte Reload
	shlq	$10, %rax
	addl	352(%rsi,%rax,4), %ecx
	movl	%ecx, 352(%rsi,%rax,4)
	movq	-56(%rbp), %rax         # 8-byte Reload
	shlq	$10, %rax
	movl	-60(%rbp), %ecx         # 4-byte Reload
	imull	356(%rdx,%rax,4), %ecx
	movq	-40(%rbp), %rax         # 8-byte Reload
	shlq	$10, %rax
	addl	356(%rsi,%rax,4), %ecx
	movl	%ecx, 356(%rsi,%rax,4)
	movq	-56(%rbp), %rax         # 8-byte Reload
	shlq	$10, %rax
	movl	-60(%rbp), %ecx         # 4-byte Reload
	imull	360(%rdx,%rax,4), %ecx
	movq	-40(%rbp), %rax         # 8-byte Reload
	shlq	$10, %rax
	addl	360(%rsi,%rax,4), %ecx
	movl	%ecx, 360(%rsi,%rax,4)
	movq	-56(%rbp), %rax         # 8-byte Reload
	shlq	$10, %rax
	movl	-60(%rbp), %ecx         # 4-byte Reload
	imull	364(%rdx,%rax,4), %ecx
	movq	-40(%rbp), %rax         # 8-byte Reload
	shlq	$10, %rax
	addl	364(%rsi,%rax,4), %ecx
	movl	%ecx, 364(%rsi,%rax,4)
	movq	-56(%rbp), %rax         # 8-byte Reload
	shlq	$10, %rax
	movl	-60(%rbp), %ecx         # 4-byte Reload
	imull	368(%rdx,%rax,4), %ecx
	movq	-40(%rbp), %rax         # 8-byte Reload
	shlq	$10, %rax
	addl	368(%rsi,%rax,4), %ecx
	movl	%ecx, 368(%rsi,%rax,4)
	movq	-56(%rbp), %rax         # 8-byte Reload
	shlq	$10, %rax
	movl	-60(%rbp), %ecx         # 4-byte Reload
	imull	372(%rdx,%rax,4), %ecx
	movq	-40(%rbp), %rax         # 8-byte Reload
	shlq	$10, %rax
	addl	372(%rsi,%rax,4), %ecx
	movl	%ecx, 372(%rsi,%rax,4)
	movq	-56(%rbp), %rax         # 8-byte Reload
	shlq	$10, %rax
	movl	-60(%rbp), %ecx         # 4-byte Reload
	imull	376(%rdx,%rax,4), %ecx
	movq	-40(%rbp), %rax         # 8-byte Reload
	shlq	$10, %rax
	addl	376(%rsi,%rax,4), %ecx
	movl	%ecx, 376(%rsi,%rax,4)
	movq	-56(%rbp), %rax         # 8-byte Reload
	shlq	$10, %rax
	movl	-60(%rbp), %ecx         # 4-byte Reload
	imull	380(%rdx,%rax,4), %ecx
	movq	-40(%rbp), %rax         # 8-byte Reload
	shlq	$10, %rax
	addl	380(%rsi,%rax,4), %ecx
	movl	%ecx, 380(%rsi,%rax,4)
	movq	-56(%rbp), %rax         # 8-byte Reload
	shlq	$10, %rax
	movl	-60(%rbp), %ecx         # 4-byte Reload
	imull	384(%rdx,%rax,4), %ecx
	movq	-40(%rbp), %rax         # 8-byte Reload
	shlq	$10, %rax
	addl	384(%rsi,%rax,4), %ecx
	movl	%ecx, 384(%rsi,%rax,4)
	movq	-56(%rbp), %rax         # 8-byte Reload
	shlq	$10, %rax
	movl	-60(%rbp), %ecx         # 4-byte Reload
	imull	388(%rdx,%rax,4), %ecx
	movq	-40(%rbp), %rax         # 8-byte Reload
	shlq	$10, %rax
	addl	388(%rsi,%rax,4), %ecx
	movl	%ecx, 388(%rsi,%rax,4)
	movq	-56(%rbp), %rax         # 8-byte Reload
	shlq	$10, %rax
	movl	-60(%rbp), %ecx         # 4-byte Reload
	imull	392(%rdx,%rax,4), %ecx
	movq	-40(%rbp), %rax         # 8-byte Reload
	shlq	$10, %rax
	addl	392(%rsi,%rax,4), %ecx
	movl	%ecx, 392(%rsi,%rax,4)
	movq	-56(%rbp), %rax         # 8-byte Reload
	shlq	$10, %rax
	movl	-60(%rbp), %ecx         # 4-byte Reload
	imull	396(%rdx,%rax,4), %ecx
	movq	-40(%rbp), %rax         # 8-byte Reload
	shlq	$10, %rax
	addl	396(%rsi,%rax,4), %ecx
	movl	%ecx, 396(%rsi,%rax,4)
	movq	-56(%rbp), %rax         # 8-byte Reload
	shlq	$10, %rax
	movl	-60(%rbp), %ecx         # 4-byte Reload
	imull	400(%rdx,%rax,4), %ecx
	movq	-40(%rbp), %rax         # 8-byte Reload
	shlq	$10, %rax
	addl	400(%rsi,%rax,4), %ecx
	movl	%ecx, 400(%rsi,%rax,4)
	movq	-56(%rbp), %rax         # 8-byte Reload
	shlq	$10, %rax
	movl	-60(%rbp), %ecx         # 4-byte Reload
	imull	404(%rdx,%rax,4), %ecx
	movq	-40(%rbp), %rax         # 8-byte Reload
	shlq	$10, %rax
	addl	404(%rsi,%rax,4), %ecx
	movl	%ecx, 404(%rsi,%rax,4)
	movq	-56(%rbp), %rax         # 8-byte Reload
	shlq	$10, %rax
	movl	-60(%rbp), %ecx         # 4-byte Reload
	imull	408(%rdx,%rax,4), %ecx
	movq	-40(%rbp), %rax         # 8-byte Reload
	shlq	$10, %rax
	addl	408(%rsi,%rax,4), %ecx
	movl	%ecx, 408(%rsi,%rax,4)
	movq	-56(%rbp), %rax         # 8-byte Reload
	shlq	$10, %rax
	movl	-60(%rbp), %ecx         # 4-byte Reload
	imull	412(%rdx,%rax,4), %ecx
	movq	-40(%rbp), %rax         # 8-byte Reload
	shlq	$10, %rax
	addl	412(%rsi,%rax,4), %ecx
	movl	%ecx, 412(%rsi,%rax,4)
	movq	-56(%rbp), %rax         # 8-byte Reload
	shlq	$10, %rax
	movl	-60(%rbp), %ecx         # 4-byte Reload
	imull	416(%rdx,%rax,4), %ecx
	movq	-40(%rbp), %rax         # 8-byte Reload
	shlq	$10, %rax
	addl	416(%rsi,%rax,4), %ecx
	movl	%ecx, 416(%rsi,%rax,4)
	movq	-56(%rbp), %rax         # 8-byte Reload
	shlq	$10, %rax
	movl	-60(%rbp), %ecx         # 4-byte Reload
	imull	420(%rdx,%rax,4), %ecx
	movq	-40(%rbp), %rax         # 8-byte Reload
	shlq	$10, %rax
	addl	420(%rsi,%rax,4), %ecx
	movl	%ecx, 420(%rsi,%rax,4)
	movq	-56(%rbp), %rax         # 8-byte Reload
	shlq	$10, %rax
	movl	-60(%rbp), %ecx         # 4-byte Reload
	imull	424(%rdx,%rax,4), %ecx
	movq	-40(%rbp), %rax         # 8-byte Reload
	shlq	$10, %rax
	addl	424(%rsi,%rax,4), %ecx
	movl	%ecx, 424(%rsi,%rax,4)
	movq	-56(%rbp), %rax         # 8-byte Reload
	shlq	$10, %rax
	movl	-60(%rbp), %ecx         # 4-byte Reload
	imull	428(%rdx,%rax,4), %ecx
	movq	-40(%rbp), %rax         # 8-byte Reload
	shlq	$10, %rax
	addl	428(%rsi,%rax,4), %ecx
	movl	%ecx, 428(%rsi,%rax,4)
	movq	-56(%rbp), %rax         # 8-byte Reload
	shlq	$10, %rax
	movl	-60(%rbp), %ecx         # 4-byte Reload
	imull	432(%rdx,%rax,4), %ecx
	movq	-40(%rbp), %rax         # 8-byte Reload
	shlq	$10, %rax
	addl	432(%rsi,%rax,4), %ecx
	movl	%ecx, 432(%rsi,%rax,4)
	movq	-56(%rbp), %rax         # 8-byte Reload
	shlq	$10, %rax
	movl	-60(%rbp), %ecx         # 4-byte Reload
	imull	436(%rdx,%rax,4), %ecx
	movq	-40(%rbp), %rax         # 8-byte Reload
	shlq	$10, %rax
	addl	436(%rsi,%rax,4), %ecx
	movl	%ecx, 436(%rsi,%rax,4)
	movq	-56(%rbp), %rax         # 8-byte Reload
	shlq	$10, %rax
	movl	-60(%rbp), %ecx         # 4-byte Reload
	imull	440(%rdx,%rax,4), %ecx
	movq	-40(%rbp), %rax         # 8-byte Reload
	shlq	$10, %rax
	addl	440(%rsi,%rax,4), %ecx
	movl	%ecx, 440(%rsi,%rax,4)
	movq	-56(%rbp), %rax         # 8-byte Reload
	shlq	$10, %rax
	movl	-60(%rbp), %ecx         # 4-byte Reload
	imull	444(%rdx,%rax,4), %ecx
	movq	-40(%rbp), %rax         # 8-byte Reload
	shlq	$10, %rax
	addl	444(%rsi,%rax,4), %ecx
	movl	%ecx, 444(%rsi,%rax,4)
	movq	-56(%rbp), %rax         # 8-byte Reload
	shlq	$10, %rax
	movl	-60(%rbp), %ecx         # 4-byte Reload
	imull	448(%rdx,%rax,4), %ecx
	movq	-40(%rbp), %rax         # 8-byte Reload
	shlq	$10, %rax
	addl	448(%rsi,%rax,4), %ecx
	movl	%ecx, 448(%rsi,%rax,4)
	movq	-56(%rbp), %rax         # 8-byte Reload
	shlq	$10, %rax
	movl	-60(%rbp), %ecx         # 4-byte Reload
	imull	452(%rdx,%rax,4), %ecx
	movq	-40(%rbp), %rax         # 8-byte Reload
	shlq	$10, %rax
	addl	452(%rsi,%rax,4), %ecx
	movl	%ecx, 452(%rsi,%rax,4)
	movq	-56(%rbp), %rax         # 8-byte Reload
	shlq	$10, %rax
	movl	-60(%rbp), %ecx         # 4-byte Reload
	imull	456(%rdx,%rax,4), %ecx
	movq	-40(%rbp), %rax         # 8-byte Reload
	shlq	$10, %rax
	addl	456(%rsi,%rax,4), %ecx
	movl	%ecx, 456(%rsi,%rax,4)
	movq	-56(%rbp), %rax         # 8-byte Reload
	shlq	$10, %rax
	movl	-60(%rbp), %ecx         # 4-byte Reload
	imull	460(%rdx,%rax,4), %ecx
	movq	-40(%rbp), %rax         # 8-byte Reload
	shlq	$10, %rax
	addl	460(%rsi,%rax,4), %ecx
	movl	%ecx, 460(%rsi,%rax,4)
	movq	-56(%rbp), %rax         # 8-byte Reload
	shlq	$10, %rax
	movl	-60(%rbp), %ecx         # 4-byte Reload
	imull	464(%rdx,%rax,4), %ecx
	movq	-40(%rbp), %rax         # 8-byte Reload
	shlq	$10, %rax
	addl	464(%rsi,%rax,4), %ecx
	movl	%ecx, 464(%rsi,%rax,4)
	movq	-56(%rbp), %rax         # 8-byte Reload
	shlq	$10, %rax
	movl	-60(%rbp), %ecx         # 4-byte Reload
	imull	468(%rdx,%rax,4), %ecx
	movq	-40(%rbp), %rax         # 8-byte Reload
	shlq	$10, %rax
	addl	468(%rsi,%rax,4), %ecx
	movl	%ecx, 468(%rsi,%rax,4)
	movq	-56(%rbp), %rax         # 8-byte Reload
	shlq	$10, %rax
	movl	-60(%rbp), %ecx         # 4-byte Reload
	imull	472(%rdx,%rax,4), %ecx
	movq	-40(%rbp), %rax         # 8-byte Reload
	shlq	$10, %rax
	addl	472(%rsi,%rax,4), %ecx
	movl	%ecx, 472(%rsi,%rax,4)
	movq	-56(%rbp), %rax         # 8-byte Reload
	shlq	$10, %rax
	movl	-60(%rbp), %ecx         # 4-byte Reload
	imull	476(%rdx,%rax,4), %ecx
	movq	-40(%rbp), %rax         # 8-byte Reload
	shlq	$10, %rax
	addl	476(%rsi,%rax,4), %ecx
	movl	%ecx, 476(%rsi,%rax,4)
	movq	-56(%rbp), %rax         # 8-byte Reload
	shlq	$10, %rax
	movl	-60(%rbp), %ecx         # 4-byte Reload
	imull	480(%rdx,%rax,4), %ecx
	movq	-40(%rbp), %rax         # 8-byte Reload
	shlq	$10, %rax
	addl	480(%rsi,%rax,4), %ecx
	movl	%ecx, 480(%rsi,%rax,4)
	movq	-56(%rbp), %rax         # 8-byte Reload
	shlq	$10, %rax
	movl	-60(%rbp), %ecx         # 4-byte Reload
	imull	484(%rdx,%rax,4), %ecx
	movq	-40(%rbp), %rax         # 8-byte Reload
	shlq	$10, %rax
	addl	484(%rsi,%rax,4), %ecx
	movl	%ecx, 484(%rsi,%rax,4)
	movq	-56(%rbp), %rax         # 8-byte Reload
	shlq	$10, %rax
	movl	-60(%rbp), %ecx         # 4-byte Reload
	imull	488(%rdx,%rax,4), %ecx
	movq	-40(%rbp), %rax         # 8-byte Reload
	shlq	$10, %rax
	addl	488(%rsi,%rax,4), %ecx
	movl	%ecx, 488(%rsi,%rax,4)
	movq	-56(%rbp), %rax         # 8-byte Reload
	shlq	$10, %rax
	movl	-60(%rbp), %ecx         # 4-byte Reload
	imull	492(%rdx,%rax,4), %ecx
	movq	-40(%rbp), %rax         # 8-byte Reload
	shlq	$10, %rax
	addl	492(%rsi,%rax,4), %ecx
	movl	%ecx, 492(%rsi,%rax,4)
	movq	-56(%rbp), %rax         # 8-byte Reload
	shlq	$10, %rax
	movl	-60(%rbp), %ecx         # 4-byte Reload
	imull	496(%rdx,%rax,4), %ecx
	movq	-40(%rbp), %rax         # 8-byte Reload
	shlq	$10, %rax
	addl	496(%rsi,%rax,4), %ecx
	movl	%ecx, 496(%rsi,%rax,4)
	movq	-56(%rbp), %rax         # 8-byte Reload
	shlq	$10, %rax
	movl	-60(%rbp), %ecx         # 4-byte Reload
	imull	500(%rdx,%rax,4), %ecx
	movq	-40(%rbp), %rax         # 8-byte Reload
	shlq	$10, %rax
	addl	500(%rsi,%rax,4), %ecx
	movl	%ecx, 500(%rsi,%rax,4)
	movq	-56(%rbp), %rax         # 8-byte Reload
	shlq	$10, %rax
	movl	-60(%rbp), %ecx         # 4-byte Reload
	imull	504(%rdx,%rax,4), %ecx
	movq	-40(%rbp), %rax         # 8-byte Reload
	shlq	$10, %rax
	addl	504(%rsi,%rax,4), %ecx
	movl	%ecx, 504(%rsi,%rax,4)
	movq	-56(%rbp), %rax         # 8-byte Reload
	shlq	$10, %rax
	movl	-60(%rbp), %ecx         # 4-byte Reload
	imull	508(%rdx,%rax,4), %ecx
	movq	-40(%rbp), %rax         # 8-byte Reload
	shlq	$10, %rax
	addl	508(%rsi,%rax,4), %ecx
	movl	%ecx, 508(%rsi,%rax,4)
	movq	-56(%rbp), %rax         # 8-byte Reload
	shlq	$10, %rax
	movl	-60(%rbp), %ecx         # 4-byte Reload
	imull	512(%rdx,%rax,4), %ecx
	movq	-40(%rbp), %rax         # 8-byte Reload
	shlq	$10, %rax
	addl	512(%rsi,%rax,4), %ecx
	movl	%ecx, 512(%rsi,%rax,4)
	movq	-56(%rbp), %rax         # 8-byte Reload
	shlq	$10, %rax
	movl	-60(%rbp), %ecx         # 4-byte Reload
	imull	516(%rdx,%rax,4), %ecx
	movq	-40(%rbp), %rax         # 8-byte Reload
	shlq	$10, %rax
	addl	516(%rsi,%rax,4), %ecx
	movl	%ecx, 516(%rsi,%rax,4)
	movq	-56(%rbp), %rax         # 8-byte Reload
	shlq	$10, %rax
	movl	-60(%rbp), %ecx         # 4-byte Reload
	imull	520(%rdx,%rax,4), %ecx
	movq	-40(%rbp), %rax         # 8-byte Reload
	shlq	$10, %rax
	addl	520(%rsi,%rax,4), %ecx
	movl	%ecx, 520(%rsi,%rax,4)
	movq	-56(%rbp), %rax         # 8-byte Reload
	shlq	$10, %rax
	movl	-60(%rbp), %ecx         # 4-byte Reload
	imull	524(%rdx,%rax,4), %ecx
	movq	-40(%rbp), %rax         # 8-byte Reload
	shlq	$10, %rax
	addl	524(%rsi,%rax,4), %ecx
	movl	%ecx, 524(%rsi,%rax,4)
	movq	-56(%rbp), %rax         # 8-byte Reload
	shlq	$10, %rax
	movl	-60(%rbp), %ecx         # 4-byte Reload
	imull	528(%rdx,%rax,4), %ecx
	movq	-40(%rbp), %rax         # 8-byte Reload
	shlq	$10, %rax
	addl	528(%rsi,%rax,4), %ecx
	movl	%ecx, 528(%rsi,%rax,4)
	movq	-56(%rbp), %rax         # 8-byte Reload
	shlq	$10, %rax
	movl	-60(%rbp), %ecx         # 4-byte Reload
	imull	532(%rdx,%rax,4), %ecx
	movq	-40(%rbp), %rax         # 8-byte Reload
	shlq	$10, %rax
	addl	532(%rsi,%rax,4), %ecx
	movl	%ecx, 532(%rsi,%rax,4)
	movq	-56(%rbp), %rax         # 8-byte Reload
	shlq	$10, %rax
	movl	-60(%rbp), %ecx         # 4-byte Reload
	imull	536(%rdx,%rax,4), %ecx
	movq	-40(%rbp), %rax         # 8-byte Reload
	shlq	$10, %rax
	addl	536(%rsi,%rax,4), %ecx
	movl	%ecx, 536(%rsi,%rax,4)
	movq	-56(%rbp), %rax         # 8-byte Reload
	shlq	$10, %rax
	movl	-60(%rbp), %ecx         # 4-byte Reload
	imull	540(%rdx,%rax,4), %ecx
	movq	-40(%rbp), %rax         # 8-byte Reload
	shlq	$10, %rax
	addl	540(%rsi,%rax,4), %ecx
	movl	%ecx, 540(%rsi,%rax,4)
	movq	-56(%rbp), %rax         # 8-byte Reload
	shlq	$10, %rax
	movl	-60(%rbp), %ecx         # 4-byte Reload
	imull	544(%rdx,%rax,4), %ecx
	movq	-40(%rbp), %rax         # 8-byte Reload
	shlq	$10, %rax
	addl	544(%rsi,%rax,4), %ecx
	movl	%ecx, 544(%rsi,%rax,4)
	movq	-56(%rbp), %rax         # 8-byte Reload
	shlq	$10, %rax
	movl	-60(%rbp), %ecx         # 4-byte Reload
	imull	548(%rdx,%rax,4), %ecx
	movq	-40(%rbp), %rax         # 8-byte Reload
	shlq	$10, %rax
	addl	548(%rsi,%rax,4), %ecx
	movl	%ecx, 548(%rsi,%rax,4)
	movq	-56(%rbp), %rax         # 8-byte Reload
	shlq	$10, %rax
	movl	-60(%rbp), %ecx         # 4-byte Reload
	imull	552(%rdx,%rax,4), %ecx
	movq	-40(%rbp), %rax         # 8-byte Reload
	shlq	$10, %rax
	addl	552(%rsi,%rax,4), %ecx
	movl	%ecx, 552(%rsi,%rax,4)
	movq	-56(%rbp), %rax         # 8-byte Reload
	shlq	$10, %rax
	movl	-60(%rbp), %ecx         # 4-byte Reload
	imull	556(%rdx,%rax,4), %ecx
	movq	-40(%rbp), %rax         # 8-byte Reload
	shlq	$10, %rax
	addl	556(%rsi,%rax,4), %ecx
	movl	%ecx, 556(%rsi,%rax,4)
	movq	-56(%rbp), %rax         # 8-byte Reload
	shlq	$10, %rax
	movl	-60(%rbp), %ecx         # 4-byte Reload
	imull	560(%rdx,%rax,4), %ecx
	movq	-40(%rbp), %rax         # 8-byte Reload
	shlq	$10, %rax
	addl	560(%rsi,%rax,4), %ecx
	movl	%ecx, 560(%rsi,%rax,4)
	movq	-56(%rbp), %rax         # 8-byte Reload
	shlq	$10, %rax
	movl	-60(%rbp), %ecx         # 4-byte Reload
	imull	564(%rdx,%rax,4), %ecx
	movq	-40(%rbp), %rax         # 8-byte Reload
	shlq	$10, %rax
	addl	564(%rsi,%rax,4), %ecx
	movl	%ecx, 564(%rsi,%rax,4)
	movq	-56(%rbp), %rax         # 8-byte Reload
	shlq	$10, %rax
	movl	-60(%rbp), %ecx         # 4-byte Reload
	imull	568(%rdx,%rax,4), %ecx
	movq	-40(%rbp), %rax         # 8-byte Reload
	shlq	$10, %rax
	addl	568(%rsi,%rax,4), %ecx
	movl	%ecx, 568(%rsi,%rax,4)
	movq	-56(%rbp), %rax         # 8-byte Reload
	shlq	$10, %rax
	movl	-60(%rbp), %ecx         # 4-byte Reload
	imull	572(%rdx,%rax,4), %ecx
	movq	-40(%rbp), %rax         # 8-byte Reload
	shlq	$10, %rax
	addl	572(%rsi,%rax,4), %ecx
	movl	%ecx, 572(%rsi,%rax,4)
	movq	-56(%rbp), %rax         # 8-byte Reload
	shlq	$10, %rax
	movl	-60(%rbp), %ecx         # 4-byte Reload
	imull	576(%rdx,%rax,4), %ecx
	movq	-40(%rbp), %rax         # 8-byte Reload
	shlq	$10, %rax
	addl	576(%rsi,%rax,4), %ecx
	movl	%ecx, 576(%rsi,%rax,4)
	movq	-56(%rbp), %rax         # 8-byte Reload
	shlq	$10, %rax
	movl	-60(%rbp), %ecx         # 4-byte Reload
	imull	580(%rdx,%rax,4), %ecx
	movq	-40(%rbp), %rax         # 8-byte Reload
	shlq	$10, %rax
	addl	580(%rsi,%rax,4), %ecx
	movl	%ecx, 580(%rsi,%rax,4)
	movq	-56(%rbp), %rax         # 8-byte Reload
	shlq	$10, %rax
	movl	-60(%rbp), %ecx         # 4-byte Reload
	imull	584(%rdx,%rax,4), %ecx
	movq	-40(%rbp), %rax         # 8-byte Reload
	shlq	$10, %rax
	addl	584(%rsi,%rax,4), %ecx
	movl	%ecx, 584(%rsi,%rax,4)
	movq	-56(%rbp), %rax         # 8-byte Reload
	shlq	$10, %rax
	movl	-60(%rbp), %ecx         # 4-byte Reload
	imull	588(%rdx,%rax,4), %ecx
	movq	-40(%rbp), %rax         # 8-byte Reload
	shlq	$10, %rax
	addl	588(%rsi,%rax,4), %ecx
	movl	%ecx, 588(%rsi,%rax,4)
	movq	-56(%rbp), %rax         # 8-byte Reload
	shlq	$10, %rax
	movl	-60(%rbp), %ecx         # 4-byte Reload
	imull	592(%rdx,%rax,4), %ecx
	movq	-40(%rbp), %rax         # 8-byte Reload
	shlq	$10, %rax
	addl	592(%rsi,%rax,4), %ecx
	movl	%ecx, 592(%rsi,%rax,4)
	movq	-56(%rbp), %rax         # 8-byte Reload
	shlq	$10, %rax
	movl	-60(%rbp), %ecx         # 4-byte Reload
	imull	596(%rdx,%rax,4), %ecx
	movq	-40(%rbp), %rax         # 8-byte Reload
	shlq	$10, %rax
	addl	596(%rsi,%rax,4), %ecx
	movl	%ecx, 596(%rsi,%rax,4)
	movq	-56(%rbp), %rax         # 8-byte Reload
	shlq	$10, %rax
	movl	-60(%rbp), %ecx         # 4-byte Reload
	imull	600(%rdx,%rax,4), %ecx
	movq	-40(%rbp), %rax         # 8-byte Reload
	shlq	$10, %rax
	addl	600(%rsi,%rax,4), %ecx
	movl	%ecx, 600(%rsi,%rax,4)
	movq	-56(%rbp), %rax         # 8-byte Reload
	shlq	$10, %rax
	movl	-60(%rbp), %ecx         # 4-byte Reload
	imull	604(%rdx,%rax,4), %ecx
	movq	-40(%rbp), %rax         # 8-byte Reload
	shlq	$10, %rax
	addl	604(%rsi,%rax,4), %ecx
	movl	%ecx, 604(%rsi,%rax,4)
	movq	-56(%rbp), %rax         # 8-byte Reload
	shlq	$10, %rax
	movl	-60(%rbp), %ecx         # 4-byte Reload
	imull	608(%rdx,%rax,4), %ecx
	movq	-40(%rbp), %rax         # 8-byte Reload
	shlq	$10, %rax
	addl	608(%rsi,%rax,4), %ecx
	movl	%ecx, 608(%rsi,%rax,4)
	movq	-56(%rbp), %rax         # 8-byte Reload
	shlq	$10, %rax
	movl	-60(%rbp), %ecx         # 4-byte Reload
	imull	612(%rdx,%rax,4), %ecx
	movq	-40(%rbp), %rax         # 8-byte Reload
	shlq	$10, %rax
	addl	612(%rsi,%rax,4), %ecx
	movl	%ecx, 612(%rsi,%rax,4)
	movq	-56(%rbp), %rax         # 8-byte Reload
	shlq	$10, %rax
	movl	-60(%rbp), %ecx         # 4-byte Reload
	imull	616(%rdx,%rax,4), %ecx
	movq	-40(%rbp), %rax         # 8-byte Reload
	shlq	$10, %rax
	addl	616(%rsi,%rax,4), %ecx
	movl	%ecx, 616(%rsi,%rax,4)
	movq	-56(%rbp), %rax         # 8-byte Reload
	shlq	$10, %rax
	movl	-60(%rbp), %ecx         # 4-byte Reload
	imull	620(%rdx,%rax,4), %ecx
	movq	-40(%rbp), %rax         # 8-byte Reload
	shlq	$10, %rax
	addl	620(%rsi,%rax,4), %ecx
	movl	%ecx, 620(%rsi,%rax,4)
	movq	-56(%rbp), %rax         # 8-byte Reload
	shlq	$10, %rax
	movl	-60(%rbp), %ecx         # 4-byte Reload
	imull	624(%rdx,%rax,4), %ecx
	movq	-40(%rbp), %rax         # 8-byte Reload
	shlq	$10, %rax
	addl	624(%rsi,%rax,4), %ecx
	movl	%ecx, 624(%rsi,%rax,4)
	movq	-56(%rbp), %rax         # 8-byte Reload
	shlq	$10, %rax
	movl	-60(%rbp), %ecx         # 4-byte Reload
	imull	628(%rdx,%rax,4), %ecx
	movq	-40(%rbp), %rax         # 8-byte Reload
	shlq	$10, %rax
	addl	628(%rsi,%rax,4), %ecx
	movl	%ecx, 628(%rsi,%rax,4)
	movq	-56(%rbp), %rax         # 8-byte Reload
	shlq	$10, %rax
	movl	-60(%rbp), %ecx         # 4-byte Reload
	imull	632(%rdx,%rax,4), %ecx
	movq	-40(%rbp), %rax         # 8-byte Reload
	shlq	$10, %rax
	addl	632(%rsi,%rax,4), %ecx
	movl	%ecx, 632(%rsi,%rax,4)
	movq	-56(%rbp), %rax         # 8-byte Reload
	shlq	$10, %rax
	movl	-60(%rbp), %ecx         # 4-byte Reload
	imull	636(%rdx,%rax,4), %ecx
	movq	-40(%rbp), %rax         # 8-byte Reload
	shlq	$10, %rax
	addl	636(%rsi,%rax,4), %ecx
	movl	%ecx, 636(%rsi,%rax,4)
	movq	-56(%rbp), %rax         # 8-byte Reload
	shlq	$10, %rax
	movl	-60(%rbp), %ecx         # 4-byte Reload
	imull	640(%rdx,%rax,4), %ecx
	movq	-40(%rbp), %rax         # 8-byte Reload
	shlq	$10, %rax
	addl	640(%rsi,%rax,4), %ecx
	movl	%ecx, 640(%rsi,%rax,4)
	movq	-56(%rbp), %rax         # 8-byte Reload
	shlq	$10, %rax
	movl	-60(%rbp), %ecx         # 4-byte Reload
	imull	644(%rdx,%rax,4), %ecx
	movq	-40(%rbp), %rax         # 8-byte Reload
	shlq	$10, %rax
	addl	644(%rsi,%rax,4), %ecx
	movl	%ecx, 644(%rsi,%rax,4)
	movq	-56(%rbp), %rax         # 8-byte Reload
	shlq	$10, %rax
	movl	-60(%rbp), %ecx         # 4-byte Reload
	imull	648(%rdx,%rax,4), %ecx
	movq	-40(%rbp), %rax         # 8-byte Reload
	shlq	$10, %rax
	addl	648(%rsi,%rax,4), %ecx
	movl	%ecx, 648(%rsi,%rax,4)
	movq	-56(%rbp), %rax         # 8-byte Reload
	shlq	$10, %rax
	movl	-60(%rbp), %ecx         # 4-byte Reload
	imull	652(%rdx,%rax,4), %ecx
	movq	-40(%rbp), %rax         # 8-byte Reload
	shlq	$10, %rax
	addl	652(%rsi,%rax,4), %ecx
	movl	%ecx, 652(%rsi,%rax,4)
	movq	-56(%rbp), %rax         # 8-byte Reload
	shlq	$10, %rax
	movl	-60(%rbp), %ecx         # 4-byte Reload
	imull	656(%rdx,%rax,4), %ecx
	movq	-40(%rbp), %rax         # 8-byte Reload
	shlq	$10, %rax
	addl	656(%rsi,%rax,4), %ecx
	movl	%ecx, 656(%rsi,%rax,4)
	movq	-56(%rbp), %rax         # 8-byte Reload
	shlq	$10, %rax
	movl	-60(%rbp), %ecx         # 4-byte Reload
	imull	660(%rdx,%rax,4), %ecx
	movq	-40(%rbp), %rax         # 8-byte Reload
	shlq	$10, %rax
	addl	660(%rsi,%rax,4), %ecx
	movl	%ecx, 660(%rsi,%rax,4)
	movq	-56(%rbp), %rax         # 8-byte Reload
	shlq	$10, %rax
	movl	-60(%rbp), %ecx         # 4-byte Reload
	imull	664(%rdx,%rax,4), %ecx
	movq	-40(%rbp), %rax         # 8-byte Reload
	shlq	$10, %rax
	addl	664(%rsi,%rax,4), %ecx
	movl	%ecx, 664(%rsi,%rax,4)
	movq	-56(%rbp), %rax         # 8-byte Reload
	shlq	$10, %rax
	movl	-60(%rbp), %ecx         # 4-byte Reload
	imull	668(%rdx,%rax,4), %ecx
	movq	-40(%rbp), %rax         # 8-byte Reload
	shlq	$10, %rax
	addl	668(%rsi,%rax,4), %ecx
	movl	%ecx, 668(%rsi,%rax,4)
	movq	-56(%rbp), %rax         # 8-byte Reload
	shlq	$10, %rax
	movl	-60(%rbp), %ecx         # 4-byte Reload
	imull	672(%rdx,%rax,4), %ecx
	movq	-40(%rbp), %rax         # 8-byte Reload
	shlq	$10, %rax
	addl	672(%rsi,%rax,4), %ecx
	movl	%ecx, 672(%rsi,%rax,4)
	movq	-56(%rbp), %rax         # 8-byte Reload
	shlq	$10, %rax
	movl	-60(%rbp), %ecx         # 4-byte Reload
	imull	676(%rdx,%rax,4), %ecx
	movq	-40(%rbp), %rax         # 8-byte Reload
	shlq	$10, %rax
	addl	676(%rsi,%rax,4), %ecx
	movl	%ecx, 676(%rsi,%rax,4)
	movq	-56(%rbp), %rax         # 8-byte Reload
	shlq	$10, %rax
	movl	-60(%rbp), %ecx         # 4-byte Reload
	imull	680(%rdx,%rax,4), %ecx
	movq	-40(%rbp), %rax         # 8-byte Reload
	shlq	$10, %rax
	addl	680(%rsi,%rax,4), %ecx
	movl	%ecx, 680(%rsi,%rax,4)
	movq	-56(%rbp), %rax         # 8-byte Reload
	shlq	$10, %rax
	movl	-60(%rbp), %ecx         # 4-byte Reload
	imull	684(%rdx,%rax,4), %ecx
	movq	-40(%rbp), %rax         # 8-byte Reload
	shlq	$10, %rax
	addl	684(%rsi,%rax,4), %ecx
	movl	%ecx, 684(%rsi,%rax,4)
	movq	-56(%rbp), %rax         # 8-byte Reload
	shlq	$10, %rax
	movl	-60(%rbp), %ecx         # 4-byte Reload
	imull	688(%rdx,%rax,4), %ecx
	movq	-40(%rbp), %rax         # 8-byte Reload
	shlq	$10, %rax
	addl	688(%rsi,%rax,4), %ecx
	movl	%ecx, 688(%rsi,%rax,4)
	movq	-56(%rbp), %rax         # 8-byte Reload
	shlq	$10, %rax
	movl	-60(%rbp), %ecx         # 4-byte Reload
	imull	692(%rdx,%rax,4), %ecx
	movq	-40(%rbp), %rax         # 8-byte Reload
	shlq	$10, %rax
	addl	692(%rsi,%rax,4), %ecx
	movl	%ecx, 692(%rsi,%rax,4)
	movq	-56(%rbp), %rax         # 8-byte Reload
	shlq	$10, %rax
	movl	-60(%rbp), %ecx         # 4-byte Reload
	imull	696(%rdx,%rax,4), %ecx
	movq	-40(%rbp), %rax         # 8-byte Reload
	shlq	$10, %rax
	addl	696(%rsi,%rax,4), %ecx
	movl	%ecx, 696(%rsi,%rax,4)
	movq	-56(%rbp), %rax         # 8-byte Reload
	shlq	$10, %rax
	movl	-60(%rbp), %ecx         # 4-byte Reload
	imull	700(%rdx,%rax,4), %ecx
	movq	-40(%rbp), %rax         # 8-byte Reload
	shlq	$10, %rax
	addl	700(%rsi,%rax,4), %ecx
	movl	%ecx, 700(%rsi,%rax,4)
	movq	-56(%rbp), %rax         # 8-byte Reload
	shlq	$10, %rax
	movl	-60(%rbp), %ecx         # 4-byte Reload
	imull	704(%rdx,%rax,4), %ecx
	movq	-40(%rbp), %rax         # 8-byte Reload
	shlq	$10, %rax
	addl	704(%rsi,%rax,4), %ecx
	movl	%ecx, 704(%rsi,%rax,4)
	movq	-56(%rbp), %rax         # 8-byte Reload
	shlq	$10, %rax
	movl	-60(%rbp), %ecx         # 4-byte Reload
	imull	708(%rdx,%rax,4), %ecx
	movq	-40(%rbp), %rax         # 8-byte Reload
	shlq	$10, %rax
	addl	708(%rsi,%rax,4), %ecx
	movl	%ecx, 708(%rsi,%rax,4)
	movq	-56(%rbp), %rax         # 8-byte Reload
	shlq	$10, %rax
	movl	-60(%rbp), %ecx         # 4-byte Reload
	imull	712(%rdx,%rax,4), %ecx
	movq	-40(%rbp), %rax         # 8-byte Reload
	shlq	$10, %rax
	addl	712(%rsi,%rax,4), %ecx
	movl	%ecx, 712(%rsi,%rax,4)
	movq	-56(%rbp), %rax         # 8-byte Reload
	shlq	$10, %rax
	movl	-60(%rbp), %ecx         # 4-byte Reload
	imull	716(%rdx,%rax,4), %ecx
	movq	-40(%rbp), %rax         # 8-byte Reload
	shlq	$10, %rax
	addl	716(%rsi,%rax,4), %ecx
	movl	%ecx, 716(%rsi,%rax,4)
	movq	-56(%rbp), %rax         # 8-byte Reload
	shlq	$10, %rax
	movl	-60(%rbp), %ecx         # 4-byte Reload
	imull	720(%rdx,%rax,4), %ecx
	movq	-40(%rbp), %rax         # 8-byte Reload
	shlq	$10, %rax
	addl	720(%rsi,%rax,4), %ecx
	movl	%ecx, 720(%rsi,%rax,4)
	movq	-56(%rbp), %rax         # 8-byte Reload
	shlq	$10, %rax
	movl	-60(%rbp), %ecx         # 4-byte Reload
	imull	724(%rdx,%rax,4), %ecx
	movq	-40(%rbp), %rax         # 8-byte Reload
	shlq	$10, %rax
	addl	724(%rsi,%rax,4), %ecx
	movl	%ecx, 724(%rsi,%rax,4)
	movq	-56(%rbp), %rax         # 8-byte Reload
	shlq	$10, %rax
	movl	-60(%rbp), %ecx         # 4-byte Reload
	imull	728(%rdx,%rax,4), %ecx
	movq	-40(%rbp), %rax         # 8-byte Reload
	shlq	$10, %rax
	addl	728(%rsi,%rax,4), %ecx
	movl	%ecx, 728(%rsi,%rax,4)
	movq	-56(%rbp), %rax         # 8-byte Reload
	shlq	$10, %rax
	movl	-60(%rbp), %ecx         # 4-byte Reload
	imull	732(%rdx,%rax,4), %ecx
	movq	-40(%rbp), %rax         # 8-byte Reload
	shlq	$10, %rax
	addl	732(%rsi,%rax,4), %ecx
	movl	%ecx, 732(%rsi,%rax,4)
	movq	-56(%rbp), %rax         # 8-byte Reload
	shlq	$10, %rax
	movl	-60(%rbp), %ecx         # 4-byte Reload
	imull	736(%rdx,%rax,4), %ecx
	movq	-40(%rbp), %rax         # 8-byte Reload
	shlq	$10, %rax
	addl	736(%rsi,%rax,4), %ecx
	movl	%ecx, 736(%rsi,%rax,4)
	movq	-56(%rbp), %rax         # 8-byte Reload
	shlq	$10, %rax
	movl	-60(%rbp), %ecx         # 4-byte Reload
	imull	740(%rdx,%rax,4), %ecx
	movq	-40(%rbp), %rax         # 8-byte Reload
	shlq	$10, %rax
	addl	740(%rsi,%rax,4), %ecx
	movl	%ecx, 740(%rsi,%rax,4)
	movq	-56(%rbp), %rax         # 8-byte Reload
	shlq	$10, %rax
	movl	-60(%rbp), %ecx         # 4-byte Reload
	imull	744(%rdx,%rax,4), %ecx
	movq	-40(%rbp), %rax         # 8-byte Reload
	shlq	$10, %rax
	addl	744(%rsi,%rax,4), %ecx
	movl	%ecx, 744(%rsi,%rax,4)
	movq	-56(%rbp), %rax         # 8-byte Reload
	shlq	$10, %rax
	movl	-60(%rbp), %ecx         # 4-byte Reload
	imull	748(%rdx,%rax,4), %ecx
	movq	-40(%rbp), %rax         # 8-byte Reload
	shlq	$10, %rax
	addl	748(%rsi,%rax,4), %ecx
	movl	%ecx, 748(%rsi,%rax,4)
	movq	-56(%rbp), %rax         # 8-byte Reload
	shlq	$10, %rax
	movl	-60(%rbp), %ecx         # 4-byte Reload
	imull	752(%rdx,%rax,4), %ecx
	movq	-40(%rbp), %rax         # 8-byte Reload
	shlq	$10, %rax
	addl	752(%rsi,%rax,4), %ecx
	movl	%ecx, 752(%rsi,%rax,4)
	movq	-56(%rbp), %rax         # 8-byte Reload
	shlq	$10, %rax
	movl	-60(%rbp), %ecx         # 4-byte Reload
	imull	756(%rdx,%rax,4), %ecx
	movq	-40(%rbp), %rax         # 8-byte Reload
	shlq	$10, %rax
	addl	756(%rsi,%rax,4), %ecx
	movl	%ecx, 756(%rsi,%rax,4)
	movq	-56(%rbp), %rax         # 8-byte Reload
	shlq	$10, %rax
	movl	-60(%rbp), %ecx         # 4-byte Reload
	imull	760(%rdx,%rax,4), %ecx
	movq	-40(%rbp), %rax         # 8-byte Reload
	shlq	$10, %rax
	addl	760(%rsi,%rax,4), %ecx
	movl	%ecx, 760(%rsi,%rax,4)
	movq	-56(%rbp), %rax         # 8-byte Reload
	shlq	$10, %rax
	movl	-60(%rbp), %ecx         # 4-byte Reload
	imull	764(%rdx,%rax,4), %ecx
	movq	-40(%rbp), %rax         # 8-byte Reload
	shlq	$10, %rax
	addl	764(%rsi,%rax,4), %ecx
	movl	%ecx, 764(%rsi,%rax,4)
	movq	-56(%rbp), %rax         # 8-byte Reload
	shlq	$10, %rax
	movl	-60(%rbp), %ecx         # 4-byte Reload
	imull	768(%rdx,%rax,4), %ecx
	movq	-40(%rbp), %rax         # 8-byte Reload
	shlq	$10, %rax
	addl	768(%rsi,%rax,4), %ecx
	movl	%ecx, 768(%rsi,%rax,4)
	movq	-56(%rbp), %rax         # 8-byte Reload
	shlq	$10, %rax
	movl	-60(%rbp), %ecx         # 4-byte Reload
	imull	772(%rdx,%rax,4), %ecx
	movq	-40(%rbp), %rax         # 8-byte Reload
	shlq	$10, %rax
	addl	772(%rsi,%rax,4), %ecx
	movl	%ecx, 772(%rsi,%rax,4)
	movq	-56(%rbp), %rax         # 8-byte Reload
	shlq	$10, %rax
	movl	-60(%rbp), %ecx         # 4-byte Reload
	imull	776(%rdx,%rax,4), %ecx
	movq	-40(%rbp), %rax         # 8-byte Reload
	shlq	$10, %rax
	addl	776(%rsi,%rax,4), %ecx
	movl	%ecx, 776(%rsi,%rax,4)
	movq	-56(%rbp), %rax         # 8-byte Reload
	shlq	$10, %rax
	movl	-60(%rbp), %ecx         # 4-byte Reload
	imull	780(%rdx,%rax,4), %ecx
	movq	-40(%rbp), %rax         # 8-byte Reload
	shlq	$10, %rax
	addl	780(%rsi,%rax,4), %ecx
	movl	%ecx, 780(%rsi,%rax,4)
	movq	-56(%rbp), %rax         # 8-byte Reload
	shlq	$10, %rax
	movl	-60(%rbp), %ecx         # 4-byte Reload
	imull	784(%rdx,%rax,4), %ecx
	movq	-40(%rbp), %rax         # 8-byte Reload
	shlq	$10, %rax
	addl	784(%rsi,%rax,4), %ecx
	movl	%ecx, 784(%rsi,%rax,4)
	movq	-56(%rbp), %rax         # 8-byte Reload
	shlq	$10, %rax
	movl	-60(%rbp), %ecx         # 4-byte Reload
	imull	788(%rdx,%rax,4), %ecx
	movq	-40(%rbp), %rax         # 8-byte Reload
	shlq	$10, %rax
	addl	788(%rsi,%rax,4), %ecx
	movl	%ecx, 788(%rsi,%rax,4)
	movq	-56(%rbp), %rax         # 8-byte Reload
	shlq	$10, %rax
	movl	-60(%rbp), %ecx         # 4-byte Reload
	imull	792(%rdx,%rax,4), %ecx
	movq	-40(%rbp), %rax         # 8-byte Reload
	shlq	$10, %rax
	addl	792(%rsi,%rax,4), %ecx
	movl	%ecx, 792(%rsi,%rax,4)
	movq	-56(%rbp), %rax         # 8-byte Reload
	shlq	$10, %rax
	movl	-60(%rbp), %ecx         # 4-byte Reload
	imull	796(%rdx,%rax,4), %ecx
	movq	-40(%rbp), %rax         # 8-byte Reload
	shlq	$10, %rax
	addl	796(%rsi,%rax,4), %ecx
	movl	%ecx, 796(%rsi,%rax,4)
	movq	-56(%rbp), %rax         # 8-byte Reload
	shlq	$10, %rax
	movl	-60(%rbp), %ecx         # 4-byte Reload
	imull	800(%rdx,%rax,4), %ecx
	movq	-40(%rbp), %rax         # 8-byte Reload
	shlq	$10, %rax
	addl	800(%rsi,%rax,4), %ecx
	movl	%ecx, 800(%rsi,%rax,4)
	movq	-56(%rbp), %rax         # 8-byte Reload
	shlq	$10, %rax
	movl	-60(%rbp), %ecx         # 4-byte Reload
	imull	804(%rdx,%rax,4), %ecx
	movq	-40(%rbp), %rax         # 8-byte Reload
	shlq	$10, %rax
	addl	804(%rsi,%rax,4), %ecx
	movl	%ecx, 804(%rsi,%rax,4)
	movq	-56(%rbp), %rax         # 8-byte Reload
	shlq	$10, %rax
	movl	-60(%rbp), %ecx         # 4-byte Reload
	imull	808(%rdx,%rax,4), %ecx
	movq	-40(%rbp), %rax         # 8-byte Reload
	shlq	$10, %rax
	addl	808(%rsi,%rax,4), %ecx
	movl	%ecx, 808(%rsi,%rax,4)
	movq	-56(%rbp), %rax         # 8-byte Reload
	shlq	$10, %rax
	movl	-60(%rbp), %ecx         # 4-byte Reload
	imull	812(%rdx,%rax,4), %ecx
	movq	-40(%rbp), %rax         # 8-byte Reload
	shlq	$10, %rax
	addl	812(%rsi,%rax,4), %ecx
	movl	%ecx, 812(%rsi,%rax,4)
	movq	-56(%rbp), %rax         # 8-byte Reload
	shlq	$10, %rax
	movl	-60(%rbp), %ecx         # 4-byte Reload
	imull	816(%rdx,%rax,4), %ecx
	movq	-40(%rbp), %rax         # 8-byte Reload
	shlq	$10, %rax
	addl	816(%rsi,%rax,4), %ecx
	movl	%ecx, 816(%rsi,%rax,4)
	movq	-56(%rbp), %rax         # 8-byte Reload
	shlq	$10, %rax
	movl	-60(%rbp), %ecx         # 4-byte Reload
	imull	820(%rdx,%rax,4), %ecx
	movq	-40(%rbp), %rax         # 8-byte Reload
	shlq	$10, %rax
	addl	820(%rsi,%rax,4), %ecx
	movl	%ecx, 820(%rsi,%rax,4)
	movq	-56(%rbp), %rax         # 8-byte Reload
	shlq	$10, %rax
	movl	-60(%rbp), %ecx         # 4-byte Reload
	imull	824(%rdx,%rax,4), %ecx
	movq	-40(%rbp), %rax         # 8-byte Reload
	shlq	$10, %rax
	addl	824(%rsi,%rax,4), %ecx
	movl	%ecx, 824(%rsi,%rax,4)
	movq	-56(%rbp), %rax         # 8-byte Reload
	shlq	$10, %rax
	movl	-60(%rbp), %ecx         # 4-byte Reload
	imull	828(%rdx,%rax,4), %ecx
	movq	-40(%rbp), %rax         # 8-byte Reload
	shlq	$10, %rax
	addl	828(%rsi,%rax,4), %ecx
	movl	%ecx, 828(%rsi,%rax,4)
	movq	-56(%rbp), %rax         # 8-byte Reload
	shlq	$10, %rax
	movl	-60(%rbp), %ecx         # 4-byte Reload
	imull	832(%rdx,%rax,4), %ecx
	movq	-40(%rbp), %rax         # 8-byte Reload
	shlq	$10, %rax
	addl	832(%rsi,%rax,4), %ecx
	movl	%ecx, 832(%rsi,%rax,4)
	movq	-56(%rbp), %rax         # 8-byte Reload
	shlq	$10, %rax
	movl	-60(%rbp), %ecx         # 4-byte Reload
	imull	836(%rdx,%rax,4), %ecx
	movq	-40(%rbp), %rax         # 8-byte Reload
	shlq	$10, %rax
	addl	836(%rsi,%rax,4), %ecx
	movl	%ecx, 836(%rsi,%rax,4)
	movq	-56(%rbp), %rax         # 8-byte Reload
	shlq	$10, %rax
	movl	-60(%rbp), %ecx         # 4-byte Reload
	imull	840(%rdx,%rax,4), %ecx
	movq	-40(%rbp), %rax         # 8-byte Reload
	shlq	$10, %rax
	addl	840(%rsi,%rax,4), %ecx
	movl	%ecx, 840(%rsi,%rax,4)
	movq	-56(%rbp), %rax         # 8-byte Reload
	shlq	$10, %rax
	movl	-60(%rbp), %ecx         # 4-byte Reload
	imull	844(%rdx,%rax,4), %ecx
	movq	-40(%rbp), %rax         # 8-byte Reload
	shlq	$10, %rax
	addl	844(%rsi,%rax,4), %ecx
	movl	%ecx, 844(%rsi,%rax,4)
	movq	-56(%rbp), %rax         # 8-byte Reload
	shlq	$10, %rax
	movl	-60(%rbp), %ecx         # 4-byte Reload
	imull	848(%rdx,%rax,4), %ecx
	movq	-40(%rbp), %rax         # 8-byte Reload
	shlq	$10, %rax
	addl	848(%rsi,%rax,4), %ecx
	movl	%ecx, 848(%rsi,%rax,4)
	movq	-56(%rbp), %rax         # 8-byte Reload
	shlq	$10, %rax
	movl	-60(%rbp), %ecx         # 4-byte Reload
	imull	852(%rdx,%rax,4), %ecx
	movq	-40(%rbp), %rax         # 8-byte Reload
	shlq	$10, %rax
	addl	852(%rsi,%rax,4), %ecx
	movl	%ecx, 852(%rsi,%rax,4)
	movq	-56(%rbp), %rax         # 8-byte Reload
	shlq	$10, %rax
	movl	-60(%rbp), %ecx         # 4-byte Reload
	imull	856(%rdx,%rax,4), %ecx
	movq	-40(%rbp), %rax         # 8-byte Reload
	shlq	$10, %rax
	addl	856(%rsi,%rax,4), %ecx
	movl	%ecx, 856(%rsi,%rax,4)
	movq	-56(%rbp), %rax         # 8-byte Reload
	shlq	$10, %rax
	movl	-60(%rbp), %ecx         # 4-byte Reload
	imull	860(%rdx,%rax,4), %ecx
	movq	-40(%rbp), %rax         # 8-byte Reload
	shlq	$10, %rax
	addl	860(%rsi,%rax,4), %ecx
	movl	%ecx, 860(%rsi,%rax,4)
	movq	-56(%rbp), %rax         # 8-byte Reload
	shlq	$10, %rax
	movl	-60(%rbp), %ecx         # 4-byte Reload
	imull	864(%rdx,%rax,4), %ecx
	movq	-40(%rbp), %rax         # 8-byte Reload
	shlq	$10, %rax
	addl	864(%rsi,%rax,4), %ecx
	movl	%ecx, 864(%rsi,%rax,4)
	movq	-56(%rbp), %rax         # 8-byte Reload
	shlq	$10, %rax
	movl	-60(%rbp), %ecx         # 4-byte Reload
	imull	868(%rdx,%rax,4), %ecx
	movq	-40(%rbp), %rax         # 8-byte Reload
	shlq	$10, %rax
	addl	868(%rsi,%rax,4), %ecx
	movl	%ecx, 868(%rsi,%rax,4)
	movq	-56(%rbp), %rax         # 8-byte Reload
	shlq	$10, %rax
	movl	-60(%rbp), %ecx         # 4-byte Reload
	imull	872(%rdx,%rax,4), %ecx
	movq	-40(%rbp), %rax         # 8-byte Reload
	shlq	$10, %rax
	addl	872(%rsi,%rax,4), %ecx
	movl	%ecx, 872(%rsi,%rax,4)
	movq	-56(%rbp), %rax         # 8-byte Reload
	shlq	$10, %rax
	movl	-60(%rbp), %ecx         # 4-byte Reload
	imull	876(%rdx,%rax,4), %ecx
	movq	-40(%rbp), %rax         # 8-byte Reload
	shlq	$10, %rax
	addl	876(%rsi,%rax,4), %ecx
	movl	%ecx, 876(%rsi,%rax,4)
	movq	-56(%rbp), %rax         # 8-byte Reload
	shlq	$10, %rax
	movl	-60(%rbp), %ecx         # 4-byte Reload
	imull	880(%rdx,%rax,4), %ecx
	movq	-40(%rbp), %rax         # 8-byte Reload
	shlq	$10, %rax
	addl	880(%rsi,%rax,4), %ecx
	movl	%ecx, 880(%rsi,%rax,4)
	movq	-56(%rbp), %rax         # 8-byte Reload
	shlq	$10, %rax
	movl	-60(%rbp), %ecx         # 4-byte Reload
	imull	884(%rdx,%rax,4), %ecx
	movq	-40(%rbp), %rax         # 8-byte Reload
	shlq	$10, %rax
	addl	884(%rsi,%rax,4), %ecx
	movl	%ecx, 884(%rsi,%rax,4)
	movq	-56(%rbp), %rax         # 8-byte Reload
	shlq	$10, %rax
	movl	-60(%rbp), %ecx         # 4-byte Reload
	imull	888(%rdx,%rax,4), %ecx
	movq	-40(%rbp), %rax         # 8-byte Reload
	shlq	$10, %rax
	addl	888(%rsi,%rax,4), %ecx
	movl	%ecx, 888(%rsi,%rax,4)
	movq	-56(%rbp), %rax         # 8-byte Reload
	shlq	$10, %rax
	movl	-60(%rbp), %ecx         # 4-byte Reload
	imull	892(%rdx,%rax,4), %ecx
	movq	-40(%rbp), %rax         # 8-byte Reload
	shlq	$10, %rax
	addl	892(%rsi,%rax,4), %ecx
	movl	%ecx, 892(%rsi,%rax,4)
	movq	-56(%rbp), %rax         # 8-byte Reload
	shlq	$10, %rax
	movl	-60(%rbp), %ecx         # 4-byte Reload
	imull	896(%rdx,%rax,4), %ecx
	movq	-40(%rbp), %rax         # 8-byte Reload
	shlq	$10, %rax
	addl	896(%rsi,%rax,4), %ecx
	movl	%ecx, 896(%rsi,%rax,4)
	movq	-56(%rbp), %rax         # 8-byte Reload
	shlq	$10, %rax
	movl	-60(%rbp), %ecx         # 4-byte Reload
	imull	900(%rdx,%rax,4), %ecx
	movq	-40(%rbp), %rax         # 8-byte Reload
	shlq	$10, %rax
	addl	900(%rsi,%rax,4), %ecx
	movl	%ecx, 900(%rsi,%rax,4)
	movq	-56(%rbp), %rax         # 8-byte Reload
	shlq	$10, %rax
	movl	-60(%rbp), %ecx         # 4-byte Reload
	imull	904(%rdx,%rax,4), %ecx
	movq	-40(%rbp), %rax         # 8-byte Reload
	shlq	$10, %rax
	addl	904(%rsi,%rax,4), %ecx
	movl	%ecx, 904(%rsi,%rax,4)
	movq	-56(%rbp), %rax         # 8-byte Reload
	shlq	$10, %rax
	movl	-60(%rbp), %ecx         # 4-byte Reload
	imull	908(%rdx,%rax,4), %ecx
	movq	-40(%rbp), %rax         # 8-byte Reload
	shlq	$10, %rax
	addl	908(%rsi,%rax,4), %ecx
	movl	%ecx, 908(%rsi,%rax,4)
	movq	-56(%rbp), %rax         # 8-byte Reload
	shlq	$10, %rax
	movl	-60(%rbp), %ecx         # 4-byte Reload
	imull	912(%rdx,%rax,4), %ecx
	movq	-40(%rbp), %rax         # 8-byte Reload
	shlq	$10, %rax
	addl	912(%rsi,%rax,4), %ecx
	movl	%ecx, 912(%rsi,%rax,4)
	movq	-56(%rbp), %rax         # 8-byte Reload
	shlq	$10, %rax
	movl	-60(%rbp), %ecx         # 4-byte Reload
	imull	916(%rdx,%rax,4), %ecx
	movq	-40(%rbp), %rax         # 8-byte Reload
	shlq	$10, %rax
	addl	916(%rsi,%rax,4), %ecx
	movl	%ecx, 916(%rsi,%rax,4)
	movq	-56(%rbp), %rax         # 8-byte Reload
	shlq	$10, %rax
	movl	-60(%rbp), %ecx         # 4-byte Reload
	imull	920(%rdx,%rax,4), %ecx
	movq	-40(%rbp), %rax         # 8-byte Reload
	shlq	$10, %rax
	addl	920(%rsi,%rax,4), %ecx
	movl	%ecx, 920(%rsi,%rax,4)
	movq	-56(%rbp), %rax         # 8-byte Reload
	shlq	$10, %rax
	movl	-60(%rbp), %ecx         # 4-byte Reload
	imull	924(%rdx,%rax,4), %ecx
	movq	-40(%rbp), %rax         # 8-byte Reload
	shlq	$10, %rax
	addl	924(%rsi,%rax,4), %ecx
	movl	%ecx, 924(%rsi,%rax,4)
	movq	-56(%rbp), %rax         # 8-byte Reload
	shlq	$10, %rax
	movl	-60(%rbp), %ecx         # 4-byte Reload
	imull	928(%rdx,%rax,4), %ecx
	movq	-40(%rbp), %rax         # 8-byte Reload
	shlq	$10, %rax
	addl	928(%rsi,%rax,4), %ecx
	movl	%ecx, 928(%rsi,%rax,4)
	movq	-56(%rbp), %rax         # 8-byte Reload
	shlq	$10, %rax
	movl	-60(%rbp), %ecx         # 4-byte Reload
	imull	932(%rdx,%rax,4), %ecx
	movq	-40(%rbp), %rax         # 8-byte Reload
	shlq	$10, %rax
	addl	932(%rsi,%rax,4), %ecx
	movl	%ecx, 932(%rsi,%rax,4)
	movq	-56(%rbp), %rax         # 8-byte Reload
	shlq	$10, %rax
	movl	-60(%rbp), %ecx         # 4-byte Reload
	imull	936(%rdx,%rax,4), %ecx
	movq	-40(%rbp), %rax         # 8-byte Reload
	shlq	$10, %rax
	addl	936(%rsi,%rax,4), %ecx
	movl	%ecx, 936(%rsi,%rax,4)
	movq	-56(%rbp), %rax         # 8-byte Reload
	shlq	$10, %rax
	movl	-60(%rbp), %ecx         # 4-byte Reload
	imull	940(%rdx,%rax,4), %ecx
	movq	-40(%rbp), %rax         # 8-byte Reload
	shlq	$10, %rax
	addl	940(%rsi,%rax,4), %ecx
	movl	%ecx, 940(%rsi,%rax,4)
	movq	-56(%rbp), %rax         # 8-byte Reload
	shlq	$10, %rax
	movl	-60(%rbp), %ecx         # 4-byte Reload
	imull	944(%rdx,%rax,4), %ecx
	movq	-40(%rbp), %rax         # 8-byte Reload
	shlq	$10, %rax
	addl	944(%rsi,%rax,4), %ecx
	movl	%ecx, 944(%rsi,%rax,4)
	movq	-56(%rbp), %rax         # 8-byte Reload
	shlq	$10, %rax
	movl	-60(%rbp), %ecx         # 4-byte Reload
	imull	948(%rdx,%rax,4), %ecx
	movq	-40(%rbp), %rax         # 8-byte Reload
	shlq	$10, %rax
	addl	948(%rsi,%rax,4), %ecx
	movl	%ecx, 948(%rsi,%rax,4)
	movq	-56(%rbp), %rax         # 8-byte Reload
	shlq	$10, %rax
	movl	-60(%rbp), %ecx         # 4-byte Reload
	imull	952(%rdx,%rax,4), %ecx
	movq	-40(%rbp), %rax         # 8-byte Reload
	shlq	$10, %rax
	addl	952(%rsi,%rax,4), %ecx
	movl	%ecx, 952(%rsi,%rax,4)
	movq	-56(%rbp), %rax         # 8-byte Reload
	shlq	$10, %rax
	movl	-60(%rbp), %ecx         # 4-byte Reload
	imull	956(%rdx,%rax,4), %ecx
	movq	-40(%rbp), %rax         # 8-byte Reload
	shlq	$10, %rax
	addl	956(%rsi,%rax,4), %ecx
	movl	%ecx, 956(%rsi,%rax,4)
	movq	-56(%rbp), %rax         # 8-byte Reload
	shlq	$10, %rax
	movl	-60(%rbp), %ecx         # 4-byte Reload
	imull	960(%rdx,%rax,4), %ecx
	movq	-40(%rbp), %rax         # 8-byte Reload
	shlq	$10, %rax
	addl	960(%rsi,%rax,4), %ecx
	movl	%ecx, 960(%rsi,%rax,4)
	movq	-56(%rbp), %rax         # 8-byte Reload
	shlq	$10, %rax
	movl	-60(%rbp), %ecx         # 4-byte Reload
	imull	964(%rdx,%rax,4), %ecx
	movq	-40(%rbp), %rax         # 8-byte Reload
	shlq	$10, %rax
	addl	964(%rsi,%rax,4), %ecx
	movl	%ecx, 964(%rsi,%rax,4)
	movq	-56(%rbp), %rax         # 8-byte Reload
	shlq	$10, %rax
	movl	-60(%rbp), %ecx         # 4-byte Reload
	imull	968(%rdx,%rax,4), %ecx
	movq	-40(%rbp), %rax         # 8-byte Reload
	shlq	$10, %rax
	addl	968(%rsi,%rax,4), %ecx
	movl	%ecx, 968(%rsi,%rax,4)
	movq	-56(%rbp), %rax         # 8-byte Reload
	shlq	$10, %rax
	movl	-60(%rbp), %ecx         # 4-byte Reload
	imull	972(%rdx,%rax,4), %ecx
	movq	-40(%rbp), %rax         # 8-byte Reload
	shlq	$10, %rax
	addl	972(%rsi,%rax,4), %ecx
	movl	%ecx, 972(%rsi,%rax,4)
	movq	-56(%rbp), %rax         # 8-byte Reload
	shlq	$10, %rax
	movl	-60(%rbp), %ecx         # 4-byte Reload
	imull	976(%rdx,%rax,4), %ecx
	movq	-40(%rbp), %rax         # 8-byte Reload
	shlq	$10, %rax
	addl	976(%rsi,%rax,4), %ecx
	movl	%ecx, 976(%rsi,%rax,4)
	movq	-56(%rbp), %rax         # 8-byte Reload
	shlq	$10, %rax
	movl	-60(%rbp), %ecx         # 4-byte Reload
	imull	980(%rdx,%rax,4), %ecx
	movq	-40(%rbp), %rax         # 8-byte Reload
	shlq	$10, %rax
	addl	980(%rsi,%rax,4), %ecx
	movl	%ecx, 980(%rsi,%rax,4)
	movq	-56(%rbp), %rax         # 8-byte Reload
	shlq	$10, %rax
	movl	-60(%rbp), %ecx         # 4-byte Reload
	imull	984(%rdx,%rax,4), %ecx
	movq	-40(%rbp), %rax         # 8-byte Reload
	shlq	$10, %rax
	addl	984(%rsi,%rax,4), %ecx
	movl	%ecx, 984(%rsi,%rax,4)
	movq	-56(%rbp), %rax         # 8-byte Reload
	shlq	$10, %rax
	movl	-60(%rbp), %ecx         # 4-byte Reload
	imull	988(%rdx,%rax,4), %ecx
	movq	-40(%rbp), %rax         # 8-byte Reload
	shlq	$10, %rax
	addl	988(%rsi,%rax,4), %ecx
	movl	%ecx, 988(%rsi,%rax,4)
	movq	-56(%rbp), %rax         # 8-byte Reload
	shlq	$10, %rax
	movl	-60(%rbp), %ecx         # 4-byte Reload
	imull	992(%rdx,%rax,4), %ecx
	movq	-40(%rbp), %rax         # 8-byte Reload
	shlq	$10, %rax
	addl	992(%rsi,%rax,4), %ecx
	movl	%ecx, 992(%rsi,%rax,4)
	movq	-56(%rbp), %rax         # 8-byte Reload
	shlq	$10, %rax
	movl	-60(%rbp), %ecx         # 4-byte Reload
	imull	996(%rdx,%rax,4), %ecx
	movq	-40(%rbp), %rax         # 8-byte Reload
	shlq	$10, %rax
	addl	996(%rsi,%rax,4), %ecx
	movl	%ecx, 996(%rsi,%rax,4)
	movq	-56(%rbp), %rax         # 8-byte Reload
	shlq	$10, %rax
	movl	-60(%rbp), %ecx         # 4-byte Reload
	imull	1000(%rdx,%rax,4), %ecx
	movq	-40(%rbp), %rax         # 8-byte Reload
	shlq	$10, %rax
	addl	1000(%rsi,%rax,4), %ecx
	movl	%ecx, 1000(%rsi,%rax,4)
	movq	-56(%rbp), %rax         # 8-byte Reload
	shlq	$10, %rax
	movl	-60(%rbp), %ecx         # 4-byte Reload
	imull	1004(%rdx,%rax,4), %ecx
	movq	-40(%rbp), %rax         # 8-byte Reload
	shlq	$10, %rax
	addl	1004(%rsi,%rax,4), %ecx
	movl	%ecx, 1004(%rsi,%rax,4)
	movq	-56(%rbp), %rax         # 8-byte Reload
	shlq	$10, %rax
	movl	-60(%rbp), %ecx         # 4-byte Reload
	imull	1008(%rdx,%rax,4), %ecx
	movq	-40(%rbp), %rax         # 8-byte Reload
	shlq	$10, %rax
	addl	1008(%rsi,%rax,4), %ecx
	movl	%ecx, 1008(%rsi,%rax,4)
	movq	-56(%rbp), %rax         # 8-byte Reload
	shlq	$10, %rax
	movl	-60(%rbp), %ecx         # 4-byte Reload
	imull	1012(%rdx,%rax,4), %ecx
	movq	-40(%rbp), %rax         # 8-byte Reload
	shlq	$10, %rax
	addl	1012(%rsi,%rax,4), %ecx
	movl	%ecx, 1012(%rsi,%rax,4)
	movq	-56(%rbp), %rax         # 8-byte Reload
	shlq	$10, %rax
	movl	-60(%rbp), %ecx         # 4-byte Reload
	imull	1016(%rdx,%rax,4), %ecx
	movq	-40(%rbp), %rax         # 8-byte Reload
	shlq	$10, %rax
	addl	1016(%rsi,%rax,4), %ecx
	movl	%ecx, 1016(%rsi,%rax,4)
	movq	-56(%rbp), %rax         # 8-byte Reload
	shlq	$10, %rax
	movl	-60(%rbp), %ecx         # 4-byte Reload
	imull	1020(%rdx,%rax,4), %ecx
	movq	-40(%rbp), %rax         # 8-byte Reload
	shlq	$10, %rax
	addl	1020(%rsi,%rax,4), %ecx
	movl	%ecx, 1020(%rsi,%rax,4)
	movq	-56(%rbp), %rax         # 8-byte Reload
	addq	$1, %rax
	movq	-40(%rbp), %rdi         # 8-byte Reload
	shlq	$10, %rdi
	addq	%rax, %rdi
	movq	-8(%rbp), %r8           # 8-byte Reload
	movl	(%r8,%rdi,4), %ecx
	movq	%rax, -72(%rbp)         # 8-byte Spill
	movl	%ecx, -76(%rbp)         # 4-byte Spill
	jmp	.LBB0_6
.LBB0_4:                                # %for.inc20
                                        #   in Loop: Header=BB0_1 Depth=1
	movq	-40(%rbp), %rax         # 8-byte Reload
	addq	$1, %rax
	cmpq	$1024, %rax             # imm = 0x400
	movq	%rax, -32(%rbp)         # 8-byte Spill
	jne	.LBB0_1
# %bb.5:                                # %for.end22
	popq	%rbp
	.cfi_def_cfa %rsp, 8
	retq
.LBB0_6:                                # %for.body6.1
                                        #   in Loop: Header=BB0_2 Depth=2
	.cfi_def_cfa %rbp, 16
	movq	-72(%rbp), %rax         # 8-byte Reload
	shlq	$10, %rax
	movl	-76(%rbp), %ecx         # 4-byte Reload
	movq	-16(%rbp), %rdx         # 8-byte Reload
	imull	(%rdx,%rax,4), %ecx
	movq	-40(%rbp), %rax         # 8-byte Reload
	shlq	$10, %rax
	movq	-24(%rbp), %rsi         # 8-byte Reload
	addl	(%rsi,%rax,4), %ecx
	movl	%ecx, (%rsi,%rax,4)
	movq	-72(%rbp), %rax         # 8-byte Reload
	shlq	$10, %rax
	movl	-76(%rbp), %ecx         # 4-byte Reload
	imull	4(%rdx,%rax,4), %ecx
	movq	-40(%rbp), %rax         # 8-byte Reload
	shlq	$10, %rax
	addl	4(%rsi,%rax,4), %ecx
	movl	%ecx, 4(%rsi,%rax,4)
	movq	-72(%rbp), %rax         # 8-byte Reload
	shlq	$10, %rax
	movl	-76(%rbp), %ecx         # 4-byte Reload
	imull	8(%rdx,%rax,4), %ecx
	movq	-40(%rbp), %rax         # 8-byte Reload
	shlq	$10, %rax
	addl	8(%rsi,%rax,4), %ecx
	movl	%ecx, 8(%rsi,%rax,4)
	movq	-72(%rbp), %rax         # 8-byte Reload
	shlq	$10, %rax
	movl	-76(%rbp), %ecx         # 4-byte Reload
	imull	12(%rdx,%rax,4), %ecx
	movq	-40(%rbp), %rax         # 8-byte Reload
	shlq	$10, %rax
	addl	12(%rsi,%rax,4), %ecx
	movl	%ecx, 12(%rsi,%rax,4)
	movq	-72(%rbp), %rax         # 8-byte Reload
	shlq	$10, %rax
	movl	-76(%rbp), %ecx         # 4-byte Reload
	imull	16(%rdx,%rax,4), %ecx
	movq	-40(%rbp), %rax         # 8-byte Reload
	shlq	$10, %rax
	addl	16(%rsi,%rax,4), %ecx
	movl	%ecx, 16(%rsi,%rax,4)
	movq	-72(%rbp), %rax         # 8-byte Reload
	shlq	$10, %rax
	movl	-76(%rbp), %ecx         # 4-byte Reload
	imull	20(%rdx,%rax,4), %ecx
	movq	-40(%rbp), %rax         # 8-byte Reload
	shlq	$10, %rax
	addl	20(%rsi,%rax,4), %ecx
	movl	%ecx, 20(%rsi,%rax,4)
	movq	-72(%rbp), %rax         # 8-byte Reload
	shlq	$10, %rax
	movl	-76(%rbp), %ecx         # 4-byte Reload
	imull	24(%rdx,%rax,4), %ecx
	movq	-40(%rbp), %rax         # 8-byte Reload
	shlq	$10, %rax
	addl	24(%rsi,%rax,4), %ecx
	movl	%ecx, 24(%rsi,%rax,4)
	movq	-72(%rbp), %rax         # 8-byte Reload
	shlq	$10, %rax
	movl	-76(%rbp), %ecx         # 4-byte Reload
	imull	28(%rdx,%rax,4), %ecx
	movq	-40(%rbp), %rax         # 8-byte Reload
	shlq	$10, %rax
	addl	28(%rsi,%rax,4), %ecx
	movl	%ecx, 28(%rsi,%rax,4)
	movq	-72(%rbp), %rax         # 8-byte Reload
	shlq	$10, %rax
	movl	-76(%rbp), %ecx         # 4-byte Reload
	imull	32(%rdx,%rax,4), %ecx
	movq	-40(%rbp), %rax         # 8-byte Reload
	shlq	$10, %rax
	addl	32(%rsi,%rax,4), %ecx
	movl	%ecx, 32(%rsi,%rax,4)
	movq	-72(%rbp), %rax         # 8-byte Reload
	shlq	$10, %rax
	movl	-76(%rbp), %ecx         # 4-byte Reload
	imull	36(%rdx,%rax,4), %ecx
	movq	-40(%rbp), %rax         # 8-byte Reload
	shlq	$10, %rax
	addl	36(%rsi,%rax,4), %ecx
	movl	%ecx, 36(%rsi,%rax,4)
	movq	-72(%rbp), %rax         # 8-byte Reload
	shlq	$10, %rax
	movl	-76(%rbp), %ecx         # 4-byte Reload
	imull	40(%rdx,%rax,4), %ecx
	movq	-40(%rbp), %rax         # 8-byte Reload
	shlq	$10, %rax
	addl	40(%rsi,%rax,4), %ecx
	movl	%ecx, 40(%rsi,%rax,4)
	movq	-72(%rbp), %rax         # 8-byte Reload
	shlq	$10, %rax
	movl	-76(%rbp), %ecx         # 4-byte Reload
	imull	44(%rdx,%rax,4), %ecx
	movq	-40(%rbp), %rax         # 8-byte Reload
	shlq	$10, %rax
	addl	44(%rsi,%rax,4), %ecx
	movl	%ecx, 44(%rsi,%rax,4)
	movq	-72(%rbp), %rax         # 8-byte Reload
	shlq	$10, %rax
	movl	-76(%rbp), %ecx         # 4-byte Reload
	imull	48(%rdx,%rax,4), %ecx
	movq	-40(%rbp), %rax         # 8-byte Reload
	shlq	$10, %rax
	addl	48(%rsi,%rax,4), %ecx
	movl	%ecx, 48(%rsi,%rax,4)
	movq	-72(%rbp), %rax         # 8-byte Reload
	shlq	$10, %rax
	movl	-76(%rbp), %ecx         # 4-byte Reload
	imull	52(%rdx,%rax,4), %ecx
	movq	-40(%rbp), %rax         # 8-byte Reload
	shlq	$10, %rax
	addl	52(%rsi,%rax,4), %ecx
	movl	%ecx, 52(%rsi,%rax,4)
	movq	-72(%rbp), %rax         # 8-byte Reload
	shlq	$10, %rax
	movl	-76(%rbp), %ecx         # 4-byte Reload
	imull	56(%rdx,%rax,4), %ecx
	movq	-40(%rbp), %rax         # 8-byte Reload
	shlq	$10, %rax
	addl	56(%rsi,%rax,4), %ecx
	movl	%ecx, 56(%rsi,%rax,4)
	movq	-72(%rbp), %rax         # 8-byte Reload
	shlq	$10, %rax
	movl	-76(%rbp), %ecx         # 4-byte Reload
	imull	60(%rdx,%rax,4), %ecx
	movq	-40(%rbp), %rax         # 8-byte Reload
	shlq	$10, %rax
	addl	60(%rsi,%rax,4), %ecx
	movl	%ecx, 60(%rsi,%rax,4)
	movq	-72(%rbp), %rax         # 8-byte Reload
	shlq	$10, %rax
	movl	-76(%rbp), %ecx         # 4-byte Reload
	imull	64(%rdx,%rax,4), %ecx
	movq	-40(%rbp), %rax         # 8-byte Reload
	shlq	$10, %rax
	addl	64(%rsi,%rax,4), %ecx
	movl	%ecx, 64(%rsi,%rax,4)
	movq	-72(%rbp), %rax         # 8-byte Reload
	shlq	$10, %rax
	movl	-76(%rbp), %ecx         # 4-byte Reload
	imull	68(%rdx,%rax,4), %ecx
	movq	-40(%rbp), %rax         # 8-byte Reload
	shlq	$10, %rax
	addl	68(%rsi,%rax,4), %ecx
	movl	%ecx, 68(%rsi,%rax,4)
	movq	-72(%rbp), %rax         # 8-byte Reload
	shlq	$10, %rax
	movl	-76(%rbp), %ecx         # 4-byte Reload
	imull	72(%rdx,%rax,4), %ecx
	movq	-40(%rbp), %rax         # 8-byte Reload
	shlq	$10, %rax
	addl	72(%rsi,%rax,4), %ecx
	movl	%ecx, 72(%rsi,%rax,4)
	movq	-72(%rbp), %rax         # 8-byte Reload
	shlq	$10, %rax
	movl	-76(%rbp), %ecx         # 4-byte Reload
	imull	76(%rdx,%rax,4), %ecx
	movq	-40(%rbp), %rax         # 8-byte Reload
	shlq	$10, %rax
	addl	76(%rsi,%rax,4), %ecx
	movl	%ecx, 76(%rsi,%rax,4)
	movq	-72(%rbp), %rax         # 8-byte Reload
	shlq	$10, %rax
	movl	-76(%rbp), %ecx         # 4-byte Reload
	imull	80(%rdx,%rax,4), %ecx
	movq	-40(%rbp), %rax         # 8-byte Reload
	shlq	$10, %rax
	addl	80(%rsi,%rax,4), %ecx
	movl	%ecx, 80(%rsi,%rax,4)
	movq	-72(%rbp), %rax         # 8-byte Reload
	shlq	$10, %rax
	movl	-76(%rbp), %ecx         # 4-byte Reload
	imull	84(%rdx,%rax,4), %ecx
	movq	-40(%rbp), %rax         # 8-byte Reload
	shlq	$10, %rax
	addl	84(%rsi,%rax,4), %ecx
	movl	%ecx, 84(%rsi,%rax,4)
	movq	-72(%rbp), %rax         # 8-byte Reload
	shlq	$10, %rax
	movl	-76(%rbp), %ecx         # 4-byte Reload
	imull	88(%rdx,%rax,4), %ecx
	movq	-40(%rbp), %rax         # 8-byte Reload
	shlq	$10, %rax
	addl	88(%rsi,%rax,4), %ecx
	movl	%ecx, 88(%rsi,%rax,4)
	movq	-72(%rbp), %rax         # 8-byte Reload
	shlq	$10, %rax
	movl	-76(%rbp), %ecx         # 4-byte Reload
	imull	92(%rdx,%rax,4), %ecx
	movq	-40(%rbp), %rax         # 8-byte Reload
	shlq	$10, %rax
	addl	92(%rsi,%rax,4), %ecx
	movl	%ecx, 92(%rsi,%rax,4)
	movq	-72(%rbp), %rax         # 8-byte Reload
	shlq	$10, %rax
	movl	-76(%rbp), %ecx         # 4-byte Reload
	imull	96(%rdx,%rax,4), %ecx
	movq	-40(%rbp), %rax         # 8-byte Reload
	shlq	$10, %rax
	addl	96(%rsi,%rax,4), %ecx
	movl	%ecx, 96(%rsi,%rax,4)
	movq	-72(%rbp), %rax         # 8-byte Reload
	shlq	$10, %rax
	movl	-76(%rbp), %ecx         # 4-byte Reload
	imull	100(%rdx,%rax,4), %ecx
	movq	-40(%rbp), %rax         # 8-byte Reload
	shlq	$10, %rax
	addl	100(%rsi,%rax,4), %ecx
	movl	%ecx, 100(%rsi,%rax,4)
	movq	-72(%rbp), %rax         # 8-byte Reload
	shlq	$10, %rax
	movl	-76(%rbp), %ecx         # 4-byte Reload
	imull	104(%rdx,%rax,4), %ecx
	movq	-40(%rbp), %rax         # 8-byte Reload
	shlq	$10, %rax
	addl	104(%rsi,%rax,4), %ecx
	movl	%ecx, 104(%rsi,%rax,4)
	movq	-72(%rbp), %rax         # 8-byte Reload
	shlq	$10, %rax
	movl	-76(%rbp), %ecx         # 4-byte Reload
	imull	108(%rdx,%rax,4), %ecx
	movq	-40(%rbp), %rax         # 8-byte Reload
	shlq	$10, %rax
	addl	108(%rsi,%rax,4), %ecx
	movl	%ecx, 108(%rsi,%rax,4)
	movq	-72(%rbp), %rax         # 8-byte Reload
	shlq	$10, %rax
	movl	-76(%rbp), %ecx         # 4-byte Reload
	imull	112(%rdx,%rax,4), %ecx
	movq	-40(%rbp), %rax         # 8-byte Reload
	shlq	$10, %rax
	addl	112(%rsi,%rax,4), %ecx
	movl	%ecx, 112(%rsi,%rax,4)
	movq	-72(%rbp), %rax         # 8-byte Reload
	shlq	$10, %rax
	movl	-76(%rbp), %ecx         # 4-byte Reload
	imull	116(%rdx,%rax,4), %ecx
	movq	-40(%rbp), %rax         # 8-byte Reload
	shlq	$10, %rax
	addl	116(%rsi,%rax,4), %ecx
	movl	%ecx, 116(%rsi,%rax,4)
	movq	-72(%rbp), %rax         # 8-byte Reload
	shlq	$10, %rax
	movl	-76(%rbp), %ecx         # 4-byte Reload
	imull	120(%rdx,%rax,4), %ecx
	movq	-40(%rbp), %rax         # 8-byte Reload
	shlq	$10, %rax
	addl	120(%rsi,%rax,4), %ecx
	movl	%ecx, 120(%rsi,%rax,4)
	movq	-72(%rbp), %rax         # 8-byte Reload
	shlq	$10, %rax
	movl	-76(%rbp), %ecx         # 4-byte Reload
	imull	124(%rdx,%rax,4), %ecx
	movq	-40(%rbp), %rax         # 8-byte Reload
	shlq	$10, %rax
	addl	124(%rsi,%rax,4), %ecx
	movl	%ecx, 124(%rsi,%rax,4)
	movq	-72(%rbp), %rax         # 8-byte Reload
	shlq	$10, %rax
	movl	-76(%rbp), %ecx         # 4-byte Reload
	imull	128(%rdx,%rax,4), %ecx
	movq	-40(%rbp), %rax         # 8-byte Reload
	shlq	$10, %rax
	addl	128(%rsi,%rax,4), %ecx
	movl	%ecx, 128(%rsi,%rax,4)
	movq	-72(%rbp), %rax         # 8-byte Reload
	shlq	$10, %rax
	movl	-76(%rbp), %ecx         # 4-byte Reload
	imull	132(%rdx,%rax,4), %ecx
	movq	-40(%rbp), %rax         # 8-byte Reload
	shlq	$10, %rax
	addl	132(%rsi,%rax,4), %ecx
	movl	%ecx, 132(%rsi,%rax,4)
	movq	-72(%rbp), %rax         # 8-byte Reload
	shlq	$10, %rax
	movl	-76(%rbp), %ecx         # 4-byte Reload
	imull	136(%rdx,%rax,4), %ecx
	movq	-40(%rbp), %rax         # 8-byte Reload
	shlq	$10, %rax
	addl	136(%rsi,%rax,4), %ecx
	movl	%ecx, 136(%rsi,%rax,4)
	movq	-72(%rbp), %rax         # 8-byte Reload
	shlq	$10, %rax
	movl	-76(%rbp), %ecx         # 4-byte Reload
	imull	140(%rdx,%rax,4), %ecx
	movq	-40(%rbp), %rax         # 8-byte Reload
	shlq	$10, %rax
	addl	140(%rsi,%rax,4), %ecx
	movl	%ecx, 140(%rsi,%rax,4)
	movq	-72(%rbp), %rax         # 8-byte Reload
	shlq	$10, %rax
	movl	-76(%rbp), %ecx         # 4-byte Reload
	imull	144(%rdx,%rax,4), %ecx
	movq	-40(%rbp), %rax         # 8-byte Reload
	shlq	$10, %rax
	addl	144(%rsi,%rax,4), %ecx
	movl	%ecx, 144(%rsi,%rax,4)
	movq	-72(%rbp), %rax         # 8-byte Reload
	shlq	$10, %rax
	movl	-76(%rbp), %ecx         # 4-byte Reload
	imull	148(%rdx,%rax,4), %ecx
	movq	-40(%rbp), %rax         # 8-byte Reload
	shlq	$10, %rax
	addl	148(%rsi,%rax,4), %ecx
	movl	%ecx, 148(%rsi,%rax,4)
	movq	-72(%rbp), %rax         # 8-byte Reload
	shlq	$10, %rax
	movl	-76(%rbp), %ecx         # 4-byte Reload
	imull	152(%rdx,%rax,4), %ecx
	movq	-40(%rbp), %rax         # 8-byte Reload
	shlq	$10, %rax
	addl	152(%rsi,%rax,4), %ecx
	movl	%ecx, 152(%rsi,%rax,4)
	movq	-72(%rbp), %rax         # 8-byte Reload
	shlq	$10, %rax
	movl	-76(%rbp), %ecx         # 4-byte Reload
	imull	156(%rdx,%rax,4), %ecx
	movq	-40(%rbp), %rax         # 8-byte Reload
	shlq	$10, %rax
	addl	156(%rsi,%rax,4), %ecx
	movl	%ecx, 156(%rsi,%rax,4)
	movq	-72(%rbp), %rax         # 8-byte Reload
	shlq	$10, %rax
	movl	-76(%rbp), %ecx         # 4-byte Reload
	imull	160(%rdx,%rax,4), %ecx
	movq	-40(%rbp), %rax         # 8-byte Reload
	shlq	$10, %rax
	addl	160(%rsi,%rax,4), %ecx
	movl	%ecx, 160(%rsi,%rax,4)
	movq	-72(%rbp), %rax         # 8-byte Reload
	shlq	$10, %rax
	movl	-76(%rbp), %ecx         # 4-byte Reload
	imull	164(%rdx,%rax,4), %ecx
	movq	-40(%rbp), %rax         # 8-byte Reload
	shlq	$10, %rax
	addl	164(%rsi,%rax,4), %ecx
	movl	%ecx, 164(%rsi,%rax,4)
	movq	-72(%rbp), %rax         # 8-byte Reload
	shlq	$10, %rax
	movl	-76(%rbp), %ecx         # 4-byte Reload
	imull	168(%rdx,%rax,4), %ecx
	movq	-40(%rbp), %rax         # 8-byte Reload
	shlq	$10, %rax
	addl	168(%rsi,%rax,4), %ecx
	movl	%ecx, 168(%rsi,%rax,4)
	movq	-72(%rbp), %rax         # 8-byte Reload
	shlq	$10, %rax
	movl	-76(%rbp), %ecx         # 4-byte Reload
	imull	172(%rdx,%rax,4), %ecx
	movq	-40(%rbp), %rax         # 8-byte Reload
	shlq	$10, %rax
	addl	172(%rsi,%rax,4), %ecx
	movl	%ecx, 172(%rsi,%rax,4)
	movq	-72(%rbp), %rax         # 8-byte Reload
	shlq	$10, %rax
	movl	-76(%rbp), %ecx         # 4-byte Reload
	imull	176(%rdx,%rax,4), %ecx
	movq	-40(%rbp), %rax         # 8-byte Reload
	shlq	$10, %rax
	addl	176(%rsi,%rax,4), %ecx
	movl	%ecx, 176(%rsi,%rax,4)
	movq	-72(%rbp), %rax         # 8-byte Reload
	shlq	$10, %rax
	movl	-76(%rbp), %ecx         # 4-byte Reload
	imull	180(%rdx,%rax,4), %ecx
	movq	-40(%rbp), %rax         # 8-byte Reload
	shlq	$10, %rax
	addl	180(%rsi,%rax,4), %ecx
	movl	%ecx, 180(%rsi,%rax,4)
	movq	-72(%rbp), %rax         # 8-byte Reload
	shlq	$10, %rax
	movl	-76(%rbp), %ecx         # 4-byte Reload
	imull	184(%rdx,%rax,4), %ecx
	movq	-40(%rbp), %rax         # 8-byte Reload
	shlq	$10, %rax
	addl	184(%rsi,%rax,4), %ecx
	movl	%ecx, 184(%rsi,%rax,4)
	movq	-72(%rbp), %rax         # 8-byte Reload
	shlq	$10, %rax
	movl	-76(%rbp), %ecx         # 4-byte Reload
	imull	188(%rdx,%rax,4), %ecx
	movq	-40(%rbp), %rax         # 8-byte Reload
	shlq	$10, %rax
	addl	188(%rsi,%rax,4), %ecx
	movl	%ecx, 188(%rsi,%rax,4)
	movq	-72(%rbp), %rax         # 8-byte Reload
	shlq	$10, %rax
	movl	-76(%rbp), %ecx         # 4-byte Reload
	imull	192(%rdx,%rax,4), %ecx
	movq	-40(%rbp), %rax         # 8-byte Reload
	shlq	$10, %rax
	addl	192(%rsi,%rax,4), %ecx
	movl	%ecx, 192(%rsi,%rax,4)
	movq	-72(%rbp), %rax         # 8-byte Reload
	shlq	$10, %rax
	movl	-76(%rbp), %ecx         # 4-byte Reload
	imull	196(%rdx,%rax,4), %ecx
	movq	-40(%rbp), %rax         # 8-byte Reload
	shlq	$10, %rax
	addl	196(%rsi,%rax,4), %ecx
	movl	%ecx, 196(%rsi,%rax,4)
	movq	-72(%rbp), %rax         # 8-byte Reload
	shlq	$10, %rax
	movl	-76(%rbp), %ecx         # 4-byte Reload
	imull	200(%rdx,%rax,4), %ecx
	movq	-40(%rbp), %rax         # 8-byte Reload
	shlq	$10, %rax
	addl	200(%rsi,%rax,4), %ecx
	movl	%ecx, 200(%rsi,%rax,4)
	movq	-72(%rbp), %rax         # 8-byte Reload
	shlq	$10, %rax
	movl	-76(%rbp), %ecx         # 4-byte Reload
	imull	204(%rdx,%rax,4), %ecx
	movq	-40(%rbp), %rax         # 8-byte Reload
	shlq	$10, %rax
	addl	204(%rsi,%rax,4), %ecx
	movl	%ecx, 204(%rsi,%rax,4)
	movq	-72(%rbp), %rax         # 8-byte Reload
	shlq	$10, %rax
	movl	-76(%rbp), %ecx         # 4-byte Reload
	imull	208(%rdx,%rax,4), %ecx
	movq	-40(%rbp), %rax         # 8-byte Reload
	shlq	$10, %rax
	addl	208(%rsi,%rax,4), %ecx
	movl	%ecx, 208(%rsi,%rax,4)
	movq	-72(%rbp), %rax         # 8-byte Reload
	shlq	$10, %rax
	movl	-76(%rbp), %ecx         # 4-byte Reload
	imull	212(%rdx,%rax,4), %ecx
	movq	-40(%rbp), %rax         # 8-byte Reload
	shlq	$10, %rax
	addl	212(%rsi,%rax,4), %ecx
	movl	%ecx, 212(%rsi,%rax,4)
	movq	-72(%rbp), %rax         # 8-byte Reload
	shlq	$10, %rax
	movl	-76(%rbp), %ecx         # 4-byte Reload
	imull	216(%rdx,%rax,4), %ecx
	movq	-40(%rbp), %rax         # 8-byte Reload
	shlq	$10, %rax
	addl	216(%rsi,%rax,4), %ecx
	movl	%ecx, 216(%rsi,%rax,4)
	movq	-72(%rbp), %rax         # 8-byte Reload
	shlq	$10, %rax
	movl	-76(%rbp), %ecx         # 4-byte Reload
	imull	220(%rdx,%rax,4), %ecx
	movq	-40(%rbp), %rax         # 8-byte Reload
	shlq	$10, %rax
	addl	220(%rsi,%rax,4), %ecx
	movl	%ecx, 220(%rsi,%rax,4)
	movq	-72(%rbp), %rax         # 8-byte Reload
	shlq	$10, %rax
	movl	-76(%rbp), %ecx         # 4-byte Reload
	imull	224(%rdx,%rax,4), %ecx
	movq	-40(%rbp), %rax         # 8-byte Reload
	shlq	$10, %rax
	addl	224(%rsi,%rax,4), %ecx
	movl	%ecx, 224(%rsi,%rax,4)
	movq	-72(%rbp), %rax         # 8-byte Reload
	shlq	$10, %rax
	movl	-76(%rbp), %ecx         # 4-byte Reload
	imull	228(%rdx,%rax,4), %ecx
	movq	-40(%rbp), %rax         # 8-byte Reload
	shlq	$10, %rax
	addl	228(%rsi,%rax,4), %ecx
	movl	%ecx, 228(%rsi,%rax,4)
	movq	-72(%rbp), %rax         # 8-byte Reload
	shlq	$10, %rax
	movl	-76(%rbp), %ecx         # 4-byte Reload
	imull	232(%rdx,%rax,4), %ecx
	movq	-40(%rbp), %rax         # 8-byte Reload
	shlq	$10, %rax
	addl	232(%rsi,%rax,4), %ecx
	movl	%ecx, 232(%rsi,%rax,4)
	movq	-72(%rbp), %rax         # 8-byte Reload
	shlq	$10, %rax
	movl	-76(%rbp), %ecx         # 4-byte Reload
	imull	236(%rdx,%rax,4), %ecx
	movq	-40(%rbp), %rax         # 8-byte Reload
	shlq	$10, %rax
	addl	236(%rsi,%rax,4), %ecx
	movl	%ecx, 236(%rsi,%rax,4)
	movq	-72(%rbp), %rax         # 8-byte Reload
	shlq	$10, %rax
	movl	-76(%rbp), %ecx         # 4-byte Reload
	imull	240(%rdx,%rax,4), %ecx
	movq	-40(%rbp), %rax         # 8-byte Reload
	shlq	$10, %rax
	addl	240(%rsi,%rax,4), %ecx
	movl	%ecx, 240(%rsi,%rax,4)
	movq	-72(%rbp), %rax         # 8-byte Reload
	shlq	$10, %rax
	movl	-76(%rbp), %ecx         # 4-byte Reload
	imull	244(%rdx,%rax,4), %ecx
	movq	-40(%rbp), %rax         # 8-byte Reload
	shlq	$10, %rax
	addl	244(%rsi,%rax,4), %ecx
	movl	%ecx, 244(%rsi,%rax,4)
	movq	-72(%rbp), %rax         # 8-byte Reload
	shlq	$10, %rax
	movl	-76(%rbp), %ecx         # 4-byte Reload
	imull	248(%rdx,%rax,4), %ecx
	movq	-40(%rbp), %rax         # 8-byte Reload
	shlq	$10, %rax
	addl	248(%rsi,%rax,4), %ecx
	movl	%ecx, 248(%rsi,%rax,4)
	movq	-72(%rbp), %rax         # 8-byte Reload
	shlq	$10, %rax
	movl	-76(%rbp), %ecx         # 4-byte Reload
	imull	252(%rdx,%rax,4), %ecx
	movq	-40(%rbp), %rax         # 8-byte Reload
	shlq	$10, %rax
	addl	252(%rsi,%rax,4), %ecx
	movl	%ecx, 252(%rsi,%rax,4)
	movq	-72(%rbp), %rax         # 8-byte Reload
	shlq	$10, %rax
	movl	-76(%rbp), %ecx         # 4-byte Reload
	imull	256(%rdx,%rax,4), %ecx
	movq	-40(%rbp), %rax         # 8-byte Reload
	shlq	$10, %rax
	addl	256(%rsi,%rax,4), %ecx
	movl	%ecx, 256(%rsi,%rax,4)
	movq	-72(%rbp), %rax         # 8-byte Reload
	shlq	$10, %rax
	movl	-76(%rbp), %ecx         # 4-byte Reload
	imull	260(%rdx,%rax,4), %ecx
	movq	-40(%rbp), %rax         # 8-byte Reload
	shlq	$10, %rax
	addl	260(%rsi,%rax,4), %ecx
	movl	%ecx, 260(%rsi,%rax,4)
	movq	-72(%rbp), %rax         # 8-byte Reload
	shlq	$10, %rax
	movl	-76(%rbp), %ecx         # 4-byte Reload
	imull	264(%rdx,%rax,4), %ecx
	movq	-40(%rbp), %rax         # 8-byte Reload
	shlq	$10, %rax
	addl	264(%rsi,%rax,4), %ecx
	movl	%ecx, 264(%rsi,%rax,4)
	movq	-72(%rbp), %rax         # 8-byte Reload
	shlq	$10, %rax
	movl	-76(%rbp), %ecx         # 4-byte Reload
	imull	268(%rdx,%rax,4), %ecx
	movq	-40(%rbp), %rax         # 8-byte Reload
	shlq	$10, %rax
	addl	268(%rsi,%rax,4), %ecx
	movl	%ecx, 268(%rsi,%rax,4)
	movq	-72(%rbp), %rax         # 8-byte Reload
	shlq	$10, %rax
	movl	-76(%rbp), %ecx         # 4-byte Reload
	imull	272(%rdx,%rax,4), %ecx
	movq	-40(%rbp), %rax         # 8-byte Reload
	shlq	$10, %rax
	addl	272(%rsi,%rax,4), %ecx
	movl	%ecx, 272(%rsi,%rax,4)
	movq	-72(%rbp), %rax         # 8-byte Reload
	shlq	$10, %rax
	movl	-76(%rbp), %ecx         # 4-byte Reload
	imull	276(%rdx,%rax,4), %ecx
	movq	-40(%rbp), %rax         # 8-byte Reload
	shlq	$10, %rax
	addl	276(%rsi,%rax,4), %ecx
	movl	%ecx, 276(%rsi,%rax,4)
	movq	-72(%rbp), %rax         # 8-byte Reload
	shlq	$10, %rax
	movl	-76(%rbp), %ecx         # 4-byte Reload
	imull	280(%rdx,%rax,4), %ecx
	movq	-40(%rbp), %rax         # 8-byte Reload
	shlq	$10, %rax
	addl	280(%rsi,%rax,4), %ecx
	movl	%ecx, 280(%rsi,%rax,4)
	movq	-72(%rbp), %rax         # 8-byte Reload
	shlq	$10, %rax
	movl	-76(%rbp), %ecx         # 4-byte Reload
	imull	284(%rdx,%rax,4), %ecx
	movq	-40(%rbp), %rax         # 8-byte Reload
	shlq	$10, %rax
	addl	284(%rsi,%rax,4), %ecx
	movl	%ecx, 284(%rsi,%rax,4)
	movq	-72(%rbp), %rax         # 8-byte Reload
	shlq	$10, %rax
	movl	-76(%rbp), %ecx         # 4-byte Reload
	imull	288(%rdx,%rax,4), %ecx
	movq	-40(%rbp), %rax         # 8-byte Reload
	shlq	$10, %rax
	addl	288(%rsi,%rax,4), %ecx
	movl	%ecx, 288(%rsi,%rax,4)
	movq	-72(%rbp), %rax         # 8-byte Reload
	shlq	$10, %rax
	movl	-76(%rbp), %ecx         # 4-byte Reload
	imull	292(%rdx,%rax,4), %ecx
	movq	-40(%rbp), %rax         # 8-byte Reload
	shlq	$10, %rax
	addl	292(%rsi,%rax,4), %ecx
	movl	%ecx, 292(%rsi,%rax,4)
	movq	-72(%rbp), %rax         # 8-byte Reload
	shlq	$10, %rax
	movl	-76(%rbp), %ecx         # 4-byte Reload
	imull	296(%rdx,%rax,4), %ecx
	movq	-40(%rbp), %rax         # 8-byte Reload
	shlq	$10, %rax
	addl	296(%rsi,%rax,4), %ecx
	movl	%ecx, 296(%rsi,%rax,4)
	movq	-72(%rbp), %rax         # 8-byte Reload
	shlq	$10, %rax
	movl	-76(%rbp), %ecx         # 4-byte Reload
	imull	300(%rdx,%rax,4), %ecx
	movq	-40(%rbp), %rax         # 8-byte Reload
	shlq	$10, %rax
	addl	300(%rsi,%rax,4), %ecx
	movl	%ecx, 300(%rsi,%rax,4)
	movq	-72(%rbp), %rax         # 8-byte Reload
	shlq	$10, %rax
	movl	-76(%rbp), %ecx         # 4-byte Reload
	imull	304(%rdx,%rax,4), %ecx
	movq	-40(%rbp), %rax         # 8-byte Reload
	shlq	$10, %rax
	addl	304(%rsi,%rax,4), %ecx
	movl	%ecx, 304(%rsi,%rax,4)
	movq	-72(%rbp), %rax         # 8-byte Reload
	shlq	$10, %rax
	movl	-76(%rbp), %ecx         # 4-byte Reload
	imull	308(%rdx,%rax,4), %ecx
	movq	-40(%rbp), %rax         # 8-byte Reload
	shlq	$10, %rax
	addl	308(%rsi,%rax,4), %ecx
	movl	%ecx, 308(%rsi,%rax,4)
	movq	-72(%rbp), %rax         # 8-byte Reload
	shlq	$10, %rax
	movl	-76(%rbp), %ecx         # 4-byte Reload
	imull	312(%rdx,%rax,4), %ecx
	movq	-40(%rbp), %rax         # 8-byte Reload
	shlq	$10, %rax
	addl	312(%rsi,%rax,4), %ecx
	movl	%ecx, 312(%rsi,%rax,4)
	movq	-72(%rbp), %rax         # 8-byte Reload
	shlq	$10, %rax
	movl	-76(%rbp), %ecx         # 4-byte Reload
	imull	316(%rdx,%rax,4), %ecx
	movq	-40(%rbp), %rax         # 8-byte Reload
	shlq	$10, %rax
	addl	316(%rsi,%rax,4), %ecx
	movl	%ecx, 316(%rsi,%rax,4)
	movq	-72(%rbp), %rax         # 8-byte Reload
	shlq	$10, %rax
	movl	-76(%rbp), %ecx         # 4-byte Reload
	imull	320(%rdx,%rax,4), %ecx
	movq	-40(%rbp), %rax         # 8-byte Reload
	shlq	$10, %rax
	addl	320(%rsi,%rax,4), %ecx
	movl	%ecx, 320(%rsi,%rax,4)
	movq	-72(%rbp), %rax         # 8-byte Reload
	shlq	$10, %rax
	movl	-76(%rbp), %ecx         # 4-byte Reload
	imull	324(%rdx,%rax,4), %ecx
	movq	-40(%rbp), %rax         # 8-byte Reload
	shlq	$10, %rax
	addl	324(%rsi,%rax,4), %ecx
	movl	%ecx, 324(%rsi,%rax,4)
	movq	-72(%rbp), %rax         # 8-byte Reload
	shlq	$10, %rax
	movl	-76(%rbp), %ecx         # 4-byte Reload
	imull	328(%rdx,%rax,4), %ecx
	movq	-40(%rbp), %rax         # 8-byte Reload
	shlq	$10, %rax
	addl	328(%rsi,%rax,4), %ecx
	movl	%ecx, 328(%rsi,%rax,4)
	movq	-72(%rbp), %rax         # 8-byte Reload
	shlq	$10, %rax
	movl	-76(%rbp), %ecx         # 4-byte Reload
	imull	332(%rdx,%rax,4), %ecx
	movq	-40(%rbp), %rax         # 8-byte Reload
	shlq	$10, %rax
	addl	332(%rsi,%rax,4), %ecx
	movl	%ecx, 332(%rsi,%rax,4)
	movq	-72(%rbp), %rax         # 8-byte Reload
	shlq	$10, %rax
	movl	-76(%rbp), %ecx         # 4-byte Reload
	imull	336(%rdx,%rax,4), %ecx
	movq	-40(%rbp), %rax         # 8-byte Reload
	shlq	$10, %rax
	addl	336(%rsi,%rax,4), %ecx
	movl	%ecx, 336(%rsi,%rax,4)
	movq	-72(%rbp), %rax         # 8-byte Reload
	shlq	$10, %rax
	movl	-76(%rbp), %ecx         # 4-byte Reload
	imull	340(%rdx,%rax,4), %ecx
	movq	-40(%rbp), %rax         # 8-byte Reload
	shlq	$10, %rax
	addl	340(%rsi,%rax,4), %ecx
	movl	%ecx, 340(%rsi,%rax,4)
	movq	-72(%rbp), %rax         # 8-byte Reload
	shlq	$10, %rax
	movl	-76(%rbp), %ecx         # 4-byte Reload
	imull	344(%rdx,%rax,4), %ecx
	movq	-40(%rbp), %rax         # 8-byte Reload
	shlq	$10, %rax
	addl	344(%rsi,%rax,4), %ecx
	movl	%ecx, 344(%rsi,%rax,4)
	movq	-72(%rbp), %rax         # 8-byte Reload
	shlq	$10, %rax
	movl	-76(%rbp), %ecx         # 4-byte Reload
	imull	348(%rdx,%rax,4), %ecx
	movq	-40(%rbp), %rax         # 8-byte Reload
	shlq	$10, %rax
	addl	348(%rsi,%rax,4), %ecx
	movl	%ecx, 348(%rsi,%rax,4)
	movq	-72(%rbp), %rax         # 8-byte Reload
	shlq	$10, %rax
	movl	-76(%rbp), %ecx         # 4-byte Reload
	imull	352(%rdx,%rax,4), %ecx
	movq	-40(%rbp), %rax         # 8-byte Reload
	shlq	$10, %rax
	addl	352(%rsi,%rax,4), %ecx
	movl	%ecx, 352(%rsi,%rax,4)
	movq	-72(%rbp), %rax         # 8-byte Reload
	shlq	$10, %rax
	movl	-76(%rbp), %ecx         # 4-byte Reload
	imull	356(%rdx,%rax,4), %ecx
	movq	-40(%rbp), %rax         # 8-byte Reload
	shlq	$10, %rax
	addl	356(%rsi,%rax,4), %ecx
	movl	%ecx, 356(%rsi,%rax,4)
	movq	-72(%rbp), %rax         # 8-byte Reload
	shlq	$10, %rax
	movl	-76(%rbp), %ecx         # 4-byte Reload
	imull	360(%rdx,%rax,4), %ecx
	movq	-40(%rbp), %rax         # 8-byte Reload
	shlq	$10, %rax
	addl	360(%rsi,%rax,4), %ecx
	movl	%ecx, 360(%rsi,%rax,4)
	movq	-72(%rbp), %rax         # 8-byte Reload
	shlq	$10, %rax
	movl	-76(%rbp), %ecx         # 4-byte Reload
	imull	364(%rdx,%rax,4), %ecx
	movq	-40(%rbp), %rax         # 8-byte Reload
	shlq	$10, %rax
	addl	364(%rsi,%rax,4), %ecx
	movl	%ecx, 364(%rsi,%rax,4)
	movq	-72(%rbp), %rax         # 8-byte Reload
	shlq	$10, %rax
	movl	-76(%rbp), %ecx         # 4-byte Reload
	imull	368(%rdx,%rax,4), %ecx
	movq	-40(%rbp), %rax         # 8-byte Reload
	shlq	$10, %rax
	addl	368(%rsi,%rax,4), %ecx
	movl	%ecx, 368(%rsi,%rax,4)
	movq	-72(%rbp), %rax         # 8-byte Reload
	shlq	$10, %rax
	movl	-76(%rbp), %ecx         # 4-byte Reload
	imull	372(%rdx,%rax,4), %ecx
	movq	-40(%rbp), %rax         # 8-byte Reload
	shlq	$10, %rax
	addl	372(%rsi,%rax,4), %ecx
	movl	%ecx, 372(%rsi,%rax,4)
	movq	-72(%rbp), %rax         # 8-byte Reload
	shlq	$10, %rax
	movl	-76(%rbp), %ecx         # 4-byte Reload
	imull	376(%rdx,%rax,4), %ecx
	movq	-40(%rbp), %rax         # 8-byte Reload
	shlq	$10, %rax
	addl	376(%rsi,%rax,4), %ecx
	movl	%ecx, 376(%rsi,%rax,4)
	movq	-72(%rbp), %rax         # 8-byte Reload
	shlq	$10, %rax
	movl	-76(%rbp), %ecx         # 4-byte Reload
	imull	380(%rdx,%rax,4), %ecx
	movq	-40(%rbp), %rax         # 8-byte Reload
	shlq	$10, %rax
	addl	380(%rsi,%rax,4), %ecx
	movl	%ecx, 380(%rsi,%rax,4)
	movq	-72(%rbp), %rax         # 8-byte Reload
	shlq	$10, %rax
	movl	-76(%rbp), %ecx         # 4-byte Reload
	imull	384(%rdx,%rax,4), %ecx
	movq	-40(%rbp), %rax         # 8-byte Reload
	shlq	$10, %rax
	addl	384(%rsi,%rax,4), %ecx
	movl	%ecx, 384(%rsi,%rax,4)
	movq	-72(%rbp), %rax         # 8-byte Reload
	shlq	$10, %rax
	movl	-76(%rbp), %ecx         # 4-byte Reload
	imull	388(%rdx,%rax,4), %ecx
	movq	-40(%rbp), %rax         # 8-byte Reload
	shlq	$10, %rax
	addl	388(%rsi,%rax,4), %ecx
	movl	%ecx, 388(%rsi,%rax,4)
	movq	-72(%rbp), %rax         # 8-byte Reload
	shlq	$10, %rax
	movl	-76(%rbp), %ecx         # 4-byte Reload
	imull	392(%rdx,%rax,4), %ecx
	movq	-40(%rbp), %rax         # 8-byte Reload
	shlq	$10, %rax
	addl	392(%rsi,%rax,4), %ecx
	movl	%ecx, 392(%rsi,%rax,4)
	movq	-72(%rbp), %rax         # 8-byte Reload
	shlq	$10, %rax
	movl	-76(%rbp), %ecx         # 4-byte Reload
	imull	396(%rdx,%rax,4), %ecx
	movq	-40(%rbp), %rax         # 8-byte Reload
	shlq	$10, %rax
	addl	396(%rsi,%rax,4), %ecx
	movl	%ecx, 396(%rsi,%rax,4)
	movq	-72(%rbp), %rax         # 8-byte Reload
	shlq	$10, %rax
	movl	-76(%rbp), %ecx         # 4-byte Reload
	imull	400(%rdx,%rax,4), %ecx
	movq	-40(%rbp), %rax         # 8-byte Reload
	shlq	$10, %rax
	addl	400(%rsi,%rax,4), %ecx
	movl	%ecx, 400(%rsi,%rax,4)
	movq	-72(%rbp), %rax         # 8-byte Reload
	shlq	$10, %rax
	movl	-76(%rbp), %ecx         # 4-byte Reload
	imull	404(%rdx,%rax,4), %ecx
	movq	-40(%rbp), %rax         # 8-byte Reload
	shlq	$10, %rax
	addl	404(%rsi,%rax,4), %ecx
	movl	%ecx, 404(%rsi,%rax,4)
	movq	-72(%rbp), %rax         # 8-byte Reload
	shlq	$10, %rax
	movl	-76(%rbp), %ecx         # 4-byte Reload
	imull	408(%rdx,%rax,4), %ecx
	movq	-40(%rbp), %rax         # 8-byte Reload
	shlq	$10, %rax
	addl	408(%rsi,%rax,4), %ecx
	movl	%ecx, 408(%rsi,%rax,4)
	movq	-72(%rbp), %rax         # 8-byte Reload
	shlq	$10, %rax
	movl	-76(%rbp), %ecx         # 4-byte Reload
	imull	412(%rdx,%rax,4), %ecx
	movq	-40(%rbp), %rax         # 8-byte Reload
	shlq	$10, %rax
	addl	412(%rsi,%rax,4), %ecx
	movl	%ecx, 412(%rsi,%rax,4)
	movq	-72(%rbp), %rax         # 8-byte Reload
	shlq	$10, %rax
	movl	-76(%rbp), %ecx         # 4-byte Reload
	imull	416(%rdx,%rax,4), %ecx
	movq	-40(%rbp), %rax         # 8-byte Reload
	shlq	$10, %rax
	addl	416(%rsi,%rax,4), %ecx
	movl	%ecx, 416(%rsi,%rax,4)
	movq	-72(%rbp), %rax         # 8-byte Reload
	shlq	$10, %rax
	movl	-76(%rbp), %ecx         # 4-byte Reload
	imull	420(%rdx,%rax,4), %ecx
	movq	-40(%rbp), %rax         # 8-byte Reload
	shlq	$10, %rax
	addl	420(%rsi,%rax,4), %ecx
	movl	%ecx, 420(%rsi,%rax,4)
	movq	-72(%rbp), %rax         # 8-byte Reload
	shlq	$10, %rax
	movl	-76(%rbp), %ecx         # 4-byte Reload
	imull	424(%rdx,%rax,4), %ecx
	movq	-40(%rbp), %rax         # 8-byte Reload
	shlq	$10, %rax
	addl	424(%rsi,%rax,4), %ecx
	movl	%ecx, 424(%rsi,%rax,4)
	movq	-72(%rbp), %rax         # 8-byte Reload
	shlq	$10, %rax
	movl	-76(%rbp), %ecx         # 4-byte Reload
	imull	428(%rdx,%rax,4), %ecx
	movq	-40(%rbp), %rax         # 8-byte Reload
	shlq	$10, %rax
	addl	428(%rsi,%rax,4), %ecx
	movl	%ecx, 428(%rsi,%rax,4)
	movq	-72(%rbp), %rax         # 8-byte Reload
	shlq	$10, %rax
	movl	-76(%rbp), %ecx         # 4-byte Reload
	imull	432(%rdx,%rax,4), %ecx
	movq	-40(%rbp), %rax         # 8-byte Reload
	shlq	$10, %rax
	addl	432(%rsi,%rax,4), %ecx
	movl	%ecx, 432(%rsi,%rax,4)
	movq	-72(%rbp), %rax         # 8-byte Reload
	shlq	$10, %rax
	movl	-76(%rbp), %ecx         # 4-byte Reload
	imull	436(%rdx,%rax,4), %ecx
	movq	-40(%rbp), %rax         # 8-byte Reload
	shlq	$10, %rax
	addl	436(%rsi,%rax,4), %ecx
	movl	%ecx, 436(%rsi,%rax,4)
	movq	-72(%rbp), %rax         # 8-byte Reload
	shlq	$10, %rax
	movl	-76(%rbp), %ecx         # 4-byte Reload
	imull	440(%rdx,%rax,4), %ecx
	movq	-40(%rbp), %rax         # 8-byte Reload
	shlq	$10, %rax
	addl	440(%rsi,%rax,4), %ecx
	movl	%ecx, 440(%rsi,%rax,4)
	movq	-72(%rbp), %rax         # 8-byte Reload
	shlq	$10, %rax
	movl	-76(%rbp), %ecx         # 4-byte Reload
	imull	444(%rdx,%rax,4), %ecx
	movq	-40(%rbp), %rax         # 8-byte Reload
	shlq	$10, %rax
	addl	444(%rsi,%rax,4), %ecx
	movl	%ecx, 444(%rsi,%rax,4)
	movq	-72(%rbp), %rax         # 8-byte Reload
	shlq	$10, %rax
	movl	-76(%rbp), %ecx         # 4-byte Reload
	imull	448(%rdx,%rax,4), %ecx
	movq	-40(%rbp), %rax         # 8-byte Reload
	shlq	$10, %rax
	addl	448(%rsi,%rax,4), %ecx
	movl	%ecx, 448(%rsi,%rax,4)
	movq	-72(%rbp), %rax         # 8-byte Reload
	shlq	$10, %rax
	movl	-76(%rbp), %ecx         # 4-byte Reload
	imull	452(%rdx,%rax,4), %ecx
	movq	-40(%rbp), %rax         # 8-byte Reload
	shlq	$10, %rax
	addl	452(%rsi,%rax,4), %ecx
	movl	%ecx, 452(%rsi,%rax,4)
	movq	-72(%rbp), %rax         # 8-byte Reload
	shlq	$10, %rax
	movl	-76(%rbp), %ecx         # 4-byte Reload
	imull	456(%rdx,%rax,4), %ecx
	movq	-40(%rbp), %rax         # 8-byte Reload
	shlq	$10, %rax
	addl	456(%rsi,%rax,4), %ecx
	movl	%ecx, 456(%rsi,%rax,4)
	movq	-72(%rbp), %rax         # 8-byte Reload
	shlq	$10, %rax
	movl	-76(%rbp), %ecx         # 4-byte Reload
	imull	460(%rdx,%rax,4), %ecx
	movq	-40(%rbp), %rax         # 8-byte Reload
	shlq	$10, %rax
	addl	460(%rsi,%rax,4), %ecx
	movl	%ecx, 460(%rsi,%rax,4)
	movq	-72(%rbp), %rax         # 8-byte Reload
	shlq	$10, %rax
	movl	-76(%rbp), %ecx         # 4-byte Reload
	imull	464(%rdx,%rax,4), %ecx
	movq	-40(%rbp), %rax         # 8-byte Reload
	shlq	$10, %rax
	addl	464(%rsi,%rax,4), %ecx
	movl	%ecx, 464(%rsi,%rax,4)
	movq	-72(%rbp), %rax         # 8-byte Reload
	shlq	$10, %rax
	movl	-76(%rbp), %ecx         # 4-byte Reload
	imull	468(%rdx,%rax,4), %ecx
	movq	-40(%rbp), %rax         # 8-byte Reload
	shlq	$10, %rax
	addl	468(%rsi,%rax,4), %ecx
	movl	%ecx, 468(%rsi,%rax,4)
	movq	-72(%rbp), %rax         # 8-byte Reload
	shlq	$10, %rax
	movl	-76(%rbp), %ecx         # 4-byte Reload
	imull	472(%rdx,%rax,4), %ecx
	movq	-40(%rbp), %rax         # 8-byte Reload
	shlq	$10, %rax
	addl	472(%rsi,%rax,4), %ecx
	movl	%ecx, 472(%rsi,%rax,4)
	movq	-72(%rbp), %rax         # 8-byte Reload
	shlq	$10, %rax
	movl	-76(%rbp), %ecx         # 4-byte Reload
	imull	476(%rdx,%rax,4), %ecx
	movq	-40(%rbp), %rax         # 8-byte Reload
	shlq	$10, %rax
	addl	476(%rsi,%rax,4), %ecx
	movl	%ecx, 476(%rsi,%rax,4)
	movq	-72(%rbp), %rax         # 8-byte Reload
	shlq	$10, %rax
	movl	-76(%rbp), %ecx         # 4-byte Reload
	imull	480(%rdx,%rax,4), %ecx
	movq	-40(%rbp), %rax         # 8-byte Reload
	shlq	$10, %rax
	addl	480(%rsi,%rax,4), %ecx
	movl	%ecx, 480(%rsi,%rax,4)
	movq	-72(%rbp), %rax         # 8-byte Reload
	shlq	$10, %rax
	movl	-76(%rbp), %ecx         # 4-byte Reload
	imull	484(%rdx,%rax,4), %ecx
	movq	-40(%rbp), %rax         # 8-byte Reload
	shlq	$10, %rax
	addl	484(%rsi,%rax,4), %ecx
	movl	%ecx, 484(%rsi,%rax,4)
	movq	-72(%rbp), %rax         # 8-byte Reload
	shlq	$10, %rax
	movl	-76(%rbp), %ecx         # 4-byte Reload
	imull	488(%rdx,%rax,4), %ecx
	movq	-40(%rbp), %rax         # 8-byte Reload
	shlq	$10, %rax
	addl	488(%rsi,%rax,4), %ecx
	movl	%ecx, 488(%rsi,%rax,4)
	movq	-72(%rbp), %rax         # 8-byte Reload
	shlq	$10, %rax
	movl	-76(%rbp), %ecx         # 4-byte Reload
	imull	492(%rdx,%rax,4), %ecx
	movq	-40(%rbp), %rax         # 8-byte Reload
	shlq	$10, %rax
	addl	492(%rsi,%rax,4), %ecx
	movl	%ecx, 492(%rsi,%rax,4)
	movq	-72(%rbp), %rax         # 8-byte Reload
	shlq	$10, %rax
	movl	-76(%rbp), %ecx         # 4-byte Reload
	imull	496(%rdx,%rax,4), %ecx
	movq	-40(%rbp), %rax         # 8-byte Reload
	shlq	$10, %rax
	addl	496(%rsi,%rax,4), %ecx
	movl	%ecx, 496(%rsi,%rax,4)
	movq	-72(%rbp), %rax         # 8-byte Reload
	shlq	$10, %rax
	movl	-76(%rbp), %ecx         # 4-byte Reload
	imull	500(%rdx,%rax,4), %ecx
	movq	-40(%rbp), %rax         # 8-byte Reload
	shlq	$10, %rax
	addl	500(%rsi,%rax,4), %ecx
	movl	%ecx, 500(%rsi,%rax,4)
	movq	-72(%rbp), %rax         # 8-byte Reload
	shlq	$10, %rax
	movl	-76(%rbp), %ecx         # 4-byte Reload
	imull	504(%rdx,%rax,4), %ecx
	movq	-40(%rbp), %rax         # 8-byte Reload
	shlq	$10, %rax
	addl	504(%rsi,%rax,4), %ecx
	movl	%ecx, 504(%rsi,%rax,4)
	movq	-72(%rbp), %rax         # 8-byte Reload
	shlq	$10, %rax
	movl	-76(%rbp), %ecx         # 4-byte Reload
	imull	508(%rdx,%rax,4), %ecx
	movq	-40(%rbp), %rax         # 8-byte Reload
	shlq	$10, %rax
	addl	508(%rsi,%rax,4), %ecx
	movl	%ecx, 508(%rsi,%rax,4)
	movq	-72(%rbp), %rax         # 8-byte Reload
	shlq	$10, %rax
	movl	-76(%rbp), %ecx         # 4-byte Reload
	imull	512(%rdx,%rax,4), %ecx
	movq	-40(%rbp), %rax         # 8-byte Reload
	shlq	$10, %rax
	addl	512(%rsi,%rax,4), %ecx
	movl	%ecx, 512(%rsi,%rax,4)
	movq	-72(%rbp), %rax         # 8-byte Reload
	shlq	$10, %rax
	movl	-76(%rbp), %ecx         # 4-byte Reload
	imull	516(%rdx,%rax,4), %ecx
	movq	-40(%rbp), %rax         # 8-byte Reload
	shlq	$10, %rax
	addl	516(%rsi,%rax,4), %ecx
	movl	%ecx, 516(%rsi,%rax,4)
	movq	-72(%rbp), %rax         # 8-byte Reload
	shlq	$10, %rax
	movl	-76(%rbp), %ecx         # 4-byte Reload
	imull	520(%rdx,%rax,4), %ecx
	movq	-40(%rbp), %rax         # 8-byte Reload
	shlq	$10, %rax
	addl	520(%rsi,%rax,4), %ecx
	movl	%ecx, 520(%rsi,%rax,4)
	movq	-72(%rbp), %rax         # 8-byte Reload
	shlq	$10, %rax
	movl	-76(%rbp), %ecx         # 4-byte Reload
	imull	524(%rdx,%rax,4), %ecx
	movq	-40(%rbp), %rax         # 8-byte Reload
	shlq	$10, %rax
	addl	524(%rsi,%rax,4), %ecx
	movl	%ecx, 524(%rsi,%rax,4)
	movq	-72(%rbp), %rax         # 8-byte Reload
	shlq	$10, %rax
	movl	-76(%rbp), %ecx         # 4-byte Reload
	imull	528(%rdx,%rax,4), %ecx
	movq	-40(%rbp), %rax         # 8-byte Reload
	shlq	$10, %rax
	addl	528(%rsi,%rax,4), %ecx
	movl	%ecx, 528(%rsi,%rax,4)
	movq	-72(%rbp), %rax         # 8-byte Reload
	shlq	$10, %rax
	movl	-76(%rbp), %ecx         # 4-byte Reload
	imull	532(%rdx,%rax,4), %ecx
	movq	-40(%rbp), %rax         # 8-byte Reload
	shlq	$10, %rax
	addl	532(%rsi,%rax,4), %ecx
	movl	%ecx, 532(%rsi,%rax,4)
	movq	-72(%rbp), %rax         # 8-byte Reload
	shlq	$10, %rax
	movl	-76(%rbp), %ecx         # 4-byte Reload
	imull	536(%rdx,%rax,4), %ecx
	movq	-40(%rbp), %rax         # 8-byte Reload
	shlq	$10, %rax
	addl	536(%rsi,%rax,4), %ecx
	movl	%ecx, 536(%rsi,%rax,4)
	movq	-72(%rbp), %rax         # 8-byte Reload
	shlq	$10, %rax
	movl	-76(%rbp), %ecx         # 4-byte Reload
	imull	540(%rdx,%rax,4), %ecx
	movq	-40(%rbp), %rax         # 8-byte Reload
	shlq	$10, %rax
	addl	540(%rsi,%rax,4), %ecx
	movl	%ecx, 540(%rsi,%rax,4)
	movq	-72(%rbp), %rax         # 8-byte Reload
	shlq	$10, %rax
	movl	-76(%rbp), %ecx         # 4-byte Reload
	imull	544(%rdx,%rax,4), %ecx
	movq	-40(%rbp), %rax         # 8-byte Reload
	shlq	$10, %rax
	addl	544(%rsi,%rax,4), %ecx
	movl	%ecx, 544(%rsi,%rax,4)
	movq	-72(%rbp), %rax         # 8-byte Reload
	shlq	$10, %rax
	movl	-76(%rbp), %ecx         # 4-byte Reload
	imull	548(%rdx,%rax,4), %ecx
	movq	-40(%rbp), %rax         # 8-byte Reload
	shlq	$10, %rax
	addl	548(%rsi,%rax,4), %ecx
	movl	%ecx, 548(%rsi,%rax,4)
	movq	-72(%rbp), %rax         # 8-byte Reload
	shlq	$10, %rax
	movl	-76(%rbp), %ecx         # 4-byte Reload
	imull	552(%rdx,%rax,4), %ecx
	movq	-40(%rbp), %rax         # 8-byte Reload
	shlq	$10, %rax
	addl	552(%rsi,%rax,4), %ecx
	movl	%ecx, 552(%rsi,%rax,4)
	movq	-72(%rbp), %rax         # 8-byte Reload
	shlq	$10, %rax
	movl	-76(%rbp), %ecx         # 4-byte Reload
	imull	556(%rdx,%rax,4), %ecx
	movq	-40(%rbp), %rax         # 8-byte Reload
	shlq	$10, %rax
	addl	556(%rsi,%rax,4), %ecx
	movl	%ecx, 556(%rsi,%rax,4)
	movq	-72(%rbp), %rax         # 8-byte Reload
	shlq	$10, %rax
	movl	-76(%rbp), %ecx         # 4-byte Reload
	imull	560(%rdx,%rax,4), %ecx
	movq	-40(%rbp), %rax         # 8-byte Reload
	shlq	$10, %rax
	addl	560(%rsi,%rax,4), %ecx
	movl	%ecx, 560(%rsi,%rax,4)
	movq	-72(%rbp), %rax         # 8-byte Reload
	shlq	$10, %rax
	movl	-76(%rbp), %ecx         # 4-byte Reload
	imull	564(%rdx,%rax,4), %ecx
	movq	-40(%rbp), %rax         # 8-byte Reload
	shlq	$10, %rax
	addl	564(%rsi,%rax,4), %ecx
	movl	%ecx, 564(%rsi,%rax,4)
	movq	-72(%rbp), %rax         # 8-byte Reload
	shlq	$10, %rax
	movl	-76(%rbp), %ecx         # 4-byte Reload
	imull	568(%rdx,%rax,4), %ecx
	movq	-40(%rbp), %rax         # 8-byte Reload
	shlq	$10, %rax
	addl	568(%rsi,%rax,4), %ecx
	movl	%ecx, 568(%rsi,%rax,4)
	movq	-72(%rbp), %rax         # 8-byte Reload
	shlq	$10, %rax
	movl	-76(%rbp), %ecx         # 4-byte Reload
	imull	572(%rdx,%rax,4), %ecx
	movq	-40(%rbp), %rax         # 8-byte Reload
	shlq	$10, %rax
	addl	572(%rsi,%rax,4), %ecx
	movl	%ecx, 572(%rsi,%rax,4)
	movq	-72(%rbp), %rax         # 8-byte Reload
	shlq	$10, %rax
	movl	-76(%rbp), %ecx         # 4-byte Reload
	imull	576(%rdx,%rax,4), %ecx
	movq	-40(%rbp), %rax         # 8-byte Reload
	shlq	$10, %rax
	addl	576(%rsi,%rax,4), %ecx
	movl	%ecx, 576(%rsi,%rax,4)
	movq	-72(%rbp), %rax         # 8-byte Reload
	shlq	$10, %rax
	movl	-76(%rbp), %ecx         # 4-byte Reload
	imull	580(%rdx,%rax,4), %ecx
	movq	-40(%rbp), %rax         # 8-byte Reload
	shlq	$10, %rax
	addl	580(%rsi,%rax,4), %ecx
	movl	%ecx, 580(%rsi,%rax,4)
	movq	-72(%rbp), %rax         # 8-byte Reload
	shlq	$10, %rax
	movl	-76(%rbp), %ecx         # 4-byte Reload
	imull	584(%rdx,%rax,4), %ecx
	movq	-40(%rbp), %rax         # 8-byte Reload
	shlq	$10, %rax
	addl	584(%rsi,%rax,4), %ecx
	movl	%ecx, 584(%rsi,%rax,4)
	movq	-72(%rbp), %rax         # 8-byte Reload
	shlq	$10, %rax
	movl	-76(%rbp), %ecx         # 4-byte Reload
	imull	588(%rdx,%rax,4), %ecx
	movq	-40(%rbp), %rax         # 8-byte Reload
	shlq	$10, %rax
	addl	588(%rsi,%rax,4), %ecx
	movl	%ecx, 588(%rsi,%rax,4)
	movq	-72(%rbp), %rax         # 8-byte Reload
	shlq	$10, %rax
	movl	-76(%rbp), %ecx         # 4-byte Reload
	imull	592(%rdx,%rax,4), %ecx
	movq	-40(%rbp), %rax         # 8-byte Reload
	shlq	$10, %rax
	addl	592(%rsi,%rax,4), %ecx
	movl	%ecx, 592(%rsi,%rax,4)
	movq	-72(%rbp), %rax         # 8-byte Reload
	shlq	$10, %rax
	movl	-76(%rbp), %ecx         # 4-byte Reload
	imull	596(%rdx,%rax,4), %ecx
	movq	-40(%rbp), %rax         # 8-byte Reload
	shlq	$10, %rax
	addl	596(%rsi,%rax,4), %ecx
	movl	%ecx, 596(%rsi,%rax,4)
	movq	-72(%rbp), %rax         # 8-byte Reload
	shlq	$10, %rax
	movl	-76(%rbp), %ecx         # 4-byte Reload
	imull	600(%rdx,%rax,4), %ecx
	movq	-40(%rbp), %rax         # 8-byte Reload
	shlq	$10, %rax
	addl	600(%rsi,%rax,4), %ecx
	movl	%ecx, 600(%rsi,%rax,4)
	movq	-72(%rbp), %rax         # 8-byte Reload
	shlq	$10, %rax
	movl	-76(%rbp), %ecx         # 4-byte Reload
	imull	604(%rdx,%rax,4), %ecx
	movq	-40(%rbp), %rax         # 8-byte Reload
	shlq	$10, %rax
	addl	604(%rsi,%rax,4), %ecx
	movl	%ecx, 604(%rsi,%rax,4)
	movq	-72(%rbp), %rax         # 8-byte Reload
	shlq	$10, %rax
	movl	-76(%rbp), %ecx         # 4-byte Reload
	imull	608(%rdx,%rax,4), %ecx
	movq	-40(%rbp), %rax         # 8-byte Reload
	shlq	$10, %rax
	addl	608(%rsi,%rax,4), %ecx
	movl	%ecx, 608(%rsi,%rax,4)
	movq	-72(%rbp), %rax         # 8-byte Reload
	shlq	$10, %rax
	movl	-76(%rbp), %ecx         # 4-byte Reload
	imull	612(%rdx,%rax,4), %ecx
	movq	-40(%rbp), %rax         # 8-byte Reload
	shlq	$10, %rax
	addl	612(%rsi,%rax,4), %ecx
	movl	%ecx, 612(%rsi,%rax,4)
	movq	-72(%rbp), %rax         # 8-byte Reload
	shlq	$10, %rax
	movl	-76(%rbp), %ecx         # 4-byte Reload
	imull	616(%rdx,%rax,4), %ecx
	movq	-40(%rbp), %rax         # 8-byte Reload
	shlq	$10, %rax
	addl	616(%rsi,%rax,4), %ecx
	movl	%ecx, 616(%rsi,%rax,4)
	movq	-72(%rbp), %rax         # 8-byte Reload
	shlq	$10, %rax
	movl	-76(%rbp), %ecx         # 4-byte Reload
	imull	620(%rdx,%rax,4), %ecx
	movq	-40(%rbp), %rax         # 8-byte Reload
	shlq	$10, %rax
	addl	620(%rsi,%rax,4), %ecx
	movl	%ecx, 620(%rsi,%rax,4)
	movq	-72(%rbp), %rax         # 8-byte Reload
	shlq	$10, %rax
	movl	-76(%rbp), %ecx         # 4-byte Reload
	imull	624(%rdx,%rax,4), %ecx
	movq	-40(%rbp), %rax         # 8-byte Reload
	shlq	$10, %rax
	addl	624(%rsi,%rax,4), %ecx
	movl	%ecx, 624(%rsi,%rax,4)
	movq	-72(%rbp), %rax         # 8-byte Reload
	shlq	$10, %rax
	movl	-76(%rbp), %ecx         # 4-byte Reload
	imull	628(%rdx,%rax,4), %ecx
	movq	-40(%rbp), %rax         # 8-byte Reload
	shlq	$10, %rax
	addl	628(%rsi,%rax,4), %ecx
	movl	%ecx, 628(%rsi,%rax,4)
	movq	-72(%rbp), %rax         # 8-byte Reload
	shlq	$10, %rax
	movl	-76(%rbp), %ecx         # 4-byte Reload
	imull	632(%rdx,%rax,4), %ecx
	movq	-40(%rbp), %rax         # 8-byte Reload
	shlq	$10, %rax
	addl	632(%rsi,%rax,4), %ecx
	movl	%ecx, 632(%rsi,%rax,4)
	movq	-72(%rbp), %rax         # 8-byte Reload
	shlq	$10, %rax
	movl	-76(%rbp), %ecx         # 4-byte Reload
	imull	636(%rdx,%rax,4), %ecx
	movq	-40(%rbp), %rax         # 8-byte Reload
	shlq	$10, %rax
	addl	636(%rsi,%rax,4), %ecx
	movl	%ecx, 636(%rsi,%rax,4)
	movq	-72(%rbp), %rax         # 8-byte Reload
	shlq	$10, %rax
	movl	-76(%rbp), %ecx         # 4-byte Reload
	imull	640(%rdx,%rax,4), %ecx
	movq	-40(%rbp), %rax         # 8-byte Reload
	shlq	$10, %rax
	addl	640(%rsi,%rax,4), %ecx
	movl	%ecx, 640(%rsi,%rax,4)
	movq	-72(%rbp), %rax         # 8-byte Reload
	shlq	$10, %rax
	movl	-76(%rbp), %ecx         # 4-byte Reload
	imull	644(%rdx,%rax,4), %ecx
	movq	-40(%rbp), %rax         # 8-byte Reload
	shlq	$10, %rax
	addl	644(%rsi,%rax,4), %ecx
	movl	%ecx, 644(%rsi,%rax,4)
	movq	-72(%rbp), %rax         # 8-byte Reload
	shlq	$10, %rax
	movl	-76(%rbp), %ecx         # 4-byte Reload
	imull	648(%rdx,%rax,4), %ecx
	movq	-40(%rbp), %rax         # 8-byte Reload
	shlq	$10, %rax
	addl	648(%rsi,%rax,4), %ecx
	movl	%ecx, 648(%rsi,%rax,4)
	movq	-72(%rbp), %rax         # 8-byte Reload
	shlq	$10, %rax
	movl	-76(%rbp), %ecx         # 4-byte Reload
	imull	652(%rdx,%rax,4), %ecx
	movq	-40(%rbp), %rax         # 8-byte Reload
	shlq	$10, %rax
	addl	652(%rsi,%rax,4), %ecx
	movl	%ecx, 652(%rsi,%rax,4)
	movq	-72(%rbp), %rax         # 8-byte Reload
	shlq	$10, %rax
	movl	-76(%rbp), %ecx         # 4-byte Reload
	imull	656(%rdx,%rax,4), %ecx
	movq	-40(%rbp), %rax         # 8-byte Reload
	shlq	$10, %rax
	addl	656(%rsi,%rax,4), %ecx
	movl	%ecx, 656(%rsi,%rax,4)
	movq	-72(%rbp), %rax         # 8-byte Reload
	shlq	$10, %rax
	movl	-76(%rbp), %ecx         # 4-byte Reload
	imull	660(%rdx,%rax,4), %ecx
	movq	-40(%rbp), %rax         # 8-byte Reload
	shlq	$10, %rax
	addl	660(%rsi,%rax,4), %ecx
	movl	%ecx, 660(%rsi,%rax,4)
	movq	-72(%rbp), %rax         # 8-byte Reload
	shlq	$10, %rax
	movl	-76(%rbp), %ecx         # 4-byte Reload
	imull	664(%rdx,%rax,4), %ecx
	movq	-40(%rbp), %rax         # 8-byte Reload
	shlq	$10, %rax
	addl	664(%rsi,%rax,4), %ecx
	movl	%ecx, 664(%rsi,%rax,4)
	movq	-72(%rbp), %rax         # 8-byte Reload
	shlq	$10, %rax
	movl	-76(%rbp), %ecx         # 4-byte Reload
	imull	668(%rdx,%rax,4), %ecx
	movq	-40(%rbp), %rax         # 8-byte Reload
	shlq	$10, %rax
	addl	668(%rsi,%rax,4), %ecx
	movl	%ecx, 668(%rsi,%rax,4)
	movq	-72(%rbp), %rax         # 8-byte Reload
	shlq	$10, %rax
	movl	-76(%rbp), %ecx         # 4-byte Reload
	imull	672(%rdx,%rax,4), %ecx
	movq	-40(%rbp), %rax         # 8-byte Reload
	shlq	$10, %rax
	addl	672(%rsi,%rax,4), %ecx
	movl	%ecx, 672(%rsi,%rax,4)
	movq	-72(%rbp), %rax         # 8-byte Reload
	shlq	$10, %rax
	movl	-76(%rbp), %ecx         # 4-byte Reload
	imull	676(%rdx,%rax,4), %ecx
	movq	-40(%rbp), %rax         # 8-byte Reload
	shlq	$10, %rax
	addl	676(%rsi,%rax,4), %ecx
	movl	%ecx, 676(%rsi,%rax,4)
	movq	-72(%rbp), %rax         # 8-byte Reload
	shlq	$10, %rax
	movl	-76(%rbp), %ecx         # 4-byte Reload
	imull	680(%rdx,%rax,4), %ecx
	movq	-40(%rbp), %rax         # 8-byte Reload
	shlq	$10, %rax
	addl	680(%rsi,%rax,4), %ecx
	movl	%ecx, 680(%rsi,%rax,4)
	movq	-72(%rbp), %rax         # 8-byte Reload
	shlq	$10, %rax
	movl	-76(%rbp), %ecx         # 4-byte Reload
	imull	684(%rdx,%rax,4), %ecx
	movq	-40(%rbp), %rax         # 8-byte Reload
	shlq	$10, %rax
	addl	684(%rsi,%rax,4), %ecx
	movl	%ecx, 684(%rsi,%rax,4)
	movq	-72(%rbp), %rax         # 8-byte Reload
	shlq	$10, %rax
	movl	-76(%rbp), %ecx         # 4-byte Reload
	imull	688(%rdx,%rax,4), %ecx
	movq	-40(%rbp), %rax         # 8-byte Reload
	shlq	$10, %rax
	addl	688(%rsi,%rax,4), %ecx
	movl	%ecx, 688(%rsi,%rax,4)
	movq	-72(%rbp), %rax         # 8-byte Reload
	shlq	$10, %rax
	movl	-76(%rbp), %ecx         # 4-byte Reload
	imull	692(%rdx,%rax,4), %ecx
	movq	-40(%rbp), %rax         # 8-byte Reload
	shlq	$10, %rax
	addl	692(%rsi,%rax,4), %ecx
	movl	%ecx, 692(%rsi,%rax,4)
	movq	-72(%rbp), %rax         # 8-byte Reload
	shlq	$10, %rax
	movl	-76(%rbp), %ecx         # 4-byte Reload
	imull	696(%rdx,%rax,4), %ecx
	movq	-40(%rbp), %rax         # 8-byte Reload
	shlq	$10, %rax
	addl	696(%rsi,%rax,4), %ecx
	movl	%ecx, 696(%rsi,%rax,4)
	movq	-72(%rbp), %rax         # 8-byte Reload
	shlq	$10, %rax
	movl	-76(%rbp), %ecx         # 4-byte Reload
	imull	700(%rdx,%rax,4), %ecx
	movq	-40(%rbp), %rax         # 8-byte Reload
	shlq	$10, %rax
	addl	700(%rsi,%rax,4), %ecx
	movl	%ecx, 700(%rsi,%rax,4)
	movq	-72(%rbp), %rax         # 8-byte Reload
	shlq	$10, %rax
	movl	-76(%rbp), %ecx         # 4-byte Reload
	imull	704(%rdx,%rax,4), %ecx
	movq	-40(%rbp), %rax         # 8-byte Reload
	shlq	$10, %rax
	addl	704(%rsi,%rax,4), %ecx
	movl	%ecx, 704(%rsi,%rax,4)
	movq	-72(%rbp), %rax         # 8-byte Reload
	shlq	$10, %rax
	movl	-76(%rbp), %ecx         # 4-byte Reload
	imull	708(%rdx,%rax,4), %ecx
	movq	-40(%rbp), %rax         # 8-byte Reload
	shlq	$10, %rax
	addl	708(%rsi,%rax,4), %ecx
	movl	%ecx, 708(%rsi,%rax,4)
	movq	-72(%rbp), %rax         # 8-byte Reload
	shlq	$10, %rax
	movl	-76(%rbp), %ecx         # 4-byte Reload
	imull	712(%rdx,%rax,4), %ecx
	movq	-40(%rbp), %rax         # 8-byte Reload
	shlq	$10, %rax
	addl	712(%rsi,%rax,4), %ecx
	movl	%ecx, 712(%rsi,%rax,4)
	movq	-72(%rbp), %rax         # 8-byte Reload
	shlq	$10, %rax
	movl	-76(%rbp), %ecx         # 4-byte Reload
	imull	716(%rdx,%rax,4), %ecx
	movq	-40(%rbp), %rax         # 8-byte Reload
	shlq	$10, %rax
	addl	716(%rsi,%rax,4), %ecx
	movl	%ecx, 716(%rsi,%rax,4)
	movq	-72(%rbp), %rax         # 8-byte Reload
	shlq	$10, %rax
	movl	-76(%rbp), %ecx         # 4-byte Reload
	imull	720(%rdx,%rax,4), %ecx
	movq	-40(%rbp), %rax         # 8-byte Reload
	shlq	$10, %rax
	addl	720(%rsi,%rax,4), %ecx
	movl	%ecx, 720(%rsi,%rax,4)
	movq	-72(%rbp), %rax         # 8-byte Reload
	shlq	$10, %rax
	movl	-76(%rbp), %ecx         # 4-byte Reload
	imull	724(%rdx,%rax,4), %ecx
	movq	-40(%rbp), %rax         # 8-byte Reload
	shlq	$10, %rax
	addl	724(%rsi,%rax,4), %ecx
	movl	%ecx, 724(%rsi,%rax,4)
	movq	-72(%rbp), %rax         # 8-byte Reload
	shlq	$10, %rax
	movl	-76(%rbp), %ecx         # 4-byte Reload
	imull	728(%rdx,%rax,4), %ecx
	movq	-40(%rbp), %rax         # 8-byte Reload
	shlq	$10, %rax
	addl	728(%rsi,%rax,4), %ecx
	movl	%ecx, 728(%rsi,%rax,4)
	movq	-72(%rbp), %rax         # 8-byte Reload
	shlq	$10, %rax
	movl	-76(%rbp), %ecx         # 4-byte Reload
	imull	732(%rdx,%rax,4), %ecx
	movq	-40(%rbp), %rax         # 8-byte Reload
	shlq	$10, %rax
	addl	732(%rsi,%rax,4), %ecx
	movl	%ecx, 732(%rsi,%rax,4)
	movq	-72(%rbp), %rax         # 8-byte Reload
	shlq	$10, %rax
	movl	-76(%rbp), %ecx         # 4-byte Reload
	imull	736(%rdx,%rax,4), %ecx
	movq	-40(%rbp), %rax         # 8-byte Reload
	shlq	$10, %rax
	addl	736(%rsi,%rax,4), %ecx
	movl	%ecx, 736(%rsi,%rax,4)
	movq	-72(%rbp), %rax         # 8-byte Reload
	shlq	$10, %rax
	movl	-76(%rbp), %ecx         # 4-byte Reload
	imull	740(%rdx,%rax,4), %ecx
	movq	-40(%rbp), %rax         # 8-byte Reload
	shlq	$10, %rax
	addl	740(%rsi,%rax,4), %ecx
	movl	%ecx, 740(%rsi,%rax,4)
	movq	-72(%rbp), %rax         # 8-byte Reload
	shlq	$10, %rax
	movl	-76(%rbp), %ecx         # 4-byte Reload
	imull	744(%rdx,%rax,4), %ecx
	movq	-40(%rbp), %rax         # 8-byte Reload
	shlq	$10, %rax
	addl	744(%rsi,%rax,4), %ecx
	movl	%ecx, 744(%rsi,%rax,4)
	movq	-72(%rbp), %rax         # 8-byte Reload
	shlq	$10, %rax
	movl	-76(%rbp), %ecx         # 4-byte Reload
	imull	748(%rdx,%rax,4), %ecx
	movq	-40(%rbp), %rax         # 8-byte Reload
	shlq	$10, %rax
	addl	748(%rsi,%rax,4), %ecx
	movl	%ecx, 748(%rsi,%rax,4)
	movq	-72(%rbp), %rax         # 8-byte Reload
	shlq	$10, %rax
	movl	-76(%rbp), %ecx         # 4-byte Reload
	imull	752(%rdx,%rax,4), %ecx
	movq	-40(%rbp), %rax         # 8-byte Reload
	shlq	$10, %rax
	addl	752(%rsi,%rax,4), %ecx
	movl	%ecx, 752(%rsi,%rax,4)
	movq	-72(%rbp), %rax         # 8-byte Reload
	shlq	$10, %rax
	movl	-76(%rbp), %ecx         # 4-byte Reload
	imull	756(%rdx,%rax,4), %ecx
	movq	-40(%rbp), %rax         # 8-byte Reload
	shlq	$10, %rax
	addl	756(%rsi,%rax,4), %ecx
	movl	%ecx, 756(%rsi,%rax,4)
	movq	-72(%rbp), %rax         # 8-byte Reload
	shlq	$10, %rax
	movl	-76(%rbp), %ecx         # 4-byte Reload
	imull	760(%rdx,%rax,4), %ecx
	movq	-40(%rbp), %rax         # 8-byte Reload
	shlq	$10, %rax
	addl	760(%rsi,%rax,4), %ecx
	movl	%ecx, 760(%rsi,%rax,4)
	movq	-72(%rbp), %rax         # 8-byte Reload
	shlq	$10, %rax
	movl	-76(%rbp), %ecx         # 4-byte Reload
	imull	764(%rdx,%rax,4), %ecx
	movq	-40(%rbp), %rax         # 8-byte Reload
	shlq	$10, %rax
	addl	764(%rsi,%rax,4), %ecx
	movl	%ecx, 764(%rsi,%rax,4)
	movq	-72(%rbp), %rax         # 8-byte Reload
	shlq	$10, %rax
	movl	-76(%rbp), %ecx         # 4-byte Reload
	imull	768(%rdx,%rax,4), %ecx
	movq	-40(%rbp), %rax         # 8-byte Reload
	shlq	$10, %rax
	addl	768(%rsi,%rax,4), %ecx
	movl	%ecx, 768(%rsi,%rax,4)
	movq	-72(%rbp), %rax         # 8-byte Reload
	shlq	$10, %rax
	movl	-76(%rbp), %ecx         # 4-byte Reload
	imull	772(%rdx,%rax,4), %ecx
	movq	-40(%rbp), %rax         # 8-byte Reload
	shlq	$10, %rax
	addl	772(%rsi,%rax,4), %ecx
	movl	%ecx, 772(%rsi,%rax,4)
	movq	-72(%rbp), %rax         # 8-byte Reload
	shlq	$10, %rax
	movl	-76(%rbp), %ecx         # 4-byte Reload
	imull	776(%rdx,%rax,4), %ecx
	movq	-40(%rbp), %rax         # 8-byte Reload
	shlq	$10, %rax
	addl	776(%rsi,%rax,4), %ecx
	movl	%ecx, 776(%rsi,%rax,4)
	movq	-72(%rbp), %rax         # 8-byte Reload
	shlq	$10, %rax
	movl	-76(%rbp), %ecx         # 4-byte Reload
	imull	780(%rdx,%rax,4), %ecx
	movq	-40(%rbp), %rax         # 8-byte Reload
	shlq	$10, %rax
	addl	780(%rsi,%rax,4), %ecx
	movl	%ecx, 780(%rsi,%rax,4)
	movq	-72(%rbp), %rax         # 8-byte Reload
	shlq	$10, %rax
	movl	-76(%rbp), %ecx         # 4-byte Reload
	imull	784(%rdx,%rax,4), %ecx
	movq	-40(%rbp), %rax         # 8-byte Reload
	shlq	$10, %rax
	addl	784(%rsi,%rax,4), %ecx
	movl	%ecx, 784(%rsi,%rax,4)
	movq	-72(%rbp), %rax         # 8-byte Reload
	shlq	$10, %rax
	movl	-76(%rbp), %ecx         # 4-byte Reload
	imull	788(%rdx,%rax,4), %ecx
	movq	-40(%rbp), %rax         # 8-byte Reload
	shlq	$10, %rax
	addl	788(%rsi,%rax,4), %ecx
	movl	%ecx, 788(%rsi,%rax,4)
	movq	-72(%rbp), %rax         # 8-byte Reload
	shlq	$10, %rax
	movl	-76(%rbp), %ecx         # 4-byte Reload
	imull	792(%rdx,%rax,4), %ecx
	movq	-40(%rbp), %rax         # 8-byte Reload
	shlq	$10, %rax
	addl	792(%rsi,%rax,4), %ecx
	movl	%ecx, 792(%rsi,%rax,4)
	movq	-72(%rbp), %rax         # 8-byte Reload
	shlq	$10, %rax
	movl	-76(%rbp), %ecx         # 4-byte Reload
	imull	796(%rdx,%rax,4), %ecx
	movq	-40(%rbp), %rax         # 8-byte Reload
	shlq	$10, %rax
	addl	796(%rsi,%rax,4), %ecx
	movl	%ecx, 796(%rsi,%rax,4)
	movq	-72(%rbp), %rax         # 8-byte Reload
	shlq	$10, %rax
	movl	-76(%rbp), %ecx         # 4-byte Reload
	imull	800(%rdx,%rax,4), %ecx
	movq	-40(%rbp), %rax         # 8-byte Reload
	shlq	$10, %rax
	addl	800(%rsi,%rax,4), %ecx
	movl	%ecx, 800(%rsi,%rax,4)
	movq	-72(%rbp), %rax         # 8-byte Reload
	shlq	$10, %rax
	movl	-76(%rbp), %ecx         # 4-byte Reload
	imull	804(%rdx,%rax,4), %ecx
	movq	-40(%rbp), %rax         # 8-byte Reload
	shlq	$10, %rax
	addl	804(%rsi,%rax,4), %ecx
	movl	%ecx, 804(%rsi,%rax,4)
	movq	-72(%rbp), %rax         # 8-byte Reload
	shlq	$10, %rax
	movl	-76(%rbp), %ecx         # 4-byte Reload
	imull	808(%rdx,%rax,4), %ecx
	movq	-40(%rbp), %rax         # 8-byte Reload
	shlq	$10, %rax
	addl	808(%rsi,%rax,4), %ecx
	movl	%ecx, 808(%rsi,%rax,4)
	movq	-72(%rbp), %rax         # 8-byte Reload
	shlq	$10, %rax
	movl	-76(%rbp), %ecx         # 4-byte Reload
	imull	812(%rdx,%rax,4), %ecx
	movq	-40(%rbp), %rax         # 8-byte Reload
	shlq	$10, %rax
	addl	812(%rsi,%rax,4), %ecx
	movl	%ecx, 812(%rsi,%rax,4)
	movq	-72(%rbp), %rax         # 8-byte Reload
	shlq	$10, %rax
	movl	-76(%rbp), %ecx         # 4-byte Reload
	imull	816(%rdx,%rax,4), %ecx
	movq	-40(%rbp), %rax         # 8-byte Reload
	shlq	$10, %rax
	addl	816(%rsi,%rax,4), %ecx
	movl	%ecx, 816(%rsi,%rax,4)
	movq	-72(%rbp), %rax         # 8-byte Reload
	shlq	$10, %rax
	movl	-76(%rbp), %ecx         # 4-byte Reload
	imull	820(%rdx,%rax,4), %ecx
	movq	-40(%rbp), %rax         # 8-byte Reload
	shlq	$10, %rax
	addl	820(%rsi,%rax,4), %ecx
	movl	%ecx, 820(%rsi,%rax,4)
	movq	-72(%rbp), %rax         # 8-byte Reload
	shlq	$10, %rax
	movl	-76(%rbp), %ecx         # 4-byte Reload
	imull	824(%rdx,%rax,4), %ecx
	movq	-40(%rbp), %rax         # 8-byte Reload
	shlq	$10, %rax
	addl	824(%rsi,%rax,4), %ecx
	movl	%ecx, 824(%rsi,%rax,4)
	movq	-72(%rbp), %rax         # 8-byte Reload
	shlq	$10, %rax
	movl	-76(%rbp), %ecx         # 4-byte Reload
	imull	828(%rdx,%rax,4), %ecx
	movq	-40(%rbp), %rax         # 8-byte Reload
	shlq	$10, %rax
	addl	828(%rsi,%rax,4), %ecx
	movl	%ecx, 828(%rsi,%rax,4)
	movq	-72(%rbp), %rax         # 8-byte Reload
	shlq	$10, %rax
	movl	-76(%rbp), %ecx         # 4-byte Reload
	imull	832(%rdx,%rax,4), %ecx
	movq	-40(%rbp), %rax         # 8-byte Reload
	shlq	$10, %rax
	addl	832(%rsi,%rax,4), %ecx
	movl	%ecx, 832(%rsi,%rax,4)
	movq	-72(%rbp), %rax         # 8-byte Reload
	shlq	$10, %rax
	movl	-76(%rbp), %ecx         # 4-byte Reload
	imull	836(%rdx,%rax,4), %ecx
	movq	-40(%rbp), %rax         # 8-byte Reload
	shlq	$10, %rax
	addl	836(%rsi,%rax,4), %ecx
	movl	%ecx, 836(%rsi,%rax,4)
	movq	-72(%rbp), %rax         # 8-byte Reload
	shlq	$10, %rax
	movl	-76(%rbp), %ecx         # 4-byte Reload
	imull	840(%rdx,%rax,4), %ecx
	movq	-40(%rbp), %rax         # 8-byte Reload
	shlq	$10, %rax
	addl	840(%rsi,%rax,4), %ecx
	movl	%ecx, 840(%rsi,%rax,4)
	movq	-72(%rbp), %rax         # 8-byte Reload
	shlq	$10, %rax
	movl	-76(%rbp), %ecx         # 4-byte Reload
	imull	844(%rdx,%rax,4), %ecx
	movq	-40(%rbp), %rax         # 8-byte Reload
	shlq	$10, %rax
	addl	844(%rsi,%rax,4), %ecx
	movl	%ecx, 844(%rsi,%rax,4)
	movq	-72(%rbp), %rax         # 8-byte Reload
	shlq	$10, %rax
	movl	-76(%rbp), %ecx         # 4-byte Reload
	imull	848(%rdx,%rax,4), %ecx
	movq	-40(%rbp), %rax         # 8-byte Reload
	shlq	$10, %rax
	addl	848(%rsi,%rax,4), %ecx
	movl	%ecx, 848(%rsi,%rax,4)
	movq	-72(%rbp), %rax         # 8-byte Reload
	shlq	$10, %rax
	movl	-76(%rbp), %ecx         # 4-byte Reload
	imull	852(%rdx,%rax,4), %ecx
	movq	-40(%rbp), %rax         # 8-byte Reload
	shlq	$10, %rax
	addl	852(%rsi,%rax,4), %ecx
	movl	%ecx, 852(%rsi,%rax,4)
	movq	-72(%rbp), %rax         # 8-byte Reload
	shlq	$10, %rax
	movl	-76(%rbp), %ecx         # 4-byte Reload
	imull	856(%rdx,%rax,4), %ecx
	movq	-40(%rbp), %rax         # 8-byte Reload
	shlq	$10, %rax
	addl	856(%rsi,%rax,4), %ecx
	movl	%ecx, 856(%rsi,%rax,4)
	movq	-72(%rbp), %rax         # 8-byte Reload
	shlq	$10, %rax
	movl	-76(%rbp), %ecx         # 4-byte Reload
	imull	860(%rdx,%rax,4), %ecx
	movq	-40(%rbp), %rax         # 8-byte Reload
	shlq	$10, %rax
	addl	860(%rsi,%rax,4), %ecx
	movl	%ecx, 860(%rsi,%rax,4)
	movq	-72(%rbp), %rax         # 8-byte Reload
	shlq	$10, %rax
	movl	-76(%rbp), %ecx         # 4-byte Reload
	imull	864(%rdx,%rax,4), %ecx
	movq	-40(%rbp), %rax         # 8-byte Reload
	shlq	$10, %rax
	addl	864(%rsi,%rax,4), %ecx
	movl	%ecx, 864(%rsi,%rax,4)
	movq	-72(%rbp), %rax         # 8-byte Reload
	shlq	$10, %rax
	movl	-76(%rbp), %ecx         # 4-byte Reload
	imull	868(%rdx,%rax,4), %ecx
	movq	-40(%rbp), %rax         # 8-byte Reload
	shlq	$10, %rax
	addl	868(%rsi,%rax,4), %ecx
	movl	%ecx, 868(%rsi,%rax,4)
	movq	-72(%rbp), %rax         # 8-byte Reload
	shlq	$10, %rax
	movl	-76(%rbp), %ecx         # 4-byte Reload
	imull	872(%rdx,%rax,4), %ecx
	movq	-40(%rbp), %rax         # 8-byte Reload
	shlq	$10, %rax
	addl	872(%rsi,%rax,4), %ecx
	movl	%ecx, 872(%rsi,%rax,4)
	movq	-72(%rbp), %rax         # 8-byte Reload
	shlq	$10, %rax
	movl	-76(%rbp), %ecx         # 4-byte Reload
	imull	876(%rdx,%rax,4), %ecx
	movq	-40(%rbp), %rax         # 8-byte Reload
	shlq	$10, %rax
	addl	876(%rsi,%rax,4), %ecx
	movl	%ecx, 876(%rsi,%rax,4)
	movq	-72(%rbp), %rax         # 8-byte Reload
	shlq	$10, %rax
	movl	-76(%rbp), %ecx         # 4-byte Reload
	imull	880(%rdx,%rax,4), %ecx
	movq	-40(%rbp), %rax         # 8-byte Reload
	shlq	$10, %rax
	addl	880(%rsi,%rax,4), %ecx
	movl	%ecx, 880(%rsi,%rax,4)
	movq	-72(%rbp), %rax         # 8-byte Reload
	shlq	$10, %rax
	movl	-76(%rbp), %ecx         # 4-byte Reload
	imull	884(%rdx,%rax,4), %ecx
	movq	-40(%rbp), %rax         # 8-byte Reload
	shlq	$10, %rax
	addl	884(%rsi,%rax,4), %ecx
	movl	%ecx, 884(%rsi,%rax,4)
	movq	-72(%rbp), %rax         # 8-byte Reload
	shlq	$10, %rax
	movl	-76(%rbp), %ecx         # 4-byte Reload
	imull	888(%rdx,%rax,4), %ecx
	movq	-40(%rbp), %rax         # 8-byte Reload
	shlq	$10, %rax
	addl	888(%rsi,%rax,4), %ecx
	movl	%ecx, 888(%rsi,%rax,4)
	movq	-72(%rbp), %rax         # 8-byte Reload
	shlq	$10, %rax
	movl	-76(%rbp), %ecx         # 4-byte Reload
	imull	892(%rdx,%rax,4), %ecx
	movq	-40(%rbp), %rax         # 8-byte Reload
	shlq	$10, %rax
	addl	892(%rsi,%rax,4), %ecx
	movl	%ecx, 892(%rsi,%rax,4)
	movq	-72(%rbp), %rax         # 8-byte Reload
	shlq	$10, %rax
	movl	-76(%rbp), %ecx         # 4-byte Reload
	imull	896(%rdx,%rax,4), %ecx
	movq	-40(%rbp), %rax         # 8-byte Reload
	shlq	$10, %rax
	addl	896(%rsi,%rax,4), %ecx
	movl	%ecx, 896(%rsi,%rax,4)
	movq	-72(%rbp), %rax         # 8-byte Reload
	shlq	$10, %rax
	movl	-76(%rbp), %ecx         # 4-byte Reload
	imull	900(%rdx,%rax,4), %ecx
	movq	-40(%rbp), %rax         # 8-byte Reload
	shlq	$10, %rax
	addl	900(%rsi,%rax,4), %ecx
	movl	%ecx, 900(%rsi,%rax,4)
	movq	-72(%rbp), %rax         # 8-byte Reload
	shlq	$10, %rax
	movl	-76(%rbp), %ecx         # 4-byte Reload
	imull	904(%rdx,%rax,4), %ecx
	movq	-40(%rbp), %rax         # 8-byte Reload
	shlq	$10, %rax
	addl	904(%rsi,%rax,4), %ecx
	movl	%ecx, 904(%rsi,%rax,4)
	movq	-72(%rbp), %rax         # 8-byte Reload
	shlq	$10, %rax
	movl	-76(%rbp), %ecx         # 4-byte Reload
	imull	908(%rdx,%rax,4), %ecx
	movq	-40(%rbp), %rax         # 8-byte Reload
	shlq	$10, %rax
	addl	908(%rsi,%rax,4), %ecx
	movl	%ecx, 908(%rsi,%rax,4)
	movq	-72(%rbp), %rax         # 8-byte Reload
	shlq	$10, %rax
	movl	-76(%rbp), %ecx         # 4-byte Reload
	imull	912(%rdx,%rax,4), %ecx
	movq	-40(%rbp), %rax         # 8-byte Reload
	shlq	$10, %rax
	addl	912(%rsi,%rax,4), %ecx
	movl	%ecx, 912(%rsi,%rax,4)
	movq	-72(%rbp), %rax         # 8-byte Reload
	shlq	$10, %rax
	movl	-76(%rbp), %ecx         # 4-byte Reload
	imull	916(%rdx,%rax,4), %ecx
	movq	-40(%rbp), %rax         # 8-byte Reload
	shlq	$10, %rax
	addl	916(%rsi,%rax,4), %ecx
	movl	%ecx, 916(%rsi,%rax,4)
	movq	-72(%rbp), %rax         # 8-byte Reload
	shlq	$10, %rax
	movl	-76(%rbp), %ecx         # 4-byte Reload
	imull	920(%rdx,%rax,4), %ecx
	movq	-40(%rbp), %rax         # 8-byte Reload
	shlq	$10, %rax
	addl	920(%rsi,%rax,4), %ecx
	movl	%ecx, 920(%rsi,%rax,4)
	movq	-72(%rbp), %rax         # 8-byte Reload
	shlq	$10, %rax
	movl	-76(%rbp), %ecx         # 4-byte Reload
	imull	924(%rdx,%rax,4), %ecx
	movq	-40(%rbp), %rax         # 8-byte Reload
	shlq	$10, %rax
	addl	924(%rsi,%rax,4), %ecx
	movl	%ecx, 924(%rsi,%rax,4)
	movq	-72(%rbp), %rax         # 8-byte Reload
	shlq	$10, %rax
	movl	-76(%rbp), %ecx         # 4-byte Reload
	imull	928(%rdx,%rax,4), %ecx
	movq	-40(%rbp), %rax         # 8-byte Reload
	shlq	$10, %rax
	addl	928(%rsi,%rax,4), %ecx
	movl	%ecx, 928(%rsi,%rax,4)
	movq	-72(%rbp), %rax         # 8-byte Reload
	shlq	$10, %rax
	movl	-76(%rbp), %ecx         # 4-byte Reload
	imull	932(%rdx,%rax,4), %ecx
	movq	-40(%rbp), %rax         # 8-byte Reload
	shlq	$10, %rax
	addl	932(%rsi,%rax,4), %ecx
	movl	%ecx, 932(%rsi,%rax,4)
	movq	-72(%rbp), %rax         # 8-byte Reload
	shlq	$10, %rax
	movl	-76(%rbp), %ecx         # 4-byte Reload
	imull	936(%rdx,%rax,4), %ecx
	movq	-40(%rbp), %rax         # 8-byte Reload
	shlq	$10, %rax
	addl	936(%rsi,%rax,4), %ecx
	movl	%ecx, 936(%rsi,%rax,4)
	movq	-72(%rbp), %rax         # 8-byte Reload
	shlq	$10, %rax
	movl	-76(%rbp), %ecx         # 4-byte Reload
	imull	940(%rdx,%rax,4), %ecx
	movq	-40(%rbp), %rax         # 8-byte Reload
	shlq	$10, %rax
	addl	940(%rsi,%rax,4), %ecx
	movl	%ecx, 940(%rsi,%rax,4)
	movq	-72(%rbp), %rax         # 8-byte Reload
	shlq	$10, %rax
	movl	-76(%rbp), %ecx         # 4-byte Reload
	imull	944(%rdx,%rax,4), %ecx
	movq	-40(%rbp), %rax         # 8-byte Reload
	shlq	$10, %rax
	addl	944(%rsi,%rax,4), %ecx
	movl	%ecx, 944(%rsi,%rax,4)
	movq	-72(%rbp), %rax         # 8-byte Reload
	shlq	$10, %rax
	movl	-76(%rbp), %ecx         # 4-byte Reload
	imull	948(%rdx,%rax,4), %ecx
	movq	-40(%rbp), %rax         # 8-byte Reload
	shlq	$10, %rax
	addl	948(%rsi,%rax,4), %ecx
	movl	%ecx, 948(%rsi,%rax,4)
	movq	-72(%rbp), %rax         # 8-byte Reload
	shlq	$10, %rax
	movl	-76(%rbp), %ecx         # 4-byte Reload
	imull	952(%rdx,%rax,4), %ecx
	movq	-40(%rbp), %rax         # 8-byte Reload
	shlq	$10, %rax
	addl	952(%rsi,%rax,4), %ecx
	movl	%ecx, 952(%rsi,%rax,4)
	movq	-72(%rbp), %rax         # 8-byte Reload
	shlq	$10, %rax
	movl	-76(%rbp), %ecx         # 4-byte Reload
	imull	956(%rdx,%rax,4), %ecx
	movq	-40(%rbp), %rax         # 8-byte Reload
	shlq	$10, %rax
	addl	956(%rsi,%rax,4), %ecx
	movl	%ecx, 956(%rsi,%rax,4)
	movq	-72(%rbp), %rax         # 8-byte Reload
	shlq	$10, %rax
	movl	-76(%rbp), %ecx         # 4-byte Reload
	imull	960(%rdx,%rax,4), %ecx
	movq	-40(%rbp), %rax         # 8-byte Reload
	shlq	$10, %rax
	addl	960(%rsi,%rax,4), %ecx
	movl	%ecx, 960(%rsi,%rax,4)
	movq	-72(%rbp), %rax         # 8-byte Reload
	shlq	$10, %rax
	movl	-76(%rbp), %ecx         # 4-byte Reload
	imull	964(%rdx,%rax,4), %ecx
	movq	-40(%rbp), %rax         # 8-byte Reload
	shlq	$10, %rax
	addl	964(%rsi,%rax,4), %ecx
	movl	%ecx, 964(%rsi,%rax,4)
	movq	-72(%rbp), %rax         # 8-byte Reload
	shlq	$10, %rax
	movl	-76(%rbp), %ecx         # 4-byte Reload
	imull	968(%rdx,%rax,4), %ecx
	movq	-40(%rbp), %rax         # 8-byte Reload
	shlq	$10, %rax
	addl	968(%rsi,%rax,4), %ecx
	movl	%ecx, 968(%rsi,%rax,4)
	movq	-72(%rbp), %rax         # 8-byte Reload
	shlq	$10, %rax
	movl	-76(%rbp), %ecx         # 4-byte Reload
	imull	972(%rdx,%rax,4), %ecx
	movq	-40(%rbp), %rax         # 8-byte Reload
	shlq	$10, %rax
	addl	972(%rsi,%rax,4), %ecx
	movl	%ecx, 972(%rsi,%rax,4)
	movq	-72(%rbp), %rax         # 8-byte Reload
	shlq	$10, %rax
	movl	-76(%rbp), %ecx         # 4-byte Reload
	imull	976(%rdx,%rax,4), %ecx
	movq	-40(%rbp), %rax         # 8-byte Reload
	shlq	$10, %rax
	addl	976(%rsi,%rax,4), %ecx
	movl	%ecx, 976(%rsi,%rax,4)
	movq	-72(%rbp), %rax         # 8-byte Reload
	shlq	$10, %rax
	movl	-76(%rbp), %ecx         # 4-byte Reload
	imull	980(%rdx,%rax,4), %ecx
	movq	-40(%rbp), %rax         # 8-byte Reload
	shlq	$10, %rax
	addl	980(%rsi,%rax,4), %ecx
	movl	%ecx, 980(%rsi,%rax,4)
	movq	-72(%rbp), %rax         # 8-byte Reload
	shlq	$10, %rax
	movl	-76(%rbp), %ecx         # 4-byte Reload
	imull	984(%rdx,%rax,4), %ecx
	movq	-40(%rbp), %rax         # 8-byte Reload
	shlq	$10, %rax
	addl	984(%rsi,%rax,4), %ecx
	movl	%ecx, 984(%rsi,%rax,4)
	movq	-72(%rbp), %rax         # 8-byte Reload
	shlq	$10, %rax
	movl	-76(%rbp), %ecx         # 4-byte Reload
	imull	988(%rdx,%rax,4), %ecx
	movq	-40(%rbp), %rax         # 8-byte Reload
	shlq	$10, %rax
	addl	988(%rsi,%rax,4), %ecx
	movl	%ecx, 988(%rsi,%rax,4)
	movq	-72(%rbp), %rax         # 8-byte Reload
	shlq	$10, %rax
	movl	-76(%rbp), %ecx         # 4-byte Reload
	imull	992(%rdx,%rax,4), %ecx
	movq	-40(%rbp), %rax         # 8-byte Reload
	shlq	$10, %rax
	addl	992(%rsi,%rax,4), %ecx
	movl	%ecx, 992(%rsi,%rax,4)
	movq	-72(%rbp), %rax         # 8-byte Reload
	shlq	$10, %rax
	movl	-76(%rbp), %ecx         # 4-byte Reload
	imull	996(%rdx,%rax,4), %ecx
	movq	-40(%rbp), %rax         # 8-byte Reload
	shlq	$10, %rax
	addl	996(%rsi,%rax,4), %ecx
	movl	%ecx, 996(%rsi,%rax,4)
	movq	-72(%rbp), %rax         # 8-byte Reload
	shlq	$10, %rax
	movl	-76(%rbp), %ecx         # 4-byte Reload
	imull	1000(%rdx,%rax,4), %ecx
	movq	-40(%rbp), %rax         # 8-byte Reload
	shlq	$10, %rax
	addl	1000(%rsi,%rax,4), %ecx
	movl	%ecx, 1000(%rsi,%rax,4)
	movq	-72(%rbp), %rax         # 8-byte Reload
	shlq	$10, %rax
	movl	-76(%rbp), %ecx         # 4-byte Reload
	imull	1004(%rdx,%rax,4), %ecx
	movq	-40(%rbp), %rax         # 8-byte Reload
	shlq	$10, %rax
	addl	1004(%rsi,%rax,4), %ecx
	movl	%ecx, 1004(%rsi,%rax,4)
	movq	-72(%rbp), %rax         # 8-byte Reload
	shlq	$10, %rax
	movl	-76(%rbp), %ecx         # 4-byte Reload
	imull	1008(%rdx,%rax,4), %ecx
	movq	-40(%rbp), %rax         # 8-byte Reload
	shlq	$10, %rax
	addl	1008(%rsi,%rax,4), %ecx
	movl	%ecx, 1008(%rsi,%rax,4)
	movq	-72(%rbp), %rax         # 8-byte Reload
	shlq	$10, %rax
	movl	-76(%rbp), %ecx         # 4-byte Reload
	imull	1012(%rdx,%rax,4), %ecx
	movq	-40(%rbp), %rax         # 8-byte Reload
	shlq	$10, %rax
	addl	1012(%rsi,%rax,4), %ecx
	movl	%ecx, 1012(%rsi,%rax,4)
	movq	-72(%rbp), %rax         # 8-byte Reload
	shlq	$10, %rax
	movl	-76(%rbp), %ecx         # 4-byte Reload
	imull	1016(%rdx,%rax,4), %ecx
	movq	-40(%rbp), %rax         # 8-byte Reload
	shlq	$10, %rax
	addl	1016(%rsi,%rax,4), %ecx
	movl	%ecx, 1016(%rsi,%rax,4)
	movq	-72(%rbp), %rax         # 8-byte Reload
	shlq	$10, %rax
	movl	-76(%rbp), %ecx         # 4-byte Reload
	imull	1020(%rdx,%rax,4), %ecx
	movq	-40(%rbp), %rax         # 8-byte Reload
	shlq	$10, %rax
	addl	1020(%rsi,%rax,4), %ecx
	movl	%ecx, 1020(%rsi,%rax,4)
	movq	-72(%rbp), %rax         # 8-byte Reload
	addq	$1, %rax
	movq	-40(%rbp), %rdi         # 8-byte Reload
	shlq	$10, %rdi
	addq	%rax, %rdi
	movq	-8(%rbp), %r8           # 8-byte Reload
	movl	(%r8,%rdi,4), %ecx
	movq	%rax, -88(%rbp)         # 8-byte Spill
	movl	%ecx, -92(%rbp)         # 4-byte Spill
# %bb.7:                                # %for.body6.2
                                        #   in Loop: Header=BB0_2 Depth=2
	movq	-88(%rbp), %rax         # 8-byte Reload
	shlq	$10, %rax
	movl	-92(%rbp), %ecx         # 4-byte Reload
	movq	-16(%rbp), %rdx         # 8-byte Reload
	imull	(%rdx,%rax,4), %ecx
	movq	-40(%rbp), %rax         # 8-byte Reload
	shlq	$10, %rax
	movq	-24(%rbp), %rsi         # 8-byte Reload
	addl	(%rsi,%rax,4), %ecx
	movl	%ecx, (%rsi,%rax,4)
	movq	-88(%rbp), %rax         # 8-byte Reload
	shlq	$10, %rax
	movl	-92(%rbp), %ecx         # 4-byte Reload
	imull	4(%rdx,%rax,4), %ecx
	movq	-40(%rbp), %rax         # 8-byte Reload
	shlq	$10, %rax
	addl	4(%rsi,%rax,4), %ecx
	movl	%ecx, 4(%rsi,%rax,4)
	movq	-88(%rbp), %rax         # 8-byte Reload
	shlq	$10, %rax
	movl	-92(%rbp), %ecx         # 4-byte Reload
	imull	8(%rdx,%rax,4), %ecx
	movq	-40(%rbp), %rax         # 8-byte Reload
	shlq	$10, %rax
	addl	8(%rsi,%rax,4), %ecx
	movl	%ecx, 8(%rsi,%rax,4)
	movq	-88(%rbp), %rax         # 8-byte Reload
	shlq	$10, %rax
	movl	-92(%rbp), %ecx         # 4-byte Reload
	imull	12(%rdx,%rax,4), %ecx
	movq	-40(%rbp), %rax         # 8-byte Reload
	shlq	$10, %rax
	addl	12(%rsi,%rax,4), %ecx
	movl	%ecx, 12(%rsi,%rax,4)
	movq	-88(%rbp), %rax         # 8-byte Reload
	shlq	$10, %rax
	movl	-92(%rbp), %ecx         # 4-byte Reload
	imull	16(%rdx,%rax,4), %ecx
	movq	-40(%rbp), %rax         # 8-byte Reload
	shlq	$10, %rax
	addl	16(%rsi,%rax,4), %ecx
	movl	%ecx, 16(%rsi,%rax,4)
	movq	-88(%rbp), %rax         # 8-byte Reload
	shlq	$10, %rax
	movl	-92(%rbp), %ecx         # 4-byte Reload
	imull	20(%rdx,%rax,4), %ecx
	movq	-40(%rbp), %rax         # 8-byte Reload
	shlq	$10, %rax
	addl	20(%rsi,%rax,4), %ecx
	movl	%ecx, 20(%rsi,%rax,4)
	movq	-88(%rbp), %rax         # 8-byte Reload
	shlq	$10, %rax
	movl	-92(%rbp), %ecx         # 4-byte Reload
	imull	24(%rdx,%rax,4), %ecx
	movq	-40(%rbp), %rax         # 8-byte Reload
	shlq	$10, %rax
	addl	24(%rsi,%rax,4), %ecx
	movl	%ecx, 24(%rsi,%rax,4)
	movq	-88(%rbp), %rax         # 8-byte Reload
	shlq	$10, %rax
	movl	-92(%rbp), %ecx         # 4-byte Reload
	imull	28(%rdx,%rax,4), %ecx
	movq	-40(%rbp), %rax         # 8-byte Reload
	shlq	$10, %rax
	addl	28(%rsi,%rax,4), %ecx
	movl	%ecx, 28(%rsi,%rax,4)
	movq	-88(%rbp), %rax         # 8-byte Reload
	shlq	$10, %rax
	movl	-92(%rbp), %ecx         # 4-byte Reload
	imull	32(%rdx,%rax,4), %ecx
	movq	-40(%rbp), %rax         # 8-byte Reload
	shlq	$10, %rax
	addl	32(%rsi,%rax,4), %ecx
	movl	%ecx, 32(%rsi,%rax,4)
	movq	-88(%rbp), %rax         # 8-byte Reload
	shlq	$10, %rax
	movl	-92(%rbp), %ecx         # 4-byte Reload
	imull	36(%rdx,%rax,4), %ecx
	movq	-40(%rbp), %rax         # 8-byte Reload
	shlq	$10, %rax
	addl	36(%rsi,%rax,4), %ecx
	movl	%ecx, 36(%rsi,%rax,4)
	movq	-88(%rbp), %rax         # 8-byte Reload
	shlq	$10, %rax
	movl	-92(%rbp), %ecx         # 4-byte Reload
	imull	40(%rdx,%rax,4), %ecx
	movq	-40(%rbp), %rax         # 8-byte Reload
	shlq	$10, %rax
	addl	40(%rsi,%rax,4), %ecx
	movl	%ecx, 40(%rsi,%rax,4)
	movq	-88(%rbp), %rax         # 8-byte Reload
	shlq	$10, %rax
	movl	-92(%rbp), %ecx         # 4-byte Reload
	imull	44(%rdx,%rax,4), %ecx
	movq	-40(%rbp), %rax         # 8-byte Reload
	shlq	$10, %rax
	addl	44(%rsi,%rax,4), %ecx
	movl	%ecx, 44(%rsi,%rax,4)
	movq	-88(%rbp), %rax         # 8-byte Reload
	shlq	$10, %rax
	movl	-92(%rbp), %ecx         # 4-byte Reload
	imull	48(%rdx,%rax,4), %ecx
	movq	-40(%rbp), %rax         # 8-byte Reload
	shlq	$10, %rax
	addl	48(%rsi,%rax,4), %ecx
	movl	%ecx, 48(%rsi,%rax,4)
	movq	-88(%rbp), %rax         # 8-byte Reload
	shlq	$10, %rax
	movl	-92(%rbp), %ecx         # 4-byte Reload
	imull	52(%rdx,%rax,4), %ecx
	movq	-40(%rbp), %rax         # 8-byte Reload
	shlq	$10, %rax
	addl	52(%rsi,%rax,4), %ecx
	movl	%ecx, 52(%rsi,%rax,4)
	movq	-88(%rbp), %rax         # 8-byte Reload
	shlq	$10, %rax
	movl	-92(%rbp), %ecx         # 4-byte Reload
	imull	56(%rdx,%rax,4), %ecx
	movq	-40(%rbp), %rax         # 8-byte Reload
	shlq	$10, %rax
	addl	56(%rsi,%rax,4), %ecx
	movl	%ecx, 56(%rsi,%rax,4)
	movq	-88(%rbp), %rax         # 8-byte Reload
	shlq	$10, %rax
	movl	-92(%rbp), %ecx         # 4-byte Reload
	imull	60(%rdx,%rax,4), %ecx
	movq	-40(%rbp), %rax         # 8-byte Reload
	shlq	$10, %rax
	addl	60(%rsi,%rax,4), %ecx
	movl	%ecx, 60(%rsi,%rax,4)
	movq	-88(%rbp), %rax         # 8-byte Reload
	shlq	$10, %rax
	movl	-92(%rbp), %ecx         # 4-byte Reload
	imull	64(%rdx,%rax,4), %ecx
	movq	-40(%rbp), %rax         # 8-byte Reload
	shlq	$10, %rax
	addl	64(%rsi,%rax,4), %ecx
	movl	%ecx, 64(%rsi,%rax,4)
	movq	-88(%rbp), %rax         # 8-byte Reload
	shlq	$10, %rax
	movl	-92(%rbp), %ecx         # 4-byte Reload
	imull	68(%rdx,%rax,4), %ecx
	movq	-40(%rbp), %rax         # 8-byte Reload
	shlq	$10, %rax
	addl	68(%rsi,%rax,4), %ecx
	movl	%ecx, 68(%rsi,%rax,4)
	movq	-88(%rbp), %rax         # 8-byte Reload
	shlq	$10, %rax
	movl	-92(%rbp), %ecx         # 4-byte Reload
	imull	72(%rdx,%rax,4), %ecx
	movq	-40(%rbp), %rax         # 8-byte Reload
	shlq	$10, %rax
	addl	72(%rsi,%rax,4), %ecx
	movl	%ecx, 72(%rsi,%rax,4)
	movq	-88(%rbp), %rax         # 8-byte Reload
	shlq	$10, %rax
	movl	-92(%rbp), %ecx         # 4-byte Reload
	imull	76(%rdx,%rax,4), %ecx
	movq	-40(%rbp), %rax         # 8-byte Reload
	shlq	$10, %rax
	addl	76(%rsi,%rax,4), %ecx
	movl	%ecx, 76(%rsi,%rax,4)
	movq	-88(%rbp), %rax         # 8-byte Reload
	shlq	$10, %rax
	movl	-92(%rbp), %ecx         # 4-byte Reload
	imull	80(%rdx,%rax,4), %ecx
	movq	-40(%rbp), %rax         # 8-byte Reload
	shlq	$10, %rax
	addl	80(%rsi,%rax,4), %ecx
	movl	%ecx, 80(%rsi,%rax,4)
	movq	-88(%rbp), %rax         # 8-byte Reload
	shlq	$10, %rax
	movl	-92(%rbp), %ecx         # 4-byte Reload
	imull	84(%rdx,%rax,4), %ecx
	movq	-40(%rbp), %rax         # 8-byte Reload
	shlq	$10, %rax
	addl	84(%rsi,%rax,4), %ecx
	movl	%ecx, 84(%rsi,%rax,4)
	movq	-88(%rbp), %rax         # 8-byte Reload
	shlq	$10, %rax
	movl	-92(%rbp), %ecx         # 4-byte Reload
	imull	88(%rdx,%rax,4), %ecx
	movq	-40(%rbp), %rax         # 8-byte Reload
	shlq	$10, %rax
	addl	88(%rsi,%rax,4), %ecx
	movl	%ecx, 88(%rsi,%rax,4)
	movq	-88(%rbp), %rax         # 8-byte Reload
	shlq	$10, %rax
	movl	-92(%rbp), %ecx         # 4-byte Reload
	imull	92(%rdx,%rax,4), %ecx
	movq	-40(%rbp), %rax         # 8-byte Reload
	shlq	$10, %rax
	addl	92(%rsi,%rax,4), %ecx
	movl	%ecx, 92(%rsi,%rax,4)
	movq	-88(%rbp), %rax         # 8-byte Reload
	shlq	$10, %rax
	movl	-92(%rbp), %ecx         # 4-byte Reload
	imull	96(%rdx,%rax,4), %ecx
	movq	-40(%rbp), %rax         # 8-byte Reload
	shlq	$10, %rax
	addl	96(%rsi,%rax,4), %ecx
	movl	%ecx, 96(%rsi,%rax,4)
	movq	-88(%rbp), %rax         # 8-byte Reload
	shlq	$10, %rax
	movl	-92(%rbp), %ecx         # 4-byte Reload
	imull	100(%rdx,%rax,4), %ecx
	movq	-40(%rbp), %rax         # 8-byte Reload
	shlq	$10, %rax
	addl	100(%rsi,%rax,4), %ecx
	movl	%ecx, 100(%rsi,%rax,4)
	movq	-88(%rbp), %rax         # 8-byte Reload
	shlq	$10, %rax
	movl	-92(%rbp), %ecx         # 4-byte Reload
	imull	104(%rdx,%rax,4), %ecx
	movq	-40(%rbp), %rax         # 8-byte Reload
	shlq	$10, %rax
	addl	104(%rsi,%rax,4), %ecx
	movl	%ecx, 104(%rsi,%rax,4)
	movq	-88(%rbp), %rax         # 8-byte Reload
	shlq	$10, %rax
	movl	-92(%rbp), %ecx         # 4-byte Reload
	imull	108(%rdx,%rax,4), %ecx
	movq	-40(%rbp), %rax         # 8-byte Reload
	shlq	$10, %rax
	addl	108(%rsi,%rax,4), %ecx
	movl	%ecx, 108(%rsi,%rax,4)
	movq	-88(%rbp), %rax         # 8-byte Reload
	shlq	$10, %rax
	movl	-92(%rbp), %ecx         # 4-byte Reload
	imull	112(%rdx,%rax,4), %ecx
	movq	-40(%rbp), %rax         # 8-byte Reload
	shlq	$10, %rax
	addl	112(%rsi,%rax,4), %ecx
	movl	%ecx, 112(%rsi,%rax,4)
	movq	-88(%rbp), %rax         # 8-byte Reload
	shlq	$10, %rax
	movl	-92(%rbp), %ecx         # 4-byte Reload
	imull	116(%rdx,%rax,4), %ecx
	movq	-40(%rbp), %rax         # 8-byte Reload
	shlq	$10, %rax
	addl	116(%rsi,%rax,4), %ecx
	movl	%ecx, 116(%rsi,%rax,4)
	movq	-88(%rbp), %rax         # 8-byte Reload
	shlq	$10, %rax
	movl	-92(%rbp), %ecx         # 4-byte Reload
	imull	120(%rdx,%rax,4), %ecx
	movq	-40(%rbp), %rax         # 8-byte Reload
	shlq	$10, %rax
	addl	120(%rsi,%rax,4), %ecx
	movl	%ecx, 120(%rsi,%rax,4)
	movq	-88(%rbp), %rax         # 8-byte Reload
	shlq	$10, %rax
	movl	-92(%rbp), %ecx         # 4-byte Reload
	imull	124(%rdx,%rax,4), %ecx
	movq	-40(%rbp), %rax         # 8-byte Reload
	shlq	$10, %rax
	addl	124(%rsi,%rax,4), %ecx
	movl	%ecx, 124(%rsi,%rax,4)
	movq	-88(%rbp), %rax         # 8-byte Reload
	shlq	$10, %rax
	movl	-92(%rbp), %ecx         # 4-byte Reload
	imull	128(%rdx,%rax,4), %ecx
	movq	-40(%rbp), %rax         # 8-byte Reload
	shlq	$10, %rax
	addl	128(%rsi,%rax,4), %ecx
	movl	%ecx, 128(%rsi,%rax,4)
	movq	-88(%rbp), %rax         # 8-byte Reload
	shlq	$10, %rax
	movl	-92(%rbp), %ecx         # 4-byte Reload
	imull	132(%rdx,%rax,4), %ecx
	movq	-40(%rbp), %rax         # 8-byte Reload
	shlq	$10, %rax
	addl	132(%rsi,%rax,4), %ecx
	movl	%ecx, 132(%rsi,%rax,4)
	movq	-88(%rbp), %rax         # 8-byte Reload
	shlq	$10, %rax
	movl	-92(%rbp), %ecx         # 4-byte Reload
	imull	136(%rdx,%rax,4), %ecx
	movq	-40(%rbp), %rax         # 8-byte Reload
	shlq	$10, %rax
	addl	136(%rsi,%rax,4), %ecx
	movl	%ecx, 136(%rsi,%rax,4)
	movq	-88(%rbp), %rax         # 8-byte Reload
	shlq	$10, %rax
	movl	-92(%rbp), %ecx         # 4-byte Reload
	imull	140(%rdx,%rax,4), %ecx
	movq	-40(%rbp), %rax         # 8-byte Reload
	shlq	$10, %rax
	addl	140(%rsi,%rax,4), %ecx
	movl	%ecx, 140(%rsi,%rax,4)
	movq	-88(%rbp), %rax         # 8-byte Reload
	shlq	$10, %rax
	movl	-92(%rbp), %ecx         # 4-byte Reload
	imull	144(%rdx,%rax,4), %ecx
	movq	-40(%rbp), %rax         # 8-byte Reload
	shlq	$10, %rax
	addl	144(%rsi,%rax,4), %ecx
	movl	%ecx, 144(%rsi,%rax,4)
	movq	-88(%rbp), %rax         # 8-byte Reload
	shlq	$10, %rax
	movl	-92(%rbp), %ecx         # 4-byte Reload
	imull	148(%rdx,%rax,4), %ecx
	movq	-40(%rbp), %rax         # 8-byte Reload
	shlq	$10, %rax
	addl	148(%rsi,%rax,4), %ecx
	movl	%ecx, 148(%rsi,%rax,4)
	movq	-88(%rbp), %rax         # 8-byte Reload
	shlq	$10, %rax
	movl	-92(%rbp), %ecx         # 4-byte Reload
	imull	152(%rdx,%rax,4), %ecx
	movq	-40(%rbp), %rax         # 8-byte Reload
	shlq	$10, %rax
	addl	152(%rsi,%rax,4), %ecx
	movl	%ecx, 152(%rsi,%rax,4)
	movq	-88(%rbp), %rax         # 8-byte Reload
	shlq	$10, %rax
	movl	-92(%rbp), %ecx         # 4-byte Reload
	imull	156(%rdx,%rax,4), %ecx
	movq	-40(%rbp), %rax         # 8-byte Reload
	shlq	$10, %rax
	addl	156(%rsi,%rax,4), %ecx
	movl	%ecx, 156(%rsi,%rax,4)
	movq	-88(%rbp), %rax         # 8-byte Reload
	shlq	$10, %rax
	movl	-92(%rbp), %ecx         # 4-byte Reload
	imull	160(%rdx,%rax,4), %ecx
	movq	-40(%rbp), %rax         # 8-byte Reload
	shlq	$10, %rax
	addl	160(%rsi,%rax,4), %ecx
	movl	%ecx, 160(%rsi,%rax,4)
	movq	-88(%rbp), %rax         # 8-byte Reload
	shlq	$10, %rax
	movl	-92(%rbp), %ecx         # 4-byte Reload
	imull	164(%rdx,%rax,4), %ecx
	movq	-40(%rbp), %rax         # 8-byte Reload
	shlq	$10, %rax
	addl	164(%rsi,%rax,4), %ecx
	movl	%ecx, 164(%rsi,%rax,4)
	movq	-88(%rbp), %rax         # 8-byte Reload
	shlq	$10, %rax
	movl	-92(%rbp), %ecx         # 4-byte Reload
	imull	168(%rdx,%rax,4), %ecx
	movq	-40(%rbp), %rax         # 8-byte Reload
	shlq	$10, %rax
	addl	168(%rsi,%rax,4), %ecx
	movl	%ecx, 168(%rsi,%rax,4)
	movq	-88(%rbp), %rax         # 8-byte Reload
	shlq	$10, %rax
	movl	-92(%rbp), %ecx         # 4-byte Reload
	imull	172(%rdx,%rax,4), %ecx
	movq	-40(%rbp), %rax         # 8-byte Reload
	shlq	$10, %rax
	addl	172(%rsi,%rax,4), %ecx
	movl	%ecx, 172(%rsi,%rax,4)
	movq	-88(%rbp), %rax         # 8-byte Reload
	shlq	$10, %rax
	movl	-92(%rbp), %ecx         # 4-byte Reload
	imull	176(%rdx,%rax,4), %ecx
	movq	-40(%rbp), %rax         # 8-byte Reload
	shlq	$10, %rax
	addl	176(%rsi,%rax,4), %ecx
	movl	%ecx, 176(%rsi,%rax,4)
	movq	-88(%rbp), %rax         # 8-byte Reload
	shlq	$10, %rax
	movl	-92(%rbp), %ecx         # 4-byte Reload
	imull	180(%rdx,%rax,4), %ecx
	movq	-40(%rbp), %rax         # 8-byte Reload
	shlq	$10, %rax
	addl	180(%rsi,%rax,4), %ecx
	movl	%ecx, 180(%rsi,%rax,4)
	movq	-88(%rbp), %rax         # 8-byte Reload
	shlq	$10, %rax
	movl	-92(%rbp), %ecx         # 4-byte Reload
	imull	184(%rdx,%rax,4), %ecx
	movq	-40(%rbp), %rax         # 8-byte Reload
	shlq	$10, %rax
	addl	184(%rsi,%rax,4), %ecx
	movl	%ecx, 184(%rsi,%rax,4)
	movq	-88(%rbp), %rax         # 8-byte Reload
	shlq	$10, %rax
	movl	-92(%rbp), %ecx         # 4-byte Reload
	imull	188(%rdx,%rax,4), %ecx
	movq	-40(%rbp), %rax         # 8-byte Reload
	shlq	$10, %rax
	addl	188(%rsi,%rax,4), %ecx
	movl	%ecx, 188(%rsi,%rax,4)
	movq	-88(%rbp), %rax         # 8-byte Reload
	shlq	$10, %rax
	movl	-92(%rbp), %ecx         # 4-byte Reload
	imull	192(%rdx,%rax,4), %ecx
	movq	-40(%rbp), %rax         # 8-byte Reload
	shlq	$10, %rax
	addl	192(%rsi,%rax,4), %ecx
	movl	%ecx, 192(%rsi,%rax,4)
	movq	-88(%rbp), %rax         # 8-byte Reload
	shlq	$10, %rax
	movl	-92(%rbp), %ecx         # 4-byte Reload
	imull	196(%rdx,%rax,4), %ecx
	movq	-40(%rbp), %rax         # 8-byte Reload
	shlq	$10, %rax
	addl	196(%rsi,%rax,4), %ecx
	movl	%ecx, 196(%rsi,%rax,4)
	movq	-88(%rbp), %rax         # 8-byte Reload
	shlq	$10, %rax
	movl	-92(%rbp), %ecx         # 4-byte Reload
	imull	200(%rdx,%rax,4), %ecx
	movq	-40(%rbp), %rax         # 8-byte Reload
	shlq	$10, %rax
	addl	200(%rsi,%rax,4), %ecx
	movl	%ecx, 200(%rsi,%rax,4)
	movq	-88(%rbp), %rax         # 8-byte Reload
	shlq	$10, %rax
	movl	-92(%rbp), %ecx         # 4-byte Reload
	imull	204(%rdx,%rax,4), %ecx
	movq	-40(%rbp), %rax         # 8-byte Reload
	shlq	$10, %rax
	addl	204(%rsi,%rax,4), %ecx
	movl	%ecx, 204(%rsi,%rax,4)
	movq	-88(%rbp), %rax         # 8-byte Reload
	shlq	$10, %rax
	movl	-92(%rbp), %ecx         # 4-byte Reload
	imull	208(%rdx,%rax,4), %ecx
	movq	-40(%rbp), %rax         # 8-byte Reload
	shlq	$10, %rax
	addl	208(%rsi,%rax,4), %ecx
	movl	%ecx, 208(%rsi,%rax,4)
	movq	-88(%rbp), %rax         # 8-byte Reload
	shlq	$10, %rax
	movl	-92(%rbp), %ecx         # 4-byte Reload
	imull	212(%rdx,%rax,4), %ecx
	movq	-40(%rbp), %rax         # 8-byte Reload
	shlq	$10, %rax
	addl	212(%rsi,%rax,4), %ecx
	movl	%ecx, 212(%rsi,%rax,4)
	movq	-88(%rbp), %rax         # 8-byte Reload
	shlq	$10, %rax
	movl	-92(%rbp), %ecx         # 4-byte Reload
	imull	216(%rdx,%rax,4), %ecx
	movq	-40(%rbp), %rax         # 8-byte Reload
	shlq	$10, %rax
	addl	216(%rsi,%rax,4), %ecx
	movl	%ecx, 216(%rsi,%rax,4)
	movq	-88(%rbp), %rax         # 8-byte Reload
	shlq	$10, %rax
	movl	-92(%rbp), %ecx         # 4-byte Reload
	imull	220(%rdx,%rax,4), %ecx
	movq	-40(%rbp), %rax         # 8-byte Reload
	shlq	$10, %rax
	addl	220(%rsi,%rax,4), %ecx
	movl	%ecx, 220(%rsi,%rax,4)
	movq	-88(%rbp), %rax         # 8-byte Reload
	shlq	$10, %rax
	movl	-92(%rbp), %ecx         # 4-byte Reload
	imull	224(%rdx,%rax,4), %ecx
	movq	-40(%rbp), %rax         # 8-byte Reload
	shlq	$10, %rax
	addl	224(%rsi,%rax,4), %ecx
	movl	%ecx, 224(%rsi,%rax,4)
	movq	-88(%rbp), %rax         # 8-byte Reload
	shlq	$10, %rax
	movl	-92(%rbp), %ecx         # 4-byte Reload
	imull	228(%rdx,%rax,4), %ecx
	movq	-40(%rbp), %rax         # 8-byte Reload
	shlq	$10, %rax
	addl	228(%rsi,%rax,4), %ecx
	movl	%ecx, 228(%rsi,%rax,4)
	movq	-88(%rbp), %rax         # 8-byte Reload
	shlq	$10, %rax
	movl	-92(%rbp), %ecx         # 4-byte Reload
	imull	232(%rdx,%rax,4), %ecx
	movq	-40(%rbp), %rax         # 8-byte Reload
	shlq	$10, %rax
	addl	232(%rsi,%rax,4), %ecx
	movl	%ecx, 232(%rsi,%rax,4)
	movq	-88(%rbp), %rax         # 8-byte Reload
	shlq	$10, %rax
	movl	-92(%rbp), %ecx         # 4-byte Reload
	imull	236(%rdx,%rax,4), %ecx
	movq	-40(%rbp), %rax         # 8-byte Reload
	shlq	$10, %rax
	addl	236(%rsi,%rax,4), %ecx
	movl	%ecx, 236(%rsi,%rax,4)
	movq	-88(%rbp), %rax         # 8-byte Reload
	shlq	$10, %rax
	movl	-92(%rbp), %ecx         # 4-byte Reload
	imull	240(%rdx,%rax,4), %ecx
	movq	-40(%rbp), %rax         # 8-byte Reload
	shlq	$10, %rax
	addl	240(%rsi,%rax,4), %ecx
	movl	%ecx, 240(%rsi,%rax,4)
	movq	-88(%rbp), %rax         # 8-byte Reload
	shlq	$10, %rax
	movl	-92(%rbp), %ecx         # 4-byte Reload
	imull	244(%rdx,%rax,4), %ecx
	movq	-40(%rbp), %rax         # 8-byte Reload
	shlq	$10, %rax
	addl	244(%rsi,%rax,4), %ecx
	movl	%ecx, 244(%rsi,%rax,4)
	movq	-88(%rbp), %rax         # 8-byte Reload
	shlq	$10, %rax
	movl	-92(%rbp), %ecx         # 4-byte Reload
	imull	248(%rdx,%rax,4), %ecx
	movq	-40(%rbp), %rax         # 8-byte Reload
	shlq	$10, %rax
	addl	248(%rsi,%rax,4), %ecx
	movl	%ecx, 248(%rsi,%rax,4)
	movq	-88(%rbp), %rax         # 8-byte Reload
	shlq	$10, %rax
	movl	-92(%rbp), %ecx         # 4-byte Reload
	imull	252(%rdx,%rax,4), %ecx
	movq	-40(%rbp), %rax         # 8-byte Reload
	shlq	$10, %rax
	addl	252(%rsi,%rax,4), %ecx
	movl	%ecx, 252(%rsi,%rax,4)
	movq	-88(%rbp), %rax         # 8-byte Reload
	shlq	$10, %rax
	movl	-92(%rbp), %ecx         # 4-byte Reload
	imull	256(%rdx,%rax,4), %ecx
	movq	-40(%rbp), %rax         # 8-byte Reload
	shlq	$10, %rax
	addl	256(%rsi,%rax,4), %ecx
	movl	%ecx, 256(%rsi,%rax,4)
	movq	-88(%rbp), %rax         # 8-byte Reload
	shlq	$10, %rax
	movl	-92(%rbp), %ecx         # 4-byte Reload
	imull	260(%rdx,%rax,4), %ecx
	movq	-40(%rbp), %rax         # 8-byte Reload
	shlq	$10, %rax
	addl	260(%rsi,%rax,4), %ecx
	movl	%ecx, 260(%rsi,%rax,4)
	movq	-88(%rbp), %rax         # 8-byte Reload
	shlq	$10, %rax
	movl	-92(%rbp), %ecx         # 4-byte Reload
	imull	264(%rdx,%rax,4), %ecx
	movq	-40(%rbp), %rax         # 8-byte Reload
	shlq	$10, %rax
	addl	264(%rsi,%rax,4), %ecx
	movl	%ecx, 264(%rsi,%rax,4)
	movq	-88(%rbp), %rax         # 8-byte Reload
	shlq	$10, %rax
	movl	-92(%rbp), %ecx         # 4-byte Reload
	imull	268(%rdx,%rax,4), %ecx
	movq	-40(%rbp), %rax         # 8-byte Reload
	shlq	$10, %rax
	addl	268(%rsi,%rax,4), %ecx
	movl	%ecx, 268(%rsi,%rax,4)
	movq	-88(%rbp), %rax         # 8-byte Reload
	shlq	$10, %rax
	movl	-92(%rbp), %ecx         # 4-byte Reload
	imull	272(%rdx,%rax,4), %ecx
	movq	-40(%rbp), %rax         # 8-byte Reload
	shlq	$10, %rax
	addl	272(%rsi,%rax,4), %ecx
	movl	%ecx, 272(%rsi,%rax,4)
	movq	-88(%rbp), %rax         # 8-byte Reload
	shlq	$10, %rax
	movl	-92(%rbp), %ecx         # 4-byte Reload
	imull	276(%rdx,%rax,4), %ecx
	movq	-40(%rbp), %rax         # 8-byte Reload
	shlq	$10, %rax
	addl	276(%rsi,%rax,4), %ecx
	movl	%ecx, 276(%rsi,%rax,4)
	movq	-88(%rbp), %rax         # 8-byte Reload
	shlq	$10, %rax
	movl	-92(%rbp), %ecx         # 4-byte Reload
	imull	280(%rdx,%rax,4), %ecx
	movq	-40(%rbp), %rax         # 8-byte Reload
	shlq	$10, %rax
	addl	280(%rsi,%rax,4), %ecx
	movl	%ecx, 280(%rsi,%rax,4)
	movq	-88(%rbp), %rax         # 8-byte Reload
	shlq	$10, %rax
	movl	-92(%rbp), %ecx         # 4-byte Reload
	imull	284(%rdx,%rax,4), %ecx
	movq	-40(%rbp), %rax         # 8-byte Reload
	shlq	$10, %rax
	addl	284(%rsi,%rax,4), %ecx
	movl	%ecx, 284(%rsi,%rax,4)
	movq	-88(%rbp), %rax         # 8-byte Reload
	shlq	$10, %rax
	movl	-92(%rbp), %ecx         # 4-byte Reload
	imull	288(%rdx,%rax,4), %ecx
	movq	-40(%rbp), %rax         # 8-byte Reload
	shlq	$10, %rax
	addl	288(%rsi,%rax,4), %ecx
	movl	%ecx, 288(%rsi,%rax,4)
	movq	-88(%rbp), %rax         # 8-byte Reload
	shlq	$10, %rax
	movl	-92(%rbp), %ecx         # 4-byte Reload
	imull	292(%rdx,%rax,4), %ecx
	movq	-40(%rbp), %rax         # 8-byte Reload
	shlq	$10, %rax
	addl	292(%rsi,%rax,4), %ecx
	movl	%ecx, 292(%rsi,%rax,4)
	movq	-88(%rbp), %rax         # 8-byte Reload
	shlq	$10, %rax
	movl	-92(%rbp), %ecx         # 4-byte Reload
	imull	296(%rdx,%rax,4), %ecx
	movq	-40(%rbp), %rax         # 8-byte Reload
	shlq	$10, %rax
	addl	296(%rsi,%rax,4), %ecx
	movl	%ecx, 296(%rsi,%rax,4)
	movq	-88(%rbp), %rax         # 8-byte Reload
	shlq	$10, %rax
	movl	-92(%rbp), %ecx         # 4-byte Reload
	imull	300(%rdx,%rax,4), %ecx
	movq	-40(%rbp), %rax         # 8-byte Reload
	shlq	$10, %rax
	addl	300(%rsi,%rax,4), %ecx
	movl	%ecx, 300(%rsi,%rax,4)
	movq	-88(%rbp), %rax         # 8-byte Reload
	shlq	$10, %rax
	movl	-92(%rbp), %ecx         # 4-byte Reload
	imull	304(%rdx,%rax,4), %ecx
	movq	-40(%rbp), %rax         # 8-byte Reload
	shlq	$10, %rax
	addl	304(%rsi,%rax,4), %ecx
	movl	%ecx, 304(%rsi,%rax,4)
	movq	-88(%rbp), %rax         # 8-byte Reload
	shlq	$10, %rax
	movl	-92(%rbp), %ecx         # 4-byte Reload
	imull	308(%rdx,%rax,4), %ecx
	movq	-40(%rbp), %rax         # 8-byte Reload
	shlq	$10, %rax
	addl	308(%rsi,%rax,4), %ecx
	movl	%ecx, 308(%rsi,%rax,4)
	movq	-88(%rbp), %rax         # 8-byte Reload
	shlq	$10, %rax
	movl	-92(%rbp), %ecx         # 4-byte Reload
	imull	312(%rdx,%rax,4), %ecx
	movq	-40(%rbp), %rax         # 8-byte Reload
	shlq	$10, %rax
	addl	312(%rsi,%rax,4), %ecx
	movl	%ecx, 312(%rsi,%rax,4)
	movq	-88(%rbp), %rax         # 8-byte Reload
	shlq	$10, %rax
	movl	-92(%rbp), %ecx         # 4-byte Reload
	imull	316(%rdx,%rax,4), %ecx
	movq	-40(%rbp), %rax         # 8-byte Reload
	shlq	$10, %rax
	addl	316(%rsi,%rax,4), %ecx
	movl	%ecx, 316(%rsi,%rax,4)
	movq	-88(%rbp), %rax         # 8-byte Reload
	shlq	$10, %rax
	movl	-92(%rbp), %ecx         # 4-byte Reload
	imull	320(%rdx,%rax,4), %ecx
	movq	-40(%rbp), %rax         # 8-byte Reload
	shlq	$10, %rax
	addl	320(%rsi,%rax,4), %ecx
	movl	%ecx, 320(%rsi,%rax,4)
	movq	-88(%rbp), %rax         # 8-byte Reload
	shlq	$10, %rax
	movl	-92(%rbp), %ecx         # 4-byte Reload
	imull	324(%rdx,%rax,4), %ecx
	movq	-40(%rbp), %rax         # 8-byte Reload
	shlq	$10, %rax
	addl	324(%rsi,%rax,4), %ecx
	movl	%ecx, 324(%rsi,%rax,4)
	movq	-88(%rbp), %rax         # 8-byte Reload
	shlq	$10, %rax
	movl	-92(%rbp), %ecx         # 4-byte Reload
	imull	328(%rdx,%rax,4), %ecx
	movq	-40(%rbp), %rax         # 8-byte Reload
	shlq	$10, %rax
	addl	328(%rsi,%rax,4), %ecx
	movl	%ecx, 328(%rsi,%rax,4)
	movq	-88(%rbp), %rax         # 8-byte Reload
	shlq	$10, %rax
	movl	-92(%rbp), %ecx         # 4-byte Reload
	imull	332(%rdx,%rax,4), %ecx
	movq	-40(%rbp), %rax         # 8-byte Reload
	shlq	$10, %rax
	addl	332(%rsi,%rax,4), %ecx
	movl	%ecx, 332(%rsi,%rax,4)
	movq	-88(%rbp), %rax         # 8-byte Reload
	shlq	$10, %rax
	movl	-92(%rbp), %ecx         # 4-byte Reload
	imull	336(%rdx,%rax,4), %ecx
	movq	-40(%rbp), %rax         # 8-byte Reload
	shlq	$10, %rax
	addl	336(%rsi,%rax,4), %ecx
	movl	%ecx, 336(%rsi,%rax,4)
	movq	-88(%rbp), %rax         # 8-byte Reload
	shlq	$10, %rax
	movl	-92(%rbp), %ecx         # 4-byte Reload
	imull	340(%rdx,%rax,4), %ecx
	movq	-40(%rbp), %rax         # 8-byte Reload
	shlq	$10, %rax
	addl	340(%rsi,%rax,4), %ecx
	movl	%ecx, 340(%rsi,%rax,4)
	movq	-88(%rbp), %rax         # 8-byte Reload
	shlq	$10, %rax
	movl	-92(%rbp), %ecx         # 4-byte Reload
	imull	344(%rdx,%rax,4), %ecx
	movq	-40(%rbp), %rax         # 8-byte Reload
	shlq	$10, %rax
	addl	344(%rsi,%rax,4), %ecx
	movl	%ecx, 344(%rsi,%rax,4)
	movq	-88(%rbp), %rax         # 8-byte Reload
	shlq	$10, %rax
	movl	-92(%rbp), %ecx         # 4-byte Reload
	imull	348(%rdx,%rax,4), %ecx
	movq	-40(%rbp), %rax         # 8-byte Reload
	shlq	$10, %rax
	addl	348(%rsi,%rax,4), %ecx
	movl	%ecx, 348(%rsi,%rax,4)
	movq	-88(%rbp), %rax         # 8-byte Reload
	shlq	$10, %rax
	movl	-92(%rbp), %ecx         # 4-byte Reload
	imull	352(%rdx,%rax,4), %ecx
	movq	-40(%rbp), %rax         # 8-byte Reload
	shlq	$10, %rax
	addl	352(%rsi,%rax,4), %ecx
	movl	%ecx, 352(%rsi,%rax,4)
	movq	-88(%rbp), %rax         # 8-byte Reload
	shlq	$10, %rax
	movl	-92(%rbp), %ecx         # 4-byte Reload
	imull	356(%rdx,%rax,4), %ecx
	movq	-40(%rbp), %rax         # 8-byte Reload
	shlq	$10, %rax
	addl	356(%rsi,%rax,4), %ecx
	movl	%ecx, 356(%rsi,%rax,4)
	movq	-88(%rbp), %rax         # 8-byte Reload
	shlq	$10, %rax
	movl	-92(%rbp), %ecx         # 4-byte Reload
	imull	360(%rdx,%rax,4), %ecx
	movq	-40(%rbp), %rax         # 8-byte Reload
	shlq	$10, %rax
	addl	360(%rsi,%rax,4), %ecx
	movl	%ecx, 360(%rsi,%rax,4)
	movq	-88(%rbp), %rax         # 8-byte Reload
	shlq	$10, %rax
	movl	-92(%rbp), %ecx         # 4-byte Reload
	imull	364(%rdx,%rax,4), %ecx
	movq	-40(%rbp), %rax         # 8-byte Reload
	shlq	$10, %rax
	addl	364(%rsi,%rax,4), %ecx
	movl	%ecx, 364(%rsi,%rax,4)
	movq	-88(%rbp), %rax         # 8-byte Reload
	shlq	$10, %rax
	movl	-92(%rbp), %ecx         # 4-byte Reload
	imull	368(%rdx,%rax,4), %ecx
	movq	-40(%rbp), %rax         # 8-byte Reload
	shlq	$10, %rax
	addl	368(%rsi,%rax,4), %ecx
	movl	%ecx, 368(%rsi,%rax,4)
	movq	-88(%rbp), %rax         # 8-byte Reload
	shlq	$10, %rax
	movl	-92(%rbp), %ecx         # 4-byte Reload
	imull	372(%rdx,%rax,4), %ecx
	movq	-40(%rbp), %rax         # 8-byte Reload
	shlq	$10, %rax
	addl	372(%rsi,%rax,4), %ecx
	movl	%ecx, 372(%rsi,%rax,4)
	movq	-88(%rbp), %rax         # 8-byte Reload
	shlq	$10, %rax
	movl	-92(%rbp), %ecx         # 4-byte Reload
	imull	376(%rdx,%rax,4), %ecx
	movq	-40(%rbp), %rax         # 8-byte Reload
	shlq	$10, %rax
	addl	376(%rsi,%rax,4), %ecx
	movl	%ecx, 376(%rsi,%rax,4)
	movq	-88(%rbp), %rax         # 8-byte Reload
	shlq	$10, %rax
	movl	-92(%rbp), %ecx         # 4-byte Reload
	imull	380(%rdx,%rax,4), %ecx
	movq	-40(%rbp), %rax         # 8-byte Reload
	shlq	$10, %rax
	addl	380(%rsi,%rax,4), %ecx
	movl	%ecx, 380(%rsi,%rax,4)
	movq	-88(%rbp), %rax         # 8-byte Reload
	shlq	$10, %rax
	movl	-92(%rbp), %ecx         # 4-byte Reload
	imull	384(%rdx,%rax,4), %ecx
	movq	-40(%rbp), %rax         # 8-byte Reload
	shlq	$10, %rax
	addl	384(%rsi,%rax,4), %ecx
	movl	%ecx, 384(%rsi,%rax,4)
	movq	-88(%rbp), %rax         # 8-byte Reload
	shlq	$10, %rax
	movl	-92(%rbp), %ecx         # 4-byte Reload
	imull	388(%rdx,%rax,4), %ecx
	movq	-40(%rbp), %rax         # 8-byte Reload
	shlq	$10, %rax
	addl	388(%rsi,%rax,4), %ecx
	movl	%ecx, 388(%rsi,%rax,4)
	movq	-88(%rbp), %rax         # 8-byte Reload
	shlq	$10, %rax
	movl	-92(%rbp), %ecx         # 4-byte Reload
	imull	392(%rdx,%rax,4), %ecx
	movq	-40(%rbp), %rax         # 8-byte Reload
	shlq	$10, %rax
	addl	392(%rsi,%rax,4), %ecx
	movl	%ecx, 392(%rsi,%rax,4)
	movq	-88(%rbp), %rax         # 8-byte Reload
	shlq	$10, %rax
	movl	-92(%rbp), %ecx         # 4-byte Reload
	imull	396(%rdx,%rax,4), %ecx
	movq	-40(%rbp), %rax         # 8-byte Reload
	shlq	$10, %rax
	addl	396(%rsi,%rax,4), %ecx
	movl	%ecx, 396(%rsi,%rax,4)
	movq	-88(%rbp), %rax         # 8-byte Reload
	shlq	$10, %rax
	movl	-92(%rbp), %ecx         # 4-byte Reload
	imull	400(%rdx,%rax,4), %ecx
	movq	-40(%rbp), %rax         # 8-byte Reload
	shlq	$10, %rax
	addl	400(%rsi,%rax,4), %ecx
	movl	%ecx, 400(%rsi,%rax,4)
	movq	-88(%rbp), %rax         # 8-byte Reload
	shlq	$10, %rax
	movl	-92(%rbp), %ecx         # 4-byte Reload
	imull	404(%rdx,%rax,4), %ecx
	movq	-40(%rbp), %rax         # 8-byte Reload
	shlq	$10, %rax
	addl	404(%rsi,%rax,4), %ecx
	movl	%ecx, 404(%rsi,%rax,4)
	movq	-88(%rbp), %rax         # 8-byte Reload
	shlq	$10, %rax
	movl	-92(%rbp), %ecx         # 4-byte Reload
	imull	408(%rdx,%rax,4), %ecx
	movq	-40(%rbp), %rax         # 8-byte Reload
	shlq	$10, %rax
	addl	408(%rsi,%rax,4), %ecx
	movl	%ecx, 408(%rsi,%rax,4)
	movq	-88(%rbp), %rax         # 8-byte Reload
	shlq	$10, %rax
	movl	-92(%rbp), %ecx         # 4-byte Reload
	imull	412(%rdx,%rax,4), %ecx
	movq	-40(%rbp), %rax         # 8-byte Reload
	shlq	$10, %rax
	addl	412(%rsi,%rax,4), %ecx
	movl	%ecx, 412(%rsi,%rax,4)
	movq	-88(%rbp), %rax         # 8-byte Reload
	shlq	$10, %rax
	movl	-92(%rbp), %ecx         # 4-byte Reload
	imull	416(%rdx,%rax,4), %ecx
	movq	-40(%rbp), %rax         # 8-byte Reload
	shlq	$10, %rax
	addl	416(%rsi,%rax,4), %ecx
	movl	%ecx, 416(%rsi,%rax,4)
	movq	-88(%rbp), %rax         # 8-byte Reload
	shlq	$10, %rax
	movl	-92(%rbp), %ecx         # 4-byte Reload
	imull	420(%rdx,%rax,4), %ecx
	movq	-40(%rbp), %rax         # 8-byte Reload
	shlq	$10, %rax
	addl	420(%rsi,%rax,4), %ecx
	movl	%ecx, 420(%rsi,%rax,4)
	movq	-88(%rbp), %rax         # 8-byte Reload
	shlq	$10, %rax
	movl	-92(%rbp), %ecx         # 4-byte Reload
	imull	424(%rdx,%rax,4), %ecx
	movq	-40(%rbp), %rax         # 8-byte Reload
	shlq	$10, %rax
	addl	424(%rsi,%rax,4), %ecx
	movl	%ecx, 424(%rsi,%rax,4)
	movq	-88(%rbp), %rax         # 8-byte Reload
	shlq	$10, %rax
	movl	-92(%rbp), %ecx         # 4-byte Reload
	imull	428(%rdx,%rax,4), %ecx
	movq	-40(%rbp), %rax         # 8-byte Reload
	shlq	$10, %rax
	addl	428(%rsi,%rax,4), %ecx
	movl	%ecx, 428(%rsi,%rax,4)
	movq	-88(%rbp), %rax         # 8-byte Reload
	shlq	$10, %rax
	movl	-92(%rbp), %ecx         # 4-byte Reload
	imull	432(%rdx,%rax,4), %ecx
	movq	-40(%rbp), %rax         # 8-byte Reload
	shlq	$10, %rax
	addl	432(%rsi,%rax,4), %ecx
	movl	%ecx, 432(%rsi,%rax,4)
	movq	-88(%rbp), %rax         # 8-byte Reload
	shlq	$10, %rax
	movl	-92(%rbp), %ecx         # 4-byte Reload
	imull	436(%rdx,%rax,4), %ecx
	movq	-40(%rbp), %rax         # 8-byte Reload
	shlq	$10, %rax
	addl	436(%rsi,%rax,4), %ecx
	movl	%ecx, 436(%rsi,%rax,4)
	movq	-88(%rbp), %rax         # 8-byte Reload
	shlq	$10, %rax
	movl	-92(%rbp), %ecx         # 4-byte Reload
	imull	440(%rdx,%rax,4), %ecx
	movq	-40(%rbp), %rax         # 8-byte Reload
	shlq	$10, %rax
	addl	440(%rsi,%rax,4), %ecx
	movl	%ecx, 440(%rsi,%rax,4)
	movq	-88(%rbp), %rax         # 8-byte Reload
	shlq	$10, %rax
	movl	-92(%rbp), %ecx         # 4-byte Reload
	imull	444(%rdx,%rax,4), %ecx
	movq	-40(%rbp), %rax         # 8-byte Reload
	shlq	$10, %rax
	addl	444(%rsi,%rax,4), %ecx
	movl	%ecx, 444(%rsi,%rax,4)
	movq	-88(%rbp), %rax         # 8-byte Reload
	shlq	$10, %rax
	movl	-92(%rbp), %ecx         # 4-byte Reload
	imull	448(%rdx,%rax,4), %ecx
	movq	-40(%rbp), %rax         # 8-byte Reload
	shlq	$10, %rax
	addl	448(%rsi,%rax,4), %ecx
	movl	%ecx, 448(%rsi,%rax,4)
	movq	-88(%rbp), %rax         # 8-byte Reload
	shlq	$10, %rax
	movl	-92(%rbp), %ecx         # 4-byte Reload
	imull	452(%rdx,%rax,4), %ecx
	movq	-40(%rbp), %rax         # 8-byte Reload
	shlq	$10, %rax
	addl	452(%rsi,%rax,4), %ecx
	movl	%ecx, 452(%rsi,%rax,4)
	movq	-88(%rbp), %rax         # 8-byte Reload
	shlq	$10, %rax
	movl	-92(%rbp), %ecx         # 4-byte Reload
	imull	456(%rdx,%rax,4), %ecx
	movq	-40(%rbp), %rax         # 8-byte Reload
	shlq	$10, %rax
	addl	456(%rsi,%rax,4), %ecx
	movl	%ecx, 456(%rsi,%rax,4)
	movq	-88(%rbp), %rax         # 8-byte Reload
	shlq	$10, %rax
	movl	-92(%rbp), %ecx         # 4-byte Reload
	imull	460(%rdx,%rax,4), %ecx
	movq	-40(%rbp), %rax         # 8-byte Reload
	shlq	$10, %rax
	addl	460(%rsi,%rax,4), %ecx
	movl	%ecx, 460(%rsi,%rax,4)
	movq	-88(%rbp), %rax         # 8-byte Reload
	shlq	$10, %rax
	movl	-92(%rbp), %ecx         # 4-byte Reload
	imull	464(%rdx,%rax,4), %ecx
	movq	-40(%rbp), %rax         # 8-byte Reload
	shlq	$10, %rax
	addl	464(%rsi,%rax,4), %ecx
	movl	%ecx, 464(%rsi,%rax,4)
	movq	-88(%rbp), %rax         # 8-byte Reload
	shlq	$10, %rax
	movl	-92(%rbp), %ecx         # 4-byte Reload
	imull	468(%rdx,%rax,4), %ecx
	movq	-40(%rbp), %rax         # 8-byte Reload
	shlq	$10, %rax
	addl	468(%rsi,%rax,4), %ecx
	movl	%ecx, 468(%rsi,%rax,4)
	movq	-88(%rbp), %rax         # 8-byte Reload
	shlq	$10, %rax
	movl	-92(%rbp), %ecx         # 4-byte Reload
	imull	472(%rdx,%rax,4), %ecx
	movq	-40(%rbp), %rax         # 8-byte Reload
	shlq	$10, %rax
	addl	472(%rsi,%rax,4), %ecx
	movl	%ecx, 472(%rsi,%rax,4)
	movq	-88(%rbp), %rax         # 8-byte Reload
	shlq	$10, %rax
	movl	-92(%rbp), %ecx         # 4-byte Reload
	imull	476(%rdx,%rax,4), %ecx
	movq	-40(%rbp), %rax         # 8-byte Reload
	shlq	$10, %rax
	addl	476(%rsi,%rax,4), %ecx
	movl	%ecx, 476(%rsi,%rax,4)
	movq	-88(%rbp), %rax         # 8-byte Reload
	shlq	$10, %rax
	movl	-92(%rbp), %ecx         # 4-byte Reload
	imull	480(%rdx,%rax,4), %ecx
	movq	-40(%rbp), %rax         # 8-byte Reload
	shlq	$10, %rax
	addl	480(%rsi,%rax,4), %ecx
	movl	%ecx, 480(%rsi,%rax,4)
	movq	-88(%rbp), %rax         # 8-byte Reload
	shlq	$10, %rax
	movl	-92(%rbp), %ecx         # 4-byte Reload
	imull	484(%rdx,%rax,4), %ecx
	movq	-40(%rbp), %rax         # 8-byte Reload
	shlq	$10, %rax
	addl	484(%rsi,%rax,4), %ecx
	movl	%ecx, 484(%rsi,%rax,4)
	movq	-88(%rbp), %rax         # 8-byte Reload
	shlq	$10, %rax
	movl	-92(%rbp), %ecx         # 4-byte Reload
	imull	488(%rdx,%rax,4), %ecx
	movq	-40(%rbp), %rax         # 8-byte Reload
	shlq	$10, %rax
	addl	488(%rsi,%rax,4), %ecx
	movl	%ecx, 488(%rsi,%rax,4)
	movq	-88(%rbp), %rax         # 8-byte Reload
	shlq	$10, %rax
	movl	-92(%rbp), %ecx         # 4-byte Reload
	imull	492(%rdx,%rax,4), %ecx
	movq	-40(%rbp), %rax         # 8-byte Reload
	shlq	$10, %rax
	addl	492(%rsi,%rax,4), %ecx
	movl	%ecx, 492(%rsi,%rax,4)
	movq	-88(%rbp), %rax         # 8-byte Reload
	shlq	$10, %rax
	movl	-92(%rbp), %ecx         # 4-byte Reload
	imull	496(%rdx,%rax,4), %ecx
	movq	-40(%rbp), %rax         # 8-byte Reload
	shlq	$10, %rax
	addl	496(%rsi,%rax,4), %ecx
	movl	%ecx, 496(%rsi,%rax,4)
	movq	-88(%rbp), %rax         # 8-byte Reload
	shlq	$10, %rax
	movl	-92(%rbp), %ecx         # 4-byte Reload
	imull	500(%rdx,%rax,4), %ecx
	movq	-40(%rbp), %rax         # 8-byte Reload
	shlq	$10, %rax
	addl	500(%rsi,%rax,4), %ecx
	movl	%ecx, 500(%rsi,%rax,4)
	movq	-88(%rbp), %rax         # 8-byte Reload
	shlq	$10, %rax
	movl	-92(%rbp), %ecx         # 4-byte Reload
	imull	504(%rdx,%rax,4), %ecx
	movq	-40(%rbp), %rax         # 8-byte Reload
	shlq	$10, %rax
	addl	504(%rsi,%rax,4), %ecx
	movl	%ecx, 504(%rsi,%rax,4)
	movq	-88(%rbp), %rax         # 8-byte Reload
	shlq	$10, %rax
	movl	-92(%rbp), %ecx         # 4-byte Reload
	imull	508(%rdx,%rax,4), %ecx
	movq	-40(%rbp), %rax         # 8-byte Reload
	shlq	$10, %rax
	addl	508(%rsi,%rax,4), %ecx
	movl	%ecx, 508(%rsi,%rax,4)
	movq	-88(%rbp), %rax         # 8-byte Reload
	shlq	$10, %rax
	movl	-92(%rbp), %ecx         # 4-byte Reload
	imull	512(%rdx,%rax,4), %ecx
	movq	-40(%rbp), %rax         # 8-byte Reload
	shlq	$10, %rax
	addl	512(%rsi,%rax,4), %ecx
	movl	%ecx, 512(%rsi,%rax,4)
	movq	-88(%rbp), %rax         # 8-byte Reload
	shlq	$10, %rax
	movl	-92(%rbp), %ecx         # 4-byte Reload
	imull	516(%rdx,%rax,4), %ecx
	movq	-40(%rbp), %rax         # 8-byte Reload
	shlq	$10, %rax
	addl	516(%rsi,%rax,4), %ecx
	movl	%ecx, 516(%rsi,%rax,4)
	movq	-88(%rbp), %rax         # 8-byte Reload
	shlq	$10, %rax
	movl	-92(%rbp), %ecx         # 4-byte Reload
	imull	520(%rdx,%rax,4), %ecx
	movq	-40(%rbp), %rax         # 8-byte Reload
	shlq	$10, %rax
	addl	520(%rsi,%rax,4), %ecx
	movl	%ecx, 520(%rsi,%rax,4)
	movq	-88(%rbp), %rax         # 8-byte Reload
	shlq	$10, %rax
	movl	-92(%rbp), %ecx         # 4-byte Reload
	imull	524(%rdx,%rax,4), %ecx
	movq	-40(%rbp), %rax         # 8-byte Reload
	shlq	$10, %rax
	addl	524(%rsi,%rax,4), %ecx
	movl	%ecx, 524(%rsi,%rax,4)
	movq	-88(%rbp), %rax         # 8-byte Reload
	shlq	$10, %rax
	movl	-92(%rbp), %ecx         # 4-byte Reload
	imull	528(%rdx,%rax,4), %ecx
	movq	-40(%rbp), %rax         # 8-byte Reload
	shlq	$10, %rax
	addl	528(%rsi,%rax,4), %ecx
	movl	%ecx, 528(%rsi,%rax,4)
	movq	-88(%rbp), %rax         # 8-byte Reload
	shlq	$10, %rax
	movl	-92(%rbp), %ecx         # 4-byte Reload
	imull	532(%rdx,%rax,4), %ecx
	movq	-40(%rbp), %rax         # 8-byte Reload
	shlq	$10, %rax
	addl	532(%rsi,%rax,4), %ecx
	movl	%ecx, 532(%rsi,%rax,4)
	movq	-88(%rbp), %rax         # 8-byte Reload
	shlq	$10, %rax
	movl	-92(%rbp), %ecx         # 4-byte Reload
	imull	536(%rdx,%rax,4), %ecx
	movq	-40(%rbp), %rax         # 8-byte Reload
	shlq	$10, %rax
	addl	536(%rsi,%rax,4), %ecx
	movl	%ecx, 536(%rsi,%rax,4)
	movq	-88(%rbp), %rax         # 8-byte Reload
	shlq	$10, %rax
	movl	-92(%rbp), %ecx         # 4-byte Reload
	imull	540(%rdx,%rax,4), %ecx
	movq	-40(%rbp), %rax         # 8-byte Reload
	shlq	$10, %rax
	addl	540(%rsi,%rax,4), %ecx
	movl	%ecx, 540(%rsi,%rax,4)
	movq	-88(%rbp), %rax         # 8-byte Reload
	shlq	$10, %rax
	movl	-92(%rbp), %ecx         # 4-byte Reload
	imull	544(%rdx,%rax,4), %ecx
	movq	-40(%rbp), %rax         # 8-byte Reload
	shlq	$10, %rax
	addl	544(%rsi,%rax,4), %ecx
	movl	%ecx, 544(%rsi,%rax,4)
	movq	-88(%rbp), %rax         # 8-byte Reload
	shlq	$10, %rax
	movl	-92(%rbp), %ecx         # 4-byte Reload
	imull	548(%rdx,%rax,4), %ecx
	movq	-40(%rbp), %rax         # 8-byte Reload
	shlq	$10, %rax
	addl	548(%rsi,%rax,4), %ecx
	movl	%ecx, 548(%rsi,%rax,4)
	movq	-88(%rbp), %rax         # 8-byte Reload
	shlq	$10, %rax
	movl	-92(%rbp), %ecx         # 4-byte Reload
	imull	552(%rdx,%rax,4), %ecx
	movq	-40(%rbp), %rax         # 8-byte Reload
	shlq	$10, %rax
	addl	552(%rsi,%rax,4), %ecx
	movl	%ecx, 552(%rsi,%rax,4)
	movq	-88(%rbp), %rax         # 8-byte Reload
	shlq	$10, %rax
	movl	-92(%rbp), %ecx         # 4-byte Reload
	imull	556(%rdx,%rax,4), %ecx
	movq	-40(%rbp), %rax         # 8-byte Reload
	shlq	$10, %rax
	addl	556(%rsi,%rax,4), %ecx
	movl	%ecx, 556(%rsi,%rax,4)
	movq	-88(%rbp), %rax         # 8-byte Reload
	shlq	$10, %rax
	movl	-92(%rbp), %ecx         # 4-byte Reload
	imull	560(%rdx,%rax,4), %ecx
	movq	-40(%rbp), %rax         # 8-byte Reload
	shlq	$10, %rax
	addl	560(%rsi,%rax,4), %ecx
	movl	%ecx, 560(%rsi,%rax,4)
	movq	-88(%rbp), %rax         # 8-byte Reload
	shlq	$10, %rax
	movl	-92(%rbp), %ecx         # 4-byte Reload
	imull	564(%rdx,%rax,4), %ecx
	movq	-40(%rbp), %rax         # 8-byte Reload
	shlq	$10, %rax
	addl	564(%rsi,%rax,4), %ecx
	movl	%ecx, 564(%rsi,%rax,4)
	movq	-88(%rbp), %rax         # 8-byte Reload
	shlq	$10, %rax
	movl	-92(%rbp), %ecx         # 4-byte Reload
	imull	568(%rdx,%rax,4), %ecx
	movq	-40(%rbp), %rax         # 8-byte Reload
	shlq	$10, %rax
	addl	568(%rsi,%rax,4), %ecx
	movl	%ecx, 568(%rsi,%rax,4)
	movq	-88(%rbp), %rax         # 8-byte Reload
	shlq	$10, %rax
	movl	-92(%rbp), %ecx         # 4-byte Reload
	imull	572(%rdx,%rax,4), %ecx
	movq	-40(%rbp), %rax         # 8-byte Reload
	shlq	$10, %rax
	addl	572(%rsi,%rax,4), %ecx
	movl	%ecx, 572(%rsi,%rax,4)
	movq	-88(%rbp), %rax         # 8-byte Reload
	shlq	$10, %rax
	movl	-92(%rbp), %ecx         # 4-byte Reload
	imull	576(%rdx,%rax,4), %ecx
	movq	-40(%rbp), %rax         # 8-byte Reload
	shlq	$10, %rax
	addl	576(%rsi,%rax,4), %ecx
	movl	%ecx, 576(%rsi,%rax,4)
	movq	-88(%rbp), %rax         # 8-byte Reload
	shlq	$10, %rax
	movl	-92(%rbp), %ecx         # 4-byte Reload
	imull	580(%rdx,%rax,4), %ecx
	movq	-40(%rbp), %rax         # 8-byte Reload
	shlq	$10, %rax
	addl	580(%rsi,%rax,4), %ecx
	movl	%ecx, 580(%rsi,%rax,4)
	movq	-88(%rbp), %rax         # 8-byte Reload
	shlq	$10, %rax
	movl	-92(%rbp), %ecx         # 4-byte Reload
	imull	584(%rdx,%rax,4), %ecx
	movq	-40(%rbp), %rax         # 8-byte Reload
	shlq	$10, %rax
	addl	584(%rsi,%rax,4), %ecx
	movl	%ecx, 584(%rsi,%rax,4)
	movq	-88(%rbp), %rax         # 8-byte Reload
	shlq	$10, %rax
	movl	-92(%rbp), %ecx         # 4-byte Reload
	imull	588(%rdx,%rax,4), %ecx
	movq	-40(%rbp), %rax         # 8-byte Reload
	shlq	$10, %rax
	addl	588(%rsi,%rax,4), %ecx
	movl	%ecx, 588(%rsi,%rax,4)
	movq	-88(%rbp), %rax         # 8-byte Reload
	shlq	$10, %rax
	movl	-92(%rbp), %ecx         # 4-byte Reload
	imull	592(%rdx,%rax,4), %ecx
	movq	-40(%rbp), %rax         # 8-byte Reload
	shlq	$10, %rax
	addl	592(%rsi,%rax,4), %ecx
	movl	%ecx, 592(%rsi,%rax,4)
	movq	-88(%rbp), %rax         # 8-byte Reload
	shlq	$10, %rax
	movl	-92(%rbp), %ecx         # 4-byte Reload
	imull	596(%rdx,%rax,4), %ecx
	movq	-40(%rbp), %rax         # 8-byte Reload
	shlq	$10, %rax
	addl	596(%rsi,%rax,4), %ecx
	movl	%ecx, 596(%rsi,%rax,4)
	movq	-88(%rbp), %rax         # 8-byte Reload
	shlq	$10, %rax
	movl	-92(%rbp), %ecx         # 4-byte Reload
	imull	600(%rdx,%rax,4), %ecx
	movq	-40(%rbp), %rax         # 8-byte Reload
	shlq	$10, %rax
	addl	600(%rsi,%rax,4), %ecx
	movl	%ecx, 600(%rsi,%rax,4)
	movq	-88(%rbp), %rax         # 8-byte Reload
	shlq	$10, %rax
	movl	-92(%rbp), %ecx         # 4-byte Reload
	imull	604(%rdx,%rax,4), %ecx
	movq	-40(%rbp), %rax         # 8-byte Reload
	shlq	$10, %rax
	addl	604(%rsi,%rax,4), %ecx
	movl	%ecx, 604(%rsi,%rax,4)
	movq	-88(%rbp), %rax         # 8-byte Reload
	shlq	$10, %rax
	movl	-92(%rbp), %ecx         # 4-byte Reload
	imull	608(%rdx,%rax,4), %ecx
	movq	-40(%rbp), %rax         # 8-byte Reload
	shlq	$10, %rax
	addl	608(%rsi,%rax,4), %ecx
	movl	%ecx, 608(%rsi,%rax,4)
	movq	-88(%rbp), %rax         # 8-byte Reload
	shlq	$10, %rax
	movl	-92(%rbp), %ecx         # 4-byte Reload
	imull	612(%rdx,%rax,4), %ecx
	movq	-40(%rbp), %rax         # 8-byte Reload
	shlq	$10, %rax
	addl	612(%rsi,%rax,4), %ecx
	movl	%ecx, 612(%rsi,%rax,4)
	movq	-88(%rbp), %rax         # 8-byte Reload
	shlq	$10, %rax
	movl	-92(%rbp), %ecx         # 4-byte Reload
	imull	616(%rdx,%rax,4), %ecx
	movq	-40(%rbp), %rax         # 8-byte Reload
	shlq	$10, %rax
	addl	616(%rsi,%rax,4), %ecx
	movl	%ecx, 616(%rsi,%rax,4)
	movq	-88(%rbp), %rax         # 8-byte Reload
	shlq	$10, %rax
	movl	-92(%rbp), %ecx         # 4-byte Reload
	imull	620(%rdx,%rax,4), %ecx
	movq	-40(%rbp), %rax         # 8-byte Reload
	shlq	$10, %rax
	addl	620(%rsi,%rax,4), %ecx
	movl	%ecx, 620(%rsi,%rax,4)
	movq	-88(%rbp), %rax         # 8-byte Reload
	shlq	$10, %rax
	movl	-92(%rbp), %ecx         # 4-byte Reload
	imull	624(%rdx,%rax,4), %ecx
	movq	-40(%rbp), %rax         # 8-byte Reload
	shlq	$10, %rax
	addl	624(%rsi,%rax,4), %ecx
	movl	%ecx, 624(%rsi,%rax,4)
	movq	-88(%rbp), %rax         # 8-byte Reload
	shlq	$10, %rax
	movl	-92(%rbp), %ecx         # 4-byte Reload
	imull	628(%rdx,%rax,4), %ecx
	movq	-40(%rbp), %rax         # 8-byte Reload
	shlq	$10, %rax
	addl	628(%rsi,%rax,4), %ecx
	movl	%ecx, 628(%rsi,%rax,4)
	movq	-88(%rbp), %rax         # 8-byte Reload
	shlq	$10, %rax
	movl	-92(%rbp), %ecx         # 4-byte Reload
	imull	632(%rdx,%rax,4), %ecx
	movq	-40(%rbp), %rax         # 8-byte Reload
	shlq	$10, %rax
	addl	632(%rsi,%rax,4), %ecx
	movl	%ecx, 632(%rsi,%rax,4)
	movq	-88(%rbp), %rax         # 8-byte Reload
	shlq	$10, %rax
	movl	-92(%rbp), %ecx         # 4-byte Reload
	imull	636(%rdx,%rax,4), %ecx
	movq	-40(%rbp), %rax         # 8-byte Reload
	shlq	$10, %rax
	addl	636(%rsi,%rax,4), %ecx
	movl	%ecx, 636(%rsi,%rax,4)
	movq	-88(%rbp), %rax         # 8-byte Reload
	shlq	$10, %rax
	movl	-92(%rbp), %ecx         # 4-byte Reload
	imull	640(%rdx,%rax,4), %ecx
	movq	-40(%rbp), %rax         # 8-byte Reload
	shlq	$10, %rax
	addl	640(%rsi,%rax,4), %ecx
	movl	%ecx, 640(%rsi,%rax,4)
	movq	-88(%rbp), %rax         # 8-byte Reload
	shlq	$10, %rax
	movl	-92(%rbp), %ecx         # 4-byte Reload
	imull	644(%rdx,%rax,4), %ecx
	movq	-40(%rbp), %rax         # 8-byte Reload
	shlq	$10, %rax
	addl	644(%rsi,%rax,4), %ecx
	movl	%ecx, 644(%rsi,%rax,4)
	movq	-88(%rbp), %rax         # 8-byte Reload
	shlq	$10, %rax
	movl	-92(%rbp), %ecx         # 4-byte Reload
	imull	648(%rdx,%rax,4), %ecx
	movq	-40(%rbp), %rax         # 8-byte Reload
	shlq	$10, %rax
	addl	648(%rsi,%rax,4), %ecx
	movl	%ecx, 648(%rsi,%rax,4)
	movq	-88(%rbp), %rax         # 8-byte Reload
	shlq	$10, %rax
	movl	-92(%rbp), %ecx         # 4-byte Reload
	imull	652(%rdx,%rax,4), %ecx
	movq	-40(%rbp), %rax         # 8-byte Reload
	shlq	$10, %rax
	addl	652(%rsi,%rax,4), %ecx
	movl	%ecx, 652(%rsi,%rax,4)
	movq	-88(%rbp), %rax         # 8-byte Reload
	shlq	$10, %rax
	movl	-92(%rbp), %ecx         # 4-byte Reload
	imull	656(%rdx,%rax,4), %ecx
	movq	-40(%rbp), %rax         # 8-byte Reload
	shlq	$10, %rax
	addl	656(%rsi,%rax,4), %ecx
	movl	%ecx, 656(%rsi,%rax,4)
	movq	-88(%rbp), %rax         # 8-byte Reload
	shlq	$10, %rax
	movl	-92(%rbp), %ecx         # 4-byte Reload
	imull	660(%rdx,%rax,4), %ecx
	movq	-40(%rbp), %rax         # 8-byte Reload
	shlq	$10, %rax
	addl	660(%rsi,%rax,4), %ecx
	movl	%ecx, 660(%rsi,%rax,4)
	movq	-88(%rbp), %rax         # 8-byte Reload
	shlq	$10, %rax
	movl	-92(%rbp), %ecx         # 4-byte Reload
	imull	664(%rdx,%rax,4), %ecx
	movq	-40(%rbp), %rax         # 8-byte Reload
	shlq	$10, %rax
	addl	664(%rsi,%rax,4), %ecx
	movl	%ecx, 664(%rsi,%rax,4)
	movq	-88(%rbp), %rax         # 8-byte Reload
	shlq	$10, %rax
	movl	-92(%rbp), %ecx         # 4-byte Reload
	imull	668(%rdx,%rax,4), %ecx
	movq	-40(%rbp), %rax         # 8-byte Reload
	shlq	$10, %rax
	addl	668(%rsi,%rax,4), %ecx
	movl	%ecx, 668(%rsi,%rax,4)
	movq	-88(%rbp), %rax         # 8-byte Reload
	shlq	$10, %rax
	movl	-92(%rbp), %ecx         # 4-byte Reload
	imull	672(%rdx,%rax,4), %ecx
	movq	-40(%rbp), %rax         # 8-byte Reload
	shlq	$10, %rax
	addl	672(%rsi,%rax,4), %ecx
	movl	%ecx, 672(%rsi,%rax,4)
	movq	-88(%rbp), %rax         # 8-byte Reload
	shlq	$10, %rax
	movl	-92(%rbp), %ecx         # 4-byte Reload
	imull	676(%rdx,%rax,4), %ecx
	movq	-40(%rbp), %rax         # 8-byte Reload
	shlq	$10, %rax
	addl	676(%rsi,%rax,4), %ecx
	movl	%ecx, 676(%rsi,%rax,4)
	movq	-88(%rbp), %rax         # 8-byte Reload
	shlq	$10, %rax
	movl	-92(%rbp), %ecx         # 4-byte Reload
	imull	680(%rdx,%rax,4), %ecx
	movq	-40(%rbp), %rax         # 8-byte Reload
	shlq	$10, %rax
	addl	680(%rsi,%rax,4), %ecx
	movl	%ecx, 680(%rsi,%rax,4)
	movq	-88(%rbp), %rax         # 8-byte Reload
	shlq	$10, %rax
	movl	-92(%rbp), %ecx         # 4-byte Reload
	imull	684(%rdx,%rax,4), %ecx
	movq	-40(%rbp), %rax         # 8-byte Reload
	shlq	$10, %rax
	addl	684(%rsi,%rax,4), %ecx
	movl	%ecx, 684(%rsi,%rax,4)
	movq	-88(%rbp), %rax         # 8-byte Reload
	shlq	$10, %rax
	movl	-92(%rbp), %ecx         # 4-byte Reload
	imull	688(%rdx,%rax,4), %ecx
	movq	-40(%rbp), %rax         # 8-byte Reload
	shlq	$10, %rax
	addl	688(%rsi,%rax,4), %ecx
	movl	%ecx, 688(%rsi,%rax,4)
	movq	-88(%rbp), %rax         # 8-byte Reload
	shlq	$10, %rax
	movl	-92(%rbp), %ecx         # 4-byte Reload
	imull	692(%rdx,%rax,4), %ecx
	movq	-40(%rbp), %rax         # 8-byte Reload
	shlq	$10, %rax
	addl	692(%rsi,%rax,4), %ecx
	movl	%ecx, 692(%rsi,%rax,4)
	movq	-88(%rbp), %rax         # 8-byte Reload
	shlq	$10, %rax
	movl	-92(%rbp), %ecx         # 4-byte Reload
	imull	696(%rdx,%rax,4), %ecx
	movq	-40(%rbp), %rax         # 8-byte Reload
	shlq	$10, %rax
	addl	696(%rsi,%rax,4), %ecx
	movl	%ecx, 696(%rsi,%rax,4)
	movq	-88(%rbp), %rax         # 8-byte Reload
	shlq	$10, %rax
	movl	-92(%rbp), %ecx         # 4-byte Reload
	imull	700(%rdx,%rax,4), %ecx
	movq	-40(%rbp), %rax         # 8-byte Reload
	shlq	$10, %rax
	addl	700(%rsi,%rax,4), %ecx
	movl	%ecx, 700(%rsi,%rax,4)
	movq	-88(%rbp), %rax         # 8-byte Reload
	shlq	$10, %rax
	movl	-92(%rbp), %ecx         # 4-byte Reload
	imull	704(%rdx,%rax,4), %ecx
	movq	-40(%rbp), %rax         # 8-byte Reload
	shlq	$10, %rax
	addl	704(%rsi,%rax,4), %ecx
	movl	%ecx, 704(%rsi,%rax,4)
	movq	-88(%rbp), %rax         # 8-byte Reload
	shlq	$10, %rax
	movl	-92(%rbp), %ecx         # 4-byte Reload
	imull	708(%rdx,%rax,4), %ecx
	movq	-40(%rbp), %rax         # 8-byte Reload
	shlq	$10, %rax
	addl	708(%rsi,%rax,4), %ecx
	movl	%ecx, 708(%rsi,%rax,4)
	movq	-88(%rbp), %rax         # 8-byte Reload
	shlq	$10, %rax
	movl	-92(%rbp), %ecx         # 4-byte Reload
	imull	712(%rdx,%rax,4), %ecx
	movq	-40(%rbp), %rax         # 8-byte Reload
	shlq	$10, %rax
	addl	712(%rsi,%rax,4), %ecx
	movl	%ecx, 712(%rsi,%rax,4)
	movq	-88(%rbp), %rax         # 8-byte Reload
	shlq	$10, %rax
	movl	-92(%rbp), %ecx         # 4-byte Reload
	imull	716(%rdx,%rax,4), %ecx
	movq	-40(%rbp), %rax         # 8-byte Reload
	shlq	$10, %rax
	addl	716(%rsi,%rax,4), %ecx
	movl	%ecx, 716(%rsi,%rax,4)
	movq	-88(%rbp), %rax         # 8-byte Reload
	shlq	$10, %rax
	movl	-92(%rbp), %ecx         # 4-byte Reload
	imull	720(%rdx,%rax,4), %ecx
	movq	-40(%rbp), %rax         # 8-byte Reload
	shlq	$10, %rax
	addl	720(%rsi,%rax,4), %ecx
	movl	%ecx, 720(%rsi,%rax,4)
	movq	-88(%rbp), %rax         # 8-byte Reload
	shlq	$10, %rax
	movl	-92(%rbp), %ecx         # 4-byte Reload
	imull	724(%rdx,%rax,4), %ecx
	movq	-40(%rbp), %rax         # 8-byte Reload
	shlq	$10, %rax
	addl	724(%rsi,%rax,4), %ecx
	movl	%ecx, 724(%rsi,%rax,4)
	movq	-88(%rbp), %rax         # 8-byte Reload
	shlq	$10, %rax
	movl	-92(%rbp), %ecx         # 4-byte Reload
	imull	728(%rdx,%rax,4), %ecx
	movq	-40(%rbp), %rax         # 8-byte Reload
	shlq	$10, %rax
	addl	728(%rsi,%rax,4), %ecx
	movl	%ecx, 728(%rsi,%rax,4)
	movq	-88(%rbp), %rax         # 8-byte Reload
	shlq	$10, %rax
	movl	-92(%rbp), %ecx         # 4-byte Reload
	imull	732(%rdx,%rax,4), %ecx
	movq	-40(%rbp), %rax         # 8-byte Reload
	shlq	$10, %rax
	addl	732(%rsi,%rax,4), %ecx
	movl	%ecx, 732(%rsi,%rax,4)
	movq	-88(%rbp), %rax         # 8-byte Reload
	shlq	$10, %rax
	movl	-92(%rbp), %ecx         # 4-byte Reload
	imull	736(%rdx,%rax,4), %ecx
	movq	-40(%rbp), %rax         # 8-byte Reload
	shlq	$10, %rax
	addl	736(%rsi,%rax,4), %ecx
	movl	%ecx, 736(%rsi,%rax,4)
	movq	-88(%rbp), %rax         # 8-byte Reload
	shlq	$10, %rax
	movl	-92(%rbp), %ecx         # 4-byte Reload
	imull	740(%rdx,%rax,4), %ecx
	movq	-40(%rbp), %rax         # 8-byte Reload
	shlq	$10, %rax
	addl	740(%rsi,%rax,4), %ecx
	movl	%ecx, 740(%rsi,%rax,4)
	movq	-88(%rbp), %rax         # 8-byte Reload
	shlq	$10, %rax
	movl	-92(%rbp), %ecx         # 4-byte Reload
	imull	744(%rdx,%rax,4), %ecx
	movq	-40(%rbp), %rax         # 8-byte Reload
	shlq	$10, %rax
	addl	744(%rsi,%rax,4), %ecx
	movl	%ecx, 744(%rsi,%rax,4)
	movq	-88(%rbp), %rax         # 8-byte Reload
	shlq	$10, %rax
	movl	-92(%rbp), %ecx         # 4-byte Reload
	imull	748(%rdx,%rax,4), %ecx
	movq	-40(%rbp), %rax         # 8-byte Reload
	shlq	$10, %rax
	addl	748(%rsi,%rax,4), %ecx
	movl	%ecx, 748(%rsi,%rax,4)
	movq	-88(%rbp), %rax         # 8-byte Reload
	shlq	$10, %rax
	movl	-92(%rbp), %ecx         # 4-byte Reload
	imull	752(%rdx,%rax,4), %ecx
	movq	-40(%rbp), %rax         # 8-byte Reload
	shlq	$10, %rax
	addl	752(%rsi,%rax,4), %ecx
	movl	%ecx, 752(%rsi,%rax,4)
	movq	-88(%rbp), %rax         # 8-byte Reload
	shlq	$10, %rax
	movl	-92(%rbp), %ecx         # 4-byte Reload
	imull	756(%rdx,%rax,4), %ecx
	movq	-40(%rbp), %rax         # 8-byte Reload
	shlq	$10, %rax
	addl	756(%rsi,%rax,4), %ecx
	movl	%ecx, 756(%rsi,%rax,4)
	movq	-88(%rbp), %rax         # 8-byte Reload
	shlq	$10, %rax
	movl	-92(%rbp), %ecx         # 4-byte Reload
	imull	760(%rdx,%rax,4), %ecx
	movq	-40(%rbp), %rax         # 8-byte Reload
	shlq	$10, %rax
	addl	760(%rsi,%rax,4), %ecx
	movl	%ecx, 760(%rsi,%rax,4)
	movq	-88(%rbp), %rax         # 8-byte Reload
	shlq	$10, %rax
	movl	-92(%rbp), %ecx         # 4-byte Reload
	imull	764(%rdx,%rax,4), %ecx
	movq	-40(%rbp), %rax         # 8-byte Reload
	shlq	$10, %rax
	addl	764(%rsi,%rax,4), %ecx
	movl	%ecx, 764(%rsi,%rax,4)
	movq	-88(%rbp), %rax         # 8-byte Reload
	shlq	$10, %rax
	movl	-92(%rbp), %ecx         # 4-byte Reload
	imull	768(%rdx,%rax,4), %ecx
	movq	-40(%rbp), %rax         # 8-byte Reload
	shlq	$10, %rax
	addl	768(%rsi,%rax,4), %ecx
	movl	%ecx, 768(%rsi,%rax,4)
	movq	-88(%rbp), %rax         # 8-byte Reload
	shlq	$10, %rax
	movl	-92(%rbp), %ecx         # 4-byte Reload
	imull	772(%rdx,%rax,4), %ecx
	movq	-40(%rbp), %rax         # 8-byte Reload
	shlq	$10, %rax
	addl	772(%rsi,%rax,4), %ecx
	movl	%ecx, 772(%rsi,%rax,4)
	movq	-88(%rbp), %rax         # 8-byte Reload
	shlq	$10, %rax
	movl	-92(%rbp), %ecx         # 4-byte Reload
	imull	776(%rdx,%rax,4), %ecx
	movq	-40(%rbp), %rax         # 8-byte Reload
	shlq	$10, %rax
	addl	776(%rsi,%rax,4), %ecx
	movl	%ecx, 776(%rsi,%rax,4)
	movq	-88(%rbp), %rax         # 8-byte Reload
	shlq	$10, %rax
	movl	-92(%rbp), %ecx         # 4-byte Reload
	imull	780(%rdx,%rax,4), %ecx
	movq	-40(%rbp), %rax         # 8-byte Reload
	shlq	$10, %rax
	addl	780(%rsi,%rax,4), %ecx
	movl	%ecx, 780(%rsi,%rax,4)
	movq	-88(%rbp), %rax         # 8-byte Reload
	shlq	$10, %rax
	movl	-92(%rbp), %ecx         # 4-byte Reload
	imull	784(%rdx,%rax,4), %ecx
	movq	-40(%rbp), %rax         # 8-byte Reload
	shlq	$10, %rax
	addl	784(%rsi,%rax,4), %ecx
	movl	%ecx, 784(%rsi,%rax,4)
	movq	-88(%rbp), %rax         # 8-byte Reload
	shlq	$10, %rax
	movl	-92(%rbp), %ecx         # 4-byte Reload
	imull	788(%rdx,%rax,4), %ecx
	movq	-40(%rbp), %rax         # 8-byte Reload
	shlq	$10, %rax
	addl	788(%rsi,%rax,4), %ecx
	movl	%ecx, 788(%rsi,%rax,4)
	movq	-88(%rbp), %rax         # 8-byte Reload
	shlq	$10, %rax
	movl	-92(%rbp), %ecx         # 4-byte Reload
	imull	792(%rdx,%rax,4), %ecx
	movq	-40(%rbp), %rax         # 8-byte Reload
	shlq	$10, %rax
	addl	792(%rsi,%rax,4), %ecx
	movl	%ecx, 792(%rsi,%rax,4)
	movq	-88(%rbp), %rax         # 8-byte Reload
	shlq	$10, %rax
	movl	-92(%rbp), %ecx         # 4-byte Reload
	imull	796(%rdx,%rax,4), %ecx
	movq	-40(%rbp), %rax         # 8-byte Reload
	shlq	$10, %rax
	addl	796(%rsi,%rax,4), %ecx
	movl	%ecx, 796(%rsi,%rax,4)
	movq	-88(%rbp), %rax         # 8-byte Reload
	shlq	$10, %rax
	movl	-92(%rbp), %ecx         # 4-byte Reload
	imull	800(%rdx,%rax,4), %ecx
	movq	-40(%rbp), %rax         # 8-byte Reload
	shlq	$10, %rax
	addl	800(%rsi,%rax,4), %ecx
	movl	%ecx, 800(%rsi,%rax,4)
	movq	-88(%rbp), %rax         # 8-byte Reload
	shlq	$10, %rax
	movl	-92(%rbp), %ecx         # 4-byte Reload
	imull	804(%rdx,%rax,4), %ecx
	movq	-40(%rbp), %rax         # 8-byte Reload
	shlq	$10, %rax
	addl	804(%rsi,%rax,4), %ecx
	movl	%ecx, 804(%rsi,%rax,4)
	movq	-88(%rbp), %rax         # 8-byte Reload
	shlq	$10, %rax
	movl	-92(%rbp), %ecx         # 4-byte Reload
	imull	808(%rdx,%rax,4), %ecx
	movq	-40(%rbp), %rax         # 8-byte Reload
	shlq	$10, %rax
	addl	808(%rsi,%rax,4), %ecx
	movl	%ecx, 808(%rsi,%rax,4)
	movq	-88(%rbp), %rax         # 8-byte Reload
	shlq	$10, %rax
	movl	-92(%rbp), %ecx         # 4-byte Reload
	imull	812(%rdx,%rax,4), %ecx
	movq	-40(%rbp), %rax         # 8-byte Reload
	shlq	$10, %rax
	addl	812(%rsi,%rax,4), %ecx
	movl	%ecx, 812(%rsi,%rax,4)
	movq	-88(%rbp), %rax         # 8-byte Reload
	shlq	$10, %rax
	movl	-92(%rbp), %ecx         # 4-byte Reload
	imull	816(%rdx,%rax,4), %ecx
	movq	-40(%rbp), %rax         # 8-byte Reload
	shlq	$10, %rax
	addl	816(%rsi,%rax,4), %ecx
	movl	%ecx, 816(%rsi,%rax,4)
	movq	-88(%rbp), %rax         # 8-byte Reload
	shlq	$10, %rax
	movl	-92(%rbp), %ecx         # 4-byte Reload
	imull	820(%rdx,%rax,4), %ecx
	movq	-40(%rbp), %rax         # 8-byte Reload
	shlq	$10, %rax
	addl	820(%rsi,%rax,4), %ecx
	movl	%ecx, 820(%rsi,%rax,4)
	movq	-88(%rbp), %rax         # 8-byte Reload
	shlq	$10, %rax
	movl	-92(%rbp), %ecx         # 4-byte Reload
	imull	824(%rdx,%rax,4), %ecx
	movq	-40(%rbp), %rax         # 8-byte Reload
	shlq	$10, %rax
	addl	824(%rsi,%rax,4), %ecx
	movl	%ecx, 824(%rsi,%rax,4)
	movq	-88(%rbp), %rax         # 8-byte Reload
	shlq	$10, %rax
	movl	-92(%rbp), %ecx         # 4-byte Reload
	imull	828(%rdx,%rax,4), %ecx
	movq	-40(%rbp), %rax         # 8-byte Reload
	shlq	$10, %rax
	addl	828(%rsi,%rax,4), %ecx
	movl	%ecx, 828(%rsi,%rax,4)
	movq	-88(%rbp), %rax         # 8-byte Reload
	shlq	$10, %rax
	movl	-92(%rbp), %ecx         # 4-byte Reload
	imull	832(%rdx,%rax,4), %ecx
	movq	-40(%rbp), %rax         # 8-byte Reload
	shlq	$10, %rax
	addl	832(%rsi,%rax,4), %ecx
	movl	%ecx, 832(%rsi,%rax,4)
	movq	-88(%rbp), %rax         # 8-byte Reload
	shlq	$10, %rax
	movl	-92(%rbp), %ecx         # 4-byte Reload
	imull	836(%rdx,%rax,4), %ecx
	movq	-40(%rbp), %rax         # 8-byte Reload
	shlq	$10, %rax
	addl	836(%rsi,%rax,4), %ecx
	movl	%ecx, 836(%rsi,%rax,4)
	movq	-88(%rbp), %rax         # 8-byte Reload
	shlq	$10, %rax
	movl	-92(%rbp), %ecx         # 4-byte Reload
	imull	840(%rdx,%rax,4), %ecx
	movq	-40(%rbp), %rax         # 8-byte Reload
	shlq	$10, %rax
	addl	840(%rsi,%rax,4), %ecx
	movl	%ecx, 840(%rsi,%rax,4)
	movq	-88(%rbp), %rax         # 8-byte Reload
	shlq	$10, %rax
	movl	-92(%rbp), %ecx         # 4-byte Reload
	imull	844(%rdx,%rax,4), %ecx
	movq	-40(%rbp), %rax         # 8-byte Reload
	shlq	$10, %rax
	addl	844(%rsi,%rax,4), %ecx
	movl	%ecx, 844(%rsi,%rax,4)
	movq	-88(%rbp), %rax         # 8-byte Reload
	shlq	$10, %rax
	movl	-92(%rbp), %ecx         # 4-byte Reload
	imull	848(%rdx,%rax,4), %ecx
	movq	-40(%rbp), %rax         # 8-byte Reload
	shlq	$10, %rax
	addl	848(%rsi,%rax,4), %ecx
	movl	%ecx, 848(%rsi,%rax,4)
	movq	-88(%rbp), %rax         # 8-byte Reload
	shlq	$10, %rax
	movl	-92(%rbp), %ecx         # 4-byte Reload
	imull	852(%rdx,%rax,4), %ecx
	movq	-40(%rbp), %rax         # 8-byte Reload
	shlq	$10, %rax
	addl	852(%rsi,%rax,4), %ecx
	movl	%ecx, 852(%rsi,%rax,4)
	movq	-88(%rbp), %rax         # 8-byte Reload
	shlq	$10, %rax
	movl	-92(%rbp), %ecx         # 4-byte Reload
	imull	856(%rdx,%rax,4), %ecx
	movq	-40(%rbp), %rax         # 8-byte Reload
	shlq	$10, %rax
	addl	856(%rsi,%rax,4), %ecx
	movl	%ecx, 856(%rsi,%rax,4)
	movq	-88(%rbp), %rax         # 8-byte Reload
	shlq	$10, %rax
	movl	-92(%rbp), %ecx         # 4-byte Reload
	imull	860(%rdx,%rax,4), %ecx
	movq	-40(%rbp), %rax         # 8-byte Reload
	shlq	$10, %rax
	addl	860(%rsi,%rax,4), %ecx
	movl	%ecx, 860(%rsi,%rax,4)
	movq	-88(%rbp), %rax         # 8-byte Reload
	shlq	$10, %rax
	movl	-92(%rbp), %ecx         # 4-byte Reload
	imull	864(%rdx,%rax,4), %ecx
	movq	-40(%rbp), %rax         # 8-byte Reload
	shlq	$10, %rax
	addl	864(%rsi,%rax,4), %ecx
	movl	%ecx, 864(%rsi,%rax,4)
	movq	-88(%rbp), %rax         # 8-byte Reload
	shlq	$10, %rax
	movl	-92(%rbp), %ecx         # 4-byte Reload
	imull	868(%rdx,%rax,4), %ecx
	movq	-40(%rbp), %rax         # 8-byte Reload
	shlq	$10, %rax
	addl	868(%rsi,%rax,4), %ecx
	movl	%ecx, 868(%rsi,%rax,4)
	movq	-88(%rbp), %rax         # 8-byte Reload
	shlq	$10, %rax
	movl	-92(%rbp), %ecx         # 4-byte Reload
	imull	872(%rdx,%rax,4), %ecx
	movq	-40(%rbp), %rax         # 8-byte Reload
	shlq	$10, %rax
	addl	872(%rsi,%rax,4), %ecx
	movl	%ecx, 872(%rsi,%rax,4)
	movq	-88(%rbp), %rax         # 8-byte Reload
	shlq	$10, %rax
	movl	-92(%rbp), %ecx         # 4-byte Reload
	imull	876(%rdx,%rax,4), %ecx
	movq	-40(%rbp), %rax         # 8-byte Reload
	shlq	$10, %rax
	addl	876(%rsi,%rax,4), %ecx
	movl	%ecx, 876(%rsi,%rax,4)
	movq	-88(%rbp), %rax         # 8-byte Reload
	shlq	$10, %rax
	movl	-92(%rbp), %ecx         # 4-byte Reload
	imull	880(%rdx,%rax,4), %ecx
	movq	-40(%rbp), %rax         # 8-byte Reload
	shlq	$10, %rax
	addl	880(%rsi,%rax,4), %ecx
	movl	%ecx, 880(%rsi,%rax,4)
	movq	-88(%rbp), %rax         # 8-byte Reload
	shlq	$10, %rax
	movl	-92(%rbp), %ecx         # 4-byte Reload
	imull	884(%rdx,%rax,4), %ecx
	movq	-40(%rbp), %rax         # 8-byte Reload
	shlq	$10, %rax
	addl	884(%rsi,%rax,4), %ecx
	movl	%ecx, 884(%rsi,%rax,4)
	movq	-88(%rbp), %rax         # 8-byte Reload
	shlq	$10, %rax
	movl	-92(%rbp), %ecx         # 4-byte Reload
	imull	888(%rdx,%rax,4), %ecx
	movq	-40(%rbp), %rax         # 8-byte Reload
	shlq	$10, %rax
	addl	888(%rsi,%rax,4), %ecx
	movl	%ecx, 888(%rsi,%rax,4)
	movq	-88(%rbp), %rax         # 8-byte Reload
	shlq	$10, %rax
	movl	-92(%rbp), %ecx         # 4-byte Reload
	imull	892(%rdx,%rax,4), %ecx
	movq	-40(%rbp), %rax         # 8-byte Reload
	shlq	$10, %rax
	addl	892(%rsi,%rax,4), %ecx
	movl	%ecx, 892(%rsi,%rax,4)
	movq	-88(%rbp), %rax         # 8-byte Reload
	shlq	$10, %rax
	movl	-92(%rbp), %ecx         # 4-byte Reload
	imull	896(%rdx,%rax,4), %ecx
	movq	-40(%rbp), %rax         # 8-byte Reload
	shlq	$10, %rax
	addl	896(%rsi,%rax,4), %ecx
	movl	%ecx, 896(%rsi,%rax,4)
	movq	-88(%rbp), %rax         # 8-byte Reload
	shlq	$10, %rax
	movl	-92(%rbp), %ecx         # 4-byte Reload
	imull	900(%rdx,%rax,4), %ecx
	movq	-40(%rbp), %rax         # 8-byte Reload
	shlq	$10, %rax
	addl	900(%rsi,%rax,4), %ecx
	movl	%ecx, 900(%rsi,%rax,4)
	movq	-88(%rbp), %rax         # 8-byte Reload
	shlq	$10, %rax
	movl	-92(%rbp), %ecx         # 4-byte Reload
	imull	904(%rdx,%rax,4), %ecx
	movq	-40(%rbp), %rax         # 8-byte Reload
	shlq	$10, %rax
	addl	904(%rsi,%rax,4), %ecx
	movl	%ecx, 904(%rsi,%rax,4)
	movq	-88(%rbp), %rax         # 8-byte Reload
	shlq	$10, %rax
	movl	-92(%rbp), %ecx         # 4-byte Reload
	imull	908(%rdx,%rax,4), %ecx
	movq	-40(%rbp), %rax         # 8-byte Reload
	shlq	$10, %rax
	addl	908(%rsi,%rax,4), %ecx
	movl	%ecx, 908(%rsi,%rax,4)
	movq	-88(%rbp), %rax         # 8-byte Reload
	shlq	$10, %rax
	movl	-92(%rbp), %ecx         # 4-byte Reload
	imull	912(%rdx,%rax,4), %ecx
	movq	-40(%rbp), %rax         # 8-byte Reload
	shlq	$10, %rax
	addl	912(%rsi,%rax,4), %ecx
	movl	%ecx, 912(%rsi,%rax,4)
	movq	-88(%rbp), %rax         # 8-byte Reload
	shlq	$10, %rax
	movl	-92(%rbp), %ecx         # 4-byte Reload
	imull	916(%rdx,%rax,4), %ecx
	movq	-40(%rbp), %rax         # 8-byte Reload
	shlq	$10, %rax
	addl	916(%rsi,%rax,4), %ecx
	movl	%ecx, 916(%rsi,%rax,4)
	movq	-88(%rbp), %rax         # 8-byte Reload
	shlq	$10, %rax
	movl	-92(%rbp), %ecx         # 4-byte Reload
	imull	920(%rdx,%rax,4), %ecx
	movq	-40(%rbp), %rax         # 8-byte Reload
	shlq	$10, %rax
	addl	920(%rsi,%rax,4), %ecx
	movl	%ecx, 920(%rsi,%rax,4)
	movq	-88(%rbp), %rax         # 8-byte Reload
	shlq	$10, %rax
	movl	-92(%rbp), %ecx         # 4-byte Reload
	imull	924(%rdx,%rax,4), %ecx
	movq	-40(%rbp), %rax         # 8-byte Reload
	shlq	$10, %rax
	addl	924(%rsi,%rax,4), %ecx
	movl	%ecx, 924(%rsi,%rax,4)
	movq	-88(%rbp), %rax         # 8-byte Reload
	shlq	$10, %rax
	movl	-92(%rbp), %ecx         # 4-byte Reload
	imull	928(%rdx,%rax,4), %ecx
	movq	-40(%rbp), %rax         # 8-byte Reload
	shlq	$10, %rax
	addl	928(%rsi,%rax,4), %ecx
	movl	%ecx, 928(%rsi,%rax,4)
	movq	-88(%rbp), %rax         # 8-byte Reload
	shlq	$10, %rax
	movl	-92(%rbp), %ecx         # 4-byte Reload
	imull	932(%rdx,%rax,4), %ecx
	movq	-40(%rbp), %rax         # 8-byte Reload
	shlq	$10, %rax
	addl	932(%rsi,%rax,4), %ecx
	movl	%ecx, 932(%rsi,%rax,4)
	movq	-88(%rbp), %rax         # 8-byte Reload
	shlq	$10, %rax
	movl	-92(%rbp), %ecx         # 4-byte Reload
	imull	936(%rdx,%rax,4), %ecx
	movq	-40(%rbp), %rax         # 8-byte Reload
	shlq	$10, %rax
	addl	936(%rsi,%rax,4), %ecx
	movl	%ecx, 936(%rsi,%rax,4)
	movq	-88(%rbp), %rax         # 8-byte Reload
	shlq	$10, %rax
	movl	-92(%rbp), %ecx         # 4-byte Reload
	imull	940(%rdx,%rax,4), %ecx
	movq	-40(%rbp), %rax         # 8-byte Reload
	shlq	$10, %rax
	addl	940(%rsi,%rax,4), %ecx
	movl	%ecx, 940(%rsi,%rax,4)
	movq	-88(%rbp), %rax         # 8-byte Reload
	shlq	$10, %rax
	movl	-92(%rbp), %ecx         # 4-byte Reload
	imull	944(%rdx,%rax,4), %ecx
	movq	-40(%rbp), %rax         # 8-byte Reload
	shlq	$10, %rax
	addl	944(%rsi,%rax,4), %ecx
	movl	%ecx, 944(%rsi,%rax,4)
	movq	-88(%rbp), %rax         # 8-byte Reload
	shlq	$10, %rax
	movl	-92(%rbp), %ecx         # 4-byte Reload
	imull	948(%rdx,%rax,4), %ecx
	movq	-40(%rbp), %rax         # 8-byte Reload
	shlq	$10, %rax
	addl	948(%rsi,%rax,4), %ecx
	movl	%ecx, 948(%rsi,%rax,4)
	movq	-88(%rbp), %rax         # 8-byte Reload
	shlq	$10, %rax
	movl	-92(%rbp), %ecx         # 4-byte Reload
	imull	952(%rdx,%rax,4), %ecx
	movq	-40(%rbp), %rax         # 8-byte Reload
	shlq	$10, %rax
	addl	952(%rsi,%rax,4), %ecx
	movl	%ecx, 952(%rsi,%rax,4)
	movq	-88(%rbp), %rax         # 8-byte Reload
	shlq	$10, %rax
	movl	-92(%rbp), %ecx         # 4-byte Reload
	imull	956(%rdx,%rax,4), %ecx
	movq	-40(%rbp), %rax         # 8-byte Reload
	shlq	$10, %rax
	addl	956(%rsi,%rax,4), %ecx
	movl	%ecx, 956(%rsi,%rax,4)
	movq	-88(%rbp), %rax         # 8-byte Reload
	shlq	$10, %rax
	movl	-92(%rbp), %ecx         # 4-byte Reload
	imull	960(%rdx,%rax,4), %ecx
	movq	-40(%rbp), %rax         # 8-byte Reload
	shlq	$10, %rax
	addl	960(%rsi,%rax,4), %ecx
	movl	%ecx, 960(%rsi,%rax,4)
	movq	-88(%rbp), %rax         # 8-byte Reload
	shlq	$10, %rax
	movl	-92(%rbp), %ecx         # 4-byte Reload
	imull	964(%rdx,%rax,4), %ecx
	movq	-40(%rbp), %rax         # 8-byte Reload
	shlq	$10, %rax
	addl	964(%rsi,%rax,4), %ecx
	movl	%ecx, 964(%rsi,%rax,4)
	movq	-88(%rbp), %rax         # 8-byte Reload
	shlq	$10, %rax
	movl	-92(%rbp), %ecx         # 4-byte Reload
	imull	968(%rdx,%rax,4), %ecx
	movq	-40(%rbp), %rax         # 8-byte Reload
	shlq	$10, %rax
	addl	968(%rsi,%rax,4), %ecx
	movl	%ecx, 968(%rsi,%rax,4)
	movq	-88(%rbp), %rax         # 8-byte Reload
	shlq	$10, %rax
	movl	-92(%rbp), %ecx         # 4-byte Reload
	imull	972(%rdx,%rax,4), %ecx
	movq	-40(%rbp), %rax         # 8-byte Reload
	shlq	$10, %rax
	addl	972(%rsi,%rax,4), %ecx
	movl	%ecx, 972(%rsi,%rax,4)
	movq	-88(%rbp), %rax         # 8-byte Reload
	shlq	$10, %rax
	movl	-92(%rbp), %ecx         # 4-byte Reload
	imull	976(%rdx,%rax,4), %ecx
	movq	-40(%rbp), %rax         # 8-byte Reload
	shlq	$10, %rax
	addl	976(%rsi,%rax,4), %ecx
	movl	%ecx, 976(%rsi,%rax,4)
	movq	-88(%rbp), %rax         # 8-byte Reload
	shlq	$10, %rax
	movl	-92(%rbp), %ecx         # 4-byte Reload
	imull	980(%rdx,%rax,4), %ecx
	movq	-40(%rbp), %rax         # 8-byte Reload
	shlq	$10, %rax
	addl	980(%rsi,%rax,4), %ecx
	movl	%ecx, 980(%rsi,%rax,4)
	movq	-88(%rbp), %rax         # 8-byte Reload
	shlq	$10, %rax
	movl	-92(%rbp), %ecx         # 4-byte Reload
	imull	984(%rdx,%rax,4), %ecx
	movq	-40(%rbp), %rax         # 8-byte Reload
	shlq	$10, %rax
	addl	984(%rsi,%rax,4), %ecx
	movl	%ecx, 984(%rsi,%rax,4)
	movq	-88(%rbp), %rax         # 8-byte Reload
	shlq	$10, %rax
	movl	-92(%rbp), %ecx         # 4-byte Reload
	imull	988(%rdx,%rax,4), %ecx
	movq	-40(%rbp), %rax         # 8-byte Reload
	shlq	$10, %rax
	addl	988(%rsi,%rax,4), %ecx
	movl	%ecx, 988(%rsi,%rax,4)
	movq	-88(%rbp), %rax         # 8-byte Reload
	shlq	$10, %rax
	movl	-92(%rbp), %ecx         # 4-byte Reload
	imull	992(%rdx,%rax,4), %ecx
	movq	-40(%rbp), %rax         # 8-byte Reload
	shlq	$10, %rax
	addl	992(%rsi,%rax,4), %ecx
	movl	%ecx, 992(%rsi,%rax,4)
	movq	-88(%rbp), %rax         # 8-byte Reload
	shlq	$10, %rax
	movl	-92(%rbp), %ecx         # 4-byte Reload
	imull	996(%rdx,%rax,4), %ecx
	movq	-40(%rbp), %rax         # 8-byte Reload
	shlq	$10, %rax
	addl	996(%rsi,%rax,4), %ecx
	movl	%ecx, 996(%rsi,%rax,4)
	movq	-88(%rbp), %rax         # 8-byte Reload
	shlq	$10, %rax
	movl	-92(%rbp), %ecx         # 4-byte Reload
	imull	1000(%rdx,%rax,4), %ecx
	movq	-40(%rbp), %rax         # 8-byte Reload
	shlq	$10, %rax
	addl	1000(%rsi,%rax,4), %ecx
	movl	%ecx, 1000(%rsi,%rax,4)
	movq	-88(%rbp), %rax         # 8-byte Reload
	shlq	$10, %rax
	movl	-92(%rbp), %ecx         # 4-byte Reload
	imull	1004(%rdx,%rax,4), %ecx
	movq	-40(%rbp), %rax         # 8-byte Reload
	shlq	$10, %rax
	addl	1004(%rsi,%rax,4), %ecx
	movl	%ecx, 1004(%rsi,%rax,4)
	movq	-88(%rbp), %rax         # 8-byte Reload
	shlq	$10, %rax
	movl	-92(%rbp), %ecx         # 4-byte Reload
	imull	1008(%rdx,%rax,4), %ecx
	movq	-40(%rbp), %rax         # 8-byte Reload
	shlq	$10, %rax
	addl	1008(%rsi,%rax,4), %ecx
	movl	%ecx, 1008(%rsi,%rax,4)
	movq	-88(%rbp), %rax         # 8-byte Reload
	shlq	$10, %rax
	movl	-92(%rbp), %ecx         # 4-byte Reload
	imull	1012(%rdx,%rax,4), %ecx
	movq	-40(%rbp), %rax         # 8-byte Reload
	shlq	$10, %rax
	addl	1012(%rsi,%rax,4), %ecx
	movl	%ecx, 1012(%rsi,%rax,4)
	movq	-88(%rbp), %rax         # 8-byte Reload
	shlq	$10, %rax
	movl	-92(%rbp), %ecx         # 4-byte Reload
	imull	1016(%rdx,%rax,4), %ecx
	movq	-40(%rbp), %rax         # 8-byte Reload
	shlq	$10, %rax
	addl	1016(%rsi,%rax,4), %ecx
	movl	%ecx, 1016(%rsi,%rax,4)
	movq	-88(%rbp), %rax         # 8-byte Reload
	shlq	$10, %rax
	movl	-92(%rbp), %ecx         # 4-byte Reload
	imull	1020(%rdx,%rax,4), %ecx
	movq	-40(%rbp), %rax         # 8-byte Reload
	shlq	$10, %rax
	addl	1020(%rsi,%rax,4), %ecx
	movl	%ecx, 1020(%rsi,%rax,4)
	movq	-88(%rbp), %rax         # 8-byte Reload
	addq	$1, %rax
	movq	-40(%rbp), %rdi         # 8-byte Reload
	shlq	$10, %rdi
	addq	%rax, %rdi
	movq	-8(%rbp), %r8           # 8-byte Reload
	movl	(%r8,%rdi,4), %ecx
	movq	%rax, -104(%rbp)        # 8-byte Spill
	movl	%ecx, -108(%rbp)        # 4-byte Spill
# %bb.8:                                # %for.body6.3
                                        #   in Loop: Header=BB0_2 Depth=2
	movq	-104(%rbp), %rax        # 8-byte Reload
	shlq	$10, %rax
	movl	-108(%rbp), %ecx        # 4-byte Reload
	movq	-16(%rbp), %rdx         # 8-byte Reload
	imull	(%rdx,%rax,4), %ecx
	movq	-40(%rbp), %rax         # 8-byte Reload
	shlq	$10, %rax
	movq	-24(%rbp), %rsi         # 8-byte Reload
	addl	(%rsi,%rax,4), %ecx
	movl	%ecx, (%rsi,%rax,4)
	movq	-104(%rbp), %rax        # 8-byte Reload
	shlq	$10, %rax
	movl	-108(%rbp), %ecx        # 4-byte Reload
	imull	4(%rdx,%rax,4), %ecx
	movq	-40(%rbp), %rax         # 8-byte Reload
	shlq	$10, %rax
	addl	4(%rsi,%rax,4), %ecx
	movl	%ecx, 4(%rsi,%rax,4)
	movq	-104(%rbp), %rax        # 8-byte Reload
	shlq	$10, %rax
	movl	-108(%rbp), %ecx        # 4-byte Reload
	imull	8(%rdx,%rax,4), %ecx
	movq	-40(%rbp), %rax         # 8-byte Reload
	shlq	$10, %rax
	addl	8(%rsi,%rax,4), %ecx
	movl	%ecx, 8(%rsi,%rax,4)
	movq	-104(%rbp), %rax        # 8-byte Reload
	shlq	$10, %rax
	movl	-108(%rbp), %ecx        # 4-byte Reload
	imull	12(%rdx,%rax,4), %ecx
	movq	-40(%rbp), %rax         # 8-byte Reload
	shlq	$10, %rax
	addl	12(%rsi,%rax,4), %ecx
	movl	%ecx, 12(%rsi,%rax,4)
	movq	-104(%rbp), %rax        # 8-byte Reload
	shlq	$10, %rax
	movl	-108(%rbp), %ecx        # 4-byte Reload
	imull	16(%rdx,%rax,4), %ecx
	movq	-40(%rbp), %rax         # 8-byte Reload
	shlq	$10, %rax
	addl	16(%rsi,%rax,4), %ecx
	movl	%ecx, 16(%rsi,%rax,4)
	movq	-104(%rbp), %rax        # 8-byte Reload
	shlq	$10, %rax
	movl	-108(%rbp), %ecx        # 4-byte Reload
	imull	20(%rdx,%rax,4), %ecx
	movq	-40(%rbp), %rax         # 8-byte Reload
	shlq	$10, %rax
	addl	20(%rsi,%rax,4), %ecx
	movl	%ecx, 20(%rsi,%rax,4)
	movq	-104(%rbp), %rax        # 8-byte Reload
	shlq	$10, %rax
	movl	-108(%rbp), %ecx        # 4-byte Reload
	imull	24(%rdx,%rax,4), %ecx
	movq	-40(%rbp), %rax         # 8-byte Reload
	shlq	$10, %rax
	addl	24(%rsi,%rax,4), %ecx
	movl	%ecx, 24(%rsi,%rax,4)
	movq	-104(%rbp), %rax        # 8-byte Reload
	shlq	$10, %rax
	movl	-108(%rbp), %ecx        # 4-byte Reload
	imull	28(%rdx,%rax,4), %ecx
	movq	-40(%rbp), %rax         # 8-byte Reload
	shlq	$10, %rax
	addl	28(%rsi,%rax,4), %ecx
	movl	%ecx, 28(%rsi,%rax,4)
	movq	-104(%rbp), %rax        # 8-byte Reload
	shlq	$10, %rax
	movl	-108(%rbp), %ecx        # 4-byte Reload
	imull	32(%rdx,%rax,4), %ecx
	movq	-40(%rbp), %rax         # 8-byte Reload
	shlq	$10, %rax
	addl	32(%rsi,%rax,4), %ecx
	movl	%ecx, 32(%rsi,%rax,4)
	movq	-104(%rbp), %rax        # 8-byte Reload
	shlq	$10, %rax
	movl	-108(%rbp), %ecx        # 4-byte Reload
	imull	36(%rdx,%rax,4), %ecx
	movq	-40(%rbp), %rax         # 8-byte Reload
	shlq	$10, %rax
	addl	36(%rsi,%rax,4), %ecx
	movl	%ecx, 36(%rsi,%rax,4)
	movq	-104(%rbp), %rax        # 8-byte Reload
	shlq	$10, %rax
	movl	-108(%rbp), %ecx        # 4-byte Reload
	imull	40(%rdx,%rax,4), %ecx
	movq	-40(%rbp), %rax         # 8-byte Reload
	shlq	$10, %rax
	addl	40(%rsi,%rax,4), %ecx
	movl	%ecx, 40(%rsi,%rax,4)
	movq	-104(%rbp), %rax        # 8-byte Reload
	shlq	$10, %rax
	movl	-108(%rbp), %ecx        # 4-byte Reload
	imull	44(%rdx,%rax,4), %ecx
	movq	-40(%rbp), %rax         # 8-byte Reload
	shlq	$10, %rax
	addl	44(%rsi,%rax,4), %ecx
	movl	%ecx, 44(%rsi,%rax,4)
	movq	-104(%rbp), %rax        # 8-byte Reload
	shlq	$10, %rax
	movl	-108(%rbp), %ecx        # 4-byte Reload
	imull	48(%rdx,%rax,4), %ecx
	movq	-40(%rbp), %rax         # 8-byte Reload
	shlq	$10, %rax
	addl	48(%rsi,%rax,4), %ecx
	movl	%ecx, 48(%rsi,%rax,4)
	movq	-104(%rbp), %rax        # 8-byte Reload
	shlq	$10, %rax
	movl	-108(%rbp), %ecx        # 4-byte Reload
	imull	52(%rdx,%rax,4), %ecx
	movq	-40(%rbp), %rax         # 8-byte Reload
	shlq	$10, %rax
	addl	52(%rsi,%rax,4), %ecx
	movl	%ecx, 52(%rsi,%rax,4)
	movq	-104(%rbp), %rax        # 8-byte Reload
	shlq	$10, %rax
	movl	-108(%rbp), %ecx        # 4-byte Reload
	imull	56(%rdx,%rax,4), %ecx
	movq	-40(%rbp), %rax         # 8-byte Reload
	shlq	$10, %rax
	addl	56(%rsi,%rax,4), %ecx
	movl	%ecx, 56(%rsi,%rax,4)
	movq	-104(%rbp), %rax        # 8-byte Reload
	shlq	$10, %rax
	movl	-108(%rbp), %ecx        # 4-byte Reload
	imull	60(%rdx,%rax,4), %ecx
	movq	-40(%rbp), %rax         # 8-byte Reload
	shlq	$10, %rax
	addl	60(%rsi,%rax,4), %ecx
	movl	%ecx, 60(%rsi,%rax,4)
	movq	-104(%rbp), %rax        # 8-byte Reload
	shlq	$10, %rax
	movl	-108(%rbp), %ecx        # 4-byte Reload
	imull	64(%rdx,%rax,4), %ecx
	movq	-40(%rbp), %rax         # 8-byte Reload
	shlq	$10, %rax
	addl	64(%rsi,%rax,4), %ecx
	movl	%ecx, 64(%rsi,%rax,4)
	movq	-104(%rbp), %rax        # 8-byte Reload
	shlq	$10, %rax
	movl	-108(%rbp), %ecx        # 4-byte Reload
	imull	68(%rdx,%rax,4), %ecx
	movq	-40(%rbp), %rax         # 8-byte Reload
	shlq	$10, %rax
	addl	68(%rsi,%rax,4), %ecx
	movl	%ecx, 68(%rsi,%rax,4)
	movq	-104(%rbp), %rax        # 8-byte Reload
	shlq	$10, %rax
	movl	-108(%rbp), %ecx        # 4-byte Reload
	imull	72(%rdx,%rax,4), %ecx
	movq	-40(%rbp), %rax         # 8-byte Reload
	shlq	$10, %rax
	addl	72(%rsi,%rax,4), %ecx
	movl	%ecx, 72(%rsi,%rax,4)
	movq	-104(%rbp), %rax        # 8-byte Reload
	shlq	$10, %rax
	movl	-108(%rbp), %ecx        # 4-byte Reload
	imull	76(%rdx,%rax,4), %ecx
	movq	-40(%rbp), %rax         # 8-byte Reload
	shlq	$10, %rax
	addl	76(%rsi,%rax,4), %ecx
	movl	%ecx, 76(%rsi,%rax,4)
	movq	-104(%rbp), %rax        # 8-byte Reload
	shlq	$10, %rax
	movl	-108(%rbp), %ecx        # 4-byte Reload
	imull	80(%rdx,%rax,4), %ecx
	movq	-40(%rbp), %rax         # 8-byte Reload
	shlq	$10, %rax
	addl	80(%rsi,%rax,4), %ecx
	movl	%ecx, 80(%rsi,%rax,4)
	movq	-104(%rbp), %rax        # 8-byte Reload
	shlq	$10, %rax
	movl	-108(%rbp), %ecx        # 4-byte Reload
	imull	84(%rdx,%rax,4), %ecx
	movq	-40(%rbp), %rax         # 8-byte Reload
	shlq	$10, %rax
	addl	84(%rsi,%rax,4), %ecx
	movl	%ecx, 84(%rsi,%rax,4)
	movq	-104(%rbp), %rax        # 8-byte Reload
	shlq	$10, %rax
	movl	-108(%rbp), %ecx        # 4-byte Reload
	imull	88(%rdx,%rax,4), %ecx
	movq	-40(%rbp), %rax         # 8-byte Reload
	shlq	$10, %rax
	addl	88(%rsi,%rax,4), %ecx
	movl	%ecx, 88(%rsi,%rax,4)
	movq	-104(%rbp), %rax        # 8-byte Reload
	shlq	$10, %rax
	movl	-108(%rbp), %ecx        # 4-byte Reload
	imull	92(%rdx,%rax,4), %ecx
	movq	-40(%rbp), %rax         # 8-byte Reload
	shlq	$10, %rax
	addl	92(%rsi,%rax,4), %ecx
	movl	%ecx, 92(%rsi,%rax,4)
	movq	-104(%rbp), %rax        # 8-byte Reload
	shlq	$10, %rax
	movl	-108(%rbp), %ecx        # 4-byte Reload
	imull	96(%rdx,%rax,4), %ecx
	movq	-40(%rbp), %rax         # 8-byte Reload
	shlq	$10, %rax
	addl	96(%rsi,%rax,4), %ecx
	movl	%ecx, 96(%rsi,%rax,4)
	movq	-104(%rbp), %rax        # 8-byte Reload
	shlq	$10, %rax
	movl	-108(%rbp), %ecx        # 4-byte Reload
	imull	100(%rdx,%rax,4), %ecx
	movq	-40(%rbp), %rax         # 8-byte Reload
	shlq	$10, %rax
	addl	100(%rsi,%rax,4), %ecx
	movl	%ecx, 100(%rsi,%rax,4)
	movq	-104(%rbp), %rax        # 8-byte Reload
	shlq	$10, %rax
	movl	-108(%rbp), %ecx        # 4-byte Reload
	imull	104(%rdx,%rax,4), %ecx
	movq	-40(%rbp), %rax         # 8-byte Reload
	shlq	$10, %rax
	addl	104(%rsi,%rax,4), %ecx
	movl	%ecx, 104(%rsi,%rax,4)
	movq	-104(%rbp), %rax        # 8-byte Reload
	shlq	$10, %rax
	movl	-108(%rbp), %ecx        # 4-byte Reload
	imull	108(%rdx,%rax,4), %ecx
	movq	-40(%rbp), %rax         # 8-byte Reload
	shlq	$10, %rax
	addl	108(%rsi,%rax,4), %ecx
	movl	%ecx, 108(%rsi,%rax,4)
	movq	-104(%rbp), %rax        # 8-byte Reload
	shlq	$10, %rax
	movl	-108(%rbp), %ecx        # 4-byte Reload
	imull	112(%rdx,%rax,4), %ecx
	movq	-40(%rbp), %rax         # 8-byte Reload
	shlq	$10, %rax
	addl	112(%rsi,%rax,4), %ecx
	movl	%ecx, 112(%rsi,%rax,4)
	movq	-104(%rbp), %rax        # 8-byte Reload
	shlq	$10, %rax
	movl	-108(%rbp), %ecx        # 4-byte Reload
	imull	116(%rdx,%rax,4), %ecx
	movq	-40(%rbp), %rax         # 8-byte Reload
	shlq	$10, %rax
	addl	116(%rsi,%rax,4), %ecx
	movl	%ecx, 116(%rsi,%rax,4)
	movq	-104(%rbp), %rax        # 8-byte Reload
	shlq	$10, %rax
	movl	-108(%rbp), %ecx        # 4-byte Reload
	imull	120(%rdx,%rax,4), %ecx
	movq	-40(%rbp), %rax         # 8-byte Reload
	shlq	$10, %rax
	addl	120(%rsi,%rax,4), %ecx
	movl	%ecx, 120(%rsi,%rax,4)
	movq	-104(%rbp), %rax        # 8-byte Reload
	shlq	$10, %rax
	movl	-108(%rbp), %ecx        # 4-byte Reload
	imull	124(%rdx,%rax,4), %ecx
	movq	-40(%rbp), %rax         # 8-byte Reload
	shlq	$10, %rax
	addl	124(%rsi,%rax,4), %ecx
	movl	%ecx, 124(%rsi,%rax,4)
	movq	-104(%rbp), %rax        # 8-byte Reload
	shlq	$10, %rax
	movl	-108(%rbp), %ecx        # 4-byte Reload
	imull	128(%rdx,%rax,4), %ecx
	movq	-40(%rbp), %rax         # 8-byte Reload
	shlq	$10, %rax
	addl	128(%rsi,%rax,4), %ecx
	movl	%ecx, 128(%rsi,%rax,4)
	movq	-104(%rbp), %rax        # 8-byte Reload
	shlq	$10, %rax
	movl	-108(%rbp), %ecx        # 4-byte Reload
	imull	132(%rdx,%rax,4), %ecx
	movq	-40(%rbp), %rax         # 8-byte Reload
	shlq	$10, %rax
	addl	132(%rsi,%rax,4), %ecx
	movl	%ecx, 132(%rsi,%rax,4)
	movq	-104(%rbp), %rax        # 8-byte Reload
	shlq	$10, %rax
	movl	-108(%rbp), %ecx        # 4-byte Reload
	imull	136(%rdx,%rax,4), %ecx
	movq	-40(%rbp), %rax         # 8-byte Reload
	shlq	$10, %rax
	addl	136(%rsi,%rax,4), %ecx
	movl	%ecx, 136(%rsi,%rax,4)
	movq	-104(%rbp), %rax        # 8-byte Reload
	shlq	$10, %rax
	movl	-108(%rbp), %ecx        # 4-byte Reload
	imull	140(%rdx,%rax,4), %ecx
	movq	-40(%rbp), %rax         # 8-byte Reload
	shlq	$10, %rax
	addl	140(%rsi,%rax,4), %ecx
	movl	%ecx, 140(%rsi,%rax,4)
	movq	-104(%rbp), %rax        # 8-byte Reload
	shlq	$10, %rax
	movl	-108(%rbp), %ecx        # 4-byte Reload
	imull	144(%rdx,%rax,4), %ecx
	movq	-40(%rbp), %rax         # 8-byte Reload
	shlq	$10, %rax
	addl	144(%rsi,%rax,4), %ecx
	movl	%ecx, 144(%rsi,%rax,4)
	movq	-104(%rbp), %rax        # 8-byte Reload
	shlq	$10, %rax
	movl	-108(%rbp), %ecx        # 4-byte Reload
	imull	148(%rdx,%rax,4), %ecx
	movq	-40(%rbp), %rax         # 8-byte Reload
	shlq	$10, %rax
	addl	148(%rsi,%rax,4), %ecx
	movl	%ecx, 148(%rsi,%rax,4)
	movq	-104(%rbp), %rax        # 8-byte Reload
	shlq	$10, %rax
	movl	-108(%rbp), %ecx        # 4-byte Reload
	imull	152(%rdx,%rax,4), %ecx
	movq	-40(%rbp), %rax         # 8-byte Reload
	shlq	$10, %rax
	addl	152(%rsi,%rax,4), %ecx
	movl	%ecx, 152(%rsi,%rax,4)
	movq	-104(%rbp), %rax        # 8-byte Reload
	shlq	$10, %rax
	movl	-108(%rbp), %ecx        # 4-byte Reload
	imull	156(%rdx,%rax,4), %ecx
	movq	-40(%rbp), %rax         # 8-byte Reload
	shlq	$10, %rax
	addl	156(%rsi,%rax,4), %ecx
	movl	%ecx, 156(%rsi,%rax,4)
	movq	-104(%rbp), %rax        # 8-byte Reload
	shlq	$10, %rax
	movl	-108(%rbp), %ecx        # 4-byte Reload
	imull	160(%rdx,%rax,4), %ecx
	movq	-40(%rbp), %rax         # 8-byte Reload
	shlq	$10, %rax
	addl	160(%rsi,%rax,4), %ecx
	movl	%ecx, 160(%rsi,%rax,4)
	movq	-104(%rbp), %rax        # 8-byte Reload
	shlq	$10, %rax
	movl	-108(%rbp), %ecx        # 4-byte Reload
	imull	164(%rdx,%rax,4), %ecx
	movq	-40(%rbp), %rax         # 8-byte Reload
	shlq	$10, %rax
	addl	164(%rsi,%rax,4), %ecx
	movl	%ecx, 164(%rsi,%rax,4)
	movq	-104(%rbp), %rax        # 8-byte Reload
	shlq	$10, %rax
	movl	-108(%rbp), %ecx        # 4-byte Reload
	imull	168(%rdx,%rax,4), %ecx
	movq	-40(%rbp), %rax         # 8-byte Reload
	shlq	$10, %rax
	addl	168(%rsi,%rax,4), %ecx
	movl	%ecx, 168(%rsi,%rax,4)
	movq	-104(%rbp), %rax        # 8-byte Reload
	shlq	$10, %rax
	movl	-108(%rbp), %ecx        # 4-byte Reload
	imull	172(%rdx,%rax,4), %ecx
	movq	-40(%rbp), %rax         # 8-byte Reload
	shlq	$10, %rax
	addl	172(%rsi,%rax,4), %ecx
	movl	%ecx, 172(%rsi,%rax,4)
	movq	-104(%rbp), %rax        # 8-byte Reload
	shlq	$10, %rax
	movl	-108(%rbp), %ecx        # 4-byte Reload
	imull	176(%rdx,%rax,4), %ecx
	movq	-40(%rbp), %rax         # 8-byte Reload
	shlq	$10, %rax
	addl	176(%rsi,%rax,4), %ecx
	movl	%ecx, 176(%rsi,%rax,4)
	movq	-104(%rbp), %rax        # 8-byte Reload
	shlq	$10, %rax
	movl	-108(%rbp), %ecx        # 4-byte Reload
	imull	180(%rdx,%rax,4), %ecx
	movq	-40(%rbp), %rax         # 8-byte Reload
	shlq	$10, %rax
	addl	180(%rsi,%rax,4), %ecx
	movl	%ecx, 180(%rsi,%rax,4)
	movq	-104(%rbp), %rax        # 8-byte Reload
	shlq	$10, %rax
	movl	-108(%rbp), %ecx        # 4-byte Reload
	imull	184(%rdx,%rax,4), %ecx
	movq	-40(%rbp), %rax         # 8-byte Reload
	shlq	$10, %rax
	addl	184(%rsi,%rax,4), %ecx
	movl	%ecx, 184(%rsi,%rax,4)
	movq	-104(%rbp), %rax        # 8-byte Reload
	shlq	$10, %rax
	movl	-108(%rbp), %ecx        # 4-byte Reload
	imull	188(%rdx,%rax,4), %ecx
	movq	-40(%rbp), %rax         # 8-byte Reload
	shlq	$10, %rax
	addl	188(%rsi,%rax,4), %ecx
	movl	%ecx, 188(%rsi,%rax,4)
	movq	-104(%rbp), %rax        # 8-byte Reload
	shlq	$10, %rax
	movl	-108(%rbp), %ecx        # 4-byte Reload
	imull	192(%rdx,%rax,4), %ecx
	movq	-40(%rbp), %rax         # 8-byte Reload
	shlq	$10, %rax
	addl	192(%rsi,%rax,4), %ecx
	movl	%ecx, 192(%rsi,%rax,4)
	movq	-104(%rbp), %rax        # 8-byte Reload
	shlq	$10, %rax
	movl	-108(%rbp), %ecx        # 4-byte Reload
	imull	196(%rdx,%rax,4), %ecx
	movq	-40(%rbp), %rax         # 8-byte Reload
	shlq	$10, %rax
	addl	196(%rsi,%rax,4), %ecx
	movl	%ecx, 196(%rsi,%rax,4)
	movq	-104(%rbp), %rax        # 8-byte Reload
	shlq	$10, %rax
	movl	-108(%rbp), %ecx        # 4-byte Reload
	imull	200(%rdx,%rax,4), %ecx
	movq	-40(%rbp), %rax         # 8-byte Reload
	shlq	$10, %rax
	addl	200(%rsi,%rax,4), %ecx
	movl	%ecx, 200(%rsi,%rax,4)
	movq	-104(%rbp), %rax        # 8-byte Reload
	shlq	$10, %rax
	movl	-108(%rbp), %ecx        # 4-byte Reload
	imull	204(%rdx,%rax,4), %ecx
	movq	-40(%rbp), %rax         # 8-byte Reload
	shlq	$10, %rax
	addl	204(%rsi,%rax,4), %ecx
	movl	%ecx, 204(%rsi,%rax,4)
	movq	-104(%rbp), %rax        # 8-byte Reload
	shlq	$10, %rax
	movl	-108(%rbp), %ecx        # 4-byte Reload
	imull	208(%rdx,%rax,4), %ecx
	movq	-40(%rbp), %rax         # 8-byte Reload
	shlq	$10, %rax
	addl	208(%rsi,%rax,4), %ecx
	movl	%ecx, 208(%rsi,%rax,4)
	movq	-104(%rbp), %rax        # 8-byte Reload
	shlq	$10, %rax
	movl	-108(%rbp), %ecx        # 4-byte Reload
	imull	212(%rdx,%rax,4), %ecx
	movq	-40(%rbp), %rax         # 8-byte Reload
	shlq	$10, %rax
	addl	212(%rsi,%rax,4), %ecx
	movl	%ecx, 212(%rsi,%rax,4)
	movq	-104(%rbp), %rax        # 8-byte Reload
	shlq	$10, %rax
	movl	-108(%rbp), %ecx        # 4-byte Reload
	imull	216(%rdx,%rax,4), %ecx
	movq	-40(%rbp), %rax         # 8-byte Reload
	shlq	$10, %rax
	addl	216(%rsi,%rax,4), %ecx
	movl	%ecx, 216(%rsi,%rax,4)
	movq	-104(%rbp), %rax        # 8-byte Reload
	shlq	$10, %rax
	movl	-108(%rbp), %ecx        # 4-byte Reload
	imull	220(%rdx,%rax,4), %ecx
	movq	-40(%rbp), %rax         # 8-byte Reload
	shlq	$10, %rax
	addl	220(%rsi,%rax,4), %ecx
	movl	%ecx, 220(%rsi,%rax,4)
	movq	-104(%rbp), %rax        # 8-byte Reload
	shlq	$10, %rax
	movl	-108(%rbp), %ecx        # 4-byte Reload
	imull	224(%rdx,%rax,4), %ecx
	movq	-40(%rbp), %rax         # 8-byte Reload
	shlq	$10, %rax
	addl	224(%rsi,%rax,4), %ecx
	movl	%ecx, 224(%rsi,%rax,4)
	movq	-104(%rbp), %rax        # 8-byte Reload
	shlq	$10, %rax
	movl	-108(%rbp), %ecx        # 4-byte Reload
	imull	228(%rdx,%rax,4), %ecx
	movq	-40(%rbp), %rax         # 8-byte Reload
	shlq	$10, %rax
	addl	228(%rsi,%rax,4), %ecx
	movl	%ecx, 228(%rsi,%rax,4)
	movq	-104(%rbp), %rax        # 8-byte Reload
	shlq	$10, %rax
	movl	-108(%rbp), %ecx        # 4-byte Reload
	imull	232(%rdx,%rax,4), %ecx
	movq	-40(%rbp), %rax         # 8-byte Reload
	shlq	$10, %rax
	addl	232(%rsi,%rax,4), %ecx
	movl	%ecx, 232(%rsi,%rax,4)
	movq	-104(%rbp), %rax        # 8-byte Reload
	shlq	$10, %rax
	movl	-108(%rbp), %ecx        # 4-byte Reload
	imull	236(%rdx,%rax,4), %ecx
	movq	-40(%rbp), %rax         # 8-byte Reload
	shlq	$10, %rax
	addl	236(%rsi,%rax,4), %ecx
	movl	%ecx, 236(%rsi,%rax,4)
	movq	-104(%rbp), %rax        # 8-byte Reload
	shlq	$10, %rax
	movl	-108(%rbp), %ecx        # 4-byte Reload
	imull	240(%rdx,%rax,4), %ecx
	movq	-40(%rbp), %rax         # 8-byte Reload
	shlq	$10, %rax
	addl	240(%rsi,%rax,4), %ecx
	movl	%ecx, 240(%rsi,%rax,4)
	movq	-104(%rbp), %rax        # 8-byte Reload
	shlq	$10, %rax
	movl	-108(%rbp), %ecx        # 4-byte Reload
	imull	244(%rdx,%rax,4), %ecx
	movq	-40(%rbp), %rax         # 8-byte Reload
	shlq	$10, %rax
	addl	244(%rsi,%rax,4), %ecx
	movl	%ecx, 244(%rsi,%rax,4)
	movq	-104(%rbp), %rax        # 8-byte Reload
	shlq	$10, %rax
	movl	-108(%rbp), %ecx        # 4-byte Reload
	imull	248(%rdx,%rax,4), %ecx
	movq	-40(%rbp), %rax         # 8-byte Reload
	shlq	$10, %rax
	addl	248(%rsi,%rax,4), %ecx
	movl	%ecx, 248(%rsi,%rax,4)
	movq	-104(%rbp), %rax        # 8-byte Reload
	shlq	$10, %rax
	movl	-108(%rbp), %ecx        # 4-byte Reload
	imull	252(%rdx,%rax,4), %ecx
	movq	-40(%rbp), %rax         # 8-byte Reload
	shlq	$10, %rax
	addl	252(%rsi,%rax,4), %ecx
	movl	%ecx, 252(%rsi,%rax,4)
	movq	-104(%rbp), %rax        # 8-byte Reload
	shlq	$10, %rax
	movl	-108(%rbp), %ecx        # 4-byte Reload
	imull	256(%rdx,%rax,4), %ecx
	movq	-40(%rbp), %rax         # 8-byte Reload
	shlq	$10, %rax
	addl	256(%rsi,%rax,4), %ecx
	movl	%ecx, 256(%rsi,%rax,4)
	movq	-104(%rbp), %rax        # 8-byte Reload
	shlq	$10, %rax
	movl	-108(%rbp), %ecx        # 4-byte Reload
	imull	260(%rdx,%rax,4), %ecx
	movq	-40(%rbp), %rax         # 8-byte Reload
	shlq	$10, %rax
	addl	260(%rsi,%rax,4), %ecx
	movl	%ecx, 260(%rsi,%rax,4)
	movq	-104(%rbp), %rax        # 8-byte Reload
	shlq	$10, %rax
	movl	-108(%rbp), %ecx        # 4-byte Reload
	imull	264(%rdx,%rax,4), %ecx
	movq	-40(%rbp), %rax         # 8-byte Reload
	shlq	$10, %rax
	addl	264(%rsi,%rax,4), %ecx
	movl	%ecx, 264(%rsi,%rax,4)
	movq	-104(%rbp), %rax        # 8-byte Reload
	shlq	$10, %rax
	movl	-108(%rbp), %ecx        # 4-byte Reload
	imull	268(%rdx,%rax,4), %ecx
	movq	-40(%rbp), %rax         # 8-byte Reload
	shlq	$10, %rax
	addl	268(%rsi,%rax,4), %ecx
	movl	%ecx, 268(%rsi,%rax,4)
	movq	-104(%rbp), %rax        # 8-byte Reload
	shlq	$10, %rax
	movl	-108(%rbp), %ecx        # 4-byte Reload
	imull	272(%rdx,%rax,4), %ecx
	movq	-40(%rbp), %rax         # 8-byte Reload
	shlq	$10, %rax
	addl	272(%rsi,%rax,4), %ecx
	movl	%ecx, 272(%rsi,%rax,4)
	movq	-104(%rbp), %rax        # 8-byte Reload
	shlq	$10, %rax
	movl	-108(%rbp), %ecx        # 4-byte Reload
	imull	276(%rdx,%rax,4), %ecx
	movq	-40(%rbp), %rax         # 8-byte Reload
	shlq	$10, %rax
	addl	276(%rsi,%rax,4), %ecx
	movl	%ecx, 276(%rsi,%rax,4)
	movq	-104(%rbp), %rax        # 8-byte Reload
	shlq	$10, %rax
	movl	-108(%rbp), %ecx        # 4-byte Reload
	imull	280(%rdx,%rax,4), %ecx
	movq	-40(%rbp), %rax         # 8-byte Reload
	shlq	$10, %rax
	addl	280(%rsi,%rax,4), %ecx
	movl	%ecx, 280(%rsi,%rax,4)
	movq	-104(%rbp), %rax        # 8-byte Reload
	shlq	$10, %rax
	movl	-108(%rbp), %ecx        # 4-byte Reload
	imull	284(%rdx,%rax,4), %ecx
	movq	-40(%rbp), %rax         # 8-byte Reload
	shlq	$10, %rax
	addl	284(%rsi,%rax,4), %ecx
	movl	%ecx, 284(%rsi,%rax,4)
	movq	-104(%rbp), %rax        # 8-byte Reload
	shlq	$10, %rax
	movl	-108(%rbp), %ecx        # 4-byte Reload
	imull	288(%rdx,%rax,4), %ecx
	movq	-40(%rbp), %rax         # 8-byte Reload
	shlq	$10, %rax
	addl	288(%rsi,%rax,4), %ecx
	movl	%ecx, 288(%rsi,%rax,4)
	movq	-104(%rbp), %rax        # 8-byte Reload
	shlq	$10, %rax
	movl	-108(%rbp), %ecx        # 4-byte Reload
	imull	292(%rdx,%rax,4), %ecx
	movq	-40(%rbp), %rax         # 8-byte Reload
	shlq	$10, %rax
	addl	292(%rsi,%rax,4), %ecx
	movl	%ecx, 292(%rsi,%rax,4)
	movq	-104(%rbp), %rax        # 8-byte Reload
	shlq	$10, %rax
	movl	-108(%rbp), %ecx        # 4-byte Reload
	imull	296(%rdx,%rax,4), %ecx
	movq	-40(%rbp), %rax         # 8-byte Reload
	shlq	$10, %rax
	addl	296(%rsi,%rax,4), %ecx
	movl	%ecx, 296(%rsi,%rax,4)
	movq	-104(%rbp), %rax        # 8-byte Reload
	shlq	$10, %rax
	movl	-108(%rbp), %ecx        # 4-byte Reload
	imull	300(%rdx,%rax,4), %ecx
	movq	-40(%rbp), %rax         # 8-byte Reload
	shlq	$10, %rax
	addl	300(%rsi,%rax,4), %ecx
	movl	%ecx, 300(%rsi,%rax,4)
	movq	-104(%rbp), %rax        # 8-byte Reload
	shlq	$10, %rax
	movl	-108(%rbp), %ecx        # 4-byte Reload
	imull	304(%rdx,%rax,4), %ecx
	movq	-40(%rbp), %rax         # 8-byte Reload
	shlq	$10, %rax
	addl	304(%rsi,%rax,4), %ecx
	movl	%ecx, 304(%rsi,%rax,4)
	movq	-104(%rbp), %rax        # 8-byte Reload
	shlq	$10, %rax
	movl	-108(%rbp), %ecx        # 4-byte Reload
	imull	308(%rdx,%rax,4), %ecx
	movq	-40(%rbp), %rax         # 8-byte Reload
	shlq	$10, %rax
	addl	308(%rsi,%rax,4), %ecx
	movl	%ecx, 308(%rsi,%rax,4)
	movq	-104(%rbp), %rax        # 8-byte Reload
	shlq	$10, %rax
	movl	-108(%rbp), %ecx        # 4-byte Reload
	imull	312(%rdx,%rax,4), %ecx
	movq	-40(%rbp), %rax         # 8-byte Reload
	shlq	$10, %rax
	addl	312(%rsi,%rax,4), %ecx
	movl	%ecx, 312(%rsi,%rax,4)
	movq	-104(%rbp), %rax        # 8-byte Reload
	shlq	$10, %rax
	movl	-108(%rbp), %ecx        # 4-byte Reload
	imull	316(%rdx,%rax,4), %ecx
	movq	-40(%rbp), %rax         # 8-byte Reload
	shlq	$10, %rax
	addl	316(%rsi,%rax,4), %ecx
	movl	%ecx, 316(%rsi,%rax,4)
	movq	-104(%rbp), %rax        # 8-byte Reload
	shlq	$10, %rax
	movl	-108(%rbp), %ecx        # 4-byte Reload
	imull	320(%rdx,%rax,4), %ecx
	movq	-40(%rbp), %rax         # 8-byte Reload
	shlq	$10, %rax
	addl	320(%rsi,%rax,4), %ecx
	movl	%ecx, 320(%rsi,%rax,4)
	movq	-104(%rbp), %rax        # 8-byte Reload
	shlq	$10, %rax
	movl	-108(%rbp), %ecx        # 4-byte Reload
	imull	324(%rdx,%rax,4), %ecx
	movq	-40(%rbp), %rax         # 8-byte Reload
	shlq	$10, %rax
	addl	324(%rsi,%rax,4), %ecx
	movl	%ecx, 324(%rsi,%rax,4)
	movq	-104(%rbp), %rax        # 8-byte Reload
	shlq	$10, %rax
	movl	-108(%rbp), %ecx        # 4-byte Reload
	imull	328(%rdx,%rax,4), %ecx
	movq	-40(%rbp), %rax         # 8-byte Reload
	shlq	$10, %rax
	addl	328(%rsi,%rax,4), %ecx
	movl	%ecx, 328(%rsi,%rax,4)
	movq	-104(%rbp), %rax        # 8-byte Reload
	shlq	$10, %rax
	movl	-108(%rbp), %ecx        # 4-byte Reload
	imull	332(%rdx,%rax,4), %ecx
	movq	-40(%rbp), %rax         # 8-byte Reload
	shlq	$10, %rax
	addl	332(%rsi,%rax,4), %ecx
	movl	%ecx, 332(%rsi,%rax,4)
	movq	-104(%rbp), %rax        # 8-byte Reload
	shlq	$10, %rax
	movl	-108(%rbp), %ecx        # 4-byte Reload
	imull	336(%rdx,%rax,4), %ecx
	movq	-40(%rbp), %rax         # 8-byte Reload
	shlq	$10, %rax
	addl	336(%rsi,%rax,4), %ecx
	movl	%ecx, 336(%rsi,%rax,4)
	movq	-104(%rbp), %rax        # 8-byte Reload
	shlq	$10, %rax
	movl	-108(%rbp), %ecx        # 4-byte Reload
	imull	340(%rdx,%rax,4), %ecx
	movq	-40(%rbp), %rax         # 8-byte Reload
	shlq	$10, %rax
	addl	340(%rsi,%rax,4), %ecx
	movl	%ecx, 340(%rsi,%rax,4)
	movq	-104(%rbp), %rax        # 8-byte Reload
	shlq	$10, %rax
	movl	-108(%rbp), %ecx        # 4-byte Reload
	imull	344(%rdx,%rax,4), %ecx
	movq	-40(%rbp), %rax         # 8-byte Reload
	shlq	$10, %rax
	addl	344(%rsi,%rax,4), %ecx
	movl	%ecx, 344(%rsi,%rax,4)
	movq	-104(%rbp), %rax        # 8-byte Reload
	shlq	$10, %rax
	movl	-108(%rbp), %ecx        # 4-byte Reload
	imull	348(%rdx,%rax,4), %ecx
	movq	-40(%rbp), %rax         # 8-byte Reload
	shlq	$10, %rax
	addl	348(%rsi,%rax,4), %ecx
	movl	%ecx, 348(%rsi,%rax,4)
	movq	-104(%rbp), %rax        # 8-byte Reload
	shlq	$10, %rax
	movl	-108(%rbp), %ecx        # 4-byte Reload
	imull	352(%rdx,%rax,4), %ecx
	movq	-40(%rbp), %rax         # 8-byte Reload
	shlq	$10, %rax
	addl	352(%rsi,%rax,4), %ecx
	movl	%ecx, 352(%rsi,%rax,4)
	movq	-104(%rbp), %rax        # 8-byte Reload
	shlq	$10, %rax
	movl	-108(%rbp), %ecx        # 4-byte Reload
	imull	356(%rdx,%rax,4), %ecx
	movq	-40(%rbp), %rax         # 8-byte Reload
	shlq	$10, %rax
	addl	356(%rsi,%rax,4), %ecx
	movl	%ecx, 356(%rsi,%rax,4)
	movq	-104(%rbp), %rax        # 8-byte Reload
	shlq	$10, %rax
	movl	-108(%rbp), %ecx        # 4-byte Reload
	imull	360(%rdx,%rax,4), %ecx
	movq	-40(%rbp), %rax         # 8-byte Reload
	shlq	$10, %rax
	addl	360(%rsi,%rax,4), %ecx
	movl	%ecx, 360(%rsi,%rax,4)
	movq	-104(%rbp), %rax        # 8-byte Reload
	shlq	$10, %rax
	movl	-108(%rbp), %ecx        # 4-byte Reload
	imull	364(%rdx,%rax,4), %ecx
	movq	-40(%rbp), %rax         # 8-byte Reload
	shlq	$10, %rax
	addl	364(%rsi,%rax,4), %ecx
	movl	%ecx, 364(%rsi,%rax,4)
	movq	-104(%rbp), %rax        # 8-byte Reload
	shlq	$10, %rax
	movl	-108(%rbp), %ecx        # 4-byte Reload
	imull	368(%rdx,%rax,4), %ecx
	movq	-40(%rbp), %rax         # 8-byte Reload
	shlq	$10, %rax
	addl	368(%rsi,%rax,4), %ecx
	movl	%ecx, 368(%rsi,%rax,4)
	movq	-104(%rbp), %rax        # 8-byte Reload
	shlq	$10, %rax
	movl	-108(%rbp), %ecx        # 4-byte Reload
	imull	372(%rdx,%rax,4), %ecx
	movq	-40(%rbp), %rax         # 8-byte Reload
	shlq	$10, %rax
	addl	372(%rsi,%rax,4), %ecx
	movl	%ecx, 372(%rsi,%rax,4)
	movq	-104(%rbp), %rax        # 8-byte Reload
	shlq	$10, %rax
	movl	-108(%rbp), %ecx        # 4-byte Reload
	imull	376(%rdx,%rax,4), %ecx
	movq	-40(%rbp), %rax         # 8-byte Reload
	shlq	$10, %rax
	addl	376(%rsi,%rax,4), %ecx
	movl	%ecx, 376(%rsi,%rax,4)
	movq	-104(%rbp), %rax        # 8-byte Reload
	shlq	$10, %rax
	movl	-108(%rbp), %ecx        # 4-byte Reload
	imull	380(%rdx,%rax,4), %ecx
	movq	-40(%rbp), %rax         # 8-byte Reload
	shlq	$10, %rax
	addl	380(%rsi,%rax,4), %ecx
	movl	%ecx, 380(%rsi,%rax,4)
	movq	-104(%rbp), %rax        # 8-byte Reload
	shlq	$10, %rax
	movl	-108(%rbp), %ecx        # 4-byte Reload
	imull	384(%rdx,%rax,4), %ecx
	movq	-40(%rbp), %rax         # 8-byte Reload
	shlq	$10, %rax
	addl	384(%rsi,%rax,4), %ecx
	movl	%ecx, 384(%rsi,%rax,4)
	movq	-104(%rbp), %rax        # 8-byte Reload
	shlq	$10, %rax
	movl	-108(%rbp), %ecx        # 4-byte Reload
	imull	388(%rdx,%rax,4), %ecx
	movq	-40(%rbp), %rax         # 8-byte Reload
	shlq	$10, %rax
	addl	388(%rsi,%rax,4), %ecx
	movl	%ecx, 388(%rsi,%rax,4)
	movq	-104(%rbp), %rax        # 8-byte Reload
	shlq	$10, %rax
	movl	-108(%rbp), %ecx        # 4-byte Reload
	imull	392(%rdx,%rax,4), %ecx
	movq	-40(%rbp), %rax         # 8-byte Reload
	shlq	$10, %rax
	addl	392(%rsi,%rax,4), %ecx
	movl	%ecx, 392(%rsi,%rax,4)
	movq	-104(%rbp), %rax        # 8-byte Reload
	shlq	$10, %rax
	movl	-108(%rbp), %ecx        # 4-byte Reload
	imull	396(%rdx,%rax,4), %ecx
	movq	-40(%rbp), %rax         # 8-byte Reload
	shlq	$10, %rax
	addl	396(%rsi,%rax,4), %ecx
	movl	%ecx, 396(%rsi,%rax,4)
	movq	-104(%rbp), %rax        # 8-byte Reload
	shlq	$10, %rax
	movl	-108(%rbp), %ecx        # 4-byte Reload
	imull	400(%rdx,%rax,4), %ecx
	movq	-40(%rbp), %rax         # 8-byte Reload
	shlq	$10, %rax
	addl	400(%rsi,%rax,4), %ecx
	movl	%ecx, 400(%rsi,%rax,4)
	movq	-104(%rbp), %rax        # 8-byte Reload
	shlq	$10, %rax
	movl	-108(%rbp), %ecx        # 4-byte Reload
	imull	404(%rdx,%rax,4), %ecx
	movq	-40(%rbp), %rax         # 8-byte Reload
	shlq	$10, %rax
	addl	404(%rsi,%rax,4), %ecx
	movl	%ecx, 404(%rsi,%rax,4)
	movq	-104(%rbp), %rax        # 8-byte Reload
	shlq	$10, %rax
	movl	-108(%rbp), %ecx        # 4-byte Reload
	imull	408(%rdx,%rax,4), %ecx
	movq	-40(%rbp), %rax         # 8-byte Reload
	shlq	$10, %rax
	addl	408(%rsi,%rax,4), %ecx
	movl	%ecx, 408(%rsi,%rax,4)
	movq	-104(%rbp), %rax        # 8-byte Reload
	shlq	$10, %rax
	movl	-108(%rbp), %ecx        # 4-byte Reload
	imull	412(%rdx,%rax,4), %ecx
	movq	-40(%rbp), %rax         # 8-byte Reload
	shlq	$10, %rax
	addl	412(%rsi,%rax,4), %ecx
	movl	%ecx, 412(%rsi,%rax,4)
	movq	-104(%rbp), %rax        # 8-byte Reload
	shlq	$10, %rax
	movl	-108(%rbp), %ecx        # 4-byte Reload
	imull	416(%rdx,%rax,4), %ecx
	movq	-40(%rbp), %rax         # 8-byte Reload
	shlq	$10, %rax
	addl	416(%rsi,%rax,4), %ecx
	movl	%ecx, 416(%rsi,%rax,4)
	movq	-104(%rbp), %rax        # 8-byte Reload
	shlq	$10, %rax
	movl	-108(%rbp), %ecx        # 4-byte Reload
	imull	420(%rdx,%rax,4), %ecx
	movq	-40(%rbp), %rax         # 8-byte Reload
	shlq	$10, %rax
	addl	420(%rsi,%rax,4), %ecx
	movl	%ecx, 420(%rsi,%rax,4)
	movq	-104(%rbp), %rax        # 8-byte Reload
	shlq	$10, %rax
	movl	-108(%rbp), %ecx        # 4-byte Reload
	imull	424(%rdx,%rax,4), %ecx
	movq	-40(%rbp), %rax         # 8-byte Reload
	shlq	$10, %rax
	addl	424(%rsi,%rax,4), %ecx
	movl	%ecx, 424(%rsi,%rax,4)
	movq	-104(%rbp), %rax        # 8-byte Reload
	shlq	$10, %rax
	movl	-108(%rbp), %ecx        # 4-byte Reload
	imull	428(%rdx,%rax,4), %ecx
	movq	-40(%rbp), %rax         # 8-byte Reload
	shlq	$10, %rax
	addl	428(%rsi,%rax,4), %ecx
	movl	%ecx, 428(%rsi,%rax,4)
	movq	-104(%rbp), %rax        # 8-byte Reload
	shlq	$10, %rax
	movl	-108(%rbp), %ecx        # 4-byte Reload
	imull	432(%rdx,%rax,4), %ecx
	movq	-40(%rbp), %rax         # 8-byte Reload
	shlq	$10, %rax
	addl	432(%rsi,%rax,4), %ecx
	movl	%ecx, 432(%rsi,%rax,4)
	movq	-104(%rbp), %rax        # 8-byte Reload
	shlq	$10, %rax
	movl	-108(%rbp), %ecx        # 4-byte Reload
	imull	436(%rdx,%rax,4), %ecx
	movq	-40(%rbp), %rax         # 8-byte Reload
	shlq	$10, %rax
	addl	436(%rsi,%rax,4), %ecx
	movl	%ecx, 436(%rsi,%rax,4)
	movq	-104(%rbp), %rax        # 8-byte Reload
	shlq	$10, %rax
	movl	-108(%rbp), %ecx        # 4-byte Reload
	imull	440(%rdx,%rax,4), %ecx
	movq	-40(%rbp), %rax         # 8-byte Reload
	shlq	$10, %rax
	addl	440(%rsi,%rax,4), %ecx
	movl	%ecx, 440(%rsi,%rax,4)
	movq	-104(%rbp), %rax        # 8-byte Reload
	shlq	$10, %rax
	movl	-108(%rbp), %ecx        # 4-byte Reload
	imull	444(%rdx,%rax,4), %ecx
	movq	-40(%rbp), %rax         # 8-byte Reload
	shlq	$10, %rax
	addl	444(%rsi,%rax,4), %ecx
	movl	%ecx, 444(%rsi,%rax,4)
	movq	-104(%rbp), %rax        # 8-byte Reload
	shlq	$10, %rax
	movl	-108(%rbp), %ecx        # 4-byte Reload
	imull	448(%rdx,%rax,4), %ecx
	movq	-40(%rbp), %rax         # 8-byte Reload
	shlq	$10, %rax
	addl	448(%rsi,%rax,4), %ecx
	movl	%ecx, 448(%rsi,%rax,4)
	movq	-104(%rbp), %rax        # 8-byte Reload
	shlq	$10, %rax
	movl	-108(%rbp), %ecx        # 4-byte Reload
	imull	452(%rdx,%rax,4), %ecx
	movq	-40(%rbp), %rax         # 8-byte Reload
	shlq	$10, %rax
	addl	452(%rsi,%rax,4), %ecx
	movl	%ecx, 452(%rsi,%rax,4)
	movq	-104(%rbp), %rax        # 8-byte Reload
	shlq	$10, %rax
	movl	-108(%rbp), %ecx        # 4-byte Reload
	imull	456(%rdx,%rax,4), %ecx
	movq	-40(%rbp), %rax         # 8-byte Reload
	shlq	$10, %rax
	addl	456(%rsi,%rax,4), %ecx
	movl	%ecx, 456(%rsi,%rax,4)
	movq	-104(%rbp), %rax        # 8-byte Reload
	shlq	$10, %rax
	movl	-108(%rbp), %ecx        # 4-byte Reload
	imull	460(%rdx,%rax,4), %ecx
	movq	-40(%rbp), %rax         # 8-byte Reload
	shlq	$10, %rax
	addl	460(%rsi,%rax,4), %ecx
	movl	%ecx, 460(%rsi,%rax,4)
	movq	-104(%rbp), %rax        # 8-byte Reload
	shlq	$10, %rax
	movl	-108(%rbp), %ecx        # 4-byte Reload
	imull	464(%rdx,%rax,4), %ecx
	movq	-40(%rbp), %rax         # 8-byte Reload
	shlq	$10, %rax
	addl	464(%rsi,%rax,4), %ecx
	movl	%ecx, 464(%rsi,%rax,4)
	movq	-104(%rbp), %rax        # 8-byte Reload
	shlq	$10, %rax
	movl	-108(%rbp), %ecx        # 4-byte Reload
	imull	468(%rdx,%rax,4), %ecx
	movq	-40(%rbp), %rax         # 8-byte Reload
	shlq	$10, %rax
	addl	468(%rsi,%rax,4), %ecx
	movl	%ecx, 468(%rsi,%rax,4)
	movq	-104(%rbp), %rax        # 8-byte Reload
	shlq	$10, %rax
	movl	-108(%rbp), %ecx        # 4-byte Reload
	imull	472(%rdx,%rax,4), %ecx
	movq	-40(%rbp), %rax         # 8-byte Reload
	shlq	$10, %rax
	addl	472(%rsi,%rax,4), %ecx
	movl	%ecx, 472(%rsi,%rax,4)
	movq	-104(%rbp), %rax        # 8-byte Reload
	shlq	$10, %rax
	movl	-108(%rbp), %ecx        # 4-byte Reload
	imull	476(%rdx,%rax,4), %ecx
	movq	-40(%rbp), %rax         # 8-byte Reload
	shlq	$10, %rax
	addl	476(%rsi,%rax,4), %ecx
	movl	%ecx, 476(%rsi,%rax,4)
	movq	-104(%rbp), %rax        # 8-byte Reload
	shlq	$10, %rax
	movl	-108(%rbp), %ecx        # 4-byte Reload
	imull	480(%rdx,%rax,4), %ecx
	movq	-40(%rbp), %rax         # 8-byte Reload
	shlq	$10, %rax
	addl	480(%rsi,%rax,4), %ecx
	movl	%ecx, 480(%rsi,%rax,4)
	movq	-104(%rbp), %rax        # 8-byte Reload
	shlq	$10, %rax
	movl	-108(%rbp), %ecx        # 4-byte Reload
	imull	484(%rdx,%rax,4), %ecx
	movq	-40(%rbp), %rax         # 8-byte Reload
	shlq	$10, %rax
	addl	484(%rsi,%rax,4), %ecx
	movl	%ecx, 484(%rsi,%rax,4)
	movq	-104(%rbp), %rax        # 8-byte Reload
	shlq	$10, %rax
	movl	-108(%rbp), %ecx        # 4-byte Reload
	imull	488(%rdx,%rax,4), %ecx
	movq	-40(%rbp), %rax         # 8-byte Reload
	shlq	$10, %rax
	addl	488(%rsi,%rax,4), %ecx
	movl	%ecx, 488(%rsi,%rax,4)
	movq	-104(%rbp), %rax        # 8-byte Reload
	shlq	$10, %rax
	movl	-108(%rbp), %ecx        # 4-byte Reload
	imull	492(%rdx,%rax,4), %ecx
	movq	-40(%rbp), %rax         # 8-byte Reload
	shlq	$10, %rax
	addl	492(%rsi,%rax,4), %ecx
	movl	%ecx, 492(%rsi,%rax,4)
	movq	-104(%rbp), %rax        # 8-byte Reload
	shlq	$10, %rax
	movl	-108(%rbp), %ecx        # 4-byte Reload
	imull	496(%rdx,%rax,4), %ecx
	movq	-40(%rbp), %rax         # 8-byte Reload
	shlq	$10, %rax
	addl	496(%rsi,%rax,4), %ecx
	movl	%ecx, 496(%rsi,%rax,4)
	movq	-104(%rbp), %rax        # 8-byte Reload
	shlq	$10, %rax
	movl	-108(%rbp), %ecx        # 4-byte Reload
	imull	500(%rdx,%rax,4), %ecx
	movq	-40(%rbp), %rax         # 8-byte Reload
	shlq	$10, %rax
	addl	500(%rsi,%rax,4), %ecx
	movl	%ecx, 500(%rsi,%rax,4)
	movq	-104(%rbp), %rax        # 8-byte Reload
	shlq	$10, %rax
	movl	-108(%rbp), %ecx        # 4-byte Reload
	imull	504(%rdx,%rax,4), %ecx
	movq	-40(%rbp), %rax         # 8-byte Reload
	shlq	$10, %rax
	addl	504(%rsi,%rax,4), %ecx
	movl	%ecx, 504(%rsi,%rax,4)
	movq	-104(%rbp), %rax        # 8-byte Reload
	shlq	$10, %rax
	movl	-108(%rbp), %ecx        # 4-byte Reload
	imull	508(%rdx,%rax,4), %ecx
	movq	-40(%rbp), %rax         # 8-byte Reload
	shlq	$10, %rax
	addl	508(%rsi,%rax,4), %ecx
	movl	%ecx, 508(%rsi,%rax,4)
	movq	-104(%rbp), %rax        # 8-byte Reload
	shlq	$10, %rax
	movl	-108(%rbp), %ecx        # 4-byte Reload
	imull	512(%rdx,%rax,4), %ecx
	movq	-40(%rbp), %rax         # 8-byte Reload
	shlq	$10, %rax
	addl	512(%rsi,%rax,4), %ecx
	movl	%ecx, 512(%rsi,%rax,4)
	movq	-104(%rbp), %rax        # 8-byte Reload
	shlq	$10, %rax
	movl	-108(%rbp), %ecx        # 4-byte Reload
	imull	516(%rdx,%rax,4), %ecx
	movq	-40(%rbp), %rax         # 8-byte Reload
	shlq	$10, %rax
	addl	516(%rsi,%rax,4), %ecx
	movl	%ecx, 516(%rsi,%rax,4)
	movq	-104(%rbp), %rax        # 8-byte Reload
	shlq	$10, %rax
	movl	-108(%rbp), %ecx        # 4-byte Reload
	imull	520(%rdx,%rax,4), %ecx
	movq	-40(%rbp), %rax         # 8-byte Reload
	shlq	$10, %rax
	addl	520(%rsi,%rax,4), %ecx
	movl	%ecx, 520(%rsi,%rax,4)
	movq	-104(%rbp), %rax        # 8-byte Reload
	shlq	$10, %rax
	movl	-108(%rbp), %ecx        # 4-byte Reload
	imull	524(%rdx,%rax,4), %ecx
	movq	-40(%rbp), %rax         # 8-byte Reload
	shlq	$10, %rax
	addl	524(%rsi,%rax,4), %ecx
	movl	%ecx, 524(%rsi,%rax,4)
	movq	-104(%rbp), %rax        # 8-byte Reload
	shlq	$10, %rax
	movl	-108(%rbp), %ecx        # 4-byte Reload
	imull	528(%rdx,%rax,4), %ecx
	movq	-40(%rbp), %rax         # 8-byte Reload
	shlq	$10, %rax
	addl	528(%rsi,%rax,4), %ecx
	movl	%ecx, 528(%rsi,%rax,4)
	movq	-104(%rbp), %rax        # 8-byte Reload
	shlq	$10, %rax
	movl	-108(%rbp), %ecx        # 4-byte Reload
	imull	532(%rdx,%rax,4), %ecx
	movq	-40(%rbp), %rax         # 8-byte Reload
	shlq	$10, %rax
	addl	532(%rsi,%rax,4), %ecx
	movl	%ecx, 532(%rsi,%rax,4)
	movq	-104(%rbp), %rax        # 8-byte Reload
	shlq	$10, %rax
	movl	-108(%rbp), %ecx        # 4-byte Reload
	imull	536(%rdx,%rax,4), %ecx
	movq	-40(%rbp), %rax         # 8-byte Reload
	shlq	$10, %rax
	addl	536(%rsi,%rax,4), %ecx
	movl	%ecx, 536(%rsi,%rax,4)
	movq	-104(%rbp), %rax        # 8-byte Reload
	shlq	$10, %rax
	movl	-108(%rbp), %ecx        # 4-byte Reload
	imull	540(%rdx,%rax,4), %ecx
	movq	-40(%rbp), %rax         # 8-byte Reload
	shlq	$10, %rax
	addl	540(%rsi,%rax,4), %ecx
	movl	%ecx, 540(%rsi,%rax,4)
	movq	-104(%rbp), %rax        # 8-byte Reload
	shlq	$10, %rax
	movl	-108(%rbp), %ecx        # 4-byte Reload
	imull	544(%rdx,%rax,4), %ecx
	movq	-40(%rbp), %rax         # 8-byte Reload
	shlq	$10, %rax
	addl	544(%rsi,%rax,4), %ecx
	movl	%ecx, 544(%rsi,%rax,4)
	movq	-104(%rbp), %rax        # 8-byte Reload
	shlq	$10, %rax
	movl	-108(%rbp), %ecx        # 4-byte Reload
	imull	548(%rdx,%rax,4), %ecx
	movq	-40(%rbp), %rax         # 8-byte Reload
	shlq	$10, %rax
	addl	548(%rsi,%rax,4), %ecx
	movl	%ecx, 548(%rsi,%rax,4)
	movq	-104(%rbp), %rax        # 8-byte Reload
	shlq	$10, %rax
	movl	-108(%rbp), %ecx        # 4-byte Reload
	imull	552(%rdx,%rax,4), %ecx
	movq	-40(%rbp), %rax         # 8-byte Reload
	shlq	$10, %rax
	addl	552(%rsi,%rax,4), %ecx
	movl	%ecx, 552(%rsi,%rax,4)
	movq	-104(%rbp), %rax        # 8-byte Reload
	shlq	$10, %rax
	movl	-108(%rbp), %ecx        # 4-byte Reload
	imull	556(%rdx,%rax,4), %ecx
	movq	-40(%rbp), %rax         # 8-byte Reload
	shlq	$10, %rax
	addl	556(%rsi,%rax,4), %ecx
	movl	%ecx, 556(%rsi,%rax,4)
	movq	-104(%rbp), %rax        # 8-byte Reload
	shlq	$10, %rax
	movl	-108(%rbp), %ecx        # 4-byte Reload
	imull	560(%rdx,%rax,4), %ecx
	movq	-40(%rbp), %rax         # 8-byte Reload
	shlq	$10, %rax
	addl	560(%rsi,%rax,4), %ecx
	movl	%ecx, 560(%rsi,%rax,4)
	movq	-104(%rbp), %rax        # 8-byte Reload
	shlq	$10, %rax
	movl	-108(%rbp), %ecx        # 4-byte Reload
	imull	564(%rdx,%rax,4), %ecx
	movq	-40(%rbp), %rax         # 8-byte Reload
	shlq	$10, %rax
	addl	564(%rsi,%rax,4), %ecx
	movl	%ecx, 564(%rsi,%rax,4)
	movq	-104(%rbp), %rax        # 8-byte Reload
	shlq	$10, %rax
	movl	-108(%rbp), %ecx        # 4-byte Reload
	imull	568(%rdx,%rax,4), %ecx
	movq	-40(%rbp), %rax         # 8-byte Reload
	shlq	$10, %rax
	addl	568(%rsi,%rax,4), %ecx
	movl	%ecx, 568(%rsi,%rax,4)
	movq	-104(%rbp), %rax        # 8-byte Reload
	shlq	$10, %rax
	movl	-108(%rbp), %ecx        # 4-byte Reload
	imull	572(%rdx,%rax,4), %ecx
	movq	-40(%rbp), %rax         # 8-byte Reload
	shlq	$10, %rax
	addl	572(%rsi,%rax,4), %ecx
	movl	%ecx, 572(%rsi,%rax,4)
	movq	-104(%rbp), %rax        # 8-byte Reload
	shlq	$10, %rax
	movl	-108(%rbp), %ecx        # 4-byte Reload
	imull	576(%rdx,%rax,4), %ecx
	movq	-40(%rbp), %rax         # 8-byte Reload
	shlq	$10, %rax
	addl	576(%rsi,%rax,4), %ecx
	movl	%ecx, 576(%rsi,%rax,4)
	movq	-104(%rbp), %rax        # 8-byte Reload
	shlq	$10, %rax
	movl	-108(%rbp), %ecx        # 4-byte Reload
	imull	580(%rdx,%rax,4), %ecx
	movq	-40(%rbp), %rax         # 8-byte Reload
	shlq	$10, %rax
	addl	580(%rsi,%rax,4), %ecx
	movl	%ecx, 580(%rsi,%rax,4)
	movq	-104(%rbp), %rax        # 8-byte Reload
	shlq	$10, %rax
	movl	-108(%rbp), %ecx        # 4-byte Reload
	imull	584(%rdx,%rax,4), %ecx
	movq	-40(%rbp), %rax         # 8-byte Reload
	shlq	$10, %rax
	addl	584(%rsi,%rax,4), %ecx
	movl	%ecx, 584(%rsi,%rax,4)
	movq	-104(%rbp), %rax        # 8-byte Reload
	shlq	$10, %rax
	movl	-108(%rbp), %ecx        # 4-byte Reload
	imull	588(%rdx,%rax,4), %ecx
	movq	-40(%rbp), %rax         # 8-byte Reload
	shlq	$10, %rax
	addl	588(%rsi,%rax,4), %ecx
	movl	%ecx, 588(%rsi,%rax,4)
	movq	-104(%rbp), %rax        # 8-byte Reload
	shlq	$10, %rax
	movl	-108(%rbp), %ecx        # 4-byte Reload
	imull	592(%rdx,%rax,4), %ecx
	movq	-40(%rbp), %rax         # 8-byte Reload
	shlq	$10, %rax
	addl	592(%rsi,%rax,4), %ecx
	movl	%ecx, 592(%rsi,%rax,4)
	movq	-104(%rbp), %rax        # 8-byte Reload
	shlq	$10, %rax
	movl	-108(%rbp), %ecx        # 4-byte Reload
	imull	596(%rdx,%rax,4), %ecx
	movq	-40(%rbp), %rax         # 8-byte Reload
	shlq	$10, %rax
	addl	596(%rsi,%rax,4), %ecx
	movl	%ecx, 596(%rsi,%rax,4)
	movq	-104(%rbp), %rax        # 8-byte Reload
	shlq	$10, %rax
	movl	-108(%rbp), %ecx        # 4-byte Reload
	imull	600(%rdx,%rax,4), %ecx
	movq	-40(%rbp), %rax         # 8-byte Reload
	shlq	$10, %rax
	addl	600(%rsi,%rax,4), %ecx
	movl	%ecx, 600(%rsi,%rax,4)
	movq	-104(%rbp), %rax        # 8-byte Reload
	shlq	$10, %rax
	movl	-108(%rbp), %ecx        # 4-byte Reload
	imull	604(%rdx,%rax,4), %ecx
	movq	-40(%rbp), %rax         # 8-byte Reload
	shlq	$10, %rax
	addl	604(%rsi,%rax,4), %ecx
	movl	%ecx, 604(%rsi,%rax,4)
	movq	-104(%rbp), %rax        # 8-byte Reload
	shlq	$10, %rax
	movl	-108(%rbp), %ecx        # 4-byte Reload
	imull	608(%rdx,%rax,4), %ecx
	movq	-40(%rbp), %rax         # 8-byte Reload
	shlq	$10, %rax
	addl	608(%rsi,%rax,4), %ecx
	movl	%ecx, 608(%rsi,%rax,4)
	movq	-104(%rbp), %rax        # 8-byte Reload
	shlq	$10, %rax
	movl	-108(%rbp), %ecx        # 4-byte Reload
	imull	612(%rdx,%rax,4), %ecx
	movq	-40(%rbp), %rax         # 8-byte Reload
	shlq	$10, %rax
	addl	612(%rsi,%rax,4), %ecx
	movl	%ecx, 612(%rsi,%rax,4)
	movq	-104(%rbp), %rax        # 8-byte Reload
	shlq	$10, %rax
	movl	-108(%rbp), %ecx        # 4-byte Reload
	imull	616(%rdx,%rax,4), %ecx
	movq	-40(%rbp), %rax         # 8-byte Reload
	shlq	$10, %rax
	addl	616(%rsi,%rax,4), %ecx
	movl	%ecx, 616(%rsi,%rax,4)
	movq	-104(%rbp), %rax        # 8-byte Reload
	shlq	$10, %rax
	movl	-108(%rbp), %ecx        # 4-byte Reload
	imull	620(%rdx,%rax,4), %ecx
	movq	-40(%rbp), %rax         # 8-byte Reload
	shlq	$10, %rax
	addl	620(%rsi,%rax,4), %ecx
	movl	%ecx, 620(%rsi,%rax,4)
	movq	-104(%rbp), %rax        # 8-byte Reload
	shlq	$10, %rax
	movl	-108(%rbp), %ecx        # 4-byte Reload
	imull	624(%rdx,%rax,4), %ecx
	movq	-40(%rbp), %rax         # 8-byte Reload
	shlq	$10, %rax
	addl	624(%rsi,%rax,4), %ecx
	movl	%ecx, 624(%rsi,%rax,4)
	movq	-104(%rbp), %rax        # 8-byte Reload
	shlq	$10, %rax
	movl	-108(%rbp), %ecx        # 4-byte Reload
	imull	628(%rdx,%rax,4), %ecx
	movq	-40(%rbp), %rax         # 8-byte Reload
	shlq	$10, %rax
	addl	628(%rsi,%rax,4), %ecx
	movl	%ecx, 628(%rsi,%rax,4)
	movq	-104(%rbp), %rax        # 8-byte Reload
	shlq	$10, %rax
	movl	-108(%rbp), %ecx        # 4-byte Reload
	imull	632(%rdx,%rax,4), %ecx
	movq	-40(%rbp), %rax         # 8-byte Reload
	shlq	$10, %rax
	addl	632(%rsi,%rax,4), %ecx
	movl	%ecx, 632(%rsi,%rax,4)
	movq	-104(%rbp), %rax        # 8-byte Reload
	shlq	$10, %rax
	movl	-108(%rbp), %ecx        # 4-byte Reload
	imull	636(%rdx,%rax,4), %ecx
	movq	-40(%rbp), %rax         # 8-byte Reload
	shlq	$10, %rax
	addl	636(%rsi,%rax,4), %ecx
	movl	%ecx, 636(%rsi,%rax,4)
	movq	-104(%rbp), %rax        # 8-byte Reload
	shlq	$10, %rax
	movl	-108(%rbp), %ecx        # 4-byte Reload
	imull	640(%rdx,%rax,4), %ecx
	movq	-40(%rbp), %rax         # 8-byte Reload
	shlq	$10, %rax
	addl	640(%rsi,%rax,4), %ecx
	movl	%ecx, 640(%rsi,%rax,4)
	movq	-104(%rbp), %rax        # 8-byte Reload
	shlq	$10, %rax
	movl	-108(%rbp), %ecx        # 4-byte Reload
	imull	644(%rdx,%rax,4), %ecx
	movq	-40(%rbp), %rax         # 8-byte Reload
	shlq	$10, %rax
	addl	644(%rsi,%rax,4), %ecx
	movl	%ecx, 644(%rsi,%rax,4)
	movq	-104(%rbp), %rax        # 8-byte Reload
	shlq	$10, %rax
	movl	-108(%rbp), %ecx        # 4-byte Reload
	imull	648(%rdx,%rax,4), %ecx
	movq	-40(%rbp), %rax         # 8-byte Reload
	shlq	$10, %rax
	addl	648(%rsi,%rax,4), %ecx
	movl	%ecx, 648(%rsi,%rax,4)
	movq	-104(%rbp), %rax        # 8-byte Reload
	shlq	$10, %rax
	movl	-108(%rbp), %ecx        # 4-byte Reload
	imull	652(%rdx,%rax,4), %ecx
	movq	-40(%rbp), %rax         # 8-byte Reload
	shlq	$10, %rax
	addl	652(%rsi,%rax,4), %ecx
	movl	%ecx, 652(%rsi,%rax,4)
	movq	-104(%rbp), %rax        # 8-byte Reload
	shlq	$10, %rax
	movl	-108(%rbp), %ecx        # 4-byte Reload
	imull	656(%rdx,%rax,4), %ecx
	movq	-40(%rbp), %rax         # 8-byte Reload
	shlq	$10, %rax
	addl	656(%rsi,%rax,4), %ecx
	movl	%ecx, 656(%rsi,%rax,4)
	movq	-104(%rbp), %rax        # 8-byte Reload
	shlq	$10, %rax
	movl	-108(%rbp), %ecx        # 4-byte Reload
	imull	660(%rdx,%rax,4), %ecx
	movq	-40(%rbp), %rax         # 8-byte Reload
	shlq	$10, %rax
	addl	660(%rsi,%rax,4), %ecx
	movl	%ecx, 660(%rsi,%rax,4)
	movq	-104(%rbp), %rax        # 8-byte Reload
	shlq	$10, %rax
	movl	-108(%rbp), %ecx        # 4-byte Reload
	imull	664(%rdx,%rax,4), %ecx
	movq	-40(%rbp), %rax         # 8-byte Reload
	shlq	$10, %rax
	addl	664(%rsi,%rax,4), %ecx
	movl	%ecx, 664(%rsi,%rax,4)
	movq	-104(%rbp), %rax        # 8-byte Reload
	shlq	$10, %rax
	movl	-108(%rbp), %ecx        # 4-byte Reload
	imull	668(%rdx,%rax,4), %ecx
	movq	-40(%rbp), %rax         # 8-byte Reload
	shlq	$10, %rax
	addl	668(%rsi,%rax,4), %ecx
	movl	%ecx, 668(%rsi,%rax,4)
	movq	-104(%rbp), %rax        # 8-byte Reload
	shlq	$10, %rax
	movl	-108(%rbp), %ecx        # 4-byte Reload
	imull	672(%rdx,%rax,4), %ecx
	movq	-40(%rbp), %rax         # 8-byte Reload
	shlq	$10, %rax
	addl	672(%rsi,%rax,4), %ecx
	movl	%ecx, 672(%rsi,%rax,4)
	movq	-104(%rbp), %rax        # 8-byte Reload
	shlq	$10, %rax
	movl	-108(%rbp), %ecx        # 4-byte Reload
	imull	676(%rdx,%rax,4), %ecx
	movq	-40(%rbp), %rax         # 8-byte Reload
	shlq	$10, %rax
	addl	676(%rsi,%rax,4), %ecx
	movl	%ecx, 676(%rsi,%rax,4)
	movq	-104(%rbp), %rax        # 8-byte Reload
	shlq	$10, %rax
	movl	-108(%rbp), %ecx        # 4-byte Reload
	imull	680(%rdx,%rax,4), %ecx
	movq	-40(%rbp), %rax         # 8-byte Reload
	shlq	$10, %rax
	addl	680(%rsi,%rax,4), %ecx
	movl	%ecx, 680(%rsi,%rax,4)
	movq	-104(%rbp), %rax        # 8-byte Reload
	shlq	$10, %rax
	movl	-108(%rbp), %ecx        # 4-byte Reload
	imull	684(%rdx,%rax,4), %ecx
	movq	-40(%rbp), %rax         # 8-byte Reload
	shlq	$10, %rax
	addl	684(%rsi,%rax,4), %ecx
	movl	%ecx, 684(%rsi,%rax,4)
	movq	-104(%rbp), %rax        # 8-byte Reload
	shlq	$10, %rax
	movl	-108(%rbp), %ecx        # 4-byte Reload
	imull	688(%rdx,%rax,4), %ecx
	movq	-40(%rbp), %rax         # 8-byte Reload
	shlq	$10, %rax
	addl	688(%rsi,%rax,4), %ecx
	movl	%ecx, 688(%rsi,%rax,4)
	movq	-104(%rbp), %rax        # 8-byte Reload
	shlq	$10, %rax
	movl	-108(%rbp), %ecx        # 4-byte Reload
	imull	692(%rdx,%rax,4), %ecx
	movq	-40(%rbp), %rax         # 8-byte Reload
	shlq	$10, %rax
	addl	692(%rsi,%rax,4), %ecx
	movl	%ecx, 692(%rsi,%rax,4)
	movq	-104(%rbp), %rax        # 8-byte Reload
	shlq	$10, %rax
	movl	-108(%rbp), %ecx        # 4-byte Reload
	imull	696(%rdx,%rax,4), %ecx
	movq	-40(%rbp), %rax         # 8-byte Reload
	shlq	$10, %rax
	addl	696(%rsi,%rax,4), %ecx
	movl	%ecx, 696(%rsi,%rax,4)
	movq	-104(%rbp), %rax        # 8-byte Reload
	shlq	$10, %rax
	movl	-108(%rbp), %ecx        # 4-byte Reload
	imull	700(%rdx,%rax,4), %ecx
	movq	-40(%rbp), %rax         # 8-byte Reload
	shlq	$10, %rax
	addl	700(%rsi,%rax,4), %ecx
	movl	%ecx, 700(%rsi,%rax,4)
	movq	-104(%rbp), %rax        # 8-byte Reload
	shlq	$10, %rax
	movl	-108(%rbp), %ecx        # 4-byte Reload
	imull	704(%rdx,%rax,4), %ecx
	movq	-40(%rbp), %rax         # 8-byte Reload
	shlq	$10, %rax
	addl	704(%rsi,%rax,4), %ecx
	movl	%ecx, 704(%rsi,%rax,4)
	movq	-104(%rbp), %rax        # 8-byte Reload
	shlq	$10, %rax
	movl	-108(%rbp), %ecx        # 4-byte Reload
	imull	708(%rdx,%rax,4), %ecx
	movq	-40(%rbp), %rax         # 8-byte Reload
	shlq	$10, %rax
	addl	708(%rsi,%rax,4), %ecx
	movl	%ecx, 708(%rsi,%rax,4)
	movq	-104(%rbp), %rax        # 8-byte Reload
	shlq	$10, %rax
	movl	-108(%rbp), %ecx        # 4-byte Reload
	imull	712(%rdx,%rax,4), %ecx
	movq	-40(%rbp), %rax         # 8-byte Reload
	shlq	$10, %rax
	addl	712(%rsi,%rax,4), %ecx
	movl	%ecx, 712(%rsi,%rax,4)
	movq	-104(%rbp), %rax        # 8-byte Reload
	shlq	$10, %rax
	movl	-108(%rbp), %ecx        # 4-byte Reload
	imull	716(%rdx,%rax,4), %ecx
	movq	-40(%rbp), %rax         # 8-byte Reload
	shlq	$10, %rax
	addl	716(%rsi,%rax,4), %ecx
	movl	%ecx, 716(%rsi,%rax,4)
	movq	-104(%rbp), %rax        # 8-byte Reload
	shlq	$10, %rax
	movl	-108(%rbp), %ecx        # 4-byte Reload
	imull	720(%rdx,%rax,4), %ecx
	movq	-40(%rbp), %rax         # 8-byte Reload
	shlq	$10, %rax
	addl	720(%rsi,%rax,4), %ecx
	movl	%ecx, 720(%rsi,%rax,4)
	movq	-104(%rbp), %rax        # 8-byte Reload
	shlq	$10, %rax
	movl	-108(%rbp), %ecx        # 4-byte Reload
	imull	724(%rdx,%rax,4), %ecx
	movq	-40(%rbp), %rax         # 8-byte Reload
	shlq	$10, %rax
	addl	724(%rsi,%rax,4), %ecx
	movl	%ecx, 724(%rsi,%rax,4)
	movq	-104(%rbp), %rax        # 8-byte Reload
	shlq	$10, %rax
	movl	-108(%rbp), %ecx        # 4-byte Reload
	imull	728(%rdx,%rax,4), %ecx
	movq	-40(%rbp), %rax         # 8-byte Reload
	shlq	$10, %rax
	addl	728(%rsi,%rax,4), %ecx
	movl	%ecx, 728(%rsi,%rax,4)
	movq	-104(%rbp), %rax        # 8-byte Reload
	shlq	$10, %rax
	movl	-108(%rbp), %ecx        # 4-byte Reload
	imull	732(%rdx,%rax,4), %ecx
	movq	-40(%rbp), %rax         # 8-byte Reload
	shlq	$10, %rax
	addl	732(%rsi,%rax,4), %ecx
	movl	%ecx, 732(%rsi,%rax,4)
	movq	-104(%rbp), %rax        # 8-byte Reload
	shlq	$10, %rax
	movl	-108(%rbp), %ecx        # 4-byte Reload
	imull	736(%rdx,%rax,4), %ecx
	movq	-40(%rbp), %rax         # 8-byte Reload
	shlq	$10, %rax
	addl	736(%rsi,%rax,4), %ecx
	movl	%ecx, 736(%rsi,%rax,4)
	movq	-104(%rbp), %rax        # 8-byte Reload
	shlq	$10, %rax
	movl	-108(%rbp), %ecx        # 4-byte Reload
	imull	740(%rdx,%rax,4), %ecx
	movq	-40(%rbp), %rax         # 8-byte Reload
	shlq	$10, %rax
	addl	740(%rsi,%rax,4), %ecx
	movl	%ecx, 740(%rsi,%rax,4)
	movq	-104(%rbp), %rax        # 8-byte Reload
	shlq	$10, %rax
	movl	-108(%rbp), %ecx        # 4-byte Reload
	imull	744(%rdx,%rax,4), %ecx
	movq	-40(%rbp), %rax         # 8-byte Reload
	shlq	$10, %rax
	addl	744(%rsi,%rax,4), %ecx
	movl	%ecx, 744(%rsi,%rax,4)
	movq	-104(%rbp), %rax        # 8-byte Reload
	shlq	$10, %rax
	movl	-108(%rbp), %ecx        # 4-byte Reload
	imull	748(%rdx,%rax,4), %ecx
	movq	-40(%rbp), %rax         # 8-byte Reload
	shlq	$10, %rax
	addl	748(%rsi,%rax,4), %ecx
	movl	%ecx, 748(%rsi,%rax,4)
