	.text
	.file	"pp_scan_3_32.c"
	.globl	print                   # -- Begin function print
	.p2align	4, 0x90
	.type	print,@function
print:                                  # @print
	.cfi_startproc
# %bb.0:                                # %entry
	pushq	%rbp
	.cfi_def_cfa_offset 16
	.cfi_offset %rbp, -16
	movq	%rsp, %rbp
	.cfi_def_cfa_register %rbp
	subq	$48, %rsp
	cmpl	$0, %esi
	movq	%rdi, -8(%rbp)          # 8-byte Spill
	movl	%esi, -12(%rbp)         # 4-byte Spill
	jle	.LBB0_4
# %bb.1:                                # %for.body.preheader
	xorl	%eax, %eax
	movl	%eax, %ecx
	movl	-12(%rbp), %eax         # 4-byte Reload
	movl	%eax, %edx
	movl	%edx, %esi
	movq	%rsi, -24(%rbp)         # 8-byte Spill
	movq	%rcx, -32(%rbp)         # 8-byte Spill
.LBB0_2:                                # %for.body
                                        # =>This Inner Loop Header: Depth=1
	movq	-32(%rbp), %rax         # 8-byte Reload
	movq	-8(%rbp), %rcx          # 8-byte Reload
	movl	(%rcx,%rax,4), %esi
	movabsq	$.L.str, %rdi
	movq	%rax, -40(%rbp)         # 8-byte Spill
	movb	$0, %al
	callq	printf
	movq	-40(%rbp), %rcx         # 8-byte Reload
	addq	$1, %rcx
	movq	-24(%rbp), %rdx         # 8-byte Reload
	cmpq	%rdx, %rcx
	movl	%eax, -44(%rbp)         # 4-byte Spill
	movq	%rcx, -32(%rbp)         # 8-byte Spill
	jne	.LBB0_2
# %bb.3:                                # %for.end.loopexit
	jmp	.LBB0_4
.LBB0_4:                                # %for.end
	addq	$48, %rsp
	popq	%rbp
	.cfi_def_cfa %rsp, 8
	retq
.Lfunc_end0:
	.size	print, .Lfunc_end0-print
	.cfi_endproc
                                        # -- End function
	.globl	local_scan              # -- Begin function local_scan
	.p2align	4, 0x90
	.type	local_scan,@function
local_scan:                             # @local_scan
	.cfi_startproc
# %bb.0:                                # %entry
	pushq	%rbp
	.cfi_def_cfa_offset 16
	.cfi_offset %rbp, -16
	movq	%rsp, %rbp
	.cfi_def_cfa_register %rbp
	xorl	%eax, %eax
	movl	%eax, %ecx
	movq	%rdi, -8(%rbp)          # 8-byte Spill
	movq	%rcx, -16(%rbp)         # 8-byte Spill
	jmp	.LBB1_1
.LBB1_1:                                # %for.body
                                        # =>This Loop Header: Depth=1
                                        #     Child Loop BB1_2 Depth 2
	movq	-16(%rbp), %rax         # 8-byte Reload
	movl	$1, %ecx
	movq	%rax, -24(%rbp)         # 8-byte Spill
	movq	%rcx, -32(%rbp)         # 8-byte Spill
.LBB1_2:                                # %for.body3
                                        #   Parent Loop BB1_1 Depth=1
                                        # =>  This Inner Loop Header: Depth=2
	movq	-32(%rbp), %rax         # 8-byte Reload
	movq	-24(%rbp), %rcx         # 8-byte Reload
	shlq	$4, %rcx
	addq	%rax, %rcx
	movq	-8(%rbp), %rdx          # 8-byte Reload
	movl	-4(%rdx,%rcx,4), %esi
	movq	-24(%rbp), %rcx         # 8-byte Reload
	shlq	$4, %rcx
	addq	%rax, %rcx
	addl	(%rdx,%rcx,4), %esi
	movl	%esi, (%rdx,%rcx,4)
	addq	$1, %rax
	cmpq	$16, %rax
	movq	%rax, -32(%rbp)         # 8-byte Spill
	jne	.LBB1_2
# %bb.3:                                # %for.inc9
                                        #   in Loop: Header=BB1_1 Depth=1
	movq	-24(%rbp), %rax         # 8-byte Reload
	addq	$1, %rax
	cmpq	$524288, %rax           # imm = 0x80000
	movq	%rax, -16(%rbp)         # 8-byte Spill
	jne	.LBB1_1
# %bb.4:                                # %for.end11
	popq	%rbp
	.cfi_def_cfa %rsp, 8
	retq
.Lfunc_end1:
	.size	local_scan, .Lfunc_end1-local_scan
	.cfi_endproc
                                        # -- End function
	.globl	sum_scan                # -- Begin function sum_scan
	.p2align	4, 0x90
	.type	sum_scan,@function
sum_scan:                               # @sum_scan
	.cfi_startproc
# %bb.0:                                # %entry
	pushq	%rbp
	.cfi_def_cfa_offset 16
	.cfi_offset %rbp, -16
	movq	%rsp, %rbp
	.cfi_def_cfa_register %rbp
	movl	$0, (%rdi)
	movl	$1, %eax
	movq	%rdi, -8(%rbp)          # 8-byte Spill
	movq	%rsi, -16(%rbp)         # 8-byte Spill
	movq	%rax, -24(%rbp)         # 8-byte Spill
.LBB2_1:                                # %for.body
                                        # =>This Inner Loop Header: Depth=1
	movq	-24(%rbp), %rax         # 8-byte Reload
	movq	-8(%rbp), %rcx          # 8-byte Reload
	movl	-4(%rcx,%rax,4), %edx
	movq	%rax, %rsi
	shlq	$4, %rsi
	movq	-16(%rbp), %rdi         # 8-byte Reload
	addl	-4(%rdi,%rsi,4), %edx
	movl	%edx, (%rcx,%rax,4)
	addq	$1, %rax
	cmpq	$524288, %rax           # imm = 0x80000
	movq	%rax, -24(%rbp)         # 8-byte Spill
	jne	.LBB2_1
# %bb.2:                                # %for.end
	popq	%rbp
	.cfi_def_cfa %rsp, 8
	retq
.Lfunc_end2:
	.size	sum_scan, .Lfunc_end2-sum_scan
	.cfi_endproc
                                        # -- End function
	.globl	last_step_scan          # -- Begin function last_step_scan
	.p2align	4, 0x90
	.type	last_step_scan,@function
last_step_scan:                         # @last_step_scan
	.cfi_startproc
# %bb.0:                                # %entry
	pushq	%rbp
	.cfi_def_cfa_offset 16
	.cfi_offset %rbp, -16
	movq	%rsp, %rbp
	.cfi_def_cfa_register %rbp
	subq	$416, %rsp              # imm = 0x1A0
	xorl	%eax, %eax
	movl	%eax, %ecx
	movq	%rdi, -8(%rbp)          # 8-byte Spill
	movq	%rsi, -16(%rbp)         # 8-byte Spill
	movq	%rdx, -24(%rbp)         # 8-byte Spill
	movq	%rcx, -32(%rbp)         # 8-byte Spill
	jmp	.LBB3_1
.LBB3_1:                                # %for.body
                                        # =>This Loop Header: Depth=1
                                        #     Child Loop BB3_2 Depth 2
                                        #     Child Loop BB3_5 Depth 2
                                        #     Child Loop BB3_7 Depth 2
                                        #     Child Loop BB3_9 Depth 2
                                        #     Child Loop BB3_11 Depth 2
                                        #     Child Loop BB3_13 Depth 2
                                        #     Child Loop BB3_15 Depth 2
                                        #     Child Loop BB3_17 Depth 2
                                        #     Child Loop BB3_19 Depth 2
                                        #     Child Loop BB3_21 Depth 2
                                        #     Child Loop BB3_23 Depth 2
                                        #     Child Loop BB3_25 Depth 2
                                        #     Child Loop BB3_27 Depth 2
                                        #     Child Loop BB3_29 Depth 2
                                        #     Child Loop BB3_31 Depth 2
                                        #     Child Loop BB3_33 Depth 2
                                        #     Child Loop BB3_35 Depth 2
                                        #     Child Loop BB3_37 Depth 2
                                        #     Child Loop BB3_39 Depth 2
                                        #     Child Loop BB3_41 Depth 2
                                        #     Child Loop BB3_43 Depth 2
                                        #     Child Loop BB3_45 Depth 2
                                        #     Child Loop BB3_47 Depth 2
                                        #     Child Loop BB3_49 Depth 2
                                        #     Child Loop BB3_51 Depth 2
                                        #     Child Loop BB3_53 Depth 2
                                        #     Child Loop BB3_55 Depth 2
                                        #     Child Loop BB3_57 Depth 2
                                        #     Child Loop BB3_59 Depth 2
                                        #     Child Loop BB3_61 Depth 2
                                        #     Child Loop BB3_63 Depth 2
                                        #     Child Loop BB3_65 Depth 2
	movq	-32(%rbp), %rax         # 8-byte Reload
	xorl	%ecx, %ecx
	movl	%ecx, %edx
	movq	%rax, -40(%rbp)         # 8-byte Spill
	movq	%rdx, -48(%rbp)         # 8-byte Spill
.LBB3_2:                                # %for.body3
                                        #   Parent Loop BB3_1 Depth=1
                                        # =>  This Inner Loop Header: Depth=2
	movq	-48(%rbp), %rax         # 8-byte Reload
	movq	-40(%rbp), %rcx         # 8-byte Reload
	shlq	$4, %rcx
	addq	%rax, %rcx
	movq	-8(%rbp), %rdx          # 8-byte Reload
	movl	(%rdx,%rcx,4), %esi
	movq	-24(%rbp), %rcx         # 8-byte Reload
	movq	-40(%rbp), %rdi         # 8-byte Reload
	addl	(%rcx,%rdi,4), %esi
	shlq	$4, %rdi
	addq	%rax, %rdi
	movq	-16(%rbp), %r8          # 8-byte Reload
	movl	%esi, (%r8,%rdi,4)
	addq	$1, %rax
	cmpq	$16, %rax
	movq	%rax, -48(%rbp)         # 8-byte Spill
	jne	.LBB3_2
# %bb.3:                                # %for.inc11
                                        #   in Loop: Header=BB3_1 Depth=1
	xorl	%eax, %eax
	movl	%eax, %ecx
	movq	-40(%rbp), %rdx         # 8-byte Reload
	addq	$1, %rdx
	movq	%rdx, -56(%rbp)         # 8-byte Spill
	movq	%rcx, -64(%rbp)         # 8-byte Spill
	jmp	.LBB3_5
.LBB3_4:                                # %for.end13
	addq	$416, %rsp              # imm = 0x1A0
	popq	%rbp
	.cfi_def_cfa %rsp, 8
	retq
.LBB3_5:                                # %for.body3.1
                                        #   Parent Loop BB3_1 Depth=1
                                        # =>  This Inner Loop Header: Depth=2
	.cfi_def_cfa %rbp, 16
	movq	-64(%rbp), %rax         # 8-byte Reload
	movq	-56(%rbp), %rcx         # 8-byte Reload
	shlq	$4, %rcx
	addq	%rax, %rcx
	movq	-8(%rbp), %rdx          # 8-byte Reload
	movl	(%rdx,%rcx,4), %esi
	movq	-24(%rbp), %rcx         # 8-byte Reload
	movq	-56(%rbp), %rdi         # 8-byte Reload
	addl	(%rcx,%rdi,4), %esi
	shlq	$4, %rdi
	addq	%rax, %rdi
	movq	-16(%rbp), %r8          # 8-byte Reload
	movl	%esi, (%r8,%rdi,4)
	addq	$1, %rax
	cmpq	$16, %rax
	movq	%rax, -64(%rbp)         # 8-byte Spill
	jne	.LBB3_5
# %bb.6:                                # %for.inc11.1
                                        #   in Loop: Header=BB3_1 Depth=1
	xorl	%eax, %eax
	movl	%eax, %ecx
	movq	-56(%rbp), %rdx         # 8-byte Reload
	addq	$1, %rdx
	movq	%rdx, -72(%rbp)         # 8-byte Spill
	movq	%rcx, -80(%rbp)         # 8-byte Spill
.LBB3_7:                                # %for.body3.2
                                        #   Parent Loop BB3_1 Depth=1
                                        # =>  This Inner Loop Header: Depth=2
	movq	-80(%rbp), %rax         # 8-byte Reload
	movq	-72(%rbp), %rcx         # 8-byte Reload
	shlq	$4, %rcx
	addq	%rax, %rcx
	movq	-8(%rbp), %rdx          # 8-byte Reload
	movl	(%rdx,%rcx,4), %esi
	movq	-24(%rbp), %rcx         # 8-byte Reload
	movq	-72(%rbp), %rdi         # 8-byte Reload
	addl	(%rcx,%rdi,4), %esi
	shlq	$4, %rdi
	addq	%rax, %rdi
	movq	-16(%rbp), %r8          # 8-byte Reload
	movl	%esi, (%r8,%rdi,4)
	addq	$1, %rax
	cmpq	$16, %rax
	movq	%rax, -80(%rbp)         # 8-byte Spill
	jne	.LBB3_7
# %bb.8:                                # %for.inc11.2
                                        #   in Loop: Header=BB3_1 Depth=1
	xorl	%eax, %eax
	movl	%eax, %ecx
	movq	-72(%rbp), %rdx         # 8-byte Reload
	addq	$1, %rdx
	movq	%rdx, -88(%rbp)         # 8-byte Spill
	movq	%rcx, -96(%rbp)         # 8-byte Spill
.LBB3_9:                                # %for.body3.3
                                        #   Parent Loop BB3_1 Depth=1
                                        # =>  This Inner Loop Header: Depth=2
	movq	-96(%rbp), %rax         # 8-byte Reload
	movq	-88(%rbp), %rcx         # 8-byte Reload
	shlq	$4, %rcx
	addq	%rax, %rcx
	movq	-8(%rbp), %rdx          # 8-byte Reload
	movl	(%rdx,%rcx,4), %esi
	movq	-24(%rbp), %rcx         # 8-byte Reload
	movq	-88(%rbp), %rdi         # 8-byte Reload
	addl	(%rcx,%rdi,4), %esi
	shlq	$4, %rdi
	addq	%rax, %rdi
	movq	-16(%rbp), %r8          # 8-byte Reload
	movl	%esi, (%r8,%rdi,4)
	addq	$1, %rax
	cmpq	$16, %rax
	movq	%rax, -96(%rbp)         # 8-byte Spill
	jne	.LBB3_9
# %bb.10:                               # %for.inc11.3
                                        #   in Loop: Header=BB3_1 Depth=1
	xorl	%eax, %eax
	movl	%eax, %ecx
	movq	-88(%rbp), %rdx         # 8-byte Reload
	addq	$1, %rdx
	movq	%rdx, -104(%rbp)        # 8-byte Spill
	movq	%rcx, -112(%rbp)        # 8-byte Spill
.LBB3_11:                               # %for.body3.4
                                        #   Parent Loop BB3_1 Depth=1
                                        # =>  This Inner Loop Header: Depth=2
	movq	-112(%rbp), %rax        # 8-byte Reload
	movq	-104(%rbp), %rcx        # 8-byte Reload
	shlq	$4, %rcx
	addq	%rax, %rcx
	movq	-8(%rbp), %rdx          # 8-byte Reload
	movl	(%rdx,%rcx,4), %esi
	movq	-24(%rbp), %rcx         # 8-byte Reload
	movq	-104(%rbp), %rdi        # 8-byte Reload
	addl	(%rcx,%rdi,4), %esi
	shlq	$4, %rdi
	addq	%rax, %rdi
	movq	-16(%rbp), %r8          # 8-byte Reload
	movl	%esi, (%r8,%rdi,4)
	addq	$1, %rax
	cmpq	$16, %rax
	movq	%rax, -112(%rbp)        # 8-byte Spill
	jne	.LBB3_11
# %bb.12:                               # %for.inc11.4
                                        #   in Loop: Header=BB3_1 Depth=1
	xorl	%eax, %eax
	movl	%eax, %ecx
	movq	-104(%rbp), %rdx        # 8-byte Reload
	addq	$1, %rdx
	movq	%rdx, -120(%rbp)        # 8-byte Spill
	movq	%rcx, -128(%rbp)        # 8-byte Spill
.LBB3_13:                               # %for.body3.5
                                        #   Parent Loop BB3_1 Depth=1
                                        # =>  This Inner Loop Header: Depth=2
	movq	-128(%rbp), %rax        # 8-byte Reload
	movq	-120(%rbp), %rcx        # 8-byte Reload
	shlq	$4, %rcx
	addq	%rax, %rcx
	movq	-8(%rbp), %rdx          # 8-byte Reload
	movl	(%rdx,%rcx,4), %esi
	movq	-24(%rbp), %rcx         # 8-byte Reload
	movq	-120(%rbp), %rdi        # 8-byte Reload
	addl	(%rcx,%rdi,4), %esi
	shlq	$4, %rdi
	addq	%rax, %rdi
	movq	-16(%rbp), %r8          # 8-byte Reload
	movl	%esi, (%r8,%rdi,4)
	addq	$1, %rax
	cmpq	$16, %rax
	movq	%rax, -128(%rbp)        # 8-byte Spill
	jne	.LBB3_13
# %bb.14:                               # %for.inc11.5
                                        #   in Loop: Header=BB3_1 Depth=1
	xorl	%eax, %eax
	movl	%eax, %ecx
	movq	-120(%rbp), %rdx        # 8-byte Reload
	addq	$1, %rdx
	movq	%rdx, -136(%rbp)        # 8-byte Spill
	movq	%rcx, -144(%rbp)        # 8-byte Spill
.LBB3_15:                               # %for.body3.6
                                        #   Parent Loop BB3_1 Depth=1
                                        # =>  This Inner Loop Header: Depth=2
	movq	-144(%rbp), %rax        # 8-byte Reload
	movq	-136(%rbp), %rcx        # 8-byte Reload
	shlq	$4, %rcx
	addq	%rax, %rcx
	movq	-8(%rbp), %rdx          # 8-byte Reload
	movl	(%rdx,%rcx,4), %esi
	movq	-24(%rbp), %rcx         # 8-byte Reload
	movq	-136(%rbp), %rdi        # 8-byte Reload
	addl	(%rcx,%rdi,4), %esi
	shlq	$4, %rdi
	addq	%rax, %rdi
	movq	-16(%rbp), %r8          # 8-byte Reload
	movl	%esi, (%r8,%rdi,4)
	addq	$1, %rax
	cmpq	$16, %rax
	movq	%rax, -144(%rbp)        # 8-byte Spill
	jne	.LBB3_15
# %bb.16:                               # %for.inc11.6
                                        #   in Loop: Header=BB3_1 Depth=1
	xorl	%eax, %eax
	movl	%eax, %ecx
	movq	-136(%rbp), %rdx        # 8-byte Reload
	addq	$1, %rdx
	movq	%rdx, -152(%rbp)        # 8-byte Spill
	movq	%rcx, -160(%rbp)        # 8-byte Spill
.LBB3_17:                               # %for.body3.7
                                        #   Parent Loop BB3_1 Depth=1
                                        # =>  This Inner Loop Header: Depth=2
	movq	-160(%rbp), %rax        # 8-byte Reload
	movq	-152(%rbp), %rcx        # 8-byte Reload
	shlq	$4, %rcx
	addq	%rax, %rcx
	movq	-8(%rbp), %rdx          # 8-byte Reload
	movl	(%rdx,%rcx,4), %esi
	movq	-24(%rbp), %rcx         # 8-byte Reload
	movq	-152(%rbp), %rdi        # 8-byte Reload
	addl	(%rcx,%rdi,4), %esi
	shlq	$4, %rdi
	addq	%rax, %rdi
	movq	-16(%rbp), %r8          # 8-byte Reload
	movl	%esi, (%r8,%rdi,4)
	addq	$1, %rax
	cmpq	$16, %rax
	movq	%rax, -160(%rbp)        # 8-byte Spill
	jne	.LBB3_17
# %bb.18:                               # %for.inc11.7
                                        #   in Loop: Header=BB3_1 Depth=1
	xorl	%eax, %eax
	movl	%eax, %ecx
	movq	-152(%rbp), %rdx        # 8-byte Reload
	addq	$1, %rdx
	movq	%rdx, -168(%rbp)        # 8-byte Spill
	movq	%rcx, -176(%rbp)        # 8-byte Spill
.LBB3_19:                               # %for.body3.8
                                        #   Parent Loop BB3_1 Depth=1
                                        # =>  This Inner Loop Header: Depth=2
	movq	-176(%rbp), %rax        # 8-byte Reload
	movq	-168(%rbp), %rcx        # 8-byte Reload
	shlq	$4, %rcx
	addq	%rax, %rcx
	movq	-8(%rbp), %rdx          # 8-byte Reload
	movl	(%rdx,%rcx,4), %esi
	movq	-24(%rbp), %rcx         # 8-byte Reload
	movq	-168(%rbp), %rdi        # 8-byte Reload
	addl	(%rcx,%rdi,4), %esi
	shlq	$4, %rdi
	addq	%rax, %rdi
	movq	-16(%rbp), %r8          # 8-byte Reload
	movl	%esi, (%r8,%rdi,4)
	addq	$1, %rax
	cmpq	$16, %rax
	movq	%rax, -176(%rbp)        # 8-byte Spill
	jne	.LBB3_19
# %bb.20:                               # %for.inc11.8
                                        #   in Loop: Header=BB3_1 Depth=1
	xorl	%eax, %eax
	movl	%eax, %ecx
	movq	-168(%rbp), %rdx        # 8-byte Reload
	addq	$1, %rdx
	movq	%rdx, -184(%rbp)        # 8-byte Spill
	movq	%rcx, -192(%rbp)        # 8-byte Spill
.LBB3_21:                               # %for.body3.9
                                        #   Parent Loop BB3_1 Depth=1
                                        # =>  This Inner Loop Header: Depth=2
	movq	-192(%rbp), %rax        # 8-byte Reload
	movq	-184(%rbp), %rcx        # 8-byte Reload
	shlq	$4, %rcx
	addq	%rax, %rcx
	movq	-8(%rbp), %rdx          # 8-byte Reload
	movl	(%rdx,%rcx,4), %esi
	movq	-24(%rbp), %rcx         # 8-byte Reload
	movq	-184(%rbp), %rdi        # 8-byte Reload
	addl	(%rcx,%rdi,4), %esi
	shlq	$4, %rdi
	addq	%rax, %rdi
	movq	-16(%rbp), %r8          # 8-byte Reload
	movl	%esi, (%r8,%rdi,4)
	addq	$1, %rax
	cmpq	$16, %rax
	movq	%rax, -192(%rbp)        # 8-byte Spill
	jne	.LBB3_21
# %bb.22:                               # %for.inc11.9
                                        #   in Loop: Header=BB3_1 Depth=1
	xorl	%eax, %eax
	movl	%eax, %ecx
	movq	-184(%rbp), %rdx        # 8-byte Reload
	addq	$1, %rdx
	movq	%rdx, -200(%rbp)        # 8-byte Spill
	movq	%rcx, -208(%rbp)        # 8-byte Spill
.LBB3_23:                               # %for.body3.10
                                        #   Parent Loop BB3_1 Depth=1
                                        # =>  This Inner Loop Header: Depth=2
	movq	-208(%rbp), %rax        # 8-byte Reload
	movq	-200(%rbp), %rcx        # 8-byte Reload
	shlq	$4, %rcx
	addq	%rax, %rcx
	movq	-8(%rbp), %rdx          # 8-byte Reload
	movl	(%rdx,%rcx,4), %esi
	movq	-24(%rbp), %rcx         # 8-byte Reload
	movq	-200(%rbp), %rdi        # 8-byte Reload
	addl	(%rcx,%rdi,4), %esi
	shlq	$4, %rdi
	addq	%rax, %rdi
	movq	-16(%rbp), %r8          # 8-byte Reload
	movl	%esi, (%r8,%rdi,4)
	addq	$1, %rax
	cmpq	$16, %rax
	movq	%rax, -208(%rbp)        # 8-byte Spill
	jne	.LBB3_23
# %bb.24:                               # %for.inc11.10
                                        #   in Loop: Header=BB3_1 Depth=1
	xorl	%eax, %eax
	movl	%eax, %ecx
	movq	-200(%rbp), %rdx        # 8-byte Reload
	addq	$1, %rdx
	movq	%rdx, -216(%rbp)        # 8-byte Spill
	movq	%rcx, -224(%rbp)        # 8-byte Spill
.LBB3_25:                               # %for.body3.11
                                        #   Parent Loop BB3_1 Depth=1
                                        # =>  This Inner Loop Header: Depth=2
	movq	-224(%rbp), %rax        # 8-byte Reload
	movq	-216(%rbp), %rcx        # 8-byte Reload
	shlq	$4, %rcx
	addq	%rax, %rcx
	movq	-8(%rbp), %rdx          # 8-byte Reload
	movl	(%rdx,%rcx,4), %esi
	movq	-24(%rbp), %rcx         # 8-byte Reload
	movq	-216(%rbp), %rdi        # 8-byte Reload
	addl	(%rcx,%rdi,4), %esi
	shlq	$4, %rdi
	addq	%rax, %rdi
	movq	-16(%rbp), %r8          # 8-byte Reload
	movl	%esi, (%r8,%rdi,4)
	addq	$1, %rax
	cmpq	$16, %rax
	movq	%rax, -224(%rbp)        # 8-byte Spill
	jne	.LBB3_25
# %bb.26:                               # %for.inc11.11
                                        #   in Loop: Header=BB3_1 Depth=1
	xorl	%eax, %eax
	movl	%eax, %ecx
	movq	-216(%rbp), %rdx        # 8-byte Reload
	addq	$1, %rdx
	movq	%rdx, -232(%rbp)        # 8-byte Spill
	movq	%rcx, -240(%rbp)        # 8-byte Spill
.LBB3_27:                               # %for.body3.12
                                        #   Parent Loop BB3_1 Depth=1
                                        # =>  This Inner Loop Header: Depth=2
	movq	-240(%rbp), %rax        # 8-byte Reload
	movq	-232(%rbp), %rcx        # 8-byte Reload
	shlq	$4, %rcx
	addq	%rax, %rcx
	movq	-8(%rbp), %rdx          # 8-byte Reload
	movl	(%rdx,%rcx,4), %esi
	movq	-24(%rbp), %rcx         # 8-byte Reload
	movq	-232(%rbp), %rdi        # 8-byte Reload
	addl	(%rcx,%rdi,4), %esi
	shlq	$4, %rdi
	addq	%rax, %rdi
	movq	-16(%rbp), %r8          # 8-byte Reload
	movl	%esi, (%r8,%rdi,4)
	addq	$1, %rax
	cmpq	$16, %rax
	movq	%rax, -240(%rbp)        # 8-byte Spill
	jne	.LBB3_27
# %bb.28:                               # %for.inc11.12
                                        #   in Loop: Header=BB3_1 Depth=1
	xorl	%eax, %eax
	movl	%eax, %ecx
	movq	-232(%rbp), %rdx        # 8-byte Reload
	addq	$1, %rdx
	movq	%rdx, -248(%rbp)        # 8-byte Spill
	movq	%rcx, -256(%rbp)        # 8-byte Spill
.LBB3_29:                               # %for.body3.13
                                        #   Parent Loop BB3_1 Depth=1
                                        # =>  This Inner Loop Header: Depth=2
	movq	-256(%rbp), %rax        # 8-byte Reload
	movq	-248(%rbp), %rcx        # 8-byte Reload
	shlq	$4, %rcx
	addq	%rax, %rcx
	movq	-8(%rbp), %rdx          # 8-byte Reload
	movl	(%rdx,%rcx,4), %esi
	movq	-24(%rbp), %rcx         # 8-byte Reload
	movq	-248(%rbp), %rdi        # 8-byte Reload
	addl	(%rcx,%rdi,4), %esi
	shlq	$4, %rdi
	addq	%rax, %rdi
	movq	-16(%rbp), %r8          # 8-byte Reload
	movl	%esi, (%r8,%rdi,4)
	addq	$1, %rax
	cmpq	$16, %rax
	movq	%rax, -256(%rbp)        # 8-byte Spill
	jne	.LBB3_29
# %bb.30:                               # %for.inc11.13
                                        #   in Loop: Header=BB3_1 Depth=1
	xorl	%eax, %eax
	movl	%eax, %ecx
	movq	-248(%rbp), %rdx        # 8-byte Reload
	addq	$1, %rdx
	movq	%rdx, -264(%rbp)        # 8-byte Spill
	movq	%rcx, -272(%rbp)        # 8-byte Spill
.LBB3_31:                               # %for.body3.14
                                        #   Parent Loop BB3_1 Depth=1
                                        # =>  This Inner Loop Header: Depth=2
	movq	-272(%rbp), %rax        # 8-byte Reload
	movq	-264(%rbp), %rcx        # 8-byte Reload
	shlq	$4, %rcx
	addq	%rax, %rcx
	movq	-8(%rbp), %rdx          # 8-byte Reload
	movl	(%rdx,%rcx,4), %esi
	movq	-24(%rbp), %rcx         # 8-byte Reload
	movq	-264(%rbp), %rdi        # 8-byte Reload
	addl	(%rcx,%rdi,4), %esi
	shlq	$4, %rdi
	addq	%rax, %rdi
	movq	-16(%rbp), %r8          # 8-byte Reload
	movl	%esi, (%r8,%rdi,4)
	addq	$1, %rax
	cmpq	$16, %rax
	movq	%rax, -272(%rbp)        # 8-byte Spill
	jne	.LBB3_31
# %bb.32:                               # %for.inc11.14
                                        #   in Loop: Header=BB3_1 Depth=1
	xorl	%eax, %eax
	movl	%eax, %ecx
	movq	-264(%rbp), %rdx        # 8-byte Reload
	addq	$1, %rdx
	movq	%rdx, -280(%rbp)        # 8-byte Spill
	movq	%rcx, -288(%rbp)        # 8-byte Spill
.LBB3_33:                               # %for.body3.15
                                        #   Parent Loop BB3_1 Depth=1
                                        # =>  This Inner Loop Header: Depth=2
	movq	-288(%rbp), %rax        # 8-byte Reload
	movq	-280(%rbp), %rcx        # 8-byte Reload
	shlq	$4, %rcx
	addq	%rax, %rcx
	movq	-8(%rbp), %rdx          # 8-byte Reload
	movl	(%rdx,%rcx,4), %esi
	movq	-24(%rbp), %rcx         # 8-byte Reload
	movq	-280(%rbp), %rdi        # 8-byte Reload
	addl	(%rcx,%rdi,4), %esi
	shlq	$4, %rdi
	addq	%rax, %rdi
	movq	-16(%rbp), %r8          # 8-byte Reload
	movl	%esi, (%r8,%rdi,4)
	addq	$1, %rax
	cmpq	$16, %rax
	movq	%rax, -288(%rbp)        # 8-byte Spill
	jne	.LBB3_33
# %bb.34:                               # %for.inc11.15
                                        #   in Loop: Header=BB3_1 Depth=1
	xorl	%eax, %eax
	movl	%eax, %ecx
	movq	-280(%rbp), %rdx        # 8-byte Reload
	addq	$1, %rdx
	movq	%rdx, -296(%rbp)        # 8-byte Spill
	movq	%rcx, -304(%rbp)        # 8-byte Spill
.LBB3_35:                               # %for.body3.16
                                        #   Parent Loop BB3_1 Depth=1
                                        # =>  This Inner Loop Header: Depth=2
	movq	-304(%rbp), %rax        # 8-byte Reload
	movq	-296(%rbp), %rcx        # 8-byte Reload
	shlq	$4, %rcx
	addq	%rax, %rcx
	movq	-8(%rbp), %rdx          # 8-byte Reload
	movl	(%rdx,%rcx,4), %esi
	movq	-24(%rbp), %rcx         # 8-byte Reload
	movq	-296(%rbp), %rdi        # 8-byte Reload
	addl	(%rcx,%rdi,4), %esi
	shlq	$4, %rdi
	addq	%rax, %rdi
	movq	-16(%rbp), %r8          # 8-byte Reload
	movl	%esi, (%r8,%rdi,4)
	addq	$1, %rax
	cmpq	$16, %rax
	movq	%rax, -304(%rbp)        # 8-byte Spill
	jne	.LBB3_35
# %bb.36:                               # %for.inc11.16
                                        #   in Loop: Header=BB3_1 Depth=1
	xorl	%eax, %eax
	movl	%eax, %ecx
	movq	-296(%rbp), %rdx        # 8-byte Reload
	addq	$1, %rdx
	movq	%rdx, -312(%rbp)        # 8-byte Spill
	movq	%rcx, -320(%rbp)        # 8-byte Spill
.LBB3_37:                               # %for.body3.17
                                        #   Parent Loop BB3_1 Depth=1
                                        # =>  This Inner Loop Header: Depth=2
	movq	-320(%rbp), %rax        # 8-byte Reload
	movq	-312(%rbp), %rcx        # 8-byte Reload
	shlq	$4, %rcx
	addq	%rax, %rcx
	movq	-8(%rbp), %rdx          # 8-byte Reload
	movl	(%rdx,%rcx,4), %esi
	movq	-24(%rbp), %rcx         # 8-byte Reload
	movq	-312(%rbp), %rdi        # 8-byte Reload
	addl	(%rcx,%rdi,4), %esi
	shlq	$4, %rdi
	addq	%rax, %rdi
	movq	-16(%rbp), %r8          # 8-byte Reload
	movl	%esi, (%r8,%rdi,4)
	addq	$1, %rax
	cmpq	$16, %rax
	movq	%rax, -320(%rbp)        # 8-byte Spill
	jne	.LBB3_37
# %bb.38:                               # %for.inc11.17
                                        #   in Loop: Header=BB3_1 Depth=1
	xorl	%eax, %eax
	movl	%eax, %ecx
	movq	-312(%rbp), %rdx        # 8-byte Reload
	addq	$1, %rdx
	movq	%rdx, -328(%rbp)        # 8-byte Spill
	movq	%rcx, -336(%rbp)        # 8-byte Spill
.LBB3_39:                               # %for.body3.18
                                        #   Parent Loop BB3_1 Depth=1
                                        # =>  This Inner Loop Header: Depth=2
	movq	-336(%rbp), %rax        # 8-byte Reload
	movq	-328(%rbp), %rcx        # 8-byte Reload
	shlq	$4, %rcx
	addq	%rax, %rcx
	movq	-8(%rbp), %rdx          # 8-byte Reload
	movl	(%rdx,%rcx,4), %esi
	movq	-24(%rbp), %rcx         # 8-byte Reload
	movq	-328(%rbp), %rdi        # 8-byte Reload
	addl	(%rcx,%rdi,4), %esi
	shlq	$4, %rdi
	addq	%rax, %rdi
	movq	-16(%rbp), %r8          # 8-byte Reload
	movl	%esi, (%r8,%rdi,4)
	addq	$1, %rax
	cmpq	$16, %rax
	movq	%rax, -336(%rbp)        # 8-byte Spill
	jne	.LBB3_39
# %bb.40:                               # %for.inc11.18
                                        #   in Loop: Header=BB3_1 Depth=1
	xorl	%eax, %eax
	movl	%eax, %ecx
	movq	-328(%rbp), %rdx        # 8-byte Reload
	addq	$1, %rdx
	movq	%rdx, -344(%rbp)        # 8-byte Spill
	movq	%rcx, -352(%rbp)        # 8-byte Spill
.LBB3_41:                               # %for.body3.19
                                        #   Parent Loop BB3_1 Depth=1
                                        # =>  This Inner Loop Header: Depth=2
	movq	-352(%rbp), %rax        # 8-byte Reload
	movq	-344(%rbp), %rcx        # 8-byte Reload
	shlq	$4, %rcx
	addq	%rax, %rcx
	movq	-8(%rbp), %rdx          # 8-byte Reload
	movl	(%rdx,%rcx,4), %esi
	movq	-24(%rbp), %rcx         # 8-byte Reload
	movq	-344(%rbp), %rdi        # 8-byte Reload
	addl	(%rcx,%rdi,4), %esi
	shlq	$4, %rdi
	addq	%rax, %rdi
	movq	-16(%rbp), %r8          # 8-byte Reload
	movl	%esi, (%r8,%rdi,4)
	addq	$1, %rax
	cmpq	$16, %rax
	movq	%rax, -352(%rbp)        # 8-byte Spill
	jne	.LBB3_41
# %bb.42:                               # %for.inc11.19
                                        #   in Loop: Header=BB3_1 Depth=1
	xorl	%eax, %eax
	movl	%eax, %ecx
	movq	-344(%rbp), %rdx        # 8-byte Reload
	addq	$1, %rdx
	movq	%rdx, -360(%rbp)        # 8-byte Spill
	movq	%rcx, -368(%rbp)        # 8-byte Spill
.LBB3_43:                               # %for.body3.20
                                        #   Parent Loop BB3_1 Depth=1
                                        # =>  This Inner Loop Header: Depth=2
	movq	-368(%rbp), %rax        # 8-byte Reload
	movq	-360(%rbp), %rcx        # 8-byte Reload
	shlq	$4, %rcx
	addq	%rax, %rcx
	movq	-8(%rbp), %rdx          # 8-byte Reload
	movl	(%rdx,%rcx,4), %esi
	movq	-24(%rbp), %rcx         # 8-byte Reload
	movq	-360(%rbp), %rdi        # 8-byte Reload
	addl	(%rcx,%rdi,4), %esi
	shlq	$4, %rdi
	addq	%rax, %rdi
	movq	-16(%rbp), %r8          # 8-byte Reload
	movl	%esi, (%r8,%rdi,4)
	addq	$1, %rax
	cmpq	$16, %rax
	movq	%rax, -368(%rbp)        # 8-byte Spill
	jne	.LBB3_43
# %bb.44:                               # %for.inc11.20
                                        #   in Loop: Header=BB3_1 Depth=1
	xorl	%eax, %eax
	movl	%eax, %ecx
	movq	-360(%rbp), %rdx        # 8-byte Reload
	addq	$1, %rdx
	movq	%rdx, -376(%rbp)        # 8-byte Spill
	movq	%rcx, -384(%rbp)        # 8-byte Spill
.LBB3_45:                               # %for.body3.21
                                        #   Parent Loop BB3_1 Depth=1
                                        # =>  This Inner Loop Header: Depth=2
	movq	-384(%rbp), %rax        # 8-byte Reload
	movq	-376(%rbp), %rcx        # 8-byte Reload
	shlq	$4, %rcx
	addq	%rax, %rcx
	movq	-8(%rbp), %rdx          # 8-byte Reload
	movl	(%rdx,%rcx,4), %esi
	movq	-24(%rbp), %rcx         # 8-byte Reload
	movq	-376(%rbp), %rdi        # 8-byte Reload
	addl	(%rcx,%rdi,4), %esi
	shlq	$4, %rdi
	addq	%rax, %rdi
	movq	-16(%rbp), %r8          # 8-byte Reload
	movl	%esi, (%r8,%rdi,4)
	addq	$1, %rax
	cmpq	$16, %rax
	movq	%rax, -384(%rbp)        # 8-byte Spill
	jne	.LBB3_45
# %bb.46:                               # %for.inc11.21
                                        #   in Loop: Header=BB3_1 Depth=1
	xorl	%eax, %eax
	movl	%eax, %ecx
	movq	-376(%rbp), %rdx        # 8-byte Reload
	addq	$1, %rdx
	movq	%rdx, -392(%rbp)        # 8-byte Spill
	movq	%rcx, -400(%rbp)        # 8-byte Spill
.LBB3_47:                               # %for.body3.22
                                        #   Parent Loop BB3_1 Depth=1
                                        # =>  This Inner Loop Header: Depth=2
	movq	-400(%rbp), %rax        # 8-byte Reload
	movq	-392(%rbp), %rcx        # 8-byte Reload
	shlq	$4, %rcx
	addq	%rax, %rcx
	movq	-8(%rbp), %rdx          # 8-byte Reload
	movl	(%rdx,%rcx,4), %esi
	movq	-24(%rbp), %rcx         # 8-byte Reload
	movq	-392(%rbp), %rdi        # 8-byte Reload
	addl	(%rcx,%rdi,4), %esi
	shlq	$4, %rdi
	addq	%rax, %rdi
	movq	-16(%rbp), %r8          # 8-byte Reload
	movl	%esi, (%r8,%rdi,4)
	addq	$1, %rax
	cmpq	$16, %rax
	movq	%rax, -400(%rbp)        # 8-byte Spill
	jne	.LBB3_47
# %bb.48:                               # %for.inc11.22
                                        #   in Loop: Header=BB3_1 Depth=1
	xorl	%eax, %eax
	movl	%eax, %ecx
	movq	-392(%rbp), %rdx        # 8-byte Reload
	addq	$1, %rdx
	movq	%rdx, -408(%rbp)        # 8-byte Spill
	movq	%rcx, -416(%rbp)        # 8-byte Spill
.LBB3_49:                               # %for.body3.23
                                        #   Parent Loop BB3_1 Depth=1
                                        # =>  This Inner Loop Header: Depth=2
	movq	-416(%rbp), %rax        # 8-byte Reload
	movq	-408(%rbp), %rcx        # 8-byte Reload
	shlq	$4, %rcx
	addq	%rax, %rcx
	movq	-8(%rbp), %rdx          # 8-byte Reload
	movl	(%rdx,%rcx,4), %esi
	movq	-24(%rbp), %rcx         # 8-byte Reload
	movq	-408(%rbp), %rdi        # 8-byte Reload
	addl	(%rcx,%rdi,4), %esi
	shlq	$4, %rdi
	addq	%rax, %rdi
	movq	-16(%rbp), %r8          # 8-byte Reload
	movl	%esi, (%r8,%rdi,4)
	addq	$1, %rax
	cmpq	$16, %rax
	movq	%rax, -416(%rbp)        # 8-byte Spill
	jne	.LBB3_49
# %bb.50:                               # %for.inc11.23
                                        #   in Loop: Header=BB3_1 Depth=1
	xorl	%eax, %eax
	movl	%eax, %ecx
	movq	-408(%rbp), %rdx        # 8-byte Reload
	addq	$1, %rdx
	movq	%rdx, -424(%rbp)        # 8-byte Spill
	movq	%rcx, -432(%rbp)        # 8-byte Spill
.LBB3_51:                               # %for.body3.24
                                        #   Parent Loop BB3_1 Depth=1
                                        # =>  This Inner Loop Header: Depth=2
	movq	-432(%rbp), %rax        # 8-byte Reload
	movq	-424(%rbp), %rcx        # 8-byte Reload
	shlq	$4, %rcx
	addq	%rax, %rcx
	movq	-8(%rbp), %rdx          # 8-byte Reload
	movl	(%rdx,%rcx,4), %esi
	movq	-24(%rbp), %rcx         # 8-byte Reload
	movq	-424(%rbp), %rdi        # 8-byte Reload
	addl	(%rcx,%rdi,4), %esi
	shlq	$4, %rdi
	addq	%rax, %rdi
	movq	-16(%rbp), %r8          # 8-byte Reload
	movl	%esi, (%r8,%rdi,4)
	addq	$1, %rax
	cmpq	$16, %rax
	movq	%rax, -432(%rbp)        # 8-byte Spill
	jne	.LBB3_51
# %bb.52:                               # %for.inc11.24
                                        #   in Loop: Header=BB3_1 Depth=1
	xorl	%eax, %eax
	movl	%eax, %ecx
	movq	-424(%rbp), %rdx        # 8-byte Reload
	addq	$1, %rdx
	movq	%rdx, -440(%rbp)        # 8-byte Spill
	movq	%rcx, -448(%rbp)        # 8-byte Spill
.LBB3_53:                               # %for.body3.25
                                        #   Parent Loop BB3_1 Depth=1
                                        # =>  This Inner Loop Header: Depth=2
	movq	-448(%rbp), %rax        # 8-byte Reload
	movq	-440(%rbp), %rcx        # 8-byte Reload
	shlq	$4, %rcx
	addq	%rax, %rcx
	movq	-8(%rbp), %rdx          # 8-byte Reload
	movl	(%rdx,%rcx,4), %esi
	movq	-24(%rbp), %rcx         # 8-byte Reload
	movq	-440(%rbp), %rdi        # 8-byte Reload
	addl	(%rcx,%rdi,4), %esi
	shlq	$4, %rdi
	addq	%rax, %rdi
	movq	-16(%rbp), %r8          # 8-byte Reload
	movl	%esi, (%r8,%rdi,4)
	addq	$1, %rax
	cmpq	$16, %rax
	movq	%rax, -448(%rbp)        # 8-byte Spill
	jne	.LBB3_53
# %bb.54:                               # %for.inc11.25
                                        #   in Loop: Header=BB3_1 Depth=1
	xorl	%eax, %eax
	movl	%eax, %ecx
	movq	-440(%rbp), %rdx        # 8-byte Reload
	addq	$1, %rdx
	movq	%rdx, -456(%rbp)        # 8-byte Spill
	movq	%rcx, -464(%rbp)        # 8-byte Spill
.LBB3_55:                               # %for.body3.26
                                        #   Parent Loop BB3_1 Depth=1
                                        # =>  This Inner Loop Header: Depth=2
	movq	-464(%rbp), %rax        # 8-byte Reload
	movq	-456(%rbp), %rcx        # 8-byte Reload
	shlq	$4, %rcx
	addq	%rax, %rcx
	movq	-8(%rbp), %rdx          # 8-byte Reload
	movl	(%rdx,%rcx,4), %esi
	movq	-24(%rbp), %rcx         # 8-byte Reload
	movq	-456(%rbp), %rdi        # 8-byte Reload
	addl	(%rcx,%rdi,4), %esi
	shlq	$4, %rdi
	addq	%rax, %rdi
	movq	-16(%rbp), %r8          # 8-byte Reload
	movl	%esi, (%r8,%rdi,4)
	addq	$1, %rax
	cmpq	$16, %rax
	movq	%rax, -464(%rbp)        # 8-byte Spill
	jne	.LBB3_55
# %bb.56:                               # %for.inc11.26
                                        #   in Loop: Header=BB3_1 Depth=1
	xorl	%eax, %eax
	movl	%eax, %ecx
	movq	-456(%rbp), %rdx        # 8-byte Reload
	addq	$1, %rdx
	movq	%rdx, -472(%rbp)        # 8-byte Spill
	movq	%rcx, -480(%rbp)        # 8-byte Spill
.LBB3_57:                               # %for.body3.27
                                        #   Parent Loop BB3_1 Depth=1
                                        # =>  This Inner Loop Header: Depth=2
	movq	-480(%rbp), %rax        # 8-byte Reload
	movq	-472(%rbp), %rcx        # 8-byte Reload
	shlq	$4, %rcx
	addq	%rax, %rcx
	movq	-8(%rbp), %rdx          # 8-byte Reload
	movl	(%rdx,%rcx,4), %esi
	movq	-24(%rbp), %rcx         # 8-byte Reload
	movq	-472(%rbp), %rdi        # 8-byte Reload
	addl	(%rcx,%rdi,4), %esi
	shlq	$4, %rdi
	addq	%rax, %rdi
	movq	-16(%rbp), %r8          # 8-byte Reload
	movl	%esi, (%r8,%rdi,4)
	addq	$1, %rax
	cmpq	$16, %rax
	movq	%rax, -480(%rbp)        # 8-byte Spill
	jne	.LBB3_57
# %bb.58:                               # %for.inc11.27
                                        #   in Loop: Header=BB3_1 Depth=1
	xorl	%eax, %eax
	movl	%eax, %ecx
	movq	-472(%rbp), %rdx        # 8-byte Reload
	addq	$1, %rdx
	movq	%rdx, -488(%rbp)        # 8-byte Spill
	movq	%rcx, -496(%rbp)        # 8-byte Spill
.LBB3_59:                               # %for.body3.28
                                        #   Parent Loop BB3_1 Depth=1
                                        # =>  This Inner Loop Header: Depth=2
	movq	-496(%rbp), %rax        # 8-byte Reload
	movq	-488(%rbp), %rcx        # 8-byte Reload
	shlq	$4, %rcx
	addq	%rax, %rcx
	movq	-8(%rbp), %rdx          # 8-byte Reload
	movl	(%rdx,%rcx,4), %esi
	movq	-24(%rbp), %rcx         # 8-byte Reload
	movq	-488(%rbp), %rdi        # 8-byte Reload
	addl	(%rcx,%rdi,4), %esi
	shlq	$4, %rdi
	addq	%rax, %rdi
	movq	-16(%rbp), %r8          # 8-byte Reload
	movl	%esi, (%r8,%rdi,4)
	addq	$1, %rax
	cmpq	$16, %rax
	movq	%rax, -496(%rbp)        # 8-byte Spill
	jne	.LBB3_59
# %bb.60:                               # %for.inc11.28
                                        #   in Loop: Header=BB3_1 Depth=1
	xorl	%eax, %eax
	movl	%eax, %ecx
	movq	-488(%rbp), %rdx        # 8-byte Reload
	addq	$1, %rdx
	movq	%rdx, -504(%rbp)        # 8-byte Spill
	movq	%rcx, -512(%rbp)        # 8-byte Spill
.LBB3_61:                               # %for.body3.29
                                        #   Parent Loop BB3_1 Depth=1
                                        # =>  This Inner Loop Header: Depth=2
	movq	-512(%rbp), %rax        # 8-byte Reload
	movq	-504(%rbp), %rcx        # 8-byte Reload
	shlq	$4, %rcx
	addq	%rax, %rcx
	movq	-8(%rbp), %rdx          # 8-byte Reload
	movl	(%rdx,%rcx,4), %esi
	movq	-24(%rbp), %rcx         # 8-byte Reload
	movq	-504(%rbp), %rdi        # 8-byte Reload
	addl	(%rcx,%rdi,4), %esi
	shlq	$4, %rdi
	addq	%rax, %rdi
	movq	-16(%rbp), %r8          # 8-byte Reload
	movl	%esi, (%r8,%rdi,4)
	addq	$1, %rax
	cmpq	$16, %rax
	movq	%rax, -512(%rbp)        # 8-byte Spill
	jne	.LBB3_61
# %bb.62:                               # %for.inc11.29
                                        #   in Loop: Header=BB3_1 Depth=1
	xorl	%eax, %eax
	movl	%eax, %ecx
	movq	-504(%rbp), %rdx        # 8-byte Reload
	addq	$1, %rdx
	movq	%rdx, -520(%rbp)        # 8-byte Spill
	movq	%rcx, -528(%rbp)        # 8-byte Spill
.LBB3_63:                               # %for.body3.30
                                        #   Parent Loop BB3_1 Depth=1
                                        # =>  This Inner Loop Header: Depth=2
	movq	-528(%rbp), %rax        # 8-byte Reload
	movq	-520(%rbp), %rcx        # 8-byte Reload
	shlq	$4, %rcx
	addq	%rax, %rcx
	movq	-8(%rbp), %rdx          # 8-byte Reload
	movl	(%rdx,%rcx,4), %esi
	movq	-24(%rbp), %rcx         # 8-byte Reload
	movq	-520(%rbp), %rdi        # 8-byte Reload
	addl	(%rcx,%rdi,4), %esi
	shlq	$4, %rdi
	addq	%rax, %rdi
	movq	-16(%rbp), %r8          # 8-byte Reload
	movl	%esi, (%r8,%rdi,4)
	addq	$1, %rax
	cmpq	$16, %rax
	movq	%rax, -528(%rbp)        # 8-byte Spill
	jne	.LBB3_63
# %bb.64:                               # %for.inc11.30
                                        #   in Loop: Header=BB3_1 Depth=1
	xorl	%eax, %eax
	movl	%eax, %ecx
	movq	-520(%rbp), %rdx        # 8-byte Reload
	addq	$1, %rdx
	movq	%rdx, -536(%rbp)        # 8-byte Spill
	movq	%rcx, -544(%rbp)        # 8-byte Spill
.LBB3_65:                               # %for.body3.31
                                        #   Parent Loop BB3_1 Depth=1
                                        # =>  This Inner Loop Header: Depth=2
	movq	-544(%rbp), %rax        # 8-byte Reload
	movq	-536(%rbp), %rcx        # 8-byte Reload
	shlq	$4, %rcx
	addq	%rax, %rcx
	movq	-8(%rbp), %rdx          # 8-byte Reload
	movl	(%rdx,%rcx,4), %esi
	movq	-24(%rbp), %rcx         # 8-byte Reload
	movq	-536(%rbp), %rdi        # 8-byte Reload
	addl	(%rcx,%rdi,4), %esi
	shlq	$4, %rdi
	addq	%rax, %rdi
	movq	-16(%rbp), %r8          # 8-byte Reload
	movl	%esi, (%r8,%rdi,4)
	addq	$1, %rax
	cmpq	$16, %rax
	movq	%rax, -544(%rbp)        # 8-byte Spill
	jne	.LBB3_65
# %bb.66:                               # %for.inc11.31
                                        #   in Loop: Header=BB3_1 Depth=1
	movq	-536(%rbp), %rax        # 8-byte Reload
	addq	$1, %rax
	cmpq	$524288, %rax           # imm = 0x80000
	movq	%rax, -32(%rbp)         # 8-byte Spill
	jne	.LBB3_1
	jmp	.LBB3_4
.Lfunc_end3:
	.size	last_step_scan, .Lfunc_end3-last_step_scan
	.cfi_endproc
                                        # -- End function
	.globl	pp_scan                 # -- Begin function pp_scan
	.p2align	4, 0x90
	.type	pp_scan,@function
pp_scan:                                # @pp_scan
	.cfi_startproc
# %bb.0:                                # %entry
	pushq	%rbp
	.cfi_def_cfa_offset 16
	.cfi_offset %rbp, -16
	movq	%rsp, %rbp
	.cfi_def_cfa_register %rbp
	subq	$32, %rsp
	movq	%rdi, -8(%rbp)          # 8-byte Spill
	movq	%rsi, -16(%rbp)         # 8-byte Spill
	movq	%rdx, -24(%rbp)         # 8-byte Spill
	callq	local_scan
	movq	-24(%rbp), %rdi         # 8-byte Reload
	movq	-8(%rbp), %rsi          # 8-byte Reload
	callq	sum_scan
	movq	-8(%rbp), %rdi          # 8-byte Reload
	movq	-16(%rbp), %rsi         # 8-byte Reload
	movq	-24(%rbp), %rdx         # 8-byte Reload
	callq	last_step_scan
	addq	$32, %rsp
	popq	%rbp
	.cfi_def_cfa %rsp, 8
	retq
.Lfunc_end4:
	.size	pp_scan, .Lfunc_end4-pp_scan
	.cfi_endproc
                                        # -- End function
	.section	.rodata.cst8,"aM",@progbits,8
	.p2align	3               # -- Begin function main
.LCPI5_0:
	.quad	4656722014701092864     # double 2048
.LCPI5_1:
	.quad	4746794007244308480     # double 2147483647
	.text
	.globl	main
	.p2align	4, 0x90
	.type	main,@function
main:                                   # @main
	.cfi_startproc
# %bb.0:                                # %entry
	pushq	%rbp
	.cfi_def_cfa_offset 16
	.cfi_offset %rbp, -16
	movq	%rsp, %rbp
	.cfi_def_cfa_register %rbp
	subq	$2097200, %rsp          # imm = 0x200030
	movl	$33554432, %edi         # imm = 0x2000000
	callq	malloc
	movl	$33554432, %edi         # imm = 0x2000000
	movq	%rax, -2097160(%rbp)    # 8-byte Spill
	callq	malloc
	movl	$8650341, %edi          # imm = 0x83FE65
	movq	%rax, -2097168(%rbp)    # 8-byte Spill
	callq	srand
	xorl	%ecx, %ecx
	movl	%ecx, %eax
	movq	%rax, -2097176(%rbp)    # 8-byte Spill
.LBB5_1:                                # %for.body
                                        # =>This Inner Loop Header: Depth=1
	movq	-2097176(%rbp), %rax    # 8-byte Reload
	movq	%rax, -2097184(%rbp)    # 8-byte Spill
	callq	rand
	movsd	.LCPI5_0(%rip), %xmm0   # xmm0 = mem[0],zero
	movsd	.LCPI5_1(%rip), %xmm1   # xmm1 = mem[0],zero
	cvtsi2sd	%eax, %xmm2
	divsd	%xmm1, %xmm2
	mulsd	%xmm0, %xmm2
	xorps	%xmm0, %xmm0
	addsd	%xmm0, %xmm2
	cvttsd2si	%xmm2, %eax
	movq	-2097160(%rbp), %rcx    # 8-byte Reload
	movq	-2097184(%rbp), %rdx    # 8-byte Reload
	movl	%eax, (%rcx,%rdx,4)
	callq	rand
	movsd	.LCPI5_0(%rip), %xmm0   # xmm0 = mem[0],zero
	movsd	.LCPI5_1(%rip), %xmm1   # xmm1 = mem[0],zero
	cvtsi2sd	%eax, %xmm2
	divsd	%xmm1, %xmm2
	mulsd	%xmm0, %xmm2
	xorps	%xmm0, %xmm0
	addsd	%xmm0, %xmm2
	cvttsd2si	%xmm2, %eax
	movq	-2097168(%rbp), %rcx    # 8-byte Reload
	movq	-2097184(%rbp), %rdx    # 8-byte Reload
	movl	%eax, (%rcx,%rdx,4)
	addq	$1, %rdx
	cmpq	$8388608, %rdx          # imm = 0x800000
	movq	%rdx, -2097176(%rbp)    # 8-byte Spill
	jne	.LBB5_1
# %bb.2:                                # %for.end
	movq	-2097160(%rbp), %rdi    # 8-byte Reload
	movl	$1, %esi
	callq	print
	movl	$10, %edi
	callq	putchar
	leaq	-2097152(%rbp), %rdx
	movq	-2097160(%rbp), %rdi    # 8-byte Reload
	movq	-2097168(%rbp), %rsi    # 8-byte Reload
	movl	%eax, -2097188(%rbp)    # 4-byte Spill
	callq	pp_scan
	movq	-2097160(%rbp), %rdi    # 8-byte Reload
	movl	$2, %esi
	callq	print
	movl	$10, %edi
	callq	putchar
	xorl	%ecx, %ecx
	movl	%eax, -2097192(%rbp)    # 4-byte Spill
	movl	%ecx, %eax
	addq	$2097200, %rsp          # imm = 0x200030
	popq	%rbp
	.cfi_def_cfa %rsp, 8
	retq
.Lfunc_end5:
	.size	main, .Lfunc_end5-main
	.cfi_endproc
                                        # -- End function
	.type	.L.str,@object          # @.str
	.section	.rodata.str1.1,"aMS",@progbits,1
.L.str:
	.asciz	"%u\t"
	.size	.L.str, 4

	.type	.L.str.1,@object        # @.str.1
.L.str.1:
	.asciz	"\n"
	.size	.L.str.1, 2

	.ident	"clang version 10.0.1 "
	.section	".note.GNU-stack","",@progbits
