	.text
	.file	"fft.c"
	.section	.rodata.cst4,"aM",@progbits,4
	.p2align	2               # -- Begin function step1
.LCPI0_0:
	.long	1060439283              # float 0.707106769
	.text
	.globl	step1
	.p2align	4, 0x90
	.type	step1,@function
step1:                                  # @step1
	.cfi_startproc
# %bb.0:                                # %entry
	pushq	%rbp
	.cfi_def_cfa_offset 16
	.cfi_offset %rbp, -16
	movq	%rsp, %rbp
	.cfi_def_cfa_register %rbp
	pushq	%r14
	pushq	%rbx
	subq	$200, %rsp
	.cfi_offset %rbx, -32
	.cfi_offset %r14, -24
	movq	56(%rbp), %rax
	movq	48(%rbp), %r10
	xorl	%r11d, %r11d
	movl	%r11d, %ebx
	movq	%r9, -24(%rbp)          # 8-byte Spill
	movq	%r8, -32(%rbp)          # 8-byte Spill
	movq	%rcx, -40(%rbp)         # 8-byte Spill
	movq	%rdx, -48(%rbp)         # 8-byte Spill
	movq	%rsi, -56(%rbp)         # 8-byte Spill
	movq	%rdi, -64(%rbp)         # 8-byte Spill
	movq	%rax, -72(%rbp)         # 8-byte Spill
	movq	%r10, -80(%rbp)         # 8-byte Spill
	movq	%rbx, -88(%rbp)         # 8-byte Spill
	jmp	.LBB0_1
.LBB0_1:                                # %for.body
                                        # =>This Inner Loop Header: Depth=1
	movq	-88(%rbp), %rax         # 8-byte Reload
	movq	%rax, -96(%rbp)         # 8-byte Spill
# %bb.2:                                # %for.body3
                                        #   in Loop: Header=BB0_1 Depth=1
	xorl	%eax, %eax
	movss	.LCPI0_0(%rip), %xmm0   # xmm0 = mem[0],zero,zero,zero
	movq	-64(%rbp), %rcx         # 8-byte Reload
	movq	-96(%rbp), %rdx         # 8-byte Reload
	movl	(%rcx,%rdx,4), %esi
	movq	-32(%rbp), %rdi         # 8-byte Reload
	movl	%esi, (%rdi)
	movq	-56(%rbp), %r8          # 8-byte Reload
	movl	(%r8,%rdx,4), %esi
	movq	-24(%rbp), %r9          # 8-byte Reload
	movl	%esi, (%r9)
	addq	$64, %rdx
	movl	(%rcx,%rdx,4), %esi
	movl	%esi, 4(%rdi)
	movq	-96(%rbp), %rdx         # 8-byte Reload
	addq	$64, %rdx
	movl	(%r8,%rdx,4), %esi
	movl	%esi, 4(%r9)
	movq	-96(%rbp), %rdx         # 8-byte Reload
	addq	$128, %rdx
	movl	(%rcx,%rdx,4), %esi
	movl	%esi, 8(%rdi)
	movq	-96(%rbp), %rdx         # 8-byte Reload
	addq	$128, %rdx
	movl	(%r8,%rdx,4), %esi
	movl	%esi, 8(%r9)
	movq	-96(%rbp), %rdx         # 8-byte Reload
	addq	$192, %rdx
	movl	(%rcx,%rdx,4), %esi
	movl	%esi, 12(%rdi)
	movq	-96(%rbp), %rdx         # 8-byte Reload
	addq	$192, %rdx
	movl	(%r8,%rdx,4), %esi
	movl	%esi, 12(%r9)
	movq	-96(%rbp), %rdx         # 8-byte Reload
	addq	$256, %rdx              # imm = 0x100
	movl	(%rcx,%rdx,4), %esi
	movl	%esi, 16(%rdi)
	movq	-96(%rbp), %rdx         # 8-byte Reload
	addq	$256, %rdx              # imm = 0x100
	movl	(%r8,%rdx,4), %esi
	movl	%esi, 16(%r9)
	movq	-96(%rbp), %rdx         # 8-byte Reload
	addq	$320, %rdx              # imm = 0x140
	movl	(%rcx,%rdx,4), %esi
	movl	%esi, 20(%rdi)
	movq	-96(%rbp), %rdx         # 8-byte Reload
	addq	$320, %rdx              # imm = 0x140
	movl	(%r8,%rdx,4), %esi
	movl	%esi, 20(%r9)
	movq	-96(%rbp), %rdx         # 8-byte Reload
	addq	$384, %rdx              # imm = 0x180
	movl	(%rcx,%rdx,4), %esi
	movl	%esi, 24(%rdi)
	movq	-96(%rbp), %rdx         # 8-byte Reload
	addq	$384, %rdx              # imm = 0x180
	movl	(%r8,%rdx,4), %esi
	movl	%esi, 24(%r9)
	movq	-96(%rbp), %rdx         # 8-byte Reload
	addq	$448, %rdx              # imm = 0x1C0
	movl	(%rcx,%rdx,4), %esi
	movl	%esi, 28(%rdi)
	movq	-96(%rbp), %rdx         # 8-byte Reload
	addq	$448, %rdx              # imm = 0x1C0
	movl	(%r8,%rdx,4), %esi
	movl	%esi, 28(%r9)
	movl	(%rdi), %esi
	movl	(%r9), %r10d
	movl	%esi, %r11d
	addl	16(%rdi), %r11d
	movl	%r11d, (%rdi)
	movl	%r10d, %r11d
	addl	16(%r9), %r11d
	movl	%r11d, (%r9)
	subl	16(%rdi), %esi
	movl	%esi, 16(%rdi)
	subl	16(%r9), %r10d
	movl	%r10d, 16(%r9)
	movl	4(%rdi), %esi
	movl	4(%r9), %r10d
	movl	%esi, %r11d
	addl	20(%rdi), %r11d
	movl	%r11d, 4(%rdi)
	movl	%r10d, %r11d
	addl	20(%r9), %r11d
	movl	%r11d, 4(%r9)
	subl	20(%rdi), %esi
	movl	%esi, 20(%rdi)
	subl	20(%r9), %r10d
	movl	%r10d, 20(%r9)
	movl	8(%rdi), %esi
	movl	8(%r9), %r10d
	movl	%esi, %r11d
	addl	24(%rdi), %r11d
	movl	%r11d, 8(%rdi)
	movl	%r10d, %r11d
	addl	24(%r9), %r11d
	movl	%r11d, 8(%r9)
	subl	24(%rdi), %esi
	movl	%esi, 24(%rdi)
	subl	24(%r9), %r10d
	movl	%r10d, 24(%r9)
	movl	12(%rdi), %esi
	movl	12(%r9), %r10d
	movl	%esi, %r11d
	addl	28(%rdi), %r11d
	movl	%r11d, 12(%rdi)
	movl	%r10d, %r11d
	addl	28(%r9), %r11d
	movl	%r11d, 12(%r9)
	subl	28(%rdi), %esi
	movl	%esi, 28(%rdi)
	subl	28(%r9), %r10d
	movl	%r10d, 28(%r9)
	movl	20(%rdi), %esi
	movl	%esi, %r10d
	addl	20(%r9), %r10d
	cvtsi2ss	%r10d, %xmm1
	mulss	%xmm0, %xmm1
	cvttss2si	%xmm1, %r10d
	movl	%r10d, 20(%rdi)
	movl	20(%r9), %r10d
	subl	%esi, %r10d
	cvtsi2ss	%r10d, %xmm1
	mulss	%xmm0, %xmm1
	cvttss2si	%xmm1, %esi
	movl	%esi, 20(%r9)
	movl	24(%rdi), %esi
	movl	24(%r9), %r10d
	movl	%r10d, 24(%rdi)
	movl	%eax, %r10d
	subl	%esi, %r10d
	movl	%r10d, 24(%r9)
	movl	28(%rdi), %esi
	movl	28(%r9), %r10d
	subl	%esi, %r10d
	cvtsi2ss	%r10d, %xmm1
	mulss	%xmm0, %xmm1
	cvttss2si	%xmm1, %r10d
	movl	%r10d, 28(%rdi)
	addl	28(%r9), %esi
	movl	%eax, %r10d
	subl	%esi, %r10d
	cvtsi2ss	%r10d, %xmm1
	mulss	%xmm0, %xmm1
	cvttss2si	%xmm1, %esi
	movl	%esi, 28(%r9)
	movl	(%rdi), %esi
	movl	(%r9), %r10d
	movl	%esi, %r11d
	addl	8(%rdi), %r11d
	movl	%r11d, (%rdi)
	movl	%r10d, %r11d
	addl	8(%r9), %r11d
	movl	%r11d, (%r9)
	subl	8(%rdi), %esi
	movl	%esi, 8(%rdi)
	subl	8(%r9), %r10d
	movl	%r10d, 8(%r9)
	movl	4(%rdi), %esi
	movl	4(%r9), %r10d
	movl	%esi, %r11d
	addl	12(%rdi), %r11d
	movl	%r11d, 4(%rdi)
	movl	%r10d, %r11d
	addl	12(%r9), %r11d
	movl	%r11d, 4(%r9)
	subl	12(%rdi), %esi
	movl	%esi, 12(%rdi)
	subl	12(%r9), %r10d
	movl	%r10d, 12(%r9)
	movl	12(%rdi), %esi
	movl	%r10d, 12(%rdi)
	movl	%eax, %r10d
	subl	%esi, %r10d
	movl	%r10d, 12(%r9)
	movl	(%rdi), %esi
	movl	(%r9), %r10d
	movl	%esi, %r11d
	addl	4(%rdi), %r11d
	movl	%r11d, (%rdi)
	movl	%r10d, %r11d
	addl	4(%r9), %r11d
	movl	%r11d, (%r9)
	subl	4(%rdi), %esi
	movl	%esi, 4(%rdi)
	subl	4(%r9), %r10d
	movl	%r10d, 4(%r9)
	movl	8(%rdi), %esi
	movl	8(%r9), %r10d
	movl	%esi, %r11d
	addl	12(%rdi), %r11d
	movl	%r11d, 8(%rdi)
	movl	%r10d, %r11d
	addl	12(%r9), %r11d
	movl	%r11d, 8(%r9)
	subl	12(%rdi), %esi
	movl	%esi, 12(%rdi)
	subl	12(%r9), %r10d
	movl	%r10d, 12(%r9)
	movl	16(%rdi), %esi
	movl	16(%r9), %r10d
	movl	%esi, %r11d
	addl	24(%rdi), %r11d
	movl	%r11d, 16(%rdi)
	movl	%r10d, %r11d
	addl	24(%r9), %r11d
	movl	%r11d, 16(%r9)
	subl	24(%rdi), %esi
	movl	%esi, 24(%rdi)
	subl	24(%r9), %r10d
	movl	%r10d, 24(%r9)
	movl	20(%rdi), %esi
	movl	20(%r9), %r10d
	movl	%esi, %r11d
	addl	28(%rdi), %r11d
	movl	%r11d, 20(%rdi)
	movl	%r10d, %r11d
	addl	28(%r9), %r11d
	movl	%r11d, 20(%r9)
	subl	28(%rdi), %esi
	movl	%esi, 28(%rdi)
	subl	28(%r9), %r10d
	movl	%r10d, 28(%r9)
	movl	28(%rdi), %esi
	movl	%r10d, 28(%rdi)
	subl	%esi, %eax
	movl	%eax, 28(%r9)
	movl	16(%rdi), %eax
	movl	16(%r9), %esi
	movl	%eax, %r10d
	addl	20(%rdi), %r10d
	movl	%r10d, 16(%rdi)
	movl	%esi, %r10d
	addl	20(%r9), %r10d
	movl	%r10d, 16(%r9)
	subl	20(%rdi), %eax
	movl	%eax, 20(%rdi)
	subl	20(%r9), %esi
	movl	%esi, 20(%r9)
	movl	24(%rdi), %eax
	movl	24(%r9), %esi
	movl	%eax, %r10d
	addl	28(%rdi), %r10d
	movl	%r10d, 24(%rdi)
	movl	%esi, %r10d
	addl	28(%r9), %r10d
	movl	%r10d, 24(%r9)
	subl	28(%rdi), %eax
	movl	%eax, 28(%rdi)
	subl	28(%r9), %esi
	movl	%esi, 28(%r9)
# %bb.3:                                # %for.body278
                                        #   in Loop: Header=BB0_1 Depth=1
	movq	-96(%rbp), %rax         # 8-byte Reload
	imulq	$7, %rax, %rcx
	movq	-72(%rbp), %rdx         # 8-byte Reload
	cvttss2si	(%rdx,%rcx,4), %esi
	imulq	$7, %rax, %rcx
	movq	-80(%rbp), %rdi         # 8-byte Reload
	cvttss2si	(%rdi,%rcx,4), %r8d
	movq	-32(%rbp), %rcx         # 8-byte Reload
	movl	4(%rcx), %r9d
	movl	%esi, %r10d
	imull	4(%rcx), %r10d
	movl	%r8d, %r11d
	movq	-24(%rbp), %rbx         # 8-byte Reload
	imull	4(%rbx), %r11d
	subl	%r11d, %r10d
	movl	%r10d, 4(%rcx)
	imull	%r8d, %r9d
	imull	4(%rbx), %esi
	addl	%esi, %r9d
	movl	%r9d, 4(%rbx)
	imulq	$7, %rax, %r14
	cvttss2si	4(%rdx,%r14,4), %esi
	imulq	$7, %rax, %r14
	cvttss2si	4(%rdi,%r14,4), %r8d
	movl	8(%rcx), %r9d
	movl	%esi, %r10d
	imull	8(%rcx), %r10d
	movl	%r8d, %r11d
	imull	8(%rbx), %r11d
	subl	%r11d, %r10d
	movl	%r10d, 8(%rcx)
	imull	%r8d, %r9d
	imull	8(%rbx), %esi
	addl	%esi, %r9d
	movl	%r9d, 8(%rbx)
	imulq	$7, %rax, %r14
	cvttss2si	8(%rdx,%r14,4), %esi
	imulq	$7, %rax, %r14
	cvttss2si	8(%rdi,%r14,4), %r8d
	movl	12(%rcx), %r9d
	movl	%esi, %r10d
	imull	12(%rcx), %r10d
	movl	%r8d, %r11d
	imull	12(%rbx), %r11d
	subl	%r11d, %r10d
	movl	%r10d, 12(%rcx)
	imull	%r8d, %r9d
	imull	12(%rbx), %esi
	addl	%esi, %r9d
	movl	%r9d, 12(%rbx)
	imulq	$7, %rax, %r14
	cvttss2si	12(%rdx,%r14,4), %esi
	imulq	$7, %rax, %r14
	cvttss2si	12(%rdi,%r14,4), %r8d
	movl	16(%rcx), %r9d
	movl	%esi, %r10d
	imull	16(%rcx), %r10d
	movl	%r8d, %r11d
	imull	16(%rbx), %r11d
	subl	%r11d, %r10d
	movl	%r10d, 16(%rcx)
	imull	%r8d, %r9d
	imull	16(%rbx), %esi
	addl	%esi, %r9d
	movl	%r9d, 16(%rbx)
	imulq	$7, %rax, %r14
	cvttss2si	16(%rdx,%r14,4), %esi
	imulq	$7, %rax, %r14
	cvttss2si	16(%rdi,%r14,4), %r8d
	movl	20(%rcx), %r9d
	movl	%esi, %r10d
	imull	20(%rcx), %r10d
	movl	%r8d, %r11d
	imull	20(%rbx), %r11d
	subl	%r11d, %r10d
	movl	%r10d, 20(%rcx)
	imull	%r8d, %r9d
	imull	20(%rbx), %esi
	addl	%esi, %r9d
	movl	%r9d, 20(%rbx)
	imulq	$7, %rax, %r14
	cvttss2si	20(%rdx,%r14,4), %esi
	imulq	$7, %rax, %r14
	cvttss2si	20(%rdi,%r14,4), %r8d
	movl	24(%rcx), %r9d
	movl	%esi, %r10d
	imull	24(%rcx), %r10d
	movl	%r8d, %r11d
	imull	24(%rbx), %r11d
	subl	%r11d, %r10d
	movl	%r10d, 24(%rcx)
	imull	%r8d, %r9d
	imull	24(%rbx), %esi
	addl	%esi, %r9d
	movl	%r9d, 24(%rbx)
	imulq	$7, %rax, %r14
	cvttss2si	24(%rdx,%r14,4), %esi
	imulq	$7, %rax, %r14
	cvttss2si	24(%rdi,%r14,4), %r8d
	movl	28(%rcx), %r9d
	movl	%esi, %r10d
	imull	28(%rcx), %r10d
	movl	%r8d, %r11d
	imull	28(%rbx), %r11d
	subl	%r11d, %r10d
	movl	%r10d, 28(%rcx)
	imull	%r8d, %r9d
	imull	28(%rbx), %esi
	addl	%esi, %r9d
	movl	%r9d, 28(%rbx)
# %bb.4:                                # %for.body316
                                        #   in Loop: Header=BB0_1 Depth=1
	movq	-32(%rbp), %rax         # 8-byte Reload
	movl	(%rax), %ecx
	movq	-96(%rbp), %rdx         # 8-byte Reload
	shlq	$3, %rdx
	movq	-48(%rbp), %rsi         # 8-byte Reload
	movl	%ecx, (%rsi,%rdx,4)
	movq	-24(%rbp), %rdx         # 8-byte Reload
	movl	(%rdx), %ecx
	movq	-96(%rbp), %rdi         # 8-byte Reload
	shlq	$3, %rdi
	movq	-40(%rbp), %r8          # 8-byte Reload
	movl	%ecx, (%r8,%rdi,4)
	movl	4(%rax), %ecx
	movq	-96(%rbp), %rdi         # 8-byte Reload
	shlq	$3, %rdi
	movl	%ecx, 4(%rsi,%rdi,4)
	movl	4(%rdx), %ecx
	movq	-96(%rbp), %rdi         # 8-byte Reload
	shlq	$3, %rdi
	movl	%ecx, 4(%r8,%rdi,4)
	movl	8(%rax), %ecx
	movq	-96(%rbp), %rdi         # 8-byte Reload
	shlq	$3, %rdi
	movl	%ecx, 8(%rsi,%rdi,4)
	movl	8(%rdx), %ecx
	movq	-96(%rbp), %rdi         # 8-byte Reload
	shlq	$3, %rdi
	movl	%ecx, 8(%r8,%rdi,4)
	movl	12(%rax), %ecx
	movq	-96(%rbp), %rdi         # 8-byte Reload
	shlq	$3, %rdi
	movl	%ecx, 12(%rsi,%rdi,4)
	movl	12(%rdx), %ecx
	movq	-96(%rbp), %rdi         # 8-byte Reload
	shlq	$3, %rdi
	movl	%ecx, 12(%r8,%rdi,4)
	movl	16(%rax), %ecx
	movq	-96(%rbp), %rdi         # 8-byte Reload
	shlq	$3, %rdi
	movl	%ecx, 16(%rsi,%rdi,4)
	movl	16(%rdx), %ecx
	movq	-96(%rbp), %rdi         # 8-byte Reload
	shlq	$3, %rdi
	movl	%ecx, 16(%r8,%rdi,4)
	movl	20(%rax), %ecx
	movq	-96(%rbp), %rdi         # 8-byte Reload
	shlq	$3, %rdi
	movl	%ecx, 20(%rsi,%rdi,4)
	movl	20(%rdx), %ecx
	movq	-96(%rbp), %rdi         # 8-byte Reload
	shlq	$3, %rdi
	movl	%ecx, 20(%r8,%rdi,4)
	movl	24(%rax), %ecx
	movq	-96(%rbp), %rdi         # 8-byte Reload
	shlq	$3, %rdi
	movl	%ecx, 24(%rsi,%rdi,4)
	movl	24(%rdx), %ecx
	movq	-96(%rbp), %rdi         # 8-byte Reload
	shlq	$3, %rdi
	movl	%ecx, 24(%r8,%rdi,4)
	movl	28(%rax), %ecx
	movq	-96(%rbp), %rdi         # 8-byte Reload
	shlq	$3, %rdi
	movl	%ecx, 28(%rsi,%rdi,4)
	movl	28(%rdx), %ecx
	movq	-96(%rbp), %rdi         # 8-byte Reload
	shlq	$3, %rdi
	movl	%ecx, 28(%r8,%rdi,4)
	movq	-96(%rbp), %rdi         # 8-byte Reload
	addq	$1, %rdi
	movq	%rdi, -104(%rbp)        # 8-byte Spill
	jmp	.LBB0_6
.LBB0_5:                                # %for.end334
	addq	$200, %rsp
	popq	%rbx
	popq	%r14
	popq	%rbp
	.cfi_def_cfa %rsp, 8
	retq
.LBB0_6:                                # %for.body3.1
                                        #   in Loop: Header=BB0_1 Depth=1
	.cfi_def_cfa %rbp, 16
	xorl	%eax, %eax
	movss	.LCPI0_0(%rip), %xmm0   # xmm0 = mem[0],zero,zero,zero
	movq	-64(%rbp), %rcx         # 8-byte Reload
	movq	-104(%rbp), %rdx        # 8-byte Reload
	movl	(%rcx,%rdx,4), %esi
	movq	-32(%rbp), %rdi         # 8-byte Reload
	movl	%esi, (%rdi)
	movq	-56(%rbp), %r8          # 8-byte Reload
	movl	(%r8,%rdx,4), %esi
	movq	-24(%rbp), %r9          # 8-byte Reload
	movl	%esi, (%r9)
	addq	$64, %rdx
	movl	(%rcx,%rdx,4), %esi
	movl	%esi, 4(%rdi)
	movq	-104(%rbp), %rdx        # 8-byte Reload
	addq	$64, %rdx
	movl	(%r8,%rdx,4), %esi
	movl	%esi, 4(%r9)
	movq	-104(%rbp), %rdx        # 8-byte Reload
	addq	$128, %rdx
	movl	(%rcx,%rdx,4), %esi
	movl	%esi, 8(%rdi)
	movq	-104(%rbp), %rdx        # 8-byte Reload
	addq	$128, %rdx
	movl	(%r8,%rdx,4), %esi
	movl	%esi, 8(%r9)
	movq	-104(%rbp), %rdx        # 8-byte Reload
	addq	$192, %rdx
	movl	(%rcx,%rdx,4), %esi
	movl	%esi, 12(%rdi)
	movq	-104(%rbp), %rdx        # 8-byte Reload
	addq	$192, %rdx
	movl	(%r8,%rdx,4), %esi
	movl	%esi, 12(%r9)
	movq	-104(%rbp), %rdx        # 8-byte Reload
	addq	$256, %rdx              # imm = 0x100
	movl	(%rcx,%rdx,4), %esi
	movl	%esi, 16(%rdi)
	movq	-104(%rbp), %rdx        # 8-byte Reload
	addq	$256, %rdx              # imm = 0x100
	movl	(%r8,%rdx,4), %esi
	movl	%esi, 16(%r9)
	movq	-104(%rbp), %rdx        # 8-byte Reload
	addq	$320, %rdx              # imm = 0x140
	movl	(%rcx,%rdx,4), %esi
	movl	%esi, 20(%rdi)
	movq	-104(%rbp), %rdx        # 8-byte Reload
	addq	$320, %rdx              # imm = 0x140
	movl	(%r8,%rdx,4), %esi
	movl	%esi, 20(%r9)
	movq	-104(%rbp), %rdx        # 8-byte Reload
	addq	$384, %rdx              # imm = 0x180
	movl	(%rcx,%rdx,4), %esi
	movl	%esi, 24(%rdi)
	movq	-104(%rbp), %rdx        # 8-byte Reload
	addq	$384, %rdx              # imm = 0x180
	movl	(%r8,%rdx,4), %esi
	movl	%esi, 24(%r9)
	movq	-104(%rbp), %rdx        # 8-byte Reload
	addq	$448, %rdx              # imm = 0x1C0
	movl	(%rcx,%rdx,4), %esi
	movl	%esi, 28(%rdi)
	movq	-104(%rbp), %rdx        # 8-byte Reload
	addq	$448, %rdx              # imm = 0x1C0
	movl	(%r8,%rdx,4), %esi
	movl	%esi, 28(%r9)
	movl	(%rdi), %esi
	movl	(%r9), %r10d
	movl	%esi, %r11d
	addl	16(%rdi), %r11d
	movl	%r11d, (%rdi)
	movl	%r10d, %r11d
	addl	16(%r9), %r11d
	movl	%r11d, (%r9)
	subl	16(%rdi), %esi
	movl	%esi, 16(%rdi)
	subl	16(%r9), %r10d
	movl	%r10d, 16(%r9)
	movl	4(%rdi), %esi
	movl	4(%r9), %r10d
	movl	%esi, %r11d
	addl	20(%rdi), %r11d
	movl	%r11d, 4(%rdi)
	movl	%r10d, %r11d
	addl	20(%r9), %r11d
	movl	%r11d, 4(%r9)
	subl	20(%rdi), %esi
	movl	%esi, 20(%rdi)
	subl	20(%r9), %r10d
	movl	%r10d, 20(%r9)
	movl	8(%rdi), %esi
	movl	8(%r9), %r10d
	movl	%esi, %r11d
	addl	24(%rdi), %r11d
	movl	%r11d, 8(%rdi)
	movl	%r10d, %r11d
	addl	24(%r9), %r11d
	movl	%r11d, 8(%r9)
	subl	24(%rdi), %esi
	movl	%esi, 24(%rdi)
	subl	24(%r9), %r10d
	movl	%r10d, 24(%r9)
	movl	12(%rdi), %esi
	movl	12(%r9), %r10d
	movl	%esi, %r11d
	addl	28(%rdi), %r11d
	movl	%r11d, 12(%rdi)
	movl	%r10d, %r11d
	addl	28(%r9), %r11d
	movl	%r11d, 12(%r9)
	subl	28(%rdi), %esi
	movl	%esi, 28(%rdi)
	subl	28(%r9), %r10d
	movl	%r10d, 28(%r9)
	movl	20(%rdi), %esi
	movl	%esi, %r10d
	addl	20(%r9), %r10d
	cvtsi2ss	%r10d, %xmm1
	mulss	%xmm0, %xmm1
	cvttss2si	%xmm1, %r10d
	movl	%r10d, 20(%rdi)
	movl	20(%r9), %r10d
	subl	%esi, %r10d
	cvtsi2ss	%r10d, %xmm1
	mulss	%xmm0, %xmm1
	cvttss2si	%xmm1, %esi
	movl	%esi, 20(%r9)
	movl	24(%rdi), %esi
	movl	24(%r9), %r10d
	movl	%r10d, 24(%rdi)
	movl	%eax, %r10d
	subl	%esi, %r10d
	movl	%r10d, 24(%r9)
	movl	28(%rdi), %esi
	movl	28(%r9), %r10d
	subl	%esi, %r10d
	cvtsi2ss	%r10d, %xmm1
	mulss	%xmm0, %xmm1
	cvttss2si	%xmm1, %r10d
	movl	%r10d, 28(%rdi)
	addl	28(%r9), %esi
	movl	%eax, %r10d
	subl	%esi, %r10d
	cvtsi2ss	%r10d, %xmm1
	mulss	%xmm0, %xmm1
	cvttss2si	%xmm1, %esi
	movl	%esi, 28(%r9)
	movl	(%rdi), %esi
	movl	(%r9), %r10d
	movl	%esi, %r11d
	addl	8(%rdi), %r11d
	movl	%r11d, (%rdi)
	movl	%r10d, %r11d
	addl	8(%r9), %r11d
	movl	%r11d, (%r9)
	subl	8(%rdi), %esi
	movl	%esi, 8(%rdi)
	subl	8(%r9), %r10d
	movl	%r10d, 8(%r9)
	movl	4(%rdi), %esi
	movl	4(%r9), %r10d
	movl	%esi, %r11d
	addl	12(%rdi), %r11d
	movl	%r11d, 4(%rdi)
	movl	%r10d, %r11d
	addl	12(%r9), %r11d
	movl	%r11d, 4(%r9)
	subl	12(%rdi), %esi
	movl	%esi, 12(%rdi)
	subl	12(%r9), %r10d
	movl	%r10d, 12(%r9)
	movl	12(%rdi), %esi
	movl	%r10d, 12(%rdi)
	movl	%eax, %r10d
	subl	%esi, %r10d
	movl	%r10d, 12(%r9)
	movl	(%rdi), %esi
	movl	(%r9), %r10d
	movl	%esi, %r11d
	addl	4(%rdi), %r11d
	movl	%r11d, (%rdi)
	movl	%r10d, %r11d
	addl	4(%r9), %r11d
	movl	%r11d, (%r9)
	subl	4(%rdi), %esi
	movl	%esi, 4(%rdi)
	subl	4(%r9), %r10d
	movl	%r10d, 4(%r9)
	movl	8(%rdi), %esi
	movl	8(%r9), %r10d
	movl	%esi, %r11d
	addl	12(%rdi), %r11d
	movl	%r11d, 8(%rdi)
	movl	%r10d, %r11d
	addl	12(%r9), %r11d
	movl	%r11d, 8(%r9)
	subl	12(%rdi), %esi
	movl	%esi, 12(%rdi)
	subl	12(%r9), %r10d
	movl	%r10d, 12(%r9)
	movl	16(%rdi), %esi
	movl	16(%r9), %r10d
	movl	%esi, %r11d
	addl	24(%rdi), %r11d
	movl	%r11d, 16(%rdi)
	movl	%r10d, %r11d
	addl	24(%r9), %r11d
	movl	%r11d, 16(%r9)
	subl	24(%rdi), %esi
	movl	%esi, 24(%rdi)
	subl	24(%r9), %r10d
	movl	%r10d, 24(%r9)
	movl	20(%rdi), %esi
	movl	20(%r9), %r10d
	movl	%esi, %r11d
	addl	28(%rdi), %r11d
	movl	%r11d, 20(%rdi)
	movl	%r10d, %r11d
	addl	28(%r9), %r11d
	movl	%r11d, 20(%r9)
	subl	28(%rdi), %esi
	movl	%esi, 28(%rdi)
	subl	28(%r9), %r10d
	movl	%r10d, 28(%r9)
	movl	28(%rdi), %esi
	movl	%r10d, 28(%rdi)
	subl	%esi, %eax
	movl	%eax, 28(%r9)
	movl	16(%rdi), %eax
	movl	16(%r9), %esi
	movl	%eax, %r10d
	addl	20(%rdi), %r10d
	movl	%r10d, 16(%rdi)
	movl	%esi, %r10d
	addl	20(%r9), %r10d
	movl	%r10d, 16(%r9)
	subl	20(%rdi), %eax
	movl	%eax, 20(%rdi)
	subl	20(%r9), %esi
	movl	%esi, 20(%r9)
	movl	24(%rdi), %eax
	movl	24(%r9), %esi
	movl	%eax, %r10d
	addl	28(%rdi), %r10d
	movl	%r10d, 24(%rdi)
	movl	%esi, %r10d
	addl	28(%r9), %r10d
	movl	%r10d, 24(%r9)
	subl	28(%rdi), %eax
	movl	%eax, 28(%rdi)
	subl	28(%r9), %esi
	movl	%esi, 28(%r9)
# %bb.7:                                # %for.body278.1
                                        #   in Loop: Header=BB0_1 Depth=1
	movq	-104(%rbp), %rax        # 8-byte Reload
	imulq	$7, %rax, %rcx
	movq	-72(%rbp), %rdx         # 8-byte Reload
	cvttss2si	(%rdx,%rcx,4), %esi
	imulq	$7, %rax, %rcx
	movq	-80(%rbp), %rdi         # 8-byte Reload
	cvttss2si	(%rdi,%rcx,4), %r8d
	movq	-32(%rbp), %rcx         # 8-byte Reload
	movl	4(%rcx), %r9d
	movl	%esi, %r10d
	imull	4(%rcx), %r10d
	movl	%r8d, %r11d
	movq	-24(%rbp), %rbx         # 8-byte Reload
	imull	4(%rbx), %r11d
	subl	%r11d, %r10d
	movl	%r10d, 4(%rcx)
	imull	%r8d, %r9d
	imull	4(%rbx), %esi
	addl	%esi, %r9d
	movl	%r9d, 4(%rbx)
	imulq	$7, %rax, %r14
	cvttss2si	4(%rdx,%r14,4), %esi
	imulq	$7, %rax, %r14
	cvttss2si	4(%rdi,%r14,4), %r8d
	movl	8(%rcx), %r9d
	movl	%esi, %r10d
	imull	8(%rcx), %r10d
	movl	%r8d, %r11d
	imull	8(%rbx), %r11d
	subl	%r11d, %r10d
	movl	%r10d, 8(%rcx)
	imull	%r8d, %r9d
	imull	8(%rbx), %esi
	addl	%esi, %r9d
	movl	%r9d, 8(%rbx)
	imulq	$7, %rax, %r14
	cvttss2si	8(%rdx,%r14,4), %esi
	imulq	$7, %rax, %r14
	cvttss2si	8(%rdi,%r14,4), %r8d
	movl	12(%rcx), %r9d
	movl	%esi, %r10d
	imull	12(%rcx), %r10d
	movl	%r8d, %r11d
	imull	12(%rbx), %r11d
	subl	%r11d, %r10d
	movl	%r10d, 12(%rcx)
	imull	%r8d, %r9d
	imull	12(%rbx), %esi
	addl	%esi, %r9d
	movl	%r9d, 12(%rbx)
	imulq	$7, %rax, %r14
	cvttss2si	12(%rdx,%r14,4), %esi
	imulq	$7, %rax, %r14
	cvttss2si	12(%rdi,%r14,4), %r8d
	movl	16(%rcx), %r9d
	movl	%esi, %r10d
	imull	16(%rcx), %r10d
	movl	%r8d, %r11d
	imull	16(%rbx), %r11d
	subl	%r11d, %r10d
	movl	%r10d, 16(%rcx)
	imull	%r8d, %r9d
	imull	16(%rbx), %esi
	addl	%esi, %r9d
	movl	%r9d, 16(%rbx)
	imulq	$7, %rax, %r14
	cvttss2si	16(%rdx,%r14,4), %esi
	imulq	$7, %rax, %r14
	cvttss2si	16(%rdi,%r14,4), %r8d
	movl	20(%rcx), %r9d
	movl	%esi, %r10d
	imull	20(%rcx), %r10d
	movl	%r8d, %r11d
	imull	20(%rbx), %r11d
	subl	%r11d, %r10d
	movl	%r10d, 20(%rcx)
	imull	%r8d, %r9d
	imull	20(%rbx), %esi
	addl	%esi, %r9d
	movl	%r9d, 20(%rbx)
	imulq	$7, %rax, %r14
	cvttss2si	20(%rdx,%r14,4), %esi
	imulq	$7, %rax, %r14
	cvttss2si	20(%rdi,%r14,4), %r8d
	movl	24(%rcx), %r9d
	movl	%esi, %r10d
	imull	24(%rcx), %r10d
	movl	%r8d, %r11d
	imull	24(%rbx), %r11d
	subl	%r11d, %r10d
	movl	%r10d, 24(%rcx)
	imull	%r8d, %r9d
	imull	24(%rbx), %esi
	addl	%esi, %r9d
	movl	%r9d, 24(%rbx)
	imulq	$7, %rax, %r14
	cvttss2si	24(%rdx,%r14,4), %esi
	imulq	$7, %rax, %r14
	cvttss2si	24(%rdi,%r14,4), %r8d
	movl	28(%rcx), %r9d
	movl	%esi, %r10d
	imull	28(%rcx), %r10d
	movl	%r8d, %r11d
	imull	28(%rbx), %r11d
	subl	%r11d, %r10d
	movl	%r10d, 28(%rcx)
	imull	%r8d, %r9d
	imull	28(%rbx), %esi
	addl	%esi, %r9d
	movl	%r9d, 28(%rbx)
# %bb.8:                                # %for.body316.1
                                        #   in Loop: Header=BB0_1 Depth=1
	movq	-32(%rbp), %rax         # 8-byte Reload
	movl	(%rax), %ecx
	movq	-104(%rbp), %rdx        # 8-byte Reload
	shlq	$3, %rdx
	movq	-48(%rbp), %rsi         # 8-byte Reload
	movl	%ecx, (%rsi,%rdx,4)
	movq	-24(%rbp), %rdx         # 8-byte Reload
	movl	(%rdx), %ecx
	movq	-104(%rbp), %rdi        # 8-byte Reload
	shlq	$3, %rdi
	movq	-40(%rbp), %r8          # 8-byte Reload
	movl	%ecx, (%r8,%rdi,4)
	movl	4(%rax), %ecx
	movq	-104(%rbp), %rdi        # 8-byte Reload
	shlq	$3, %rdi
	movl	%ecx, 4(%rsi,%rdi,4)
	movl	4(%rdx), %ecx
	movq	-104(%rbp), %rdi        # 8-byte Reload
	shlq	$3, %rdi
	movl	%ecx, 4(%r8,%rdi,4)
	movl	8(%rax), %ecx
	movq	-104(%rbp), %rdi        # 8-byte Reload
	shlq	$3, %rdi
	movl	%ecx, 8(%rsi,%rdi,4)
	movl	8(%rdx), %ecx
	movq	-104(%rbp), %rdi        # 8-byte Reload
	shlq	$3, %rdi
	movl	%ecx, 8(%r8,%rdi,4)
	movl	12(%rax), %ecx
	movq	-104(%rbp), %rdi        # 8-byte Reload
	shlq	$3, %rdi
	movl	%ecx, 12(%rsi,%rdi,4)
	movl	12(%rdx), %ecx
	movq	-104(%rbp), %rdi        # 8-byte Reload
	shlq	$3, %rdi
	movl	%ecx, 12(%r8,%rdi,4)
	movl	16(%rax), %ecx
	movq	-104(%rbp), %rdi        # 8-byte Reload
	shlq	$3, %rdi
	movl	%ecx, 16(%rsi,%rdi,4)
	movl	16(%rdx), %ecx
	movq	-104(%rbp), %rdi        # 8-byte Reload
	shlq	$3, %rdi
	movl	%ecx, 16(%r8,%rdi,4)
	movl	20(%rax), %ecx
	movq	-104(%rbp), %rdi        # 8-byte Reload
	shlq	$3, %rdi
	movl	%ecx, 20(%rsi,%rdi,4)
	movl	20(%rdx), %ecx
	movq	-104(%rbp), %rdi        # 8-byte Reload
	shlq	$3, %rdi
	movl	%ecx, 20(%r8,%rdi,4)
	movl	24(%rax), %ecx
	movq	-104(%rbp), %rdi        # 8-byte Reload
	shlq	$3, %rdi
	movl	%ecx, 24(%rsi,%rdi,4)
	movl	24(%rdx), %ecx
	movq	-104(%rbp), %rdi        # 8-byte Reload
	shlq	$3, %rdi
	movl	%ecx, 24(%r8,%rdi,4)
	movl	28(%rax), %ecx
	movq	-104(%rbp), %rdi        # 8-byte Reload
	shlq	$3, %rdi
	movl	%ecx, 28(%rsi,%rdi,4)
	movl	28(%rdx), %ecx
	movq	-104(%rbp), %rdi        # 8-byte Reload
	shlq	$3, %rdi
	movl	%ecx, 28(%r8,%rdi,4)
	movq	-104(%rbp), %rdi        # 8-byte Reload
	addq	$1, %rdi
	movq	%rdi, -112(%rbp)        # 8-byte Spill
# %bb.9:                                # %for.body3.2
                                        #   in Loop: Header=BB0_1 Depth=1
	xorl	%eax, %eax
	movss	.LCPI0_0(%rip), %xmm0   # xmm0 = mem[0],zero,zero,zero
	movq	-64(%rbp), %rcx         # 8-byte Reload
	movq	-112(%rbp), %rdx        # 8-byte Reload
	movl	(%rcx,%rdx,4), %esi
	movq	-32(%rbp), %rdi         # 8-byte Reload
	movl	%esi, (%rdi)
	movq	-56(%rbp), %r8          # 8-byte Reload
	movl	(%r8,%rdx,4), %esi
	movq	-24(%rbp), %r9          # 8-byte Reload
	movl	%esi, (%r9)
	addq	$64, %rdx
	movl	(%rcx,%rdx,4), %esi
	movl	%esi, 4(%rdi)
	movq	-112(%rbp), %rdx        # 8-byte Reload
	addq	$64, %rdx
	movl	(%r8,%rdx,4), %esi
	movl	%esi, 4(%r9)
	movq	-112(%rbp), %rdx        # 8-byte Reload
	addq	$128, %rdx
	movl	(%rcx,%rdx,4), %esi
	movl	%esi, 8(%rdi)
	movq	-112(%rbp), %rdx        # 8-byte Reload
	addq	$128, %rdx
	movl	(%r8,%rdx,4), %esi
	movl	%esi, 8(%r9)
	movq	-112(%rbp), %rdx        # 8-byte Reload
	addq	$192, %rdx
	movl	(%rcx,%rdx,4), %esi
	movl	%esi, 12(%rdi)
	movq	-112(%rbp), %rdx        # 8-byte Reload
	addq	$192, %rdx
	movl	(%r8,%rdx,4), %esi
	movl	%esi, 12(%r9)
	movq	-112(%rbp), %rdx        # 8-byte Reload
	addq	$256, %rdx              # imm = 0x100
	movl	(%rcx,%rdx,4), %esi
	movl	%esi, 16(%rdi)
	movq	-112(%rbp), %rdx        # 8-byte Reload
	addq	$256, %rdx              # imm = 0x100
	movl	(%r8,%rdx,4), %esi
	movl	%esi, 16(%r9)
	movq	-112(%rbp), %rdx        # 8-byte Reload
	addq	$320, %rdx              # imm = 0x140
	movl	(%rcx,%rdx,4), %esi
	movl	%esi, 20(%rdi)
	movq	-112(%rbp), %rdx        # 8-byte Reload
	addq	$320, %rdx              # imm = 0x140
	movl	(%r8,%rdx,4), %esi
	movl	%esi, 20(%r9)
	movq	-112(%rbp), %rdx        # 8-byte Reload
	addq	$384, %rdx              # imm = 0x180
	movl	(%rcx,%rdx,4), %esi
	movl	%esi, 24(%rdi)
	movq	-112(%rbp), %rdx        # 8-byte Reload
	addq	$384, %rdx              # imm = 0x180
	movl	(%r8,%rdx,4), %esi
	movl	%esi, 24(%r9)
	movq	-112(%rbp), %rdx        # 8-byte Reload
	addq	$448, %rdx              # imm = 0x1C0
	movl	(%rcx,%rdx,4), %esi
	movl	%esi, 28(%rdi)
	movq	-112(%rbp), %rdx        # 8-byte Reload
	addq	$448, %rdx              # imm = 0x1C0
	movl	(%r8,%rdx,4), %esi
	movl	%esi, 28(%r9)
	movl	(%rdi), %esi
	movl	(%r9), %r10d
	movl	%esi, %r11d
	addl	16(%rdi), %r11d
	movl	%r11d, (%rdi)
	movl	%r10d, %r11d
	addl	16(%r9), %r11d
	movl	%r11d, (%r9)
	subl	16(%rdi), %esi
	movl	%esi, 16(%rdi)
	subl	16(%r9), %r10d
	movl	%r10d, 16(%r9)
	movl	4(%rdi), %esi
	movl	4(%r9), %r10d
	movl	%esi, %r11d
	addl	20(%rdi), %r11d
	movl	%r11d, 4(%rdi)
	movl	%r10d, %r11d
	addl	20(%r9), %r11d
	movl	%r11d, 4(%r9)
	subl	20(%rdi), %esi
	movl	%esi, 20(%rdi)
	subl	20(%r9), %r10d
	movl	%r10d, 20(%r9)
	movl	8(%rdi), %esi
	movl	8(%r9), %r10d
	movl	%esi, %r11d
	addl	24(%rdi), %r11d
	movl	%r11d, 8(%rdi)
	movl	%r10d, %r11d
	addl	24(%r9), %r11d
	movl	%r11d, 8(%r9)
	subl	24(%rdi), %esi
	movl	%esi, 24(%rdi)
	subl	24(%r9), %r10d
	movl	%r10d, 24(%r9)
	movl	12(%rdi), %esi
	movl	12(%r9), %r10d
	movl	%esi, %r11d
	addl	28(%rdi), %r11d
	movl	%r11d, 12(%rdi)
	movl	%r10d, %r11d
	addl	28(%r9), %r11d
	movl	%r11d, 12(%r9)
	subl	28(%rdi), %esi
	movl	%esi, 28(%rdi)
	subl	28(%r9), %r10d
	movl	%r10d, 28(%r9)
	movl	20(%rdi), %esi
	movl	%esi, %r10d
	addl	20(%r9), %r10d
	cvtsi2ss	%r10d, %xmm1
	mulss	%xmm0, %xmm1
	cvttss2si	%xmm1, %r10d
	movl	%r10d, 20(%rdi)
	movl	20(%r9), %r10d
	subl	%esi, %r10d
	cvtsi2ss	%r10d, %xmm1
	mulss	%xmm0, %xmm1
	cvttss2si	%xmm1, %esi
	movl	%esi, 20(%r9)
	movl	24(%rdi), %esi
	movl	24(%r9), %r10d
	movl	%r10d, 24(%rdi)
	movl	%eax, %r10d
	subl	%esi, %r10d
	movl	%r10d, 24(%r9)
	movl	28(%rdi), %esi
	movl	28(%r9), %r10d
	subl	%esi, %r10d
	cvtsi2ss	%r10d, %xmm1
	mulss	%xmm0, %xmm1
	cvttss2si	%xmm1, %r10d
	movl	%r10d, 28(%rdi)
	addl	28(%r9), %esi
	movl	%eax, %r10d
	subl	%esi, %r10d
	cvtsi2ss	%r10d, %xmm1
	mulss	%xmm0, %xmm1
	cvttss2si	%xmm1, %esi
	movl	%esi, 28(%r9)
	movl	(%rdi), %esi
	movl	(%r9), %r10d
	movl	%esi, %r11d
	addl	8(%rdi), %r11d
	movl	%r11d, (%rdi)
	movl	%r10d, %r11d
	addl	8(%r9), %r11d
	movl	%r11d, (%r9)
	subl	8(%rdi), %esi
	movl	%esi, 8(%rdi)
	subl	8(%r9), %r10d
	movl	%r10d, 8(%r9)
	movl	4(%rdi), %esi
	movl	4(%r9), %r10d
	movl	%esi, %r11d
	addl	12(%rdi), %r11d
	movl	%r11d, 4(%rdi)
	movl	%r10d, %r11d
	addl	12(%r9), %r11d
	movl	%r11d, 4(%r9)
	subl	12(%rdi), %esi
	movl	%esi, 12(%rdi)
	subl	12(%r9), %r10d
	movl	%r10d, 12(%r9)
	movl	12(%rdi), %esi
	movl	%r10d, 12(%rdi)
	movl	%eax, %r10d
	subl	%esi, %r10d
	movl	%r10d, 12(%r9)
	movl	(%rdi), %esi
	movl	(%r9), %r10d
	movl	%esi, %r11d
	addl	4(%rdi), %r11d
	movl	%r11d, (%rdi)
	movl	%r10d, %r11d
	addl	4(%r9), %r11d
	movl	%r11d, (%r9)
	subl	4(%rdi), %esi
	movl	%esi, 4(%rdi)
	subl	4(%r9), %r10d
	movl	%r10d, 4(%r9)
	movl	8(%rdi), %esi
	movl	8(%r9), %r10d
	movl	%esi, %r11d
	addl	12(%rdi), %r11d
	movl	%r11d, 8(%rdi)
	movl	%r10d, %r11d
	addl	12(%r9), %r11d
	movl	%r11d, 8(%r9)
	subl	12(%rdi), %esi
	movl	%esi, 12(%rdi)
	subl	12(%r9), %r10d
	movl	%r10d, 12(%r9)
	movl	16(%rdi), %esi
	movl	16(%r9), %r10d
	movl	%esi, %r11d
	addl	24(%rdi), %r11d
	movl	%r11d, 16(%rdi)
	movl	%r10d, %r11d
	addl	24(%r9), %r11d
	movl	%r11d, 16(%r9)
	subl	24(%rdi), %esi
	movl	%esi, 24(%rdi)
	subl	24(%r9), %r10d
	movl	%r10d, 24(%r9)
	movl	20(%rdi), %esi
	movl	20(%r9), %r10d
	movl	%esi, %r11d
	addl	28(%rdi), %r11d
	movl	%r11d, 20(%rdi)
	movl	%r10d, %r11d
	addl	28(%r9), %r11d
	movl	%r11d, 20(%r9)
	subl	28(%rdi), %esi
	movl	%esi, 28(%rdi)
	subl	28(%r9), %r10d
	movl	%r10d, 28(%r9)
	movl	28(%rdi), %esi
	movl	%r10d, 28(%rdi)
	subl	%esi, %eax
	movl	%eax, 28(%r9)
	movl	16(%rdi), %eax
	movl	16(%r9), %esi
	movl	%eax, %r10d
	addl	20(%rdi), %r10d
	movl	%r10d, 16(%rdi)
	movl	%esi, %r10d
	addl	20(%r9), %r10d
	movl	%r10d, 16(%r9)
	subl	20(%rdi), %eax
	movl	%eax, 20(%rdi)
	subl	20(%r9), %esi
	movl	%esi, 20(%r9)
	movl	24(%rdi), %eax
	movl	24(%r9), %esi
	movl	%eax, %r10d
	addl	28(%rdi), %r10d
	movl	%r10d, 24(%rdi)
	movl	%esi, %r10d
	addl	28(%r9), %r10d
	movl	%r10d, 24(%r9)
	subl	28(%rdi), %eax
	movl	%eax, 28(%rdi)
	subl	28(%r9), %esi
	movl	%esi, 28(%r9)
# %bb.10:                               # %for.body278.2
                                        #   in Loop: Header=BB0_1 Depth=1
	movq	-112(%rbp), %rax        # 8-byte Reload
	imulq	$7, %rax, %rcx
	movq	-72(%rbp), %rdx         # 8-byte Reload
	cvttss2si	(%rdx,%rcx,4), %esi
	imulq	$7, %rax, %rcx
	movq	-80(%rbp), %rdi         # 8-byte Reload
	cvttss2si	(%rdi,%rcx,4), %r8d
	movq	-32(%rbp), %rcx         # 8-byte Reload
	movl	4(%rcx), %r9d
	movl	%esi, %r10d
	imull	4(%rcx), %r10d
	movl	%r8d, %r11d
	movq	-24(%rbp), %rbx         # 8-byte Reload
	imull	4(%rbx), %r11d
	subl	%r11d, %r10d
	movl	%r10d, 4(%rcx)
	imull	%r8d, %r9d
	imull	4(%rbx), %esi
	addl	%esi, %r9d
	movl	%r9d, 4(%rbx)
	imulq	$7, %rax, %r14
	cvttss2si	4(%rdx,%r14,4), %esi
	imulq	$7, %rax, %r14
	cvttss2si	4(%rdi,%r14,4), %r8d
	movl	8(%rcx), %r9d
	movl	%esi, %r10d
	imull	8(%rcx), %r10d
	movl	%r8d, %r11d
	imull	8(%rbx), %r11d
	subl	%r11d, %r10d
	movl	%r10d, 8(%rcx)
	imull	%r8d, %r9d
	imull	8(%rbx), %esi
	addl	%esi, %r9d
	movl	%r9d, 8(%rbx)
	imulq	$7, %rax, %r14
	cvttss2si	8(%rdx,%r14,4), %esi
	imulq	$7, %rax, %r14
	cvttss2si	8(%rdi,%r14,4), %r8d
	movl	12(%rcx), %r9d
	movl	%esi, %r10d
	imull	12(%rcx), %r10d
	movl	%r8d, %r11d
	imull	12(%rbx), %r11d
	subl	%r11d, %r10d
	movl	%r10d, 12(%rcx)
	imull	%r8d, %r9d
	imull	12(%rbx), %esi
	addl	%esi, %r9d
	movl	%r9d, 12(%rbx)
	imulq	$7, %rax, %r14
	cvttss2si	12(%rdx,%r14,4), %esi
	imulq	$7, %rax, %r14
	cvttss2si	12(%rdi,%r14,4), %r8d
	movl	16(%rcx), %r9d
	movl	%esi, %r10d
	imull	16(%rcx), %r10d
	movl	%r8d, %r11d
	imull	16(%rbx), %r11d
	subl	%r11d, %r10d
	movl	%r10d, 16(%rcx)
	imull	%r8d, %r9d
	imull	16(%rbx), %esi
	addl	%esi, %r9d
	movl	%r9d, 16(%rbx)
	imulq	$7, %rax, %r14
	cvttss2si	16(%rdx,%r14,4), %esi
	imulq	$7, %rax, %r14
	cvttss2si	16(%rdi,%r14,4), %r8d
	movl	20(%rcx), %r9d
	movl	%esi, %r10d
	imull	20(%rcx), %r10d
	movl	%r8d, %r11d
	imull	20(%rbx), %r11d
	subl	%r11d, %r10d
	movl	%r10d, 20(%rcx)
	imull	%r8d, %r9d
	imull	20(%rbx), %esi
	addl	%esi, %r9d
	movl	%r9d, 20(%rbx)
	imulq	$7, %rax, %r14
	cvttss2si	20(%rdx,%r14,4), %esi
	imulq	$7, %rax, %r14
	cvttss2si	20(%rdi,%r14,4), %r8d
	movl	24(%rcx), %r9d
	movl	%esi, %r10d
	imull	24(%rcx), %r10d
	movl	%r8d, %r11d
	imull	24(%rbx), %r11d
	subl	%r11d, %r10d
	movl	%r10d, 24(%rcx)
	imull	%r8d, %r9d
	imull	24(%rbx), %esi
	addl	%esi, %r9d
	movl	%r9d, 24(%rbx)
	imulq	$7, %rax, %r14
	cvttss2si	24(%rdx,%r14,4), %esi
	imulq	$7, %rax, %r14
	cvttss2si	24(%rdi,%r14,4), %r8d
	movl	28(%rcx), %r9d
	movl	%esi, %r10d
	imull	28(%rcx), %r10d
	movl	%r8d, %r11d
	imull	28(%rbx), %r11d
	subl	%r11d, %r10d
	movl	%r10d, 28(%rcx)
	imull	%r8d, %r9d
	imull	28(%rbx), %esi
	addl	%esi, %r9d
	movl	%r9d, 28(%rbx)
# %bb.11:                               # %for.body316.2
                                        #   in Loop: Header=BB0_1 Depth=1
	movq	-32(%rbp), %rax         # 8-byte Reload
	movl	(%rax), %ecx
	movq	-112(%rbp), %rdx        # 8-byte Reload
	shlq	$3, %rdx
	movq	-48(%rbp), %rsi         # 8-byte Reload
	movl	%ecx, (%rsi,%rdx,4)
	movq	-24(%rbp), %rdx         # 8-byte Reload
	movl	(%rdx), %ecx
	movq	-112(%rbp), %rdi        # 8-byte Reload
	shlq	$3, %rdi
	movq	-40(%rbp), %r8          # 8-byte Reload
	movl	%ecx, (%r8,%rdi,4)
	movl	4(%rax), %ecx
	movq	-112(%rbp), %rdi        # 8-byte Reload
	shlq	$3, %rdi
	movl	%ecx, 4(%rsi,%rdi,4)
	movl	4(%rdx), %ecx
	movq	-112(%rbp), %rdi        # 8-byte Reload
	shlq	$3, %rdi
	movl	%ecx, 4(%r8,%rdi,4)
	movl	8(%rax), %ecx
	movq	-112(%rbp), %rdi        # 8-byte Reload
	shlq	$3, %rdi
	movl	%ecx, 8(%rsi,%rdi,4)
	movl	8(%rdx), %ecx
	movq	-112(%rbp), %rdi        # 8-byte Reload
	shlq	$3, %rdi
	movl	%ecx, 8(%r8,%rdi,4)
	movl	12(%rax), %ecx
	movq	-112(%rbp), %rdi        # 8-byte Reload
	shlq	$3, %rdi
	movl	%ecx, 12(%rsi,%rdi,4)
	movl	12(%rdx), %ecx
	movq	-112(%rbp), %rdi        # 8-byte Reload
	shlq	$3, %rdi
	movl	%ecx, 12(%r8,%rdi,4)
	movl	16(%rax), %ecx
	movq	-112(%rbp), %rdi        # 8-byte Reload
	shlq	$3, %rdi
	movl	%ecx, 16(%rsi,%rdi,4)
	movl	16(%rdx), %ecx
	movq	-112(%rbp), %rdi        # 8-byte Reload
	shlq	$3, %rdi
	movl	%ecx, 16(%r8,%rdi,4)
	movl	20(%rax), %ecx
	movq	-112(%rbp), %rdi        # 8-byte Reload
	shlq	$3, %rdi
	movl	%ecx, 20(%rsi,%rdi,4)
	movl	20(%rdx), %ecx
	movq	-112(%rbp), %rdi        # 8-byte Reload
	shlq	$3, %rdi
	movl	%ecx, 20(%r8,%rdi,4)
	movl	24(%rax), %ecx
	movq	-112(%rbp), %rdi        # 8-byte Reload
	shlq	$3, %rdi
	movl	%ecx, 24(%rsi,%rdi,4)
	movl	24(%rdx), %ecx
	movq	-112(%rbp), %rdi        # 8-byte Reload
	shlq	$3, %rdi
	movl	%ecx, 24(%r8,%rdi,4)
	movl	28(%rax), %ecx
	movq	-112(%rbp), %rdi        # 8-byte Reload
	shlq	$3, %rdi
	movl	%ecx, 28(%rsi,%rdi,4)
	movl	28(%rdx), %ecx
	movq	-112(%rbp), %rdi        # 8-byte Reload
	shlq	$3, %rdi
	movl	%ecx, 28(%r8,%rdi,4)
	movq	-112(%rbp), %rdi        # 8-byte Reload
	addq	$1, %rdi
	movq	%rdi, -120(%rbp)        # 8-byte Spill
# %bb.12:                               # %for.body3.3
                                        #   in Loop: Header=BB0_1 Depth=1
	xorl	%eax, %eax
	movss	.LCPI0_0(%rip), %xmm0   # xmm0 = mem[0],zero,zero,zero
	movq	-64(%rbp), %rcx         # 8-byte Reload
	movq	-120(%rbp), %rdx        # 8-byte Reload
	movl	(%rcx,%rdx,4), %esi
	movq	-32(%rbp), %rdi         # 8-byte Reload
	movl	%esi, (%rdi)
	movq	-56(%rbp), %r8          # 8-byte Reload
	movl	(%r8,%rdx,4), %esi
	movq	-24(%rbp), %r9          # 8-byte Reload
	movl	%esi, (%r9)
	addq	$64, %rdx
	movl	(%rcx,%rdx,4), %esi
	movl	%esi, 4(%rdi)
	movq	-120(%rbp), %rdx        # 8-byte Reload
	addq	$64, %rdx
	movl	(%r8,%rdx,4), %esi
	movl	%esi, 4(%r9)
	movq	-120(%rbp), %rdx        # 8-byte Reload
	addq	$128, %rdx
	movl	(%rcx,%rdx,4), %esi
	movl	%esi, 8(%rdi)
	movq	-120(%rbp), %rdx        # 8-byte Reload
	addq	$128, %rdx
	movl	(%r8,%rdx,4), %esi
	movl	%esi, 8(%r9)
	movq	-120(%rbp), %rdx        # 8-byte Reload
	addq	$192, %rdx
	movl	(%rcx,%rdx,4), %esi
	movl	%esi, 12(%rdi)
	movq	-120(%rbp), %rdx        # 8-byte Reload
	addq	$192, %rdx
	movl	(%r8,%rdx,4), %esi
	movl	%esi, 12(%r9)
	movq	-120(%rbp), %rdx        # 8-byte Reload
	addq	$256, %rdx              # imm = 0x100
	movl	(%rcx,%rdx,4), %esi
	movl	%esi, 16(%rdi)
	movq	-120(%rbp), %rdx        # 8-byte Reload
	addq	$256, %rdx              # imm = 0x100
	movl	(%r8,%rdx,4), %esi
	movl	%esi, 16(%r9)
	movq	-120(%rbp), %rdx        # 8-byte Reload
	addq	$320, %rdx              # imm = 0x140
	movl	(%rcx,%rdx,4), %esi
	movl	%esi, 20(%rdi)
	movq	-120(%rbp), %rdx        # 8-byte Reload
	addq	$320, %rdx              # imm = 0x140
	movl	(%r8,%rdx,4), %esi
	movl	%esi, 20(%r9)
	movq	-120(%rbp), %rdx        # 8-byte Reload
	addq	$384, %rdx              # imm = 0x180
	movl	(%rcx,%rdx,4), %esi
	movl	%esi, 24(%rdi)
	movq	-120(%rbp), %rdx        # 8-byte Reload
	addq	$384, %rdx              # imm = 0x180
	movl	(%r8,%rdx,4), %esi
	movl	%esi, 24(%r9)
	movq	-120(%rbp), %rdx        # 8-byte Reload
	addq	$448, %rdx              # imm = 0x1C0
	movl	(%rcx,%rdx,4), %esi
	movl	%esi, 28(%rdi)
	movq	-120(%rbp), %rdx        # 8-byte Reload
	addq	$448, %rdx              # imm = 0x1C0
	movl	(%r8,%rdx,4), %esi
	movl	%esi, 28(%r9)
	movl	(%rdi), %esi
	movl	(%r9), %r10d
	movl	%esi, %r11d
	addl	16(%rdi), %r11d
	movl	%r11d, (%rdi)
	movl	%r10d, %r11d
	addl	16(%r9), %r11d
	movl	%r11d, (%r9)
	subl	16(%rdi), %esi
	movl	%esi, 16(%rdi)
	subl	16(%r9), %r10d
	movl	%r10d, 16(%r9)
	movl	4(%rdi), %esi
	movl	4(%r9), %r10d
	movl	%esi, %r11d
	addl	20(%rdi), %r11d
	movl	%r11d, 4(%rdi)
	movl	%r10d, %r11d
	addl	20(%r9), %r11d
	movl	%r11d, 4(%r9)
	subl	20(%rdi), %esi
	movl	%esi, 20(%rdi)
	subl	20(%r9), %r10d
	movl	%r10d, 20(%r9)
	movl	8(%rdi), %esi
	movl	8(%r9), %r10d
	movl	%esi, %r11d
	addl	24(%rdi), %r11d
	movl	%r11d, 8(%rdi)
	movl	%r10d, %r11d
	addl	24(%r9), %r11d
	movl	%r11d, 8(%r9)
	subl	24(%rdi), %esi
	movl	%esi, 24(%rdi)
	subl	24(%r9), %r10d
	movl	%r10d, 24(%r9)
	movl	12(%rdi), %esi
	movl	12(%r9), %r10d
	movl	%esi, %r11d
	addl	28(%rdi), %r11d
	movl	%r11d, 12(%rdi)
	movl	%r10d, %r11d
	addl	28(%r9), %r11d
	movl	%r11d, 12(%r9)
	subl	28(%rdi), %esi
	movl	%esi, 28(%rdi)
	subl	28(%r9), %r10d
	movl	%r10d, 28(%r9)
	movl	20(%rdi), %esi
	movl	%esi, %r10d
	addl	20(%r9), %r10d
	cvtsi2ss	%r10d, %xmm1
	mulss	%xmm0, %xmm1
	cvttss2si	%xmm1, %r10d
	movl	%r10d, 20(%rdi)
	movl	20(%r9), %r10d
	subl	%esi, %r10d
	cvtsi2ss	%r10d, %xmm1
	mulss	%xmm0, %xmm1
	cvttss2si	%xmm1, %esi
	movl	%esi, 20(%r9)
	movl	24(%rdi), %esi
	movl	24(%r9), %r10d
	movl	%r10d, 24(%rdi)
	movl	%eax, %r10d
	subl	%esi, %r10d
	movl	%r10d, 24(%r9)
	movl	28(%rdi), %esi
	movl	28(%r9), %r10d
	subl	%esi, %r10d
	cvtsi2ss	%r10d, %xmm1
	mulss	%xmm0, %xmm1
	cvttss2si	%xmm1, %r10d
	movl	%r10d, 28(%rdi)
	addl	28(%r9), %esi
	movl	%eax, %r10d
	subl	%esi, %r10d
	cvtsi2ss	%r10d, %xmm1
	mulss	%xmm0, %xmm1
	cvttss2si	%xmm1, %esi
	movl	%esi, 28(%r9)
	movl	(%rdi), %esi
	movl	(%r9), %r10d
	movl	%esi, %r11d
	addl	8(%rdi), %r11d
	movl	%r11d, (%rdi)
	movl	%r10d, %r11d
	addl	8(%r9), %r11d
	movl	%r11d, (%r9)
	subl	8(%rdi), %esi
	movl	%esi, 8(%rdi)
	subl	8(%r9), %r10d
	movl	%r10d, 8(%r9)
	movl	4(%rdi), %esi
	movl	4(%r9), %r10d
	movl	%esi, %r11d
	addl	12(%rdi), %r11d
	movl	%r11d, 4(%rdi)
	movl	%r10d, %r11d
	addl	12(%r9), %r11d
	movl	%r11d, 4(%r9)
	subl	12(%rdi), %esi
	movl	%esi, 12(%rdi)
	subl	12(%r9), %r10d
	movl	%r10d, 12(%r9)
	movl	12(%rdi), %esi
	movl	%r10d, 12(%rdi)
	movl	%eax, %r10d
	subl	%esi, %r10d
	movl	%r10d, 12(%r9)
	movl	(%rdi), %esi
	movl	(%r9), %r10d
	movl	%esi, %r11d
	addl	4(%rdi), %r11d
	movl	%r11d, (%rdi)
	movl	%r10d, %r11d
	addl	4(%r9), %r11d
	movl	%r11d, (%r9)
	subl	4(%rdi), %esi
	movl	%esi, 4(%rdi)
	subl	4(%r9), %r10d
	movl	%r10d, 4(%r9)
	movl	8(%rdi), %esi
	movl	8(%r9), %r10d
	movl	%esi, %r11d
	addl	12(%rdi), %r11d
	movl	%r11d, 8(%rdi)
	movl	%r10d, %r11d
	addl	12(%r9), %r11d
	movl	%r11d, 8(%r9)
	subl	12(%rdi), %esi
	movl	%esi, 12(%rdi)
	subl	12(%r9), %r10d
	movl	%r10d, 12(%r9)
	movl	16(%rdi), %esi
	movl	16(%r9), %r10d
	movl	%esi, %r11d
	addl	24(%rdi), %r11d
	movl	%r11d, 16(%rdi)
	movl	%r10d, %r11d
	addl	24(%r9), %r11d
	movl	%r11d, 16(%r9)
	subl	24(%rdi), %esi
	movl	%esi, 24(%rdi)
	subl	24(%r9), %r10d
	movl	%r10d, 24(%r9)
	movl	20(%rdi), %esi
	movl	20(%r9), %r10d
	movl	%esi, %r11d
	addl	28(%rdi), %r11d
	movl	%r11d, 20(%rdi)
	movl	%r10d, %r11d
	addl	28(%r9), %r11d
	movl	%r11d, 20(%r9)
	subl	28(%rdi), %esi
	movl	%esi, 28(%rdi)
	subl	28(%r9), %r10d
	movl	%r10d, 28(%r9)
	movl	28(%rdi), %esi
	movl	%r10d, 28(%rdi)
	subl	%esi, %eax
	movl	%eax, 28(%r9)
	movl	16(%rdi), %eax
	movl	16(%r9), %esi
	movl	%eax, %r10d
	addl	20(%rdi), %r10d
	movl	%r10d, 16(%rdi)
	movl	%esi, %r10d
	addl	20(%r9), %r10d
	movl	%r10d, 16(%r9)
	subl	20(%rdi), %eax
	movl	%eax, 20(%rdi)
	subl	20(%r9), %esi
	movl	%esi, 20(%r9)
	movl	24(%rdi), %eax
	movl	24(%r9), %esi
	movl	%eax, %r10d
	addl	28(%rdi), %r10d
	movl	%r10d, 24(%rdi)
	movl	%esi, %r10d
	addl	28(%r9), %r10d
	movl	%r10d, 24(%r9)
	subl	28(%rdi), %eax
	movl	%eax, 28(%rdi)
	subl	28(%r9), %esi
	movl	%esi, 28(%r9)
# %bb.13:                               # %for.body278.3
                                        #   in Loop: Header=BB0_1 Depth=1
	movq	-120(%rbp), %rax        # 8-byte Reload
	imulq	$7, %rax, %rcx
	movq	-72(%rbp), %rdx         # 8-byte Reload
	cvttss2si	(%rdx,%rcx,4), %esi
	imulq	$7, %rax, %rcx
	movq	-80(%rbp), %rdi         # 8-byte Reload
	cvttss2si	(%rdi,%rcx,4), %r8d
	movq	-32(%rbp), %rcx         # 8-byte Reload
	movl	4(%rcx), %r9d
	movl	%esi, %r10d
	imull	4(%rcx), %r10d
	movl	%r8d, %r11d
	movq	-24(%rbp), %rbx         # 8-byte Reload
	imull	4(%rbx), %r11d
	subl	%r11d, %r10d
	movl	%r10d, 4(%rcx)
	imull	%r8d, %r9d
	imull	4(%rbx), %esi
	addl	%esi, %r9d
	movl	%r9d, 4(%rbx)
	imulq	$7, %rax, %r14
	cvttss2si	4(%rdx,%r14,4), %esi
	imulq	$7, %rax, %r14
	cvttss2si	4(%rdi,%r14,4), %r8d
	movl	8(%rcx), %r9d
	movl	%esi, %r10d
	imull	8(%rcx), %r10d
	movl	%r8d, %r11d
	imull	8(%rbx), %r11d
	subl	%r11d, %r10d
	movl	%r10d, 8(%rcx)
	imull	%r8d, %r9d
	imull	8(%rbx), %esi
	addl	%esi, %r9d
	movl	%r9d, 8(%rbx)
	imulq	$7, %rax, %r14
	cvttss2si	8(%rdx,%r14,4), %esi
	imulq	$7, %rax, %r14
	cvttss2si	8(%rdi,%r14,4), %r8d
	movl	12(%rcx), %r9d
	movl	%esi, %r10d
	imull	12(%rcx), %r10d
	movl	%r8d, %r11d
	imull	12(%rbx), %r11d
	subl	%r11d, %r10d
	movl	%r10d, 12(%rcx)
	imull	%r8d, %r9d
	imull	12(%rbx), %esi
	addl	%esi, %r9d
	movl	%r9d, 12(%rbx)
	imulq	$7, %rax, %r14
	cvttss2si	12(%rdx,%r14,4), %esi
	imulq	$7, %rax, %r14
	cvttss2si	12(%rdi,%r14,4), %r8d
	movl	16(%rcx), %r9d
	movl	%esi, %r10d
	imull	16(%rcx), %r10d
	movl	%r8d, %r11d
	imull	16(%rbx), %r11d
	subl	%r11d, %r10d
	movl	%r10d, 16(%rcx)
	imull	%r8d, %r9d
	imull	16(%rbx), %esi
	addl	%esi, %r9d
	movl	%r9d, 16(%rbx)
	imulq	$7, %rax, %r14
	cvttss2si	16(%rdx,%r14,4), %esi
	imulq	$7, %rax, %r14
	cvttss2si	16(%rdi,%r14,4), %r8d
	movl	20(%rcx), %r9d
	movl	%esi, %r10d
	imull	20(%rcx), %r10d
	movl	%r8d, %r11d
	imull	20(%rbx), %r11d
	subl	%r11d, %r10d
	movl	%r10d, 20(%rcx)
	imull	%r8d, %r9d
	imull	20(%rbx), %esi
	addl	%esi, %r9d
	movl	%r9d, 20(%rbx)
	imulq	$7, %rax, %r14
	cvttss2si	20(%rdx,%r14,4), %esi
	imulq	$7, %rax, %r14
	cvttss2si	20(%rdi,%r14,4), %r8d
	movl	24(%rcx), %r9d
	movl	%esi, %r10d
	imull	24(%rcx), %r10d
	movl	%r8d, %r11d
	imull	24(%rbx), %r11d
	subl	%r11d, %r10d
	movl	%r10d, 24(%rcx)
	imull	%r8d, %r9d
	imull	24(%rbx), %esi
	addl	%esi, %r9d
	movl	%r9d, 24(%rbx)
	imulq	$7, %rax, %r14
	cvttss2si	24(%rdx,%r14,4), %esi
	imulq	$7, %rax, %r14
	cvttss2si	24(%rdi,%r14,4), %r8d
	movl	28(%rcx), %r9d
	movl	%esi, %r10d
	imull	28(%rcx), %r10d
	movl	%r8d, %r11d
	imull	28(%rbx), %r11d
	subl	%r11d, %r10d
	movl	%r10d, 28(%rcx)
	imull	%r8d, %r9d
	imull	28(%rbx), %esi
	addl	%esi, %r9d
	movl	%r9d, 28(%rbx)
# %bb.14:                               # %for.body316.3
                                        #   in Loop: Header=BB0_1 Depth=1
	movq	-32(%rbp), %rax         # 8-byte Reload
	movl	(%rax), %ecx
	movq	-120(%rbp), %rdx        # 8-byte Reload
	shlq	$3, %rdx
	movq	-48(%rbp), %rsi         # 8-byte Reload
	movl	%ecx, (%rsi,%rdx,4)
	movq	-24(%rbp), %rdx         # 8-byte Reload
	movl	(%rdx), %ecx
	movq	-120(%rbp), %rdi        # 8-byte Reload
	shlq	$3, %rdi
	movq	-40(%rbp), %r8          # 8-byte Reload
	movl	%ecx, (%r8,%rdi,4)
	movl	4(%rax), %ecx
	movq	-120(%rbp), %rdi        # 8-byte Reload
	shlq	$3, %rdi
	movl	%ecx, 4(%rsi,%rdi,4)
	movl	4(%rdx), %ecx
	movq	-120(%rbp), %rdi        # 8-byte Reload
	shlq	$3, %rdi
	movl	%ecx, 4(%r8,%rdi,4)
	movl	8(%rax), %ecx
	movq	-120(%rbp), %rdi        # 8-byte Reload
	shlq	$3, %rdi
	movl	%ecx, 8(%rsi,%rdi,4)
	movl	8(%rdx), %ecx
	movq	-120(%rbp), %rdi        # 8-byte Reload
	shlq	$3, %rdi
	movl	%ecx, 8(%r8,%rdi,4)
	movl	12(%rax), %ecx
	movq	-120(%rbp), %rdi        # 8-byte Reload
	shlq	$3, %rdi
	movl	%ecx, 12(%rsi,%rdi,4)
	movl	12(%rdx), %ecx
	movq	-120(%rbp), %rdi        # 8-byte Reload
	shlq	$3, %rdi
	movl	%ecx, 12(%r8,%rdi,4)
	movl	16(%rax), %ecx
	movq	-120(%rbp), %rdi        # 8-byte Reload
	shlq	$3, %rdi
	movl	%ecx, 16(%rsi,%rdi,4)
	movl	16(%rdx), %ecx
	movq	-120(%rbp), %rdi        # 8-byte Reload
	shlq	$3, %rdi
	movl	%ecx, 16(%r8,%rdi,4)
	movl	20(%rax), %ecx
	movq	-120(%rbp), %rdi        # 8-byte Reload
	shlq	$3, %rdi
	movl	%ecx, 20(%rsi,%rdi,4)
	movl	20(%rdx), %ecx
	movq	-120(%rbp), %rdi        # 8-byte Reload
	shlq	$3, %rdi
	movl	%ecx, 20(%r8,%rdi,4)
	movl	24(%rax), %ecx
	movq	-120(%rbp), %rdi        # 8-byte Reload
	shlq	$3, %rdi
	movl	%ecx, 24(%rsi,%rdi,4)
	movl	24(%rdx), %ecx
	movq	-120(%rbp), %rdi        # 8-byte Reload
	shlq	$3, %rdi
	movl	%ecx, 24(%r8,%rdi,4)
	movl	28(%rax), %ecx
	movq	-120(%rbp), %rdi        # 8-byte Reload
	shlq	$3, %rdi
	movl	%ecx, 28(%rsi,%rdi,4)
	movl	28(%rdx), %ecx
	movq	-120(%rbp), %rdi        # 8-byte Reload
	shlq	$3, %rdi
	movl	%ecx, 28(%r8,%rdi,4)
	movq	-120(%rbp), %rdi        # 8-byte Reload
	addq	$1, %rdi
	movq	%rdi, -128(%rbp)        # 8-byte Spill
# %bb.15:                               # %for.body3.4
                                        #   in Loop: Header=BB0_1 Depth=1
	xorl	%eax, %eax
	movss	.LCPI0_0(%rip), %xmm0   # xmm0 = mem[0],zero,zero,zero
	movq	-64(%rbp), %rcx         # 8-byte Reload
	movq	-128(%rbp), %rdx        # 8-byte Reload
	movl	(%rcx,%rdx,4), %esi
	movq	-32(%rbp), %rdi         # 8-byte Reload
	movl	%esi, (%rdi)
	movq	-56(%rbp), %r8          # 8-byte Reload
	movl	(%r8,%rdx,4), %esi
	movq	-24(%rbp), %r9          # 8-byte Reload
	movl	%esi, (%r9)
	addq	$64, %rdx
	movl	(%rcx,%rdx,4), %esi
	movl	%esi, 4(%rdi)
	movq	-128(%rbp), %rdx        # 8-byte Reload
	addq	$64, %rdx
	movl	(%r8,%rdx,4), %esi
	movl	%esi, 4(%r9)
	movq	-128(%rbp), %rdx        # 8-byte Reload
	addq	$128, %rdx
	movl	(%rcx,%rdx,4), %esi
	movl	%esi, 8(%rdi)
	movq	-128(%rbp), %rdx        # 8-byte Reload
	addq	$128, %rdx
	movl	(%r8,%rdx,4), %esi
	movl	%esi, 8(%r9)
	movq	-128(%rbp), %rdx        # 8-byte Reload
	addq	$192, %rdx
	movl	(%rcx,%rdx,4), %esi
	movl	%esi, 12(%rdi)
	movq	-128(%rbp), %rdx        # 8-byte Reload
	addq	$192, %rdx
	movl	(%r8,%rdx,4), %esi
	movl	%esi, 12(%r9)
	movq	-128(%rbp), %rdx        # 8-byte Reload
	addq	$256, %rdx              # imm = 0x100
	movl	(%rcx,%rdx,4), %esi
	movl	%esi, 16(%rdi)
	movq	-128(%rbp), %rdx        # 8-byte Reload
	addq	$256, %rdx              # imm = 0x100
	movl	(%r8,%rdx,4), %esi
	movl	%esi, 16(%r9)
	movq	-128(%rbp), %rdx        # 8-byte Reload
	addq	$320, %rdx              # imm = 0x140
	movl	(%rcx,%rdx,4), %esi
	movl	%esi, 20(%rdi)
	movq	-128(%rbp), %rdx        # 8-byte Reload
	addq	$320, %rdx              # imm = 0x140
	movl	(%r8,%rdx,4), %esi
	movl	%esi, 20(%r9)
	movq	-128(%rbp), %rdx        # 8-byte Reload
	addq	$384, %rdx              # imm = 0x180
	movl	(%rcx,%rdx,4), %esi
	movl	%esi, 24(%rdi)
	movq	-128(%rbp), %rdx        # 8-byte Reload
	addq	$384, %rdx              # imm = 0x180
	movl	(%r8,%rdx,4), %esi
	movl	%esi, 24(%r9)
	movq	-128(%rbp), %rdx        # 8-byte Reload
	addq	$448, %rdx              # imm = 0x1C0
	movl	(%rcx,%rdx,4), %esi
	movl	%esi, 28(%rdi)
	movq	-128(%rbp), %rdx        # 8-byte Reload
	addq	$448, %rdx              # imm = 0x1C0
	movl	(%r8,%rdx,4), %esi
	movl	%esi, 28(%r9)
	movl	(%rdi), %esi
	movl	(%r9), %r10d
	movl	%esi, %r11d
	addl	16(%rdi), %r11d
	movl	%r11d, (%rdi)
	movl	%r10d, %r11d
	addl	16(%r9), %r11d
	movl	%r11d, (%r9)
	subl	16(%rdi), %esi
	movl	%esi, 16(%rdi)
	subl	16(%r9), %r10d
	movl	%r10d, 16(%r9)
	movl	4(%rdi), %esi
	movl	4(%r9), %r10d
	movl	%esi, %r11d
	addl	20(%rdi), %r11d
	movl	%r11d, 4(%rdi)
	movl	%r10d, %r11d
	addl	20(%r9), %r11d
	movl	%r11d, 4(%r9)
	subl	20(%rdi), %esi
	movl	%esi, 20(%rdi)
	subl	20(%r9), %r10d
	movl	%r10d, 20(%r9)
	movl	8(%rdi), %esi
	movl	8(%r9), %r10d
	movl	%esi, %r11d
	addl	24(%rdi), %r11d
	movl	%r11d, 8(%rdi)
	movl	%r10d, %r11d
	addl	24(%r9), %r11d
	movl	%r11d, 8(%r9)
	subl	24(%rdi), %esi
	movl	%esi, 24(%rdi)
	subl	24(%r9), %r10d
	movl	%r10d, 24(%r9)
	movl	12(%rdi), %esi
	movl	12(%r9), %r10d
	movl	%esi, %r11d
	addl	28(%rdi), %r11d
	movl	%r11d, 12(%rdi)
	movl	%r10d, %r11d
	addl	28(%r9), %r11d
	movl	%r11d, 12(%r9)
	subl	28(%rdi), %esi
	movl	%esi, 28(%rdi)
	subl	28(%r9), %r10d
	movl	%r10d, 28(%r9)
	movl	20(%rdi), %esi
	movl	%esi, %r10d
	addl	20(%r9), %r10d
	cvtsi2ss	%r10d, %xmm1
	mulss	%xmm0, %xmm1
	cvttss2si	%xmm1, %r10d
	movl	%r10d, 20(%rdi)
	movl	20(%r9), %r10d
	subl	%esi, %r10d
	cvtsi2ss	%r10d, %xmm1
	mulss	%xmm0, %xmm1
	cvttss2si	%xmm1, %esi
	movl	%esi, 20(%r9)
	movl	24(%rdi), %esi
	movl	24(%r9), %r10d
	movl	%r10d, 24(%rdi)
	movl	%eax, %r10d
	subl	%esi, %r10d
	movl	%r10d, 24(%r9)
	movl	28(%rdi), %esi
	movl	28(%r9), %r10d
	subl	%esi, %r10d
	cvtsi2ss	%r10d, %xmm1
	mulss	%xmm0, %xmm1
	cvttss2si	%xmm1, %r10d
	movl	%r10d, 28(%rdi)
	addl	28(%r9), %esi
	movl	%eax, %r10d
	subl	%esi, %r10d
	cvtsi2ss	%r10d, %xmm1
	mulss	%xmm0, %xmm1
	cvttss2si	%xmm1, %esi
	movl	%esi, 28(%r9)
	movl	(%rdi), %esi
	movl	(%r9), %r10d
	movl	%esi, %r11d
	addl	8(%rdi), %r11d
	movl	%r11d, (%rdi)
	movl	%r10d, %r11d
	addl	8(%r9), %r11d
	movl	%r11d, (%r9)
	subl	8(%rdi), %esi
	movl	%esi, 8(%rdi)
	subl	8(%r9), %r10d
	movl	%r10d, 8(%r9)
	movl	4(%rdi), %esi
	movl	4(%r9), %r10d
	movl	%esi, %r11d
	addl	12(%rdi), %r11d
	movl	%r11d, 4(%rdi)
	movl	%r10d, %r11d
	addl	12(%r9), %r11d
	movl	%r11d, 4(%r9)
	subl	12(%rdi), %esi
	movl	%esi, 12(%rdi)
	subl	12(%r9), %r10d
	movl	%r10d, 12(%r9)
	movl	12(%rdi), %esi
	movl	%r10d, 12(%rdi)
	movl	%eax, %r10d
	subl	%esi, %r10d
	movl	%r10d, 12(%r9)
	movl	(%rdi), %esi
	movl	(%r9), %r10d
	movl	%esi, %r11d
	addl	4(%rdi), %r11d
	movl	%r11d, (%rdi)
	movl	%r10d, %r11d
	addl	4(%r9), %r11d
	movl	%r11d, (%r9)
	subl	4(%rdi), %esi
	movl	%esi, 4(%rdi)
	subl	4(%r9), %r10d
	movl	%r10d, 4(%r9)
	movl	8(%rdi), %esi
	movl	8(%r9), %r10d
	movl	%esi, %r11d
	addl	12(%rdi), %r11d
	movl	%r11d, 8(%rdi)
	movl	%r10d, %r11d
	addl	12(%r9), %r11d
	movl	%r11d, 8(%r9)
	subl	12(%rdi), %esi
	movl	%esi, 12(%rdi)
	subl	12(%r9), %r10d
	movl	%r10d, 12(%r9)
	movl	16(%rdi), %esi
	movl	16(%r9), %r10d
	movl	%esi, %r11d
	addl	24(%rdi), %r11d
	movl	%r11d, 16(%rdi)
	movl	%r10d, %r11d
	addl	24(%r9), %r11d
	movl	%r11d, 16(%r9)
	subl	24(%rdi), %esi
	movl	%esi, 24(%rdi)
	subl	24(%r9), %r10d
	movl	%r10d, 24(%r9)
	movl	20(%rdi), %esi
	movl	20(%r9), %r10d
	movl	%esi, %r11d
	addl	28(%rdi), %r11d
	movl	%r11d, 20(%rdi)
	movl	%r10d, %r11d
	addl	28(%r9), %r11d
	movl	%r11d, 20(%r9)
	subl	28(%rdi), %esi
	movl	%esi, 28(%rdi)
	subl	28(%r9), %r10d
	movl	%r10d, 28(%r9)
	movl	28(%rdi), %esi
	movl	%r10d, 28(%rdi)
	subl	%esi, %eax
	movl	%eax, 28(%r9)
	movl	16(%rdi), %eax
	movl	16(%r9), %esi
	movl	%eax, %r10d
	addl	20(%rdi), %r10d
	movl	%r10d, 16(%rdi)
	movl	%esi, %r10d
	addl	20(%r9), %r10d
	movl	%r10d, 16(%r9)
	subl	20(%rdi), %eax
	movl	%eax, 20(%rdi)
	subl	20(%r9), %esi
	movl	%esi, 20(%r9)
	movl	24(%rdi), %eax
	movl	24(%r9), %esi
	movl	%eax, %r10d
	addl	28(%rdi), %r10d
	movl	%r10d, 24(%rdi)
	movl	%esi, %r10d
	addl	28(%r9), %r10d
	movl	%r10d, 24(%r9)
	subl	28(%rdi), %eax
	movl	%eax, 28(%rdi)
	subl	28(%r9), %esi
	movl	%esi, 28(%r9)
# %bb.16:                               # %for.body278.4
                                        #   in Loop: Header=BB0_1 Depth=1
	movq	-128(%rbp), %rax        # 8-byte Reload
	imulq	$7, %rax, %rcx
	movq	-72(%rbp), %rdx         # 8-byte Reload
	cvttss2si	(%rdx,%rcx,4), %esi
	imulq	$7, %rax, %rcx
	movq	-80(%rbp), %rdi         # 8-byte Reload
	cvttss2si	(%rdi,%rcx,4), %r8d
	movq	-32(%rbp), %rcx         # 8-byte Reload
	movl	4(%rcx), %r9d
	movl	%esi, %r10d
	imull	4(%rcx), %r10d
	movl	%r8d, %r11d
	movq	-24(%rbp), %rbx         # 8-byte Reload
	imull	4(%rbx), %r11d
	subl	%r11d, %r10d
	movl	%r10d, 4(%rcx)
	imull	%r8d, %r9d
	imull	4(%rbx), %esi
	addl	%esi, %r9d
	movl	%r9d, 4(%rbx)
	imulq	$7, %rax, %r14
	cvttss2si	4(%rdx,%r14,4), %esi
	imulq	$7, %rax, %r14
	cvttss2si	4(%rdi,%r14,4), %r8d
	movl	8(%rcx), %r9d
	movl	%esi, %r10d
	imull	8(%rcx), %r10d
	movl	%r8d, %r11d
	imull	8(%rbx), %r11d
	subl	%r11d, %r10d
	movl	%r10d, 8(%rcx)
	imull	%r8d, %r9d
	imull	8(%rbx), %esi
	addl	%esi, %r9d
	movl	%r9d, 8(%rbx)
	imulq	$7, %rax, %r14
	cvttss2si	8(%rdx,%r14,4), %esi
	imulq	$7, %rax, %r14
	cvttss2si	8(%rdi,%r14,4), %r8d
	movl	12(%rcx), %r9d
	movl	%esi, %r10d
	imull	12(%rcx), %r10d
	movl	%r8d, %r11d
	imull	12(%rbx), %r11d
	subl	%r11d, %r10d
	movl	%r10d, 12(%rcx)
	imull	%r8d, %r9d
	imull	12(%rbx), %esi
	addl	%esi, %r9d
	movl	%r9d, 12(%rbx)
	imulq	$7, %rax, %r14
	cvttss2si	12(%rdx,%r14,4), %esi
	imulq	$7, %rax, %r14
	cvttss2si	12(%rdi,%r14,4), %r8d
	movl	16(%rcx), %r9d
	movl	%esi, %r10d
	imull	16(%rcx), %r10d
	movl	%r8d, %r11d
	imull	16(%rbx), %r11d
	subl	%r11d, %r10d
	movl	%r10d, 16(%rcx)
	imull	%r8d, %r9d
	imull	16(%rbx), %esi
	addl	%esi, %r9d
	movl	%r9d, 16(%rbx)
	imulq	$7, %rax, %r14
	cvttss2si	16(%rdx,%r14,4), %esi
	imulq	$7, %rax, %r14
	cvttss2si	16(%rdi,%r14,4), %r8d
	movl	20(%rcx), %r9d
	movl	%esi, %r10d
	imull	20(%rcx), %r10d
	movl	%r8d, %r11d
	imull	20(%rbx), %r11d
	subl	%r11d, %r10d
	movl	%r10d, 20(%rcx)
	imull	%r8d, %r9d
	imull	20(%rbx), %esi
	addl	%esi, %r9d
	movl	%r9d, 20(%rbx)
	imulq	$7, %rax, %r14
	cvttss2si	20(%rdx,%r14,4), %esi
	imulq	$7, %rax, %r14
	cvttss2si	20(%rdi,%r14,4), %r8d
	movl	24(%rcx), %r9d
	movl	%esi, %r10d
	imull	24(%rcx), %r10d
	movl	%r8d, %r11d
	imull	24(%rbx), %r11d
	subl	%r11d, %r10d
	movl	%r10d, 24(%rcx)
	imull	%r8d, %r9d
	imull	24(%rbx), %esi
	addl	%esi, %r9d
	movl	%r9d, 24(%rbx)
	imulq	$7, %rax, %r14
	cvttss2si	24(%rdx,%r14,4), %esi
	imulq	$7, %rax, %r14
	cvttss2si	24(%rdi,%r14,4), %r8d
	movl	28(%rcx), %r9d
	movl	%esi, %r10d
	imull	28(%rcx), %r10d
	movl	%r8d, %r11d
	imull	28(%rbx), %r11d
	subl	%r11d, %r10d
	movl	%r10d, 28(%rcx)
	imull	%r8d, %r9d
	imull	28(%rbx), %esi
	addl	%esi, %r9d
	movl	%r9d, 28(%rbx)
# %bb.17:                               # %for.body316.4
                                        #   in Loop: Header=BB0_1 Depth=1
	movq	-32(%rbp), %rax         # 8-byte Reload
	movl	(%rax), %ecx
	movq	-128(%rbp), %rdx        # 8-byte Reload
	shlq	$3, %rdx
	movq	-48(%rbp), %rsi         # 8-byte Reload
	movl	%ecx, (%rsi,%rdx,4)
	movq	-24(%rbp), %rdx         # 8-byte Reload
	movl	(%rdx), %ecx
	movq	-128(%rbp), %rdi        # 8-byte Reload
	shlq	$3, %rdi
	movq	-40(%rbp), %r8          # 8-byte Reload
	movl	%ecx, (%r8,%rdi,4)
	movl	4(%rax), %ecx
	movq	-128(%rbp), %rdi        # 8-byte Reload
	shlq	$3, %rdi
	movl	%ecx, 4(%rsi,%rdi,4)
	movl	4(%rdx), %ecx
	movq	-128(%rbp), %rdi        # 8-byte Reload
	shlq	$3, %rdi
	movl	%ecx, 4(%r8,%rdi,4)
	movl	8(%rax), %ecx
	movq	-128(%rbp), %rdi        # 8-byte Reload
	shlq	$3, %rdi
	movl	%ecx, 8(%rsi,%rdi,4)
	movl	8(%rdx), %ecx
	movq	-128(%rbp), %rdi        # 8-byte Reload
	shlq	$3, %rdi
	movl	%ecx, 8(%r8,%rdi,4)
	movl	12(%rax), %ecx
	movq	-128(%rbp), %rdi        # 8-byte Reload
	shlq	$3, %rdi
	movl	%ecx, 12(%rsi,%rdi,4)
	movl	12(%rdx), %ecx
	movq	-128(%rbp), %rdi        # 8-byte Reload
	shlq	$3, %rdi
	movl	%ecx, 12(%r8,%rdi,4)
	movl	16(%rax), %ecx
	movq	-128(%rbp), %rdi        # 8-byte Reload
	shlq	$3, %rdi
	movl	%ecx, 16(%rsi,%rdi,4)
	movl	16(%rdx), %ecx
	movq	-128(%rbp), %rdi        # 8-byte Reload
	shlq	$3, %rdi
	movl	%ecx, 16(%r8,%rdi,4)
	movl	20(%rax), %ecx
	movq	-128(%rbp), %rdi        # 8-byte Reload
	shlq	$3, %rdi
	movl	%ecx, 20(%rsi,%rdi,4)
	movl	20(%rdx), %ecx
	movq	-128(%rbp), %rdi        # 8-byte Reload
	shlq	$3, %rdi
	movl	%ecx, 20(%r8,%rdi,4)
	movl	24(%rax), %ecx
	movq	-128(%rbp), %rdi        # 8-byte Reload
	shlq	$3, %rdi
	movl	%ecx, 24(%rsi,%rdi,4)
	movl	24(%rdx), %ecx
	movq	-128(%rbp), %rdi        # 8-byte Reload
	shlq	$3, %rdi
	movl	%ecx, 24(%r8,%rdi,4)
	movl	28(%rax), %ecx
	movq	-128(%rbp), %rdi        # 8-byte Reload
	shlq	$3, %rdi
	movl	%ecx, 28(%rsi,%rdi,4)
	movl	28(%rdx), %ecx
	movq	-128(%rbp), %rdi        # 8-byte Reload
	shlq	$3, %rdi
	movl	%ecx, 28(%r8,%rdi,4)
	movq	-128(%rbp), %rdi        # 8-byte Reload
	addq	$1, %rdi
	movq	%rdi, -136(%rbp)        # 8-byte Spill
# %bb.18:                               # %for.body3.5
                                        #   in Loop: Header=BB0_1 Depth=1
	xorl	%eax, %eax
	movss	.LCPI0_0(%rip), %xmm0   # xmm0 = mem[0],zero,zero,zero
	movq	-64(%rbp), %rcx         # 8-byte Reload
	movq	-136(%rbp), %rdx        # 8-byte Reload
	movl	(%rcx,%rdx,4), %esi
	movq	-32(%rbp), %rdi         # 8-byte Reload
	movl	%esi, (%rdi)
	movq	-56(%rbp), %r8          # 8-byte Reload
	movl	(%r8,%rdx,4), %esi
	movq	-24(%rbp), %r9          # 8-byte Reload
	movl	%esi, (%r9)
	addq	$64, %rdx
	movl	(%rcx,%rdx,4), %esi
	movl	%esi, 4(%rdi)
	movq	-136(%rbp), %rdx        # 8-byte Reload
	addq	$64, %rdx
	movl	(%r8,%rdx,4), %esi
	movl	%esi, 4(%r9)
	movq	-136(%rbp), %rdx        # 8-byte Reload
	addq	$128, %rdx
	movl	(%rcx,%rdx,4), %esi
	movl	%esi, 8(%rdi)
	movq	-136(%rbp), %rdx        # 8-byte Reload
	addq	$128, %rdx
	movl	(%r8,%rdx,4), %esi
	movl	%esi, 8(%r9)
	movq	-136(%rbp), %rdx        # 8-byte Reload
	addq	$192, %rdx
	movl	(%rcx,%rdx,4), %esi
	movl	%esi, 12(%rdi)
	movq	-136(%rbp), %rdx        # 8-byte Reload
	addq	$192, %rdx
	movl	(%r8,%rdx,4), %esi
	movl	%esi, 12(%r9)
	movq	-136(%rbp), %rdx        # 8-byte Reload
	addq	$256, %rdx              # imm = 0x100
	movl	(%rcx,%rdx,4), %esi
	movl	%esi, 16(%rdi)
	movq	-136(%rbp), %rdx        # 8-byte Reload
	addq	$256, %rdx              # imm = 0x100
	movl	(%r8,%rdx,4), %esi
	movl	%esi, 16(%r9)
	movq	-136(%rbp), %rdx        # 8-byte Reload
	addq	$320, %rdx              # imm = 0x140
	movl	(%rcx,%rdx,4), %esi
	movl	%esi, 20(%rdi)
	movq	-136(%rbp), %rdx        # 8-byte Reload
	addq	$320, %rdx              # imm = 0x140
	movl	(%r8,%rdx,4), %esi
	movl	%esi, 20(%r9)
	movq	-136(%rbp), %rdx        # 8-byte Reload
	addq	$384, %rdx              # imm = 0x180
	movl	(%rcx,%rdx,4), %esi
	movl	%esi, 24(%rdi)
	movq	-136(%rbp), %rdx        # 8-byte Reload
	addq	$384, %rdx              # imm = 0x180
	movl	(%r8,%rdx,4), %esi
	movl	%esi, 24(%r9)
	movq	-136(%rbp), %rdx        # 8-byte Reload
	addq	$448, %rdx              # imm = 0x1C0
	movl	(%rcx,%rdx,4), %esi
	movl	%esi, 28(%rdi)
	movq	-136(%rbp), %rdx        # 8-byte Reload
	addq	$448, %rdx              # imm = 0x1C0
	movl	(%r8,%rdx,4), %esi
	movl	%esi, 28(%r9)
	movl	(%rdi), %esi
	movl	(%r9), %r10d
	movl	%esi, %r11d
	addl	16(%rdi), %r11d
	movl	%r11d, (%rdi)
	movl	%r10d, %r11d
	addl	16(%r9), %r11d
	movl	%r11d, (%r9)
	subl	16(%rdi), %esi
	movl	%esi, 16(%rdi)
	subl	16(%r9), %r10d
	movl	%r10d, 16(%r9)
	movl	4(%rdi), %esi
	movl	4(%r9), %r10d
	movl	%esi, %r11d
	addl	20(%rdi), %r11d
	movl	%r11d, 4(%rdi)
	movl	%r10d, %r11d
	addl	20(%r9), %r11d
	movl	%r11d, 4(%r9)
	subl	20(%rdi), %esi
	movl	%esi, 20(%rdi)
	subl	20(%r9), %r10d
	movl	%r10d, 20(%r9)
	movl	8(%rdi), %esi
	movl	8(%r9), %r10d
	movl	%esi, %r11d
	addl	24(%rdi), %r11d
	movl	%r11d, 8(%rdi)
	movl	%r10d, %r11d
	addl	24(%r9), %r11d
	movl	%r11d, 8(%r9)
	subl	24(%rdi), %esi
	movl	%esi, 24(%rdi)
	subl	24(%r9), %r10d
	movl	%r10d, 24(%r9)
	movl	12(%rdi), %esi
	movl	12(%r9), %r10d
	movl	%esi, %r11d
	addl	28(%rdi), %r11d
	movl	%r11d, 12(%rdi)
	movl	%r10d, %r11d
	addl	28(%r9), %r11d
	movl	%r11d, 12(%r9)
	subl	28(%rdi), %esi
	movl	%esi, 28(%rdi)
	subl	28(%r9), %r10d
	movl	%r10d, 28(%r9)
	movl	20(%rdi), %esi
	movl	%esi, %r10d
	addl	20(%r9), %r10d
	cvtsi2ss	%r10d, %xmm1
	mulss	%xmm0, %xmm1
	cvttss2si	%xmm1, %r10d
	movl	%r10d, 20(%rdi)
	movl	20(%r9), %r10d
	subl	%esi, %r10d
	cvtsi2ss	%r10d, %xmm1
	mulss	%xmm0, %xmm1
	cvttss2si	%xmm1, %esi
	movl	%esi, 20(%r9)
	movl	24(%rdi), %esi
	movl	24(%r9), %r10d
	movl	%r10d, 24(%rdi)
	movl	%eax, %r10d
	subl	%esi, %r10d
	movl	%r10d, 24(%r9)
	movl	28(%rdi), %esi
	movl	28(%r9), %r10d
	subl	%esi, %r10d
	cvtsi2ss	%r10d, %xmm1
	mulss	%xmm0, %xmm1
	cvttss2si	%xmm1, %r10d
	movl	%r10d, 28(%rdi)
	addl	28(%r9), %esi
	movl	%eax, %r10d
	subl	%esi, %r10d
	cvtsi2ss	%r10d, %xmm1
	mulss	%xmm0, %xmm1
	cvttss2si	%xmm1, %esi
	movl	%esi, 28(%r9)
	movl	(%rdi), %esi
	movl	(%r9), %r10d
	movl	%esi, %r11d
	addl	8(%rdi), %r11d
	movl	%r11d, (%rdi)
	movl	%r10d, %r11d
	addl	8(%r9), %r11d
	movl	%r11d, (%r9)
	subl	8(%rdi), %esi
	movl	%esi, 8(%rdi)
	subl	8(%r9), %r10d
	movl	%r10d, 8(%r9)
	movl	4(%rdi), %esi
	movl	4(%r9), %r10d
	movl	%esi, %r11d
	addl	12(%rdi), %r11d
	movl	%r11d, 4(%rdi)
	movl	%r10d, %r11d
	addl	12(%r9), %r11d
	movl	%r11d, 4(%r9)
	subl	12(%rdi), %esi
	movl	%esi, 12(%rdi)
	subl	12(%r9), %r10d
	movl	%r10d, 12(%r9)
	movl	12(%rdi), %esi
	movl	%r10d, 12(%rdi)
	movl	%eax, %r10d
	subl	%esi, %r10d
	movl	%r10d, 12(%r9)
	movl	(%rdi), %esi
	movl	(%r9), %r10d
	movl	%esi, %r11d
	addl	4(%rdi), %r11d
	movl	%r11d, (%rdi)
	movl	%r10d, %r11d
	addl	4(%r9), %r11d
	movl	%r11d, (%r9)
	subl	4(%rdi), %esi
	movl	%esi, 4(%rdi)
	subl	4(%r9), %r10d
	movl	%r10d, 4(%r9)
	movl	8(%rdi), %esi
	movl	8(%r9), %r10d
	movl	%esi, %r11d
	addl	12(%rdi), %r11d
	movl	%r11d, 8(%rdi)
	movl	%r10d, %r11d
	addl	12(%r9), %r11d
	movl	%r11d, 8(%r9)
	subl	12(%rdi), %esi
	movl	%esi, 12(%rdi)
	subl	12(%r9), %r10d
	movl	%r10d, 12(%r9)
	movl	16(%rdi), %esi
	movl	16(%r9), %r10d
	movl	%esi, %r11d
	addl	24(%rdi), %r11d
	movl	%r11d, 16(%rdi)
	movl	%r10d, %r11d
	addl	24(%r9), %r11d
	movl	%r11d, 16(%r9)
	subl	24(%rdi), %esi
	movl	%esi, 24(%rdi)
	subl	24(%r9), %r10d
	movl	%r10d, 24(%r9)
	movl	20(%rdi), %esi
	movl	20(%r9), %r10d
	movl	%esi, %r11d
	addl	28(%rdi), %r11d
	movl	%r11d, 20(%rdi)
	movl	%r10d, %r11d
	addl	28(%r9), %r11d
	movl	%r11d, 20(%r9)
	subl	28(%rdi), %esi
	movl	%esi, 28(%rdi)
	subl	28(%r9), %r10d
	movl	%r10d, 28(%r9)
	movl	28(%rdi), %esi
	movl	%r10d, 28(%rdi)
	subl	%esi, %eax
	movl	%eax, 28(%r9)
	movl	16(%rdi), %eax
	movl	16(%r9), %esi
	movl	%eax, %r10d
	addl	20(%rdi), %r10d
	movl	%r10d, 16(%rdi)
	movl	%esi, %r10d
	addl	20(%r9), %r10d
	movl	%r10d, 16(%r9)
	subl	20(%rdi), %eax
	movl	%eax, 20(%rdi)
	subl	20(%r9), %esi
	movl	%esi, 20(%r9)
	movl	24(%rdi), %eax
	movl	24(%r9), %esi
	movl	%eax, %r10d
	addl	28(%rdi), %r10d
	movl	%r10d, 24(%rdi)
	movl	%esi, %r10d
	addl	28(%r9), %r10d
	movl	%r10d, 24(%r9)
	subl	28(%rdi), %eax
	movl	%eax, 28(%rdi)
	subl	28(%r9), %esi
	movl	%esi, 28(%r9)
# %bb.19:                               # %for.body278.5
                                        #   in Loop: Header=BB0_1 Depth=1
	movq	-136(%rbp), %rax        # 8-byte Reload
	imulq	$7, %rax, %rcx
	movq	-72(%rbp), %rdx         # 8-byte Reload
	cvttss2si	(%rdx,%rcx,4), %esi
	imulq	$7, %rax, %rcx
	movq	-80(%rbp), %rdi         # 8-byte Reload
	cvttss2si	(%rdi,%rcx,4), %r8d
	movq	-32(%rbp), %rcx         # 8-byte Reload
	movl	4(%rcx), %r9d
	movl	%esi, %r10d
	imull	4(%rcx), %r10d
	movl	%r8d, %r11d
	movq	-24(%rbp), %rbx         # 8-byte Reload
	imull	4(%rbx), %r11d
	subl	%r11d, %r10d
	movl	%r10d, 4(%rcx)
	imull	%r8d, %r9d
	imull	4(%rbx), %esi
	addl	%esi, %r9d
	movl	%r9d, 4(%rbx)
	imulq	$7, %rax, %r14
	cvttss2si	4(%rdx,%r14,4), %esi
	imulq	$7, %rax, %r14
	cvttss2si	4(%rdi,%r14,4), %r8d
	movl	8(%rcx), %r9d
	movl	%esi, %r10d
	imull	8(%rcx), %r10d
	movl	%r8d, %r11d
	imull	8(%rbx), %r11d
	subl	%r11d, %r10d
	movl	%r10d, 8(%rcx)
	imull	%r8d, %r9d
	imull	8(%rbx), %esi
	addl	%esi, %r9d
	movl	%r9d, 8(%rbx)
	imulq	$7, %rax, %r14
	cvttss2si	8(%rdx,%r14,4), %esi
	imulq	$7, %rax, %r14
	cvttss2si	8(%rdi,%r14,4), %r8d
	movl	12(%rcx), %r9d
	movl	%esi, %r10d
	imull	12(%rcx), %r10d
	movl	%r8d, %r11d
	imull	12(%rbx), %r11d
	subl	%r11d, %r10d
	movl	%r10d, 12(%rcx)
	imull	%r8d, %r9d
	imull	12(%rbx), %esi
	addl	%esi, %r9d
	movl	%r9d, 12(%rbx)
	imulq	$7, %rax, %r14
	cvttss2si	12(%rdx,%r14,4), %esi
	imulq	$7, %rax, %r14
	cvttss2si	12(%rdi,%r14,4), %r8d
	movl	16(%rcx), %r9d
	movl	%esi, %r10d
	imull	16(%rcx), %r10d
	movl	%r8d, %r11d
	imull	16(%rbx), %r11d
	subl	%r11d, %r10d
	movl	%r10d, 16(%rcx)
	imull	%r8d, %r9d
	imull	16(%rbx), %esi
	addl	%esi, %r9d
	movl	%r9d, 16(%rbx)
	imulq	$7, %rax, %r14
	cvttss2si	16(%rdx,%r14,4), %esi
	imulq	$7, %rax, %r14
	cvttss2si	16(%rdi,%r14,4), %r8d
	movl	20(%rcx), %r9d
	movl	%esi, %r10d
	imull	20(%rcx), %r10d
	movl	%r8d, %r11d
	imull	20(%rbx), %r11d
	subl	%r11d, %r10d
	movl	%r10d, 20(%rcx)
	imull	%r8d, %r9d
	imull	20(%rbx), %esi
	addl	%esi, %r9d
	movl	%r9d, 20(%rbx)
	imulq	$7, %rax, %r14
	cvttss2si	20(%rdx,%r14,4), %esi
	imulq	$7, %rax, %r14
	cvttss2si	20(%rdi,%r14,4), %r8d
	movl	24(%rcx), %r9d
	movl	%esi, %r10d
	imull	24(%rcx), %r10d
	movl	%r8d, %r11d
	imull	24(%rbx), %r11d
	subl	%r11d, %r10d
	movl	%r10d, 24(%rcx)
	imull	%r8d, %r9d
	imull	24(%rbx), %esi
	addl	%esi, %r9d
	movl	%r9d, 24(%rbx)
	imulq	$7, %rax, %r14
	cvttss2si	24(%rdx,%r14,4), %esi
	imulq	$7, %rax, %r14
	cvttss2si	24(%rdi,%r14,4), %r8d
	movl	28(%rcx), %r9d
	movl	%esi, %r10d
	imull	28(%rcx), %r10d
	movl	%r8d, %r11d
	imull	28(%rbx), %r11d
	subl	%r11d, %r10d
	movl	%r10d, 28(%rcx)
	imull	%r8d, %r9d
	imull	28(%rbx), %esi
	addl	%esi, %r9d
	movl	%r9d, 28(%rbx)
# %bb.20:                               # %for.body316.5
                                        #   in Loop: Header=BB0_1 Depth=1
	movq	-32(%rbp), %rax         # 8-byte Reload
	movl	(%rax), %ecx
	movq	-136(%rbp), %rdx        # 8-byte Reload
	shlq	$3, %rdx
	movq	-48(%rbp), %rsi         # 8-byte Reload
	movl	%ecx, (%rsi,%rdx,4)
	movq	-24(%rbp), %rdx         # 8-byte Reload
	movl	(%rdx), %ecx
	movq	-136(%rbp), %rdi        # 8-byte Reload
	shlq	$3, %rdi
	movq	-40(%rbp), %r8          # 8-byte Reload
	movl	%ecx, (%r8,%rdi,4)
	movl	4(%rax), %ecx
	movq	-136(%rbp), %rdi        # 8-byte Reload
	shlq	$3, %rdi
	movl	%ecx, 4(%rsi,%rdi,4)
	movl	4(%rdx), %ecx
	movq	-136(%rbp), %rdi        # 8-byte Reload
	shlq	$3, %rdi
	movl	%ecx, 4(%r8,%rdi,4)
	movl	8(%rax), %ecx
	movq	-136(%rbp), %rdi        # 8-byte Reload
	shlq	$3, %rdi
	movl	%ecx, 8(%rsi,%rdi,4)
	movl	8(%rdx), %ecx
	movq	-136(%rbp), %rdi        # 8-byte Reload
	shlq	$3, %rdi
	movl	%ecx, 8(%r8,%rdi,4)
	movl	12(%rax), %ecx
	movq	-136(%rbp), %rdi        # 8-byte Reload
	shlq	$3, %rdi
	movl	%ecx, 12(%rsi,%rdi,4)
	movl	12(%rdx), %ecx
	movq	-136(%rbp), %rdi        # 8-byte Reload
	shlq	$3, %rdi
	movl	%ecx, 12(%r8,%rdi,4)
	movl	16(%rax), %ecx
	movq	-136(%rbp), %rdi        # 8-byte Reload
	shlq	$3, %rdi
	movl	%ecx, 16(%rsi,%rdi,4)
	movl	16(%rdx), %ecx
	movq	-136(%rbp), %rdi        # 8-byte Reload
	shlq	$3, %rdi
	movl	%ecx, 16(%r8,%rdi,4)
	movl	20(%rax), %ecx
	movq	-136(%rbp), %rdi        # 8-byte Reload
	shlq	$3, %rdi
	movl	%ecx, 20(%rsi,%rdi,4)
	movl	20(%rdx), %ecx
	movq	-136(%rbp), %rdi        # 8-byte Reload
	shlq	$3, %rdi
	movl	%ecx, 20(%r8,%rdi,4)
	movl	24(%rax), %ecx
	movq	-136(%rbp), %rdi        # 8-byte Reload
	shlq	$3, %rdi
	movl	%ecx, 24(%rsi,%rdi,4)
	movl	24(%rdx), %ecx
	movq	-136(%rbp), %rdi        # 8-byte Reload
	shlq	$3, %rdi
	movl	%ecx, 24(%r8,%rdi,4)
	movl	28(%rax), %ecx
	movq	-136(%rbp), %rdi        # 8-byte Reload
	shlq	$3, %rdi
	movl	%ecx, 28(%rsi,%rdi,4)
	movl	28(%rdx), %ecx
	movq	-136(%rbp), %rdi        # 8-byte Reload
	shlq	$3, %rdi
	movl	%ecx, 28(%r8,%rdi,4)
	movq	-136(%rbp), %rdi        # 8-byte Reload
	addq	$1, %rdi
	movq	%rdi, -144(%rbp)        # 8-byte Spill
# %bb.21:                               # %for.body3.6
                                        #   in Loop: Header=BB0_1 Depth=1
	xorl	%eax, %eax
	movss	.LCPI0_0(%rip), %xmm0   # xmm0 = mem[0],zero,zero,zero
	movq	-64(%rbp), %rcx         # 8-byte Reload
	movq	-144(%rbp), %rdx        # 8-byte Reload
	movl	(%rcx,%rdx,4), %esi
	movq	-32(%rbp), %rdi         # 8-byte Reload
	movl	%esi, (%rdi)
	movq	-56(%rbp), %r8          # 8-byte Reload
	movl	(%r8,%rdx,4), %esi
	movq	-24(%rbp), %r9          # 8-byte Reload
	movl	%esi, (%r9)
	addq	$64, %rdx
	movl	(%rcx,%rdx,4), %esi
	movl	%esi, 4(%rdi)
	movq	-144(%rbp), %rdx        # 8-byte Reload
	addq	$64, %rdx
	movl	(%r8,%rdx,4), %esi
	movl	%esi, 4(%r9)
	movq	-144(%rbp), %rdx        # 8-byte Reload
	addq	$128, %rdx
	movl	(%rcx,%rdx,4), %esi
	movl	%esi, 8(%rdi)
	movq	-144(%rbp), %rdx        # 8-byte Reload
	addq	$128, %rdx
	movl	(%r8,%rdx,4), %esi
	movl	%esi, 8(%r9)
	movq	-144(%rbp), %rdx        # 8-byte Reload
	addq	$192, %rdx
	movl	(%rcx,%rdx,4), %esi
	movl	%esi, 12(%rdi)
	movq	-144(%rbp), %rdx        # 8-byte Reload
	addq	$192, %rdx
	movl	(%r8,%rdx,4), %esi
	movl	%esi, 12(%r9)
	movq	-144(%rbp), %rdx        # 8-byte Reload
	addq	$256, %rdx              # imm = 0x100
	movl	(%rcx,%rdx,4), %esi
	movl	%esi, 16(%rdi)
	movq	-144(%rbp), %rdx        # 8-byte Reload
	addq	$256, %rdx              # imm = 0x100
	movl	(%r8,%rdx,4), %esi
	movl	%esi, 16(%r9)
	movq	-144(%rbp), %rdx        # 8-byte Reload
	addq	$320, %rdx              # imm = 0x140
	movl	(%rcx,%rdx,4), %esi
	movl	%esi, 20(%rdi)
	movq	-144(%rbp), %rdx        # 8-byte Reload
	addq	$320, %rdx              # imm = 0x140
	movl	(%r8,%rdx,4), %esi
	movl	%esi, 20(%r9)
	movq	-144(%rbp), %rdx        # 8-byte Reload
	addq	$384, %rdx              # imm = 0x180
	movl	(%rcx,%rdx,4), %esi
	movl	%esi, 24(%rdi)
	movq	-144(%rbp), %rdx        # 8-byte Reload
	addq	$384, %rdx              # imm = 0x180
	movl	(%r8,%rdx,4), %esi
	movl	%esi, 24(%r9)
	movq	-144(%rbp), %rdx        # 8-byte Reload
	addq	$448, %rdx              # imm = 0x1C0
	movl	(%rcx,%rdx,4), %esi
	movl	%esi, 28(%rdi)
	movq	-144(%rbp), %rdx        # 8-byte Reload
	addq	$448, %rdx              # imm = 0x1C0
	movl	(%r8,%rdx,4), %esi
	movl	%esi, 28(%r9)
	movl	(%rdi), %esi
	movl	(%r9), %r10d
	movl	%esi, %r11d
	addl	16(%rdi), %r11d
	movl	%r11d, (%rdi)
	movl	%r10d, %r11d
	addl	16(%r9), %r11d
	movl	%r11d, (%r9)
	subl	16(%rdi), %esi
	movl	%esi, 16(%rdi)
	subl	16(%r9), %r10d
	movl	%r10d, 16(%r9)
	movl	4(%rdi), %esi
	movl	4(%r9), %r10d
	movl	%esi, %r11d
	addl	20(%rdi), %r11d
	movl	%r11d, 4(%rdi)
	movl	%r10d, %r11d
	addl	20(%r9), %r11d
	movl	%r11d, 4(%r9)
	subl	20(%rdi), %esi
	movl	%esi, 20(%rdi)
	subl	20(%r9), %r10d
	movl	%r10d, 20(%r9)
	movl	8(%rdi), %esi
	movl	8(%r9), %r10d
	movl	%esi, %r11d
	addl	24(%rdi), %r11d
	movl	%r11d, 8(%rdi)
	movl	%r10d, %r11d
	addl	24(%r9), %r11d
	movl	%r11d, 8(%r9)
	subl	24(%rdi), %esi
	movl	%esi, 24(%rdi)
	subl	24(%r9), %r10d
	movl	%r10d, 24(%r9)
	movl	12(%rdi), %esi
	movl	12(%r9), %r10d
	movl	%esi, %r11d
	addl	28(%rdi), %r11d
	movl	%r11d, 12(%rdi)
	movl	%r10d, %r11d
	addl	28(%r9), %r11d
	movl	%r11d, 12(%r9)
	subl	28(%rdi), %esi
	movl	%esi, 28(%rdi)
	subl	28(%r9), %r10d
	movl	%r10d, 28(%r9)
	movl	20(%rdi), %esi
	movl	%esi, %r10d
	addl	20(%r9), %r10d
	cvtsi2ss	%r10d, %xmm1
	mulss	%xmm0, %xmm1
	cvttss2si	%xmm1, %r10d
	movl	%r10d, 20(%rdi)
	movl	20(%r9), %r10d
	subl	%esi, %r10d
	cvtsi2ss	%r10d, %xmm1
	mulss	%xmm0, %xmm1
	cvttss2si	%xmm1, %esi
	movl	%esi, 20(%r9)
	movl	24(%rdi), %esi
	movl	24(%r9), %r10d
	movl	%r10d, 24(%rdi)
	movl	%eax, %r10d
	subl	%esi, %r10d
	movl	%r10d, 24(%r9)
	movl	28(%rdi), %esi
	movl	28(%r9), %r10d
	subl	%esi, %r10d
	cvtsi2ss	%r10d, %xmm1
	mulss	%xmm0, %xmm1
	cvttss2si	%xmm1, %r10d
	movl	%r10d, 28(%rdi)
	addl	28(%r9), %esi
	movl	%eax, %r10d
	subl	%esi, %r10d
	cvtsi2ss	%r10d, %xmm1
	mulss	%xmm0, %xmm1
	cvttss2si	%xmm1, %esi
	movl	%esi, 28(%r9)
	movl	(%rdi), %esi
	movl	(%r9), %r10d
	movl	%esi, %r11d
	addl	8(%rdi), %r11d
	movl	%r11d, (%rdi)
	movl	%r10d, %r11d
	addl	8(%r9), %r11d
	movl	%r11d, (%r9)
	subl	8(%rdi), %esi
	movl	%esi, 8(%rdi)
	subl	8(%r9), %r10d
	movl	%r10d, 8(%r9)
	movl	4(%rdi), %esi
	movl	4(%r9), %r10d
	movl	%esi, %r11d
	addl	12(%rdi), %r11d
	movl	%r11d, 4(%rdi)
	movl	%r10d, %r11d
	addl	12(%r9), %r11d
	movl	%r11d, 4(%r9)
	subl	12(%rdi), %esi
	movl	%esi, 12(%rdi)
	subl	12(%r9), %r10d
	movl	%r10d, 12(%r9)
	movl	12(%rdi), %esi
	movl	%r10d, 12(%rdi)
	movl	%eax, %r10d
	subl	%esi, %r10d
	movl	%r10d, 12(%r9)
	movl	(%rdi), %esi
	movl	(%r9), %r10d
	movl	%esi, %r11d
	addl	4(%rdi), %r11d
	movl	%r11d, (%rdi)
	movl	%r10d, %r11d
	addl	4(%r9), %r11d
	movl	%r11d, (%r9)
	subl	4(%rdi), %esi
	movl	%esi, 4(%rdi)
	subl	4(%r9), %r10d
	movl	%r10d, 4(%r9)
	movl	8(%rdi), %esi
	movl	8(%r9), %r10d
	movl	%esi, %r11d
	addl	12(%rdi), %r11d
	movl	%r11d, 8(%rdi)
	movl	%r10d, %r11d
	addl	12(%r9), %r11d
	movl	%r11d, 8(%r9)
	subl	12(%rdi), %esi
	movl	%esi, 12(%rdi)
	subl	12(%r9), %r10d
	movl	%r10d, 12(%r9)
	movl	16(%rdi), %esi
	movl	16(%r9), %r10d
	movl	%esi, %r11d
	addl	24(%rdi), %r11d
	movl	%r11d, 16(%rdi)
	movl	%r10d, %r11d
	addl	24(%r9), %r11d
	movl	%r11d, 16(%r9)
	subl	24(%rdi), %esi
	movl	%esi, 24(%rdi)
	subl	24(%r9), %r10d
	movl	%r10d, 24(%r9)
	movl	20(%rdi), %esi
	movl	20(%r9), %r10d
	movl	%esi, %r11d
	addl	28(%rdi), %r11d
	movl	%r11d, 20(%rdi)
	movl	%r10d, %r11d
	addl	28(%r9), %r11d
	movl	%r11d, 20(%r9)
	subl	28(%rdi), %esi
	movl	%esi, 28(%rdi)
	subl	28(%r9), %r10d
	movl	%r10d, 28(%r9)
	movl	28(%rdi), %esi
	movl	%r10d, 28(%rdi)
	subl	%esi, %eax
	movl	%eax, 28(%r9)
	movl	16(%rdi), %eax
	movl	16(%r9), %esi
	movl	%eax, %r10d
	addl	20(%rdi), %r10d
	movl	%r10d, 16(%rdi)
	movl	%esi, %r10d
	addl	20(%r9), %r10d
	movl	%r10d, 16(%r9)
	subl	20(%rdi), %eax
	movl	%eax, 20(%rdi)
	subl	20(%r9), %esi
	movl	%esi, 20(%r9)
	movl	24(%rdi), %eax
	movl	24(%r9), %esi
	movl	%eax, %r10d
	addl	28(%rdi), %r10d
	movl	%r10d, 24(%rdi)
	movl	%esi, %r10d
	addl	28(%r9), %r10d
	movl	%r10d, 24(%r9)
	subl	28(%rdi), %eax
	movl	%eax, 28(%rdi)
	subl	28(%r9), %esi
	movl	%esi, 28(%r9)
# %bb.22:                               # %for.body278.6
                                        #   in Loop: Header=BB0_1 Depth=1
	movq	-144(%rbp), %rax        # 8-byte Reload
	imulq	$7, %rax, %rcx
	movq	-72(%rbp), %rdx         # 8-byte Reload
	cvttss2si	(%rdx,%rcx,4), %esi
	imulq	$7, %rax, %rcx
	movq	-80(%rbp), %rdi         # 8-byte Reload
	cvttss2si	(%rdi,%rcx,4), %r8d
	movq	-32(%rbp), %rcx         # 8-byte Reload
	movl	4(%rcx), %r9d
	movl	%esi, %r10d
	imull	4(%rcx), %r10d
	movl	%r8d, %r11d
	movq	-24(%rbp), %rbx         # 8-byte Reload
	imull	4(%rbx), %r11d
	subl	%r11d, %r10d
	movl	%r10d, 4(%rcx)
	imull	%r8d, %r9d
	imull	4(%rbx), %esi
	addl	%esi, %r9d
	movl	%r9d, 4(%rbx)
	imulq	$7, %rax, %r14
	cvttss2si	4(%rdx,%r14,4), %esi
	imulq	$7, %rax, %r14
	cvttss2si	4(%rdi,%r14,4), %r8d
	movl	8(%rcx), %r9d
	movl	%esi, %r10d
	imull	8(%rcx), %r10d
	movl	%r8d, %r11d
	imull	8(%rbx), %r11d
	subl	%r11d, %r10d
	movl	%r10d, 8(%rcx)
	imull	%r8d, %r9d
	imull	8(%rbx), %esi
	addl	%esi, %r9d
	movl	%r9d, 8(%rbx)
	imulq	$7, %rax, %r14
	cvttss2si	8(%rdx,%r14,4), %esi
	imulq	$7, %rax, %r14
	cvttss2si	8(%rdi,%r14,4), %r8d
	movl	12(%rcx), %r9d
	movl	%esi, %r10d
	imull	12(%rcx), %r10d
	movl	%r8d, %r11d
	imull	12(%rbx), %r11d
	subl	%r11d, %r10d
	movl	%r10d, 12(%rcx)
	imull	%r8d, %r9d
	imull	12(%rbx), %esi
	addl	%esi, %r9d
	movl	%r9d, 12(%rbx)
	imulq	$7, %rax, %r14
	cvttss2si	12(%rdx,%r14,4), %esi
	imulq	$7, %rax, %r14
	cvttss2si	12(%rdi,%r14,4), %r8d
	movl	16(%rcx), %r9d
	movl	%esi, %r10d
	imull	16(%rcx), %r10d
	movl	%r8d, %r11d
	imull	16(%rbx), %r11d
	subl	%r11d, %r10d
	movl	%r10d, 16(%rcx)
	imull	%r8d, %r9d
	imull	16(%rbx), %esi
	addl	%esi, %r9d
	movl	%r9d, 16(%rbx)
	imulq	$7, %rax, %r14
	cvttss2si	16(%rdx,%r14,4), %esi
	imulq	$7, %rax, %r14
	cvttss2si	16(%rdi,%r14,4), %r8d
	movl	20(%rcx), %r9d
	movl	%esi, %r10d
	imull	20(%rcx), %r10d
	movl	%r8d, %r11d
	imull	20(%rbx), %r11d
	subl	%r11d, %r10d
	movl	%r10d, 20(%rcx)
	imull	%r8d, %r9d
	imull	20(%rbx), %esi
	addl	%esi, %r9d
	movl	%r9d, 20(%rbx)
	imulq	$7, %rax, %r14
	cvttss2si	20(%rdx,%r14,4), %esi
	imulq	$7, %rax, %r14
	cvttss2si	20(%rdi,%r14,4), %r8d
	movl	24(%rcx), %r9d
	movl	%esi, %r10d
	imull	24(%rcx), %r10d
	movl	%r8d, %r11d
	imull	24(%rbx), %r11d
	subl	%r11d, %r10d
	movl	%r10d, 24(%rcx)
	imull	%r8d, %r9d
	imull	24(%rbx), %esi
	addl	%esi, %r9d
	movl	%r9d, 24(%rbx)
	imulq	$7, %rax, %r14
	cvttss2si	24(%rdx,%r14,4), %esi
	imulq	$7, %rax, %r14
	cvttss2si	24(%rdi,%r14,4), %r8d
	movl	28(%rcx), %r9d
	movl	%esi, %r10d
	imull	28(%rcx), %r10d
	movl	%r8d, %r11d
	imull	28(%rbx), %r11d
	subl	%r11d, %r10d
	movl	%r10d, 28(%rcx)
	imull	%r8d, %r9d
	imull	28(%rbx), %esi
	addl	%esi, %r9d
	movl	%r9d, 28(%rbx)
# %bb.23:                               # %for.body316.6
                                        #   in Loop: Header=BB0_1 Depth=1
	movq	-32(%rbp), %rax         # 8-byte Reload
	movl	(%rax), %ecx
	movq	-144(%rbp), %rdx        # 8-byte Reload
	shlq	$3, %rdx
	movq	-48(%rbp), %rsi         # 8-byte Reload
	movl	%ecx, (%rsi,%rdx,4)
	movq	-24(%rbp), %rdx         # 8-byte Reload
	movl	(%rdx), %ecx
	movq	-144(%rbp), %rdi        # 8-byte Reload
	shlq	$3, %rdi
	movq	-40(%rbp), %r8          # 8-byte Reload
	movl	%ecx, (%r8,%rdi,4)
	movl	4(%rax), %ecx
	movq	-144(%rbp), %rdi        # 8-byte Reload
	shlq	$3, %rdi
	movl	%ecx, 4(%rsi,%rdi,4)
	movl	4(%rdx), %ecx
	movq	-144(%rbp), %rdi        # 8-byte Reload
	shlq	$3, %rdi
	movl	%ecx, 4(%r8,%rdi,4)
	movl	8(%rax), %ecx
	movq	-144(%rbp), %rdi        # 8-byte Reload
	shlq	$3, %rdi
	movl	%ecx, 8(%rsi,%rdi,4)
	movl	8(%rdx), %ecx
	movq	-144(%rbp), %rdi        # 8-byte Reload
	shlq	$3, %rdi
	movl	%ecx, 8(%r8,%rdi,4)
	movl	12(%rax), %ecx
	movq	-144(%rbp), %rdi        # 8-byte Reload
	shlq	$3, %rdi
	movl	%ecx, 12(%rsi,%rdi,4)
	movl	12(%rdx), %ecx
	movq	-144(%rbp), %rdi        # 8-byte Reload
	shlq	$3, %rdi
	movl	%ecx, 12(%r8,%rdi,4)
	movl	16(%rax), %ecx
	movq	-144(%rbp), %rdi        # 8-byte Reload
	shlq	$3, %rdi
	movl	%ecx, 16(%rsi,%rdi,4)
	movl	16(%rdx), %ecx
	movq	-144(%rbp), %rdi        # 8-byte Reload
	shlq	$3, %rdi
	movl	%ecx, 16(%r8,%rdi,4)
	movl	20(%rax), %ecx
	movq	-144(%rbp), %rdi        # 8-byte Reload
	shlq	$3, %rdi
	movl	%ecx, 20(%rsi,%rdi,4)
	movl	20(%rdx), %ecx
	movq	-144(%rbp), %rdi        # 8-byte Reload
	shlq	$3, %rdi
	movl	%ecx, 20(%r8,%rdi,4)
	movl	24(%rax), %ecx
	movq	-144(%rbp), %rdi        # 8-byte Reload
	shlq	$3, %rdi
	movl	%ecx, 24(%rsi,%rdi,4)
	movl	24(%rdx), %ecx
	movq	-144(%rbp), %rdi        # 8-byte Reload
	shlq	$3, %rdi
	movl	%ecx, 24(%r8,%rdi,4)
	movl	28(%rax), %ecx
	movq	-144(%rbp), %rdi        # 8-byte Reload
	shlq	$3, %rdi
	movl	%ecx, 28(%rsi,%rdi,4)
	movl	28(%rdx), %ecx
	movq	-144(%rbp), %rdi        # 8-byte Reload
	shlq	$3, %rdi
	movl	%ecx, 28(%r8,%rdi,4)
	movq	-144(%rbp), %rdi        # 8-byte Reload
	addq	$1, %rdi
	movq	%rdi, -152(%rbp)        # 8-byte Spill
# %bb.24:                               # %for.body3.7
                                        #   in Loop: Header=BB0_1 Depth=1
	xorl	%eax, %eax
	movss	.LCPI0_0(%rip), %xmm0   # xmm0 = mem[0],zero,zero,zero
	movq	-64(%rbp), %rcx         # 8-byte Reload
	movq	-152(%rbp), %rdx        # 8-byte Reload
	movl	(%rcx,%rdx,4), %esi
	movq	-32(%rbp), %rdi         # 8-byte Reload
	movl	%esi, (%rdi)
	movq	-56(%rbp), %r8          # 8-byte Reload
	movl	(%r8,%rdx,4), %esi
	movq	-24(%rbp), %r9          # 8-byte Reload
	movl	%esi, (%r9)
	addq	$64, %rdx
	movl	(%rcx,%rdx,4), %esi
	movl	%esi, 4(%rdi)
	movq	-152(%rbp), %rdx        # 8-byte Reload
	addq	$64, %rdx
	movl	(%r8,%rdx,4), %esi
	movl	%esi, 4(%r9)
	movq	-152(%rbp), %rdx        # 8-byte Reload
	addq	$128, %rdx
	movl	(%rcx,%rdx,4), %esi
	movl	%esi, 8(%rdi)
	movq	-152(%rbp), %rdx        # 8-byte Reload
	addq	$128, %rdx
	movl	(%r8,%rdx,4), %esi
	movl	%esi, 8(%r9)
	movq	-152(%rbp), %rdx        # 8-byte Reload
	addq	$192, %rdx
	movl	(%rcx,%rdx,4), %esi
	movl	%esi, 12(%rdi)
	movq	-152(%rbp), %rdx        # 8-byte Reload
	addq	$192, %rdx
	movl	(%r8,%rdx,4), %esi
	movl	%esi, 12(%r9)
	movq	-152(%rbp), %rdx        # 8-byte Reload
	addq	$256, %rdx              # imm = 0x100
	movl	(%rcx,%rdx,4), %esi
	movl	%esi, 16(%rdi)
	movq	-152(%rbp), %rdx        # 8-byte Reload
	addq	$256, %rdx              # imm = 0x100
	movl	(%r8,%rdx,4), %esi
	movl	%esi, 16(%r9)
	movq	-152(%rbp), %rdx        # 8-byte Reload
	addq	$320, %rdx              # imm = 0x140
	movl	(%rcx,%rdx,4), %esi
	movl	%esi, 20(%rdi)
	movq	-152(%rbp), %rdx        # 8-byte Reload
	addq	$320, %rdx              # imm = 0x140
	movl	(%r8,%rdx,4), %esi
	movl	%esi, 20(%r9)
	movq	-152(%rbp), %rdx        # 8-byte Reload
	addq	$384, %rdx              # imm = 0x180
	movl	(%rcx,%rdx,4), %esi
	movl	%esi, 24(%rdi)
	movq	-152(%rbp), %rdx        # 8-byte Reload
	addq	$384, %rdx              # imm = 0x180
	movl	(%r8,%rdx,4), %esi
	movl	%esi, 24(%r9)
	movq	-152(%rbp), %rdx        # 8-byte Reload
	addq	$448, %rdx              # imm = 0x1C0
	movl	(%rcx,%rdx,4), %esi
	movl	%esi, 28(%rdi)
	movq	-152(%rbp), %rdx        # 8-byte Reload
	addq	$448, %rdx              # imm = 0x1C0
	movl	(%r8,%rdx,4), %esi
	movl	%esi, 28(%r9)
	movl	(%rdi), %esi
	movl	(%r9), %r10d
	movl	%esi, %r11d
	addl	16(%rdi), %r11d
	movl	%r11d, (%rdi)
	movl	%r10d, %r11d
	addl	16(%r9), %r11d
	movl	%r11d, (%r9)
	subl	16(%rdi), %esi
	movl	%esi, 16(%rdi)
	subl	16(%r9), %r10d
	movl	%r10d, 16(%r9)
	movl	4(%rdi), %esi
	movl	4(%r9), %r10d
	movl	%esi, %r11d
	addl	20(%rdi), %r11d
	movl	%r11d, 4(%rdi)
	movl	%r10d, %r11d
	addl	20(%r9), %r11d
	movl	%r11d, 4(%r9)
	subl	20(%rdi), %esi
	movl	%esi, 20(%rdi)
	subl	20(%r9), %r10d
	movl	%r10d, 20(%r9)
	movl	8(%rdi), %esi
	movl	8(%r9), %r10d
	movl	%esi, %r11d
	addl	24(%rdi), %r11d
	movl	%r11d, 8(%rdi)
	movl	%r10d, %r11d
	addl	24(%r9), %r11d
	movl	%r11d, 8(%r9)
	subl	24(%rdi), %esi
	movl	%esi, 24(%rdi)
	subl	24(%r9), %r10d
	movl	%r10d, 24(%r9)
	movl	12(%rdi), %esi
	movl	12(%r9), %r10d
	movl	%esi, %r11d
	addl	28(%rdi), %r11d
	movl	%r11d, 12(%rdi)
	movl	%r10d, %r11d
	addl	28(%r9), %r11d
	movl	%r11d, 12(%r9)
	subl	28(%rdi), %esi
	movl	%esi, 28(%rdi)
	subl	28(%r9), %r10d
	movl	%r10d, 28(%r9)
	movl	20(%rdi), %esi
	movl	%esi, %r10d
	addl	20(%r9), %r10d
	cvtsi2ss	%r10d, %xmm1
	mulss	%xmm0, %xmm1
	cvttss2si	%xmm1, %r10d
	movl	%r10d, 20(%rdi)
	movl	20(%r9), %r10d
	subl	%esi, %r10d
	cvtsi2ss	%r10d, %xmm1
	mulss	%xmm0, %xmm1
	cvttss2si	%xmm1, %esi
	movl	%esi, 20(%r9)
	movl	24(%rdi), %esi
	movl	24(%r9), %r10d
	movl	%r10d, 24(%rdi)
	movl	%eax, %r10d
	subl	%esi, %r10d
	movl	%r10d, 24(%r9)
	movl	28(%rdi), %esi
	movl	28(%r9), %r10d
	subl	%esi, %r10d
	cvtsi2ss	%r10d, %xmm1
	mulss	%xmm0, %xmm1
	cvttss2si	%xmm1, %r10d
	movl	%r10d, 28(%rdi)
	addl	28(%r9), %esi
	movl	%eax, %r10d
	subl	%esi, %r10d
	cvtsi2ss	%r10d, %xmm1
	mulss	%xmm0, %xmm1
	cvttss2si	%xmm1, %esi
	movl	%esi, 28(%r9)
	movl	(%rdi), %esi
	movl	(%r9), %r10d
	movl	%esi, %r11d
	addl	8(%rdi), %r11d
	movl	%r11d, (%rdi)
	movl	%r10d, %r11d
	addl	8(%r9), %r11d
	movl	%r11d, (%r9)
	subl	8(%rdi), %esi
	movl	%esi, 8(%rdi)
	subl	8(%r9), %r10d
	movl	%r10d, 8(%r9)
	movl	4(%rdi), %esi
	movl	4(%r9), %r10d
	movl	%esi, %r11d
	addl	12(%rdi), %r11d
	movl	%r11d, 4(%rdi)
	movl	%r10d, %r11d
	addl	12(%r9), %r11d
	movl	%r11d, 4(%r9)
	subl	12(%rdi), %esi
	movl	%esi, 12(%rdi)
	subl	12(%r9), %r10d
	movl	%r10d, 12(%r9)
	movl	12(%rdi), %esi
	movl	%r10d, 12(%rdi)
	movl	%eax, %r10d
	subl	%esi, %r10d
	movl	%r10d, 12(%r9)
	movl	(%rdi), %esi
	movl	(%r9), %r10d
	movl	%esi, %r11d
	addl	4(%rdi), %r11d
	movl	%r11d, (%rdi)
	movl	%r10d, %r11d
	addl	4(%r9), %r11d
	movl	%r11d, (%r9)
	subl	4(%rdi), %esi
	movl	%esi, 4(%rdi)
	subl	4(%r9), %r10d
	movl	%r10d, 4(%r9)
	movl	8(%rdi), %esi
	movl	8(%r9), %r10d
	movl	%esi, %r11d
	addl	12(%rdi), %r11d
	movl	%r11d, 8(%rdi)
	movl	%r10d, %r11d
	addl	12(%r9), %r11d
	movl	%r11d, 8(%r9)
	subl	12(%rdi), %esi
	movl	%esi, 12(%rdi)
	subl	12(%r9), %r10d
	movl	%r10d, 12(%r9)
	movl	16(%rdi), %esi
	movl	16(%r9), %r10d
	movl	%esi, %r11d
	addl	24(%rdi), %r11d
	movl	%r11d, 16(%rdi)
	movl	%r10d, %r11d
	addl	24(%r9), %r11d
	movl	%r11d, 16(%r9)
	subl	24(%rdi), %esi
	movl	%esi, 24(%rdi)
	subl	24(%r9), %r10d
	movl	%r10d, 24(%r9)
	movl	20(%rdi), %esi
	movl	20(%r9), %r10d
	movl	%esi, %r11d
	addl	28(%rdi), %r11d
	movl	%r11d, 20(%rdi)
	movl	%r10d, %r11d
	addl	28(%r9), %r11d
	movl	%r11d, 20(%r9)
	subl	28(%rdi), %esi
	movl	%esi, 28(%rdi)
	subl	28(%r9), %r10d
	movl	%r10d, 28(%r9)
	movl	28(%rdi), %esi
	movl	%r10d, 28(%rdi)
	subl	%esi, %eax
	movl	%eax, 28(%r9)
	movl	16(%rdi), %eax
	movl	16(%r9), %esi
	movl	%eax, %r10d
	addl	20(%rdi), %r10d
	movl	%r10d, 16(%rdi)
	movl	%esi, %r10d
	addl	20(%r9), %r10d
	movl	%r10d, 16(%r9)
	subl	20(%rdi), %eax
	movl	%eax, 20(%rdi)
	subl	20(%r9), %esi
	movl	%esi, 20(%r9)
	movl	24(%rdi), %eax
	movl	24(%r9), %esi
	movl	%eax, %r10d
	addl	28(%rdi), %r10d
	movl	%r10d, 24(%rdi)
	movl	%esi, %r10d
	addl	28(%r9), %r10d
	movl	%r10d, 24(%r9)
	subl	28(%rdi), %eax
	movl	%eax, 28(%rdi)
	subl	28(%r9), %esi
	movl	%esi, 28(%r9)
# %bb.25:                               # %for.body278.7
                                        #   in Loop: Header=BB0_1 Depth=1
	movq	-152(%rbp), %rax        # 8-byte Reload
	imulq	$7, %rax, %rcx
	movq	-72(%rbp), %rdx         # 8-byte Reload
	cvttss2si	(%rdx,%rcx,4), %esi
	imulq	$7, %rax, %rcx
	movq	-80(%rbp), %rdi         # 8-byte Reload
	cvttss2si	(%rdi,%rcx,4), %r8d
	movq	-32(%rbp), %rcx         # 8-byte Reload
	movl	4(%rcx), %r9d
	movl	%esi, %r10d
	imull	4(%rcx), %r10d
	movl	%r8d, %r11d
	movq	-24(%rbp), %rbx         # 8-byte Reload
	imull	4(%rbx), %r11d
	subl	%r11d, %r10d
	movl	%r10d, 4(%rcx)
	imull	%r8d, %r9d
	imull	4(%rbx), %esi
	addl	%esi, %r9d
	movl	%r9d, 4(%rbx)
	imulq	$7, %rax, %r14
	cvttss2si	4(%rdx,%r14,4), %esi
	imulq	$7, %rax, %r14
	cvttss2si	4(%rdi,%r14,4), %r8d
	movl	8(%rcx), %r9d
	movl	%esi, %r10d
	imull	8(%rcx), %r10d
	movl	%r8d, %r11d
	imull	8(%rbx), %r11d
	subl	%r11d, %r10d
	movl	%r10d, 8(%rcx)
	imull	%r8d, %r9d
	imull	8(%rbx), %esi
	addl	%esi, %r9d
	movl	%r9d, 8(%rbx)
	imulq	$7, %rax, %r14
	cvttss2si	8(%rdx,%r14,4), %esi
	imulq	$7, %rax, %r14
	cvttss2si	8(%rdi,%r14,4), %r8d
	movl	12(%rcx), %r9d
	movl	%esi, %r10d
	imull	12(%rcx), %r10d
	movl	%r8d, %r11d
	imull	12(%rbx), %r11d
	subl	%r11d, %r10d
	movl	%r10d, 12(%rcx)
	imull	%r8d, %r9d
	imull	12(%rbx), %esi
	addl	%esi, %r9d
	movl	%r9d, 12(%rbx)
	imulq	$7, %rax, %r14
	cvttss2si	12(%rdx,%r14,4), %esi
	imulq	$7, %rax, %r14
	cvttss2si	12(%rdi,%r14,4), %r8d
	movl	16(%rcx), %r9d
	movl	%esi, %r10d
	imull	16(%rcx), %r10d
	movl	%r8d, %r11d
	imull	16(%rbx), %r11d
	subl	%r11d, %r10d
	movl	%r10d, 16(%rcx)
	imull	%r8d, %r9d
	imull	16(%rbx), %esi
	addl	%esi, %r9d
	movl	%r9d, 16(%rbx)
	imulq	$7, %rax, %r14
	cvttss2si	16(%rdx,%r14,4), %esi
	imulq	$7, %rax, %r14
	cvttss2si	16(%rdi,%r14,4), %r8d
	movl	20(%rcx), %r9d
	movl	%esi, %r10d
	imull	20(%rcx), %r10d
	movl	%r8d, %r11d
	imull	20(%rbx), %r11d
	subl	%r11d, %r10d
	movl	%r10d, 20(%rcx)
	imull	%r8d, %r9d
	imull	20(%rbx), %esi
	addl	%esi, %r9d
	movl	%r9d, 20(%rbx)
	imulq	$7, %rax, %r14
	cvttss2si	20(%rdx,%r14,4), %esi
	imulq	$7, %rax, %r14
	cvttss2si	20(%rdi,%r14,4), %r8d
	movl	24(%rcx), %r9d
	movl	%esi, %r10d
	imull	24(%rcx), %r10d
	movl	%r8d, %r11d
	imull	24(%rbx), %r11d
	subl	%r11d, %r10d
	movl	%r10d, 24(%rcx)
	imull	%r8d, %r9d
	imull	24(%rbx), %esi
	addl	%esi, %r9d
	movl	%r9d, 24(%rbx)
	imulq	$7, %rax, %r14
	cvttss2si	24(%rdx,%r14,4), %esi
	imulq	$7, %rax, %r14
	cvttss2si	24(%rdi,%r14,4), %r8d
	movl	28(%rcx), %r9d
	movl	%esi, %r10d
	imull	28(%rcx), %r10d
	movl	%r8d, %r11d
	imull	28(%rbx), %r11d
	subl	%r11d, %r10d
	movl	%r10d, 28(%rcx)
	imull	%r8d, %r9d
	imull	28(%rbx), %esi
	addl	%esi, %r9d
	movl	%r9d, 28(%rbx)
# %bb.26:                               # %for.body316.7
                                        #   in Loop: Header=BB0_1 Depth=1
	movq	-32(%rbp), %rax         # 8-byte Reload
	movl	(%rax), %ecx
	movq	-152(%rbp), %rdx        # 8-byte Reload
	shlq	$3, %rdx
	movq	-48(%rbp), %rsi         # 8-byte Reload
	movl	%ecx, (%rsi,%rdx,4)
	movq	-24(%rbp), %rdx         # 8-byte Reload
	movl	(%rdx), %ecx
	movq	-152(%rbp), %rdi        # 8-byte Reload
	shlq	$3, %rdi
	movq	-40(%rbp), %r8          # 8-byte Reload
	movl	%ecx, (%r8,%rdi,4)
	movl	4(%rax), %ecx
	movq	-152(%rbp), %rdi        # 8-byte Reload
	shlq	$3, %rdi
	movl	%ecx, 4(%rsi,%rdi,4)
	movl	4(%rdx), %ecx
	movq	-152(%rbp), %rdi        # 8-byte Reload
	shlq	$3, %rdi
	movl	%ecx, 4(%r8,%rdi,4)
	movl	8(%rax), %ecx
	movq	-152(%rbp), %rdi        # 8-byte Reload
	shlq	$3, %rdi
	movl	%ecx, 8(%rsi,%rdi,4)
	movl	8(%rdx), %ecx
	movq	-152(%rbp), %rdi        # 8-byte Reload
	shlq	$3, %rdi
	movl	%ecx, 8(%r8,%rdi,4)
	movl	12(%rax), %ecx
	movq	-152(%rbp), %rdi        # 8-byte Reload
	shlq	$3, %rdi
	movl	%ecx, 12(%rsi,%rdi,4)
	movl	12(%rdx), %ecx
	movq	-152(%rbp), %rdi        # 8-byte Reload
	shlq	$3, %rdi
	movl	%ecx, 12(%r8,%rdi,4)
	movl	16(%rax), %ecx
	movq	-152(%rbp), %rdi        # 8-byte Reload
	shlq	$3, %rdi
	movl	%ecx, 16(%rsi,%rdi,4)
	movl	16(%rdx), %ecx
	movq	-152(%rbp), %rdi        # 8-byte Reload
	shlq	$3, %rdi
	movl	%ecx, 16(%r8,%rdi,4)
	movl	20(%rax), %ecx
	movq	-152(%rbp), %rdi        # 8-byte Reload
	shlq	$3, %rdi
	movl	%ecx, 20(%rsi,%rdi,4)
	movl	20(%rdx), %ecx
	movq	-152(%rbp), %rdi        # 8-byte Reload
	shlq	$3, %rdi
	movl	%ecx, 20(%r8,%rdi,4)
	movl	24(%rax), %ecx
	movq	-152(%rbp), %rdi        # 8-byte Reload
	shlq	$3, %rdi
	movl	%ecx, 24(%rsi,%rdi,4)
	movl	24(%rdx), %ecx
	movq	-152(%rbp), %rdi        # 8-byte Reload
	shlq	$3, %rdi
	movl	%ecx, 24(%r8,%rdi,4)
	movl	28(%rax), %ecx
	movq	-152(%rbp), %rdi        # 8-byte Reload
	shlq	$3, %rdi
	movl	%ecx, 28(%rsi,%rdi,4)
	movl	28(%rdx), %ecx
	movq	-152(%rbp), %rdi        # 8-byte Reload
	shlq	$3, %rdi
	movl	%ecx, 28(%r8,%rdi,4)
	movq	-152(%rbp), %rdi        # 8-byte Reload
	addq	$1, %rdi
	movq	%rdi, -160(%rbp)        # 8-byte Spill
# %bb.27:                               # %for.body3.8
                                        #   in Loop: Header=BB0_1 Depth=1
	xorl	%eax, %eax
	movss	.LCPI0_0(%rip), %xmm0   # xmm0 = mem[0],zero,zero,zero
	movq	-64(%rbp), %rcx         # 8-byte Reload
	movq	-160(%rbp), %rdx        # 8-byte Reload
	movl	(%rcx,%rdx,4), %esi
	movq	-32(%rbp), %rdi         # 8-byte Reload
	movl	%esi, (%rdi)
	movq	-56(%rbp), %r8          # 8-byte Reload
	movl	(%r8,%rdx,4), %esi
	movq	-24(%rbp), %r9          # 8-byte Reload
	movl	%esi, (%r9)
	addq	$64, %rdx
	movl	(%rcx,%rdx,4), %esi
	movl	%esi, 4(%rdi)
	movq	-160(%rbp), %rdx        # 8-byte Reload
	addq	$64, %rdx
	movl	(%r8,%rdx,4), %esi
	movl	%esi, 4(%r9)
	movq	-160(%rbp), %rdx        # 8-byte Reload
	addq	$128, %rdx
	movl	(%rcx,%rdx,4), %esi
	movl	%esi, 8(%rdi)
	movq	-160(%rbp), %rdx        # 8-byte Reload
	addq	$128, %rdx
	movl	(%r8,%rdx,4), %esi
	movl	%esi, 8(%r9)
	movq	-160(%rbp), %rdx        # 8-byte Reload
	addq	$192, %rdx
	movl	(%rcx,%rdx,4), %esi
	movl	%esi, 12(%rdi)
	movq	-160(%rbp), %rdx        # 8-byte Reload
	addq	$192, %rdx
	movl	(%r8,%rdx,4), %esi
	movl	%esi, 12(%r9)
	movq	-160(%rbp), %rdx        # 8-byte Reload
	addq	$256, %rdx              # imm = 0x100
	movl	(%rcx,%rdx,4), %esi
	movl	%esi, 16(%rdi)
	movq	-160(%rbp), %rdx        # 8-byte Reload
	addq	$256, %rdx              # imm = 0x100
	movl	(%r8,%rdx,4), %esi
	movl	%esi, 16(%r9)
	movq	-160(%rbp), %rdx        # 8-byte Reload
	addq	$320, %rdx              # imm = 0x140
	movl	(%rcx,%rdx,4), %esi
	movl	%esi, 20(%rdi)
	movq	-160(%rbp), %rdx        # 8-byte Reload
	addq	$320, %rdx              # imm = 0x140
	movl	(%r8,%rdx,4), %esi
	movl	%esi, 20(%r9)
	movq	-160(%rbp), %rdx        # 8-byte Reload
	addq	$384, %rdx              # imm = 0x180
	movl	(%rcx,%rdx,4), %esi
	movl	%esi, 24(%rdi)
	movq	-160(%rbp), %rdx        # 8-byte Reload
	addq	$384, %rdx              # imm = 0x180
	movl	(%r8,%rdx,4), %esi
	movl	%esi, 24(%r9)
	movq	-160(%rbp), %rdx        # 8-byte Reload
	addq	$448, %rdx              # imm = 0x1C0
	movl	(%rcx,%rdx,4), %esi
	movl	%esi, 28(%rdi)
	movq	-160(%rbp), %rdx        # 8-byte Reload
	addq	$448, %rdx              # imm = 0x1C0
	movl	(%r8,%rdx,4), %esi
	movl	%esi, 28(%r9)
	movl	(%rdi), %esi
	movl	(%r9), %r10d
	movl	%esi, %r11d
	addl	16(%rdi), %r11d
	movl	%r11d, (%rdi)
	movl	%r10d, %r11d
	addl	16(%r9), %r11d
	movl	%r11d, (%r9)
	subl	16(%rdi), %esi
	movl	%esi, 16(%rdi)
	subl	16(%r9), %r10d
	movl	%r10d, 16(%r9)
	movl	4(%rdi), %esi
	movl	4(%r9), %r10d
	movl	%esi, %r11d
	addl	20(%rdi), %r11d
	movl	%r11d, 4(%rdi)
	movl	%r10d, %r11d
	addl	20(%r9), %r11d
	movl	%r11d, 4(%r9)
	subl	20(%rdi), %esi
	movl	%esi, 20(%rdi)
	subl	20(%r9), %r10d
	movl	%r10d, 20(%r9)
	movl	8(%rdi), %esi
	movl	8(%r9), %r10d
	movl	%esi, %r11d
	addl	24(%rdi), %r11d
	movl	%r11d, 8(%rdi)
	movl	%r10d, %r11d
	addl	24(%r9), %r11d
	movl	%r11d, 8(%r9)
	subl	24(%rdi), %esi
	movl	%esi, 24(%rdi)
	subl	24(%r9), %r10d
	movl	%r10d, 24(%r9)
	movl	12(%rdi), %esi
	movl	12(%r9), %r10d
	movl	%esi, %r11d
	addl	28(%rdi), %r11d
	movl	%r11d, 12(%rdi)
	movl	%r10d, %r11d
	addl	28(%r9), %r11d
	movl	%r11d, 12(%r9)
	subl	28(%rdi), %esi
	movl	%esi, 28(%rdi)
	subl	28(%r9), %r10d
	movl	%r10d, 28(%r9)
	movl	20(%rdi), %esi
	movl	%esi, %r10d
	addl	20(%r9), %r10d
	cvtsi2ss	%r10d, %xmm1
	mulss	%xmm0, %xmm1
	cvttss2si	%xmm1, %r10d
	movl	%r10d, 20(%rdi)
	movl	20(%r9), %r10d
	subl	%esi, %r10d
	cvtsi2ss	%r10d, %xmm1
	mulss	%xmm0, %xmm1
	cvttss2si	%xmm1, %esi
	movl	%esi, 20(%r9)
	movl	24(%rdi), %esi
	movl	24(%r9), %r10d
	movl	%r10d, 24(%rdi)
	movl	%eax, %r10d
	subl	%esi, %r10d
	movl	%r10d, 24(%r9)
	movl	28(%rdi), %esi
	movl	28(%r9), %r10d
	subl	%esi, %r10d
	cvtsi2ss	%r10d, %xmm1
	mulss	%xmm0, %xmm1
	cvttss2si	%xmm1, %r10d
	movl	%r10d, 28(%rdi)
	addl	28(%r9), %esi
	movl	%eax, %r10d
	subl	%esi, %r10d
	cvtsi2ss	%r10d, %xmm1
	mulss	%xmm0, %xmm1
	cvttss2si	%xmm1, %esi
	movl	%esi, 28(%r9)
	movl	(%rdi), %esi
	movl	(%r9), %r10d
	movl	%esi, %r11d
	addl	8(%rdi), %r11d
	movl	%r11d, (%rdi)
	movl	%r10d, %r11d
	addl	8(%r9), %r11d
	movl	%r11d, (%r9)
	subl	8(%rdi), %esi
	movl	%esi, 8(%rdi)
	subl	8(%r9), %r10d
	movl	%r10d, 8(%r9)
	movl	4(%rdi), %esi
	movl	4(%r9), %r10d
	movl	%esi, %r11d
	addl	12(%rdi), %r11d
	movl	%r11d, 4(%rdi)
	movl	%r10d, %r11d
	addl	12(%r9), %r11d
	movl	%r11d, 4(%r9)
	subl	12(%rdi), %esi
	movl	%esi, 12(%rdi)
	subl	12(%r9), %r10d
	movl	%r10d, 12(%r9)
	movl	12(%rdi), %esi
	movl	%r10d, 12(%rdi)
	movl	%eax, %r10d
	subl	%esi, %r10d
	movl	%r10d, 12(%r9)
	movl	(%rdi), %esi
	movl	(%r9), %r10d
	movl	%esi, %r11d
	addl	4(%rdi), %r11d
	movl	%r11d, (%rdi)
	movl	%r10d, %r11d
	addl	4(%r9), %r11d
	movl	%r11d, (%r9)
	subl	4(%rdi), %esi
	movl	%esi, 4(%rdi)
	subl	4(%r9), %r10d
	movl	%r10d, 4(%r9)
	movl	8(%rdi), %esi
	movl	8(%r9), %r10d
	movl	%esi, %r11d
	addl	12(%rdi), %r11d
	movl	%r11d, 8(%rdi)
	movl	%r10d, %r11d
	addl	12(%r9), %r11d
	movl	%r11d, 8(%r9)
	subl	12(%rdi), %esi
	movl	%esi, 12(%rdi)
	subl	12(%r9), %r10d
	movl	%r10d, 12(%r9)
	movl	16(%rdi), %esi
	movl	16(%r9), %r10d
	movl	%esi, %r11d
	addl	24(%rdi), %r11d
	movl	%r11d, 16(%rdi)
	movl	%r10d, %r11d
	addl	24(%r9), %r11d
	movl	%r11d, 16(%r9)
	subl	24(%rdi), %esi
	movl	%esi, 24(%rdi)
	subl	24(%r9), %r10d
	movl	%r10d, 24(%r9)
	movl	20(%rdi), %esi
	movl	20(%r9), %r10d
	movl	%esi, %r11d
	addl	28(%rdi), %r11d
	movl	%r11d, 20(%rdi)
	movl	%r10d, %r11d
	addl	28(%r9), %r11d
	movl	%r11d, 20(%r9)
	subl	28(%rdi), %esi
	movl	%esi, 28(%rdi)
	subl	28(%r9), %r10d
	movl	%r10d, 28(%r9)
	movl	28(%rdi), %esi
	movl	%r10d, 28(%rdi)
	subl	%esi, %eax
	movl	%eax, 28(%r9)
	movl	16(%rdi), %eax
	movl	16(%r9), %esi
	movl	%eax, %r10d
	addl	20(%rdi), %r10d
	movl	%r10d, 16(%rdi)
	movl	%esi, %r10d
	addl	20(%r9), %r10d
	movl	%r10d, 16(%r9)
	subl	20(%rdi), %eax
	movl	%eax, 20(%rdi)
	subl	20(%r9), %esi
	movl	%esi, 20(%r9)
	movl	24(%rdi), %eax
	movl	24(%r9), %esi
	movl	%eax, %r10d
	addl	28(%rdi), %r10d
	movl	%r10d, 24(%rdi)
	movl	%esi, %r10d
	addl	28(%r9), %r10d
	movl	%r10d, 24(%r9)
	subl	28(%rdi), %eax
	movl	%eax, 28(%rdi)
	subl	28(%r9), %esi
	movl	%esi, 28(%r9)
# %bb.28:                               # %for.body278.8
                                        #   in Loop: Header=BB0_1 Depth=1
	movq	-160(%rbp), %rax        # 8-byte Reload
	imulq	$7, %rax, %rcx
	movq	-72(%rbp), %rdx         # 8-byte Reload
	cvttss2si	(%rdx,%rcx,4), %esi
	imulq	$7, %rax, %rcx
	movq	-80(%rbp), %rdi         # 8-byte Reload
	cvttss2si	(%rdi,%rcx,4), %r8d
	movq	-32(%rbp), %rcx         # 8-byte Reload
	movl	4(%rcx), %r9d
	movl	%esi, %r10d
	imull	4(%rcx), %r10d
	movl	%r8d, %r11d
	movq	-24(%rbp), %rbx         # 8-byte Reload
	imull	4(%rbx), %r11d
	subl	%r11d, %r10d
	movl	%r10d, 4(%rcx)
	imull	%r8d, %r9d
	imull	4(%rbx), %esi
	addl	%esi, %r9d
	movl	%r9d, 4(%rbx)
	imulq	$7, %rax, %r14
	cvttss2si	4(%rdx,%r14,4), %esi
	imulq	$7, %rax, %r14
	cvttss2si	4(%rdi,%r14,4), %r8d
	movl	8(%rcx), %r9d
	movl	%esi, %r10d
	imull	8(%rcx), %r10d
	movl	%r8d, %r11d
	imull	8(%rbx), %r11d
	subl	%r11d, %r10d
	movl	%r10d, 8(%rcx)
	imull	%r8d, %r9d
	imull	8(%rbx), %esi
	addl	%esi, %r9d
	movl	%r9d, 8(%rbx)
	imulq	$7, %rax, %r14
	cvttss2si	8(%rdx,%r14,4), %esi
	imulq	$7, %rax, %r14
	cvttss2si	8(%rdi,%r14,4), %r8d
	movl	12(%rcx), %r9d
	movl	%esi, %r10d
	imull	12(%rcx), %r10d
	movl	%r8d, %r11d
	imull	12(%rbx), %r11d
	subl	%r11d, %r10d
	movl	%r10d, 12(%rcx)
	imull	%r8d, %r9d
	imull	12(%rbx), %esi
	addl	%esi, %r9d
	movl	%r9d, 12(%rbx)
	imulq	$7, %rax, %r14
	cvttss2si	12(%rdx,%r14,4), %esi
	imulq	$7, %rax, %r14
	cvttss2si	12(%rdi,%r14,4), %r8d
	movl	16(%rcx), %r9d
	movl	%esi, %r10d
	imull	16(%rcx), %r10d
	movl	%r8d, %r11d
	imull	16(%rbx), %r11d
	subl	%r11d, %r10d
	movl	%r10d, 16(%rcx)
	imull	%r8d, %r9d
	imull	16(%rbx), %esi
	addl	%esi, %r9d
	movl	%r9d, 16(%rbx)
	imulq	$7, %rax, %r14
	cvttss2si	16(%rdx,%r14,4), %esi
	imulq	$7, %rax, %r14
	cvttss2si	16(%rdi,%r14,4), %r8d
	movl	20(%rcx), %r9d
	movl	%esi, %r10d
	imull	20(%rcx), %r10d
	movl	%r8d, %r11d
	imull	20(%rbx), %r11d
	subl	%r11d, %r10d
	movl	%r10d, 20(%rcx)
	imull	%r8d, %r9d
	imull	20(%rbx), %esi
	addl	%esi, %r9d
	movl	%r9d, 20(%rbx)
	imulq	$7, %rax, %r14
	cvttss2si	20(%rdx,%r14,4), %esi
	imulq	$7, %rax, %r14
	cvttss2si	20(%rdi,%r14,4), %r8d
	movl	24(%rcx), %r9d
	movl	%esi, %r10d
	imull	24(%rcx), %r10d
	movl	%r8d, %r11d
	imull	24(%rbx), %r11d
	subl	%r11d, %r10d
	movl	%r10d, 24(%rcx)
	imull	%r8d, %r9d
	imull	24(%rbx), %esi
	addl	%esi, %r9d
	movl	%r9d, 24(%rbx)
	imulq	$7, %rax, %r14
	cvttss2si	24(%rdx,%r14,4), %esi
	imulq	$7, %rax, %r14
	cvttss2si	24(%rdi,%r14,4), %r8d
	movl	28(%rcx), %r9d
	movl	%esi, %r10d
	imull	28(%rcx), %r10d
	movl	%r8d, %r11d
	imull	28(%rbx), %r11d
	subl	%r11d, %r10d
	movl	%r10d, 28(%rcx)
	imull	%r8d, %r9d
	imull	28(%rbx), %esi
	addl	%esi, %r9d
	movl	%r9d, 28(%rbx)
# %bb.29:                               # %for.body316.8
                                        #   in Loop: Header=BB0_1 Depth=1
	movq	-32(%rbp), %rax         # 8-byte Reload
	movl	(%rax), %ecx
	movq	-160(%rbp), %rdx        # 8-byte Reload
	shlq	$3, %rdx
	movq	-48(%rbp), %rsi         # 8-byte Reload
	movl	%ecx, (%rsi,%rdx,4)
	movq	-24(%rbp), %rdx         # 8-byte Reload
	movl	(%rdx), %ecx
	movq	-160(%rbp), %rdi        # 8-byte Reload
	shlq	$3, %rdi
	movq	-40(%rbp), %r8          # 8-byte Reload
	movl	%ecx, (%r8,%rdi,4)
	movl	4(%rax), %ecx
	movq	-160(%rbp), %rdi        # 8-byte Reload
	shlq	$3, %rdi
	movl	%ecx, 4(%rsi,%rdi,4)
	movl	4(%rdx), %ecx
	movq	-160(%rbp), %rdi        # 8-byte Reload
	shlq	$3, %rdi
	movl	%ecx, 4(%r8,%rdi,4)
	movl	8(%rax), %ecx
	movq	-160(%rbp), %rdi        # 8-byte Reload
	shlq	$3, %rdi
	movl	%ecx, 8(%rsi,%rdi,4)
	movl	8(%rdx), %ecx
	movq	-160(%rbp), %rdi        # 8-byte Reload
	shlq	$3, %rdi
	movl	%ecx, 8(%r8,%rdi,4)
	movl	12(%rax), %ecx
	movq	-160(%rbp), %rdi        # 8-byte Reload
	shlq	$3, %rdi
	movl	%ecx, 12(%rsi,%rdi,4)
	movl	12(%rdx), %ecx
	movq	-160(%rbp), %rdi        # 8-byte Reload
	shlq	$3, %rdi
	movl	%ecx, 12(%r8,%rdi,4)
	movl	16(%rax), %ecx
	movq	-160(%rbp), %rdi        # 8-byte Reload
	shlq	$3, %rdi
	movl	%ecx, 16(%rsi,%rdi,4)
	movl	16(%rdx), %ecx
	movq	-160(%rbp), %rdi        # 8-byte Reload
	shlq	$3, %rdi
	movl	%ecx, 16(%r8,%rdi,4)
	movl	20(%rax), %ecx
	movq	-160(%rbp), %rdi        # 8-byte Reload
	shlq	$3, %rdi
	movl	%ecx, 20(%rsi,%rdi,4)
	movl	20(%rdx), %ecx
	movq	-160(%rbp), %rdi        # 8-byte Reload
	shlq	$3, %rdi
	movl	%ecx, 20(%r8,%rdi,4)
	movl	24(%rax), %ecx
	movq	-160(%rbp), %rdi        # 8-byte Reload
	shlq	$3, %rdi
	movl	%ecx, 24(%rsi,%rdi,4)
	movl	24(%rdx), %ecx
	movq	-160(%rbp), %rdi        # 8-byte Reload
	shlq	$3, %rdi
	movl	%ecx, 24(%r8,%rdi,4)
	movl	28(%rax), %ecx
	movq	-160(%rbp), %rdi        # 8-byte Reload
	shlq	$3, %rdi
	movl	%ecx, 28(%rsi,%rdi,4)
	movl	28(%rdx), %ecx
	movq	-160(%rbp), %rdi        # 8-byte Reload
	shlq	$3, %rdi
	movl	%ecx, 28(%r8,%rdi,4)
	movq	-160(%rbp), %rdi        # 8-byte Reload
	addq	$1, %rdi
	movq	%rdi, -168(%rbp)        # 8-byte Spill
# %bb.30:                               # %for.body3.9
                                        #   in Loop: Header=BB0_1 Depth=1
	xorl	%eax, %eax
	movss	.LCPI0_0(%rip), %xmm0   # xmm0 = mem[0],zero,zero,zero
	movq	-64(%rbp), %rcx         # 8-byte Reload
	movq	-168(%rbp), %rdx        # 8-byte Reload
	movl	(%rcx,%rdx,4), %esi
	movq	-32(%rbp), %rdi         # 8-byte Reload
	movl	%esi, (%rdi)
	movq	-56(%rbp), %r8          # 8-byte Reload
	movl	(%r8,%rdx,4), %esi
	movq	-24(%rbp), %r9          # 8-byte Reload
	movl	%esi, (%r9)
	addq	$64, %rdx
	movl	(%rcx,%rdx,4), %esi
	movl	%esi, 4(%rdi)
	movq	-168(%rbp), %rdx        # 8-byte Reload
	addq	$64, %rdx
	movl	(%r8,%rdx,4), %esi
	movl	%esi, 4(%r9)
	movq	-168(%rbp), %rdx        # 8-byte Reload
	addq	$128, %rdx
	movl	(%rcx,%rdx,4), %esi
	movl	%esi, 8(%rdi)
	movq	-168(%rbp), %rdx        # 8-byte Reload
	addq	$128, %rdx
	movl	(%r8,%rdx,4), %esi
	movl	%esi, 8(%r9)
	movq	-168(%rbp), %rdx        # 8-byte Reload
	addq	$192, %rdx
	movl	(%rcx,%rdx,4), %esi
	movl	%esi, 12(%rdi)
	movq	-168(%rbp), %rdx        # 8-byte Reload
	addq	$192, %rdx
	movl	(%r8,%rdx,4), %esi
	movl	%esi, 12(%r9)
	movq	-168(%rbp), %rdx        # 8-byte Reload
	addq	$256, %rdx              # imm = 0x100
	movl	(%rcx,%rdx,4), %esi
	movl	%esi, 16(%rdi)
	movq	-168(%rbp), %rdx        # 8-byte Reload
	addq	$256, %rdx              # imm = 0x100
	movl	(%r8,%rdx,4), %esi
	movl	%esi, 16(%r9)
	movq	-168(%rbp), %rdx        # 8-byte Reload
	addq	$320, %rdx              # imm = 0x140
	movl	(%rcx,%rdx,4), %esi
	movl	%esi, 20(%rdi)
	movq	-168(%rbp), %rdx        # 8-byte Reload
	addq	$320, %rdx              # imm = 0x140
	movl	(%r8,%rdx,4), %esi
	movl	%esi, 20(%r9)
	movq	-168(%rbp), %rdx        # 8-byte Reload
	addq	$384, %rdx              # imm = 0x180
	movl	(%rcx,%rdx,4), %esi
	movl	%esi, 24(%rdi)
	movq	-168(%rbp), %rdx        # 8-byte Reload
	addq	$384, %rdx              # imm = 0x180
	movl	(%r8,%rdx,4), %esi
	movl	%esi, 24(%r9)
	movq	-168(%rbp), %rdx        # 8-byte Reload
	addq	$448, %rdx              # imm = 0x1C0
	movl	(%rcx,%rdx,4), %esi
	movl	%esi, 28(%rdi)
	movq	-168(%rbp), %rdx        # 8-byte Reload
	addq	$448, %rdx              # imm = 0x1C0
	movl	(%r8,%rdx,4), %esi
	movl	%esi, 28(%r9)
	movl	(%rdi), %esi
	movl	(%r9), %r10d
	movl	%esi, %r11d
	addl	16(%rdi), %r11d
	movl	%r11d, (%rdi)
	movl	%r10d, %r11d
	addl	16(%r9), %r11d
	movl	%r11d, (%r9)
	subl	16(%rdi), %esi
	movl	%esi, 16(%rdi)
	subl	16(%r9), %r10d
	movl	%r10d, 16(%r9)
	movl	4(%rdi), %esi
	movl	4(%r9), %r10d
	movl	%esi, %r11d
	addl	20(%rdi), %r11d
	movl	%r11d, 4(%rdi)
	movl	%r10d, %r11d
	addl	20(%r9), %r11d
	movl	%r11d, 4(%r9)
	subl	20(%rdi), %esi
	movl	%esi, 20(%rdi)
	subl	20(%r9), %r10d
	movl	%r10d, 20(%r9)
	movl	8(%rdi), %esi
	movl	8(%r9), %r10d
	movl	%esi, %r11d
	addl	24(%rdi), %r11d
	movl	%r11d, 8(%rdi)
	movl	%r10d, %r11d
	addl	24(%r9), %r11d
	movl	%r11d, 8(%r9)
	subl	24(%rdi), %esi
	movl	%esi, 24(%rdi)
	subl	24(%r9), %r10d
	movl	%r10d, 24(%r9)
	movl	12(%rdi), %esi
	movl	12(%r9), %r10d
	movl	%esi, %r11d
	addl	28(%rdi), %r11d
	movl	%r11d, 12(%rdi)
	movl	%r10d, %r11d
	addl	28(%r9), %r11d
	movl	%r11d, 12(%r9)
	subl	28(%rdi), %esi
	movl	%esi, 28(%rdi)
	subl	28(%r9), %r10d
	movl	%r10d, 28(%r9)
	movl	20(%rdi), %esi
	movl	%esi, %r10d
	addl	20(%r9), %r10d
	cvtsi2ss	%r10d, %xmm1
	mulss	%xmm0, %xmm1
	cvttss2si	%xmm1, %r10d
	movl	%r10d, 20(%rdi)
	movl	20(%r9), %r10d
	subl	%esi, %r10d
	cvtsi2ss	%r10d, %xmm1
	mulss	%xmm0, %xmm1
	cvttss2si	%xmm1, %esi
	movl	%esi, 20(%r9)
	movl	24(%rdi), %esi
	movl	24(%r9), %r10d
	movl	%r10d, 24(%rdi)
	movl	%eax, %r10d
	subl	%esi, %r10d
	movl	%r10d, 24(%r9)
	movl	28(%rdi), %esi
	movl	28(%r9), %r10d
	subl	%esi, %r10d
	cvtsi2ss	%r10d, %xmm1
	mulss	%xmm0, %xmm1
	cvttss2si	%xmm1, %r10d
	movl	%r10d, 28(%rdi)
	addl	28(%r9), %esi
	movl	%eax, %r10d
	subl	%esi, %r10d
	cvtsi2ss	%r10d, %xmm1
	mulss	%xmm0, %xmm1
	cvttss2si	%xmm1, %esi
	movl	%esi, 28(%r9)
	movl	(%rdi), %esi
	movl	(%r9), %r10d
	movl	%esi, %r11d
	addl	8(%rdi), %r11d
	movl	%r11d, (%rdi)
	movl	%r10d, %r11d
	addl	8(%r9), %r11d
	movl	%r11d, (%r9)
	subl	8(%rdi), %esi
	movl	%esi, 8(%rdi)
	subl	8(%r9), %r10d
	movl	%r10d, 8(%r9)
	movl	4(%rdi), %esi
	movl	4(%r9), %r10d
	movl	%esi, %r11d
	addl	12(%rdi), %r11d
	movl	%r11d, 4(%rdi)
	movl	%r10d, %r11d
	addl	12(%r9), %r11d
	movl	%r11d, 4(%r9)
	subl	12(%rdi), %esi
	movl	%esi, 12(%rdi)
	subl	12(%r9), %r10d
	movl	%r10d, 12(%r9)
	movl	12(%rdi), %esi
	movl	%r10d, 12(%rdi)
	movl	%eax, %r10d
	subl	%esi, %r10d
	movl	%r10d, 12(%r9)
	movl	(%rdi), %esi
	movl	(%r9), %r10d
	movl	%esi, %r11d
	addl	4(%rdi), %r11d
	movl	%r11d, (%rdi)
	movl	%r10d, %r11d
	addl	4(%r9), %r11d
	movl	%r11d, (%r9)
	subl	4(%rdi), %esi
	movl	%esi, 4(%rdi)
	subl	4(%r9), %r10d
	movl	%r10d, 4(%r9)
	movl	8(%rdi), %esi
	movl	8(%r9), %r10d
	movl	%esi, %r11d
	addl	12(%rdi), %r11d
	movl	%r11d, 8(%rdi)
	movl	%r10d, %r11d
	addl	12(%r9), %r11d
	movl	%r11d, 8(%r9)
	subl	12(%rdi), %esi
	movl	%esi, 12(%rdi)
	subl	12(%r9), %r10d
	movl	%r10d, 12(%r9)
	movl	16(%rdi), %esi
	movl	16(%r9), %r10d
	movl	%esi, %r11d
	addl	24(%rdi), %r11d
	movl	%r11d, 16(%rdi)
	movl	%r10d, %r11d
	addl	24(%r9), %r11d
	movl	%r11d, 16(%r9)
	subl	24(%rdi), %esi
	movl	%esi, 24(%rdi)
	subl	24(%r9), %r10d
	movl	%r10d, 24(%r9)
	movl	20(%rdi), %esi
	movl	20(%r9), %r10d
	movl	%esi, %r11d
	addl	28(%rdi), %r11d
	movl	%r11d, 20(%rdi)
	movl	%r10d, %r11d
	addl	28(%r9), %r11d
	movl	%r11d, 20(%r9)
	subl	28(%rdi), %esi
	movl	%esi, 28(%rdi)
	subl	28(%r9), %r10d
	movl	%r10d, 28(%r9)
	movl	28(%rdi), %esi
	movl	%r10d, 28(%rdi)
	subl	%esi, %eax
	movl	%eax, 28(%r9)
	movl	16(%rdi), %eax
	movl	16(%r9), %esi
	movl	%eax, %r10d
	addl	20(%rdi), %r10d
	movl	%r10d, 16(%rdi)
	movl	%esi, %r10d
	addl	20(%r9), %r10d
	movl	%r10d, 16(%r9)
	subl	20(%rdi), %eax
	movl	%eax, 20(%rdi)
	subl	20(%r9), %esi
	movl	%esi, 20(%r9)
	movl	24(%rdi), %eax
	movl	24(%r9), %esi
	movl	%eax, %r10d
	addl	28(%rdi), %r10d
	movl	%r10d, 24(%rdi)
	movl	%esi, %r10d
	addl	28(%r9), %r10d
	movl	%r10d, 24(%r9)
	subl	28(%rdi), %eax
	movl	%eax, 28(%rdi)
	subl	28(%r9), %esi
	movl	%esi, 28(%r9)
# %bb.31:                               # %for.body278.9
                                        #   in Loop: Header=BB0_1 Depth=1
	movq	-168(%rbp), %rax        # 8-byte Reload
	imulq	$7, %rax, %rcx
	movq	-72(%rbp), %rdx         # 8-byte Reload
	cvttss2si	(%rdx,%rcx,4), %esi
	imulq	$7, %rax, %rcx
	movq	-80(%rbp), %rdi         # 8-byte Reload
	cvttss2si	(%rdi,%rcx,4), %r8d
	movq	-32(%rbp), %rcx         # 8-byte Reload
	movl	4(%rcx), %r9d
	movl	%esi, %r10d
	imull	4(%rcx), %r10d
	movl	%r8d, %r11d
	movq	-24(%rbp), %rbx         # 8-byte Reload
	imull	4(%rbx), %r11d
	subl	%r11d, %r10d
	movl	%r10d, 4(%rcx)
	imull	%r8d, %r9d
	imull	4(%rbx), %esi
	addl	%esi, %r9d
	movl	%r9d, 4(%rbx)
	imulq	$7, %rax, %r14
	cvttss2si	4(%rdx,%r14,4), %esi
	imulq	$7, %rax, %r14
	cvttss2si	4(%rdi,%r14,4), %r8d
	movl	8(%rcx), %r9d
	movl	%esi, %r10d
	imull	8(%rcx), %r10d
	movl	%r8d, %r11d
	imull	8(%rbx), %r11d
	subl	%r11d, %r10d
	movl	%r10d, 8(%rcx)
	imull	%r8d, %r9d
	imull	8(%rbx), %esi
	addl	%esi, %r9d
	movl	%r9d, 8(%rbx)
	imulq	$7, %rax, %r14
	cvttss2si	8(%rdx,%r14,4), %esi
	imulq	$7, %rax, %r14
	cvttss2si	8(%rdi,%r14,4), %r8d
	movl	12(%rcx), %r9d
	movl	%esi, %r10d
	imull	12(%rcx), %r10d
	movl	%r8d, %r11d
	imull	12(%rbx), %r11d
	subl	%r11d, %r10d
	movl	%r10d, 12(%rcx)
	imull	%r8d, %r9d
	imull	12(%rbx), %esi
	addl	%esi, %r9d
	movl	%r9d, 12(%rbx)
	imulq	$7, %rax, %r14
	cvttss2si	12(%rdx,%r14,4), %esi
	imulq	$7, %rax, %r14
	cvttss2si	12(%rdi,%r14,4), %r8d
	movl	16(%rcx), %r9d
	movl	%esi, %r10d
	imull	16(%rcx), %r10d
	movl	%r8d, %r11d
	imull	16(%rbx), %r11d
	subl	%r11d, %r10d
	movl	%r10d, 16(%rcx)
	imull	%r8d, %r9d
	imull	16(%rbx), %esi
	addl	%esi, %r9d
	movl	%r9d, 16(%rbx)
	imulq	$7, %rax, %r14
	cvttss2si	16(%rdx,%r14,4), %esi
	imulq	$7, %rax, %r14
	cvttss2si	16(%rdi,%r14,4), %r8d
	movl	20(%rcx), %r9d
	movl	%esi, %r10d
	imull	20(%rcx), %r10d
	movl	%r8d, %r11d
	imull	20(%rbx), %r11d
	subl	%r11d, %r10d
	movl	%r10d, 20(%rcx)
	imull	%r8d, %r9d
	imull	20(%rbx), %esi
	addl	%esi, %r9d
	movl	%r9d, 20(%rbx)
	imulq	$7, %rax, %r14
	cvttss2si	20(%rdx,%r14,4), %esi
	imulq	$7, %rax, %r14
	cvttss2si	20(%rdi,%r14,4), %r8d
	movl	24(%rcx), %r9d
	movl	%esi, %r10d
	imull	24(%rcx), %r10d
	movl	%r8d, %r11d
	imull	24(%rbx), %r11d
	subl	%r11d, %r10d
	movl	%r10d, 24(%rcx)
	imull	%r8d, %r9d
	imull	24(%rbx), %esi
	addl	%esi, %r9d
	movl	%r9d, 24(%rbx)
	imulq	$7, %rax, %r14
	cvttss2si	24(%rdx,%r14,4), %esi
	imulq	$7, %rax, %r14
	cvttss2si	24(%rdi,%r14,4), %r8d
	movl	28(%rcx), %r9d
	movl	%esi, %r10d
	imull	28(%rcx), %r10d
	movl	%r8d, %r11d
	imull	28(%rbx), %r11d
	subl	%r11d, %r10d
	movl	%r10d, 28(%rcx)
	imull	%r8d, %r9d
	imull	28(%rbx), %esi
	addl	%esi, %r9d
	movl	%r9d, 28(%rbx)
# %bb.32:                               # %for.body316.9
                                        #   in Loop: Header=BB0_1 Depth=1
	movq	-32(%rbp), %rax         # 8-byte Reload
	movl	(%rax), %ecx
	movq	-168(%rbp), %rdx        # 8-byte Reload
	shlq	$3, %rdx
	movq	-48(%rbp), %rsi         # 8-byte Reload
	movl	%ecx, (%rsi,%rdx,4)
	movq	-24(%rbp), %rdx         # 8-byte Reload
	movl	(%rdx), %ecx
	movq	-168(%rbp), %rdi        # 8-byte Reload
	shlq	$3, %rdi
	movq	-40(%rbp), %r8          # 8-byte Reload
	movl	%ecx, (%r8,%rdi,4)
	movl	4(%rax), %ecx
	movq	-168(%rbp), %rdi        # 8-byte Reload
	shlq	$3, %rdi
	movl	%ecx, 4(%rsi,%rdi,4)
	movl	4(%rdx), %ecx
	movq	-168(%rbp), %rdi        # 8-byte Reload
	shlq	$3, %rdi
	movl	%ecx, 4(%r8,%rdi,4)
	movl	8(%rax), %ecx
	movq	-168(%rbp), %rdi        # 8-byte Reload
	shlq	$3, %rdi
	movl	%ecx, 8(%rsi,%rdi,4)
	movl	8(%rdx), %ecx
	movq	-168(%rbp), %rdi        # 8-byte Reload
	shlq	$3, %rdi
	movl	%ecx, 8(%r8,%rdi,4)
	movl	12(%rax), %ecx
	movq	-168(%rbp), %rdi        # 8-byte Reload
	shlq	$3, %rdi
	movl	%ecx, 12(%rsi,%rdi,4)
	movl	12(%rdx), %ecx
	movq	-168(%rbp), %rdi        # 8-byte Reload
	shlq	$3, %rdi
	movl	%ecx, 12(%r8,%rdi,4)
	movl	16(%rax), %ecx
	movq	-168(%rbp), %rdi        # 8-byte Reload
	shlq	$3, %rdi
	movl	%ecx, 16(%rsi,%rdi,4)
	movl	16(%rdx), %ecx
	movq	-168(%rbp), %rdi        # 8-byte Reload
	shlq	$3, %rdi
	movl	%ecx, 16(%r8,%rdi,4)
	movl	20(%rax), %ecx
	movq	-168(%rbp), %rdi        # 8-byte Reload
	shlq	$3, %rdi
	movl	%ecx, 20(%rsi,%rdi,4)
	movl	20(%rdx), %ecx
	movq	-168(%rbp), %rdi        # 8-byte Reload
	shlq	$3, %rdi
	movl	%ecx, 20(%r8,%rdi,4)
	movl	24(%rax), %ecx
	movq	-168(%rbp), %rdi        # 8-byte Reload
	shlq	$3, %rdi
	movl	%ecx, 24(%rsi,%rdi,4)
	movl	24(%rdx), %ecx
	movq	-168(%rbp), %rdi        # 8-byte Reload
	shlq	$3, %rdi
	movl	%ecx, 24(%r8,%rdi,4)
	movl	28(%rax), %ecx
	movq	-168(%rbp), %rdi        # 8-byte Reload
	shlq	$3, %rdi
	movl	%ecx, 28(%rsi,%rdi,4)
	movl	28(%rdx), %ecx
	movq	-168(%rbp), %rdi        # 8-byte Reload
	shlq	$3, %rdi
	movl	%ecx, 28(%r8,%rdi,4)
	movq	-168(%rbp), %rdi        # 8-byte Reload
	addq	$1, %rdi
	movq	%rdi, -176(%rbp)        # 8-byte Spill
# %bb.33:                               # %for.body3.10
                                        #   in Loop: Header=BB0_1 Depth=1
	xorl	%eax, %eax
	movss	.LCPI0_0(%rip), %xmm0   # xmm0 = mem[0],zero,zero,zero
	movq	-64(%rbp), %rcx         # 8-byte Reload
	movq	-176(%rbp), %rdx        # 8-byte Reload
	movl	(%rcx,%rdx,4), %esi
	movq	-32(%rbp), %rdi         # 8-byte Reload
	movl	%esi, (%rdi)
	movq	-56(%rbp), %r8          # 8-byte Reload
	movl	(%r8,%rdx,4), %esi
	movq	-24(%rbp), %r9          # 8-byte Reload
	movl	%esi, (%r9)
	addq	$64, %rdx
	movl	(%rcx,%rdx,4), %esi
	movl	%esi, 4(%rdi)
	movq	-176(%rbp), %rdx        # 8-byte Reload
	addq	$64, %rdx
	movl	(%r8,%rdx,4), %esi
	movl	%esi, 4(%r9)
	movq	-176(%rbp), %rdx        # 8-byte Reload
	addq	$128, %rdx
	movl	(%rcx,%rdx,4), %esi
	movl	%esi, 8(%rdi)
	movq	-176(%rbp), %rdx        # 8-byte Reload
	addq	$128, %rdx
	movl	(%r8,%rdx,4), %esi
	movl	%esi, 8(%r9)
	movq	-176(%rbp), %rdx        # 8-byte Reload
	addq	$192, %rdx
	movl	(%rcx,%rdx,4), %esi
	movl	%esi, 12(%rdi)
	movq	-176(%rbp), %rdx        # 8-byte Reload
	addq	$192, %rdx
	movl	(%r8,%rdx,4), %esi
	movl	%esi, 12(%r9)
	movq	-176(%rbp), %rdx        # 8-byte Reload
	addq	$256, %rdx              # imm = 0x100
	movl	(%rcx,%rdx,4), %esi
	movl	%esi, 16(%rdi)
	movq	-176(%rbp), %rdx        # 8-byte Reload
	addq	$256, %rdx              # imm = 0x100
	movl	(%r8,%rdx,4), %esi
	movl	%esi, 16(%r9)
	movq	-176(%rbp), %rdx        # 8-byte Reload
	addq	$320, %rdx              # imm = 0x140
	movl	(%rcx,%rdx,4), %esi
	movl	%esi, 20(%rdi)
	movq	-176(%rbp), %rdx        # 8-byte Reload
	addq	$320, %rdx              # imm = 0x140
	movl	(%r8,%rdx,4), %esi
	movl	%esi, 20(%r9)
	movq	-176(%rbp), %rdx        # 8-byte Reload
	addq	$384, %rdx              # imm = 0x180
	movl	(%rcx,%rdx,4), %esi
	movl	%esi, 24(%rdi)
	movq	-176(%rbp), %rdx        # 8-byte Reload
	addq	$384, %rdx              # imm = 0x180
	movl	(%r8,%rdx,4), %esi
	movl	%esi, 24(%r9)
	movq	-176(%rbp), %rdx        # 8-byte Reload
	addq	$448, %rdx              # imm = 0x1C0
	movl	(%rcx,%rdx,4), %esi
	movl	%esi, 28(%rdi)
	movq	-176(%rbp), %rdx        # 8-byte Reload
	addq	$448, %rdx              # imm = 0x1C0
	movl	(%r8,%rdx,4), %esi
	movl	%esi, 28(%r9)
	movl	(%rdi), %esi
	movl	(%r9), %r10d
	movl	%esi, %r11d
	addl	16(%rdi), %r11d
	movl	%r11d, (%rdi)
	movl	%r10d, %r11d
	addl	16(%r9), %r11d
	movl	%r11d, (%r9)
	subl	16(%rdi), %esi
	movl	%esi, 16(%rdi)
	subl	16(%r9), %r10d
	movl	%r10d, 16(%r9)
	movl	4(%rdi), %esi
	movl	4(%r9), %r10d
	movl	%esi, %r11d
	addl	20(%rdi), %r11d
	movl	%r11d, 4(%rdi)
	movl	%r10d, %r11d
	addl	20(%r9), %r11d
	movl	%r11d, 4(%r9)
	subl	20(%rdi), %esi
	movl	%esi, 20(%rdi)
	subl	20(%r9), %r10d
	movl	%r10d, 20(%r9)
	movl	8(%rdi), %esi
	movl	8(%r9), %r10d
	movl	%esi, %r11d
	addl	24(%rdi), %r11d
	movl	%r11d, 8(%rdi)
	movl	%r10d, %r11d
	addl	24(%r9), %r11d
	movl	%r11d, 8(%r9)
	subl	24(%rdi), %esi
	movl	%esi, 24(%rdi)
	subl	24(%r9), %r10d
	movl	%r10d, 24(%r9)
	movl	12(%rdi), %esi
	movl	12(%r9), %r10d
	movl	%esi, %r11d
	addl	28(%rdi), %r11d
	movl	%r11d, 12(%rdi)
	movl	%r10d, %r11d
	addl	28(%r9), %r11d
	movl	%r11d, 12(%r9)
	subl	28(%rdi), %esi
	movl	%esi, 28(%rdi)
	subl	28(%r9), %r10d
	movl	%r10d, 28(%r9)
	movl	20(%rdi), %esi
	movl	%esi, %r10d
	addl	20(%r9), %r10d
	cvtsi2ss	%r10d, %xmm1
	mulss	%xmm0, %xmm1
	cvttss2si	%xmm1, %r10d
	movl	%r10d, 20(%rdi)
	movl	20(%r9), %r10d
	subl	%esi, %r10d
	cvtsi2ss	%r10d, %xmm1
	mulss	%xmm0, %xmm1
	cvttss2si	%xmm1, %esi
	movl	%esi, 20(%r9)
	movl	24(%rdi), %esi
	movl	24(%r9), %r10d
	movl	%r10d, 24(%rdi)
	movl	%eax, %r10d
	subl	%esi, %r10d
	movl	%r10d, 24(%r9)
	movl	28(%rdi), %esi
	movl	28(%r9), %r10d
	subl	%esi, %r10d
	cvtsi2ss	%r10d, %xmm1
	mulss	%xmm0, %xmm1
	cvttss2si	%xmm1, %r10d
	movl	%r10d, 28(%rdi)
	addl	28(%r9), %esi
	movl	%eax, %r10d
	subl	%esi, %r10d
	cvtsi2ss	%r10d, %xmm1
	mulss	%xmm0, %xmm1
	cvttss2si	%xmm1, %esi
	movl	%esi, 28(%r9)
	movl	(%rdi), %esi
	movl	(%r9), %r10d
	movl	%esi, %r11d
	addl	8(%rdi), %r11d
	movl	%r11d, (%rdi)
	movl	%r10d, %r11d
	addl	8(%r9), %r11d
	movl	%r11d, (%r9)
	subl	8(%rdi), %esi
	movl	%esi, 8(%rdi)
	subl	8(%r9), %r10d
	movl	%r10d, 8(%r9)
	movl	4(%rdi), %esi
	movl	4(%r9), %r10d
	movl	%esi, %r11d
	addl	12(%rdi), %r11d
	movl	%r11d, 4(%rdi)
	movl	%r10d, %r11d
	addl	12(%r9), %r11d
	movl	%r11d, 4(%r9)
	subl	12(%rdi), %esi
	movl	%esi, 12(%rdi)
	subl	12(%r9), %r10d
	movl	%r10d, 12(%r9)
	movl	12(%rdi), %esi
	movl	%r10d, 12(%rdi)
	movl	%eax, %r10d
	subl	%esi, %r10d
	movl	%r10d, 12(%r9)
	movl	(%rdi), %esi
	movl	(%r9), %r10d
	movl	%esi, %r11d
	addl	4(%rdi), %r11d
	movl	%r11d, (%rdi)
	movl	%r10d, %r11d
	addl	4(%r9), %r11d
	movl	%r11d, (%r9)
	subl	4(%rdi), %esi
	movl	%esi, 4(%rdi)
	subl	4(%r9), %r10d
	movl	%r10d, 4(%r9)
	movl	8(%rdi), %esi
	movl	8(%r9), %r10d
	movl	%esi, %r11d
	addl	12(%rdi), %r11d
	movl	%r11d, 8(%rdi)
	movl	%r10d, %r11d
	addl	12(%r9), %r11d
	movl	%r11d, 8(%r9)
	subl	12(%rdi), %esi
	movl	%esi, 12(%rdi)
	subl	12(%r9), %r10d
	movl	%r10d, 12(%r9)
	movl	16(%rdi), %esi
	movl	16(%r9), %r10d
	movl	%esi, %r11d
	addl	24(%rdi), %r11d
	movl	%r11d, 16(%rdi)
	movl	%r10d, %r11d
	addl	24(%r9), %r11d
	movl	%r11d, 16(%r9)
	subl	24(%rdi), %esi
	movl	%esi, 24(%rdi)
	subl	24(%r9), %r10d
	movl	%r10d, 24(%r9)
	movl	20(%rdi), %esi
	movl	20(%r9), %r10d
	movl	%esi, %r11d
	addl	28(%rdi), %r11d
	movl	%r11d, 20(%rdi)
	movl	%r10d, %r11d
	addl	28(%r9), %r11d
	movl	%r11d, 20(%r9)
	subl	28(%rdi), %esi
	movl	%esi, 28(%rdi)
	subl	28(%r9), %r10d
	movl	%r10d, 28(%r9)
	movl	28(%rdi), %esi
	movl	%r10d, 28(%rdi)
	subl	%esi, %eax
	movl	%eax, 28(%r9)
	movl	16(%rdi), %eax
	movl	16(%r9), %esi
	movl	%eax, %r10d
	addl	20(%rdi), %r10d
	movl	%r10d, 16(%rdi)
	movl	%esi, %r10d
	addl	20(%r9), %r10d
	movl	%r10d, 16(%r9)
	subl	20(%rdi), %eax
	movl	%eax, 20(%rdi)
	subl	20(%r9), %esi
	movl	%esi, 20(%r9)
	movl	24(%rdi), %eax
	movl	24(%r9), %esi
	movl	%eax, %r10d
	addl	28(%rdi), %r10d
	movl	%r10d, 24(%rdi)
	movl	%esi, %r10d
	addl	28(%r9), %r10d
	movl	%r10d, 24(%r9)
	subl	28(%rdi), %eax
	movl	%eax, 28(%rdi)
	subl	28(%r9), %esi
	movl	%esi, 28(%r9)
# %bb.34:                               # %for.body278.10
                                        #   in Loop: Header=BB0_1 Depth=1
	movq	-176(%rbp), %rax        # 8-byte Reload
	imulq	$7, %rax, %rcx
	movq	-72(%rbp), %rdx         # 8-byte Reload
	cvttss2si	(%rdx,%rcx,4), %esi
	imulq	$7, %rax, %rcx
	movq	-80(%rbp), %rdi         # 8-byte Reload
	cvttss2si	(%rdi,%rcx,4), %r8d
	movq	-32(%rbp), %rcx         # 8-byte Reload
	movl	4(%rcx), %r9d
	movl	%esi, %r10d
	imull	4(%rcx), %r10d
	movl	%r8d, %r11d
	movq	-24(%rbp), %rbx         # 8-byte Reload
	imull	4(%rbx), %r11d
	subl	%r11d, %r10d
	movl	%r10d, 4(%rcx)
	imull	%r8d, %r9d
	imull	4(%rbx), %esi
	addl	%esi, %r9d
	movl	%r9d, 4(%rbx)
	imulq	$7, %rax, %r14
	cvttss2si	4(%rdx,%r14,4), %esi
	imulq	$7, %rax, %r14
	cvttss2si	4(%rdi,%r14,4), %r8d
	movl	8(%rcx), %r9d
	movl	%esi, %r10d
	imull	8(%rcx), %r10d
	movl	%r8d, %r11d
	imull	8(%rbx), %r11d
	subl	%r11d, %r10d
	movl	%r10d, 8(%rcx)
	imull	%r8d, %r9d
	imull	8(%rbx), %esi
	addl	%esi, %r9d
	movl	%r9d, 8(%rbx)
	imulq	$7, %rax, %r14
	cvttss2si	8(%rdx,%r14,4), %esi
	imulq	$7, %rax, %r14
	cvttss2si	8(%rdi,%r14,4), %r8d
	movl	12(%rcx), %r9d
	movl	%esi, %r10d
	imull	12(%rcx), %r10d
	movl	%r8d, %r11d
	imull	12(%rbx), %r11d
	subl	%r11d, %r10d
	movl	%r10d, 12(%rcx)
	imull	%r8d, %r9d
	imull	12(%rbx), %esi
	addl	%esi, %r9d
	movl	%r9d, 12(%rbx)
	imulq	$7, %rax, %r14
	cvttss2si	12(%rdx,%r14,4), %esi
	imulq	$7, %rax, %r14
	cvttss2si	12(%rdi,%r14,4), %r8d
	movl	16(%rcx), %r9d
	movl	%esi, %r10d
	imull	16(%rcx), %r10d
	movl	%r8d, %r11d
	imull	16(%rbx), %r11d
	subl	%r11d, %r10d
	movl	%r10d, 16(%rcx)
	imull	%r8d, %r9d
	imull	16(%rbx), %esi
	addl	%esi, %r9d
	movl	%r9d, 16(%rbx)
	imulq	$7, %rax, %r14
	cvttss2si	16(%rdx,%r14,4), %esi
	imulq	$7, %rax, %r14
	cvttss2si	16(%rdi,%r14,4), %r8d
	movl	20(%rcx), %r9d
	movl	%esi, %r10d
	imull	20(%rcx), %r10d
	movl	%r8d, %r11d
	imull	20(%rbx), %r11d
	subl	%r11d, %r10d
	movl	%r10d, 20(%rcx)
	imull	%r8d, %r9d
	imull	20(%rbx), %esi
	addl	%esi, %r9d
	movl	%r9d, 20(%rbx)
	imulq	$7, %rax, %r14
	cvttss2si	20(%rdx,%r14,4), %esi
	imulq	$7, %rax, %r14
	cvttss2si	20(%rdi,%r14,4), %r8d
	movl	24(%rcx), %r9d
	movl	%esi, %r10d
	imull	24(%rcx), %r10d
	movl	%r8d, %r11d
	imull	24(%rbx), %r11d
	subl	%r11d, %r10d
	movl	%r10d, 24(%rcx)
	imull	%r8d, %r9d
	imull	24(%rbx), %esi
	addl	%esi, %r9d
	movl	%r9d, 24(%rbx)
	imulq	$7, %rax, %r14
	cvttss2si	24(%rdx,%r14,4), %esi
	imulq	$7, %rax, %r14
	cvttss2si	24(%rdi,%r14,4), %r8d
	movl	28(%rcx), %r9d
	movl	%esi, %r10d
	imull	28(%rcx), %r10d
	movl	%r8d, %r11d
	imull	28(%rbx), %r11d
	subl	%r11d, %r10d
	movl	%r10d, 28(%rcx)
	imull	%r8d, %r9d
	imull	28(%rbx), %esi
	addl	%esi, %r9d
	movl	%r9d, 28(%rbx)
# %bb.35:                               # %for.body316.10
                                        #   in Loop: Header=BB0_1 Depth=1
	movq	-32(%rbp), %rax         # 8-byte Reload
	movl	(%rax), %ecx
	movq	-176(%rbp), %rdx        # 8-byte Reload
	shlq	$3, %rdx
	movq	-48(%rbp), %rsi         # 8-byte Reload
	movl	%ecx, (%rsi,%rdx,4)
	movq	-24(%rbp), %rdx         # 8-byte Reload
	movl	(%rdx), %ecx
	movq	-176(%rbp), %rdi        # 8-byte Reload
	shlq	$3, %rdi
	movq	-40(%rbp), %r8          # 8-byte Reload
	movl	%ecx, (%r8,%rdi,4)
	movl	4(%rax), %ecx
	movq	-176(%rbp), %rdi        # 8-byte Reload
	shlq	$3, %rdi
	movl	%ecx, 4(%rsi,%rdi,4)
	movl	4(%rdx), %ecx
	movq	-176(%rbp), %rdi        # 8-byte Reload
	shlq	$3, %rdi
	movl	%ecx, 4(%r8,%rdi,4)
	movl	8(%rax), %ecx
	movq	-176(%rbp), %rdi        # 8-byte Reload
	shlq	$3, %rdi
	movl	%ecx, 8(%rsi,%rdi,4)
	movl	8(%rdx), %ecx
	movq	-176(%rbp), %rdi        # 8-byte Reload
	shlq	$3, %rdi
	movl	%ecx, 8(%r8,%rdi,4)
	movl	12(%rax), %ecx
	movq	-176(%rbp), %rdi        # 8-byte Reload
	shlq	$3, %rdi
	movl	%ecx, 12(%rsi,%rdi,4)
	movl	12(%rdx), %ecx
	movq	-176(%rbp), %rdi        # 8-byte Reload
	shlq	$3, %rdi
	movl	%ecx, 12(%r8,%rdi,4)
	movl	16(%rax), %ecx
	movq	-176(%rbp), %rdi        # 8-byte Reload
	shlq	$3, %rdi
	movl	%ecx, 16(%rsi,%rdi,4)
	movl	16(%rdx), %ecx
	movq	-176(%rbp), %rdi        # 8-byte Reload
	shlq	$3, %rdi
	movl	%ecx, 16(%r8,%rdi,4)
	movl	20(%rax), %ecx
	movq	-176(%rbp), %rdi        # 8-byte Reload
	shlq	$3, %rdi
	movl	%ecx, 20(%rsi,%rdi,4)
	movl	20(%rdx), %ecx
	movq	-176(%rbp), %rdi        # 8-byte Reload
	shlq	$3, %rdi
	movl	%ecx, 20(%r8,%rdi,4)
	movl	24(%rax), %ecx
	movq	-176(%rbp), %rdi        # 8-byte Reload
	shlq	$3, %rdi
	movl	%ecx, 24(%rsi,%rdi,4)
	movl	24(%rdx), %ecx
	movq	-176(%rbp), %rdi        # 8-byte Reload
	shlq	$3, %rdi
	movl	%ecx, 24(%r8,%rdi,4)
	movl	28(%rax), %ecx
	movq	-176(%rbp), %rdi        # 8-byte Reload
	shlq	$3, %rdi
	movl	%ecx, 28(%rsi,%rdi,4)
	movl	28(%rdx), %ecx
	movq	-176(%rbp), %rdi        # 8-byte Reload
	shlq	$3, %rdi
	movl	%ecx, 28(%r8,%rdi,4)
	movq	-176(%rbp), %rdi        # 8-byte Reload
	addq	$1, %rdi
	movq	%rdi, -184(%rbp)        # 8-byte Spill
# %bb.36:                               # %for.body3.11
                                        #   in Loop: Header=BB0_1 Depth=1
	xorl	%eax, %eax
	movss	.LCPI0_0(%rip), %xmm0   # xmm0 = mem[0],zero,zero,zero
	movq	-64(%rbp), %rcx         # 8-byte Reload
	movq	-184(%rbp), %rdx        # 8-byte Reload
	movl	(%rcx,%rdx,4), %esi
	movq	-32(%rbp), %rdi         # 8-byte Reload
	movl	%esi, (%rdi)
	movq	-56(%rbp), %r8          # 8-byte Reload
	movl	(%r8,%rdx,4), %esi
	movq	-24(%rbp), %r9          # 8-byte Reload
	movl	%esi, (%r9)
	addq	$64, %rdx
	movl	(%rcx,%rdx,4), %esi
	movl	%esi, 4(%rdi)
	movq	-184(%rbp), %rdx        # 8-byte Reload
	addq	$64, %rdx
	movl	(%r8,%rdx,4), %esi
	movl	%esi, 4(%r9)
	movq	-184(%rbp), %rdx        # 8-byte Reload
	addq	$128, %rdx
	movl	(%rcx,%rdx,4), %esi
	movl	%esi, 8(%rdi)
	movq	-184(%rbp), %rdx        # 8-byte Reload
	addq	$128, %rdx
	movl	(%r8,%rdx,4), %esi
	movl	%esi, 8(%r9)
	movq	-184(%rbp), %rdx        # 8-byte Reload
	addq	$192, %rdx
	movl	(%rcx,%rdx,4), %esi
	movl	%esi, 12(%rdi)
	movq	-184(%rbp), %rdx        # 8-byte Reload
	addq	$192, %rdx
	movl	(%r8,%rdx,4), %esi
	movl	%esi, 12(%r9)
	movq	-184(%rbp), %rdx        # 8-byte Reload
	addq	$256, %rdx              # imm = 0x100
	movl	(%rcx,%rdx,4), %esi
	movl	%esi, 16(%rdi)
	movq	-184(%rbp), %rdx        # 8-byte Reload
	addq	$256, %rdx              # imm = 0x100
	movl	(%r8,%rdx,4), %esi
	movl	%esi, 16(%r9)
	movq	-184(%rbp), %rdx        # 8-byte Reload
	addq	$320, %rdx              # imm = 0x140
	movl	(%rcx,%rdx,4), %esi
	movl	%esi, 20(%rdi)
	movq	-184(%rbp), %rdx        # 8-byte Reload
	addq	$320, %rdx              # imm = 0x140
	movl	(%r8,%rdx,4), %esi
	movl	%esi, 20(%r9)
	movq	-184(%rbp), %rdx        # 8-byte Reload
	addq	$384, %rdx              # imm = 0x180
	movl	(%rcx,%rdx,4), %esi
	movl	%esi, 24(%rdi)
	movq	-184(%rbp), %rdx        # 8-byte Reload
	addq	$384, %rdx              # imm = 0x180
	movl	(%r8,%rdx,4), %esi
	movl	%esi, 24(%r9)
	movq	-184(%rbp), %rdx        # 8-byte Reload
	addq	$448, %rdx              # imm = 0x1C0
	movl	(%rcx,%rdx,4), %esi
	movl	%esi, 28(%rdi)
	movq	-184(%rbp), %rdx        # 8-byte Reload
	addq	$448, %rdx              # imm = 0x1C0
	movl	(%r8,%rdx,4), %esi
	movl	%esi, 28(%r9)
	movl	(%rdi), %esi
	movl	(%r9), %r10d
	movl	%esi, %r11d
	addl	16(%rdi), %r11d
	movl	%r11d, (%rdi)
	movl	%r10d, %r11d
	addl	16(%r9), %r11d
	movl	%r11d, (%r9)
	subl	16(%rdi), %esi
	movl	%esi, 16(%rdi)
	subl	16(%r9), %r10d
	movl	%r10d, 16(%r9)
	movl	4(%rdi), %esi
	movl	4(%r9), %r10d
	movl	%esi, %r11d
	addl	20(%rdi), %r11d
	movl	%r11d, 4(%rdi)
	movl	%r10d, %r11d
	addl	20(%r9), %r11d
	movl	%r11d, 4(%r9)
	subl	20(%rdi), %esi
	movl	%esi, 20(%rdi)
	subl	20(%r9), %r10d
	movl	%r10d, 20(%r9)
	movl	8(%rdi), %esi
	movl	8(%r9), %r10d
	movl	%esi, %r11d
	addl	24(%rdi), %r11d
	movl	%r11d, 8(%rdi)
	movl	%r10d, %r11d
	addl	24(%r9), %r11d
	movl	%r11d, 8(%r9)
	subl	24(%rdi), %esi
	movl	%esi, 24(%rdi)
	subl	24(%r9), %r10d
	movl	%r10d, 24(%r9)
	movl	12(%rdi), %esi
	movl	12(%r9), %r10d
	movl	%esi, %r11d
	addl	28(%rdi), %r11d
	movl	%r11d, 12(%rdi)
	movl	%r10d, %r11d
	addl	28(%r9), %r11d
	movl	%r11d, 12(%r9)
	subl	28(%rdi), %esi
	movl	%esi, 28(%rdi)
	subl	28(%r9), %r10d
	movl	%r10d, 28(%r9)
	movl	20(%rdi), %esi
	movl	%esi, %r10d
	addl	20(%r9), %r10d
	cvtsi2ss	%r10d, %xmm1
	mulss	%xmm0, %xmm1
	cvttss2si	%xmm1, %r10d
	movl	%r10d, 20(%rdi)
	movl	20(%r9), %r10d
	subl	%esi, %r10d
	cvtsi2ss	%r10d, %xmm1
	mulss	%xmm0, %xmm1
	cvttss2si	%xmm1, %esi
	movl	%esi, 20(%r9)
	movl	24(%rdi), %esi
	movl	24(%r9), %r10d
	movl	%r10d, 24(%rdi)
	movl	%eax, %r10d
	subl	%esi, %r10d
	movl	%r10d, 24(%r9)
	movl	28(%rdi), %esi
	movl	28(%r9), %r10d
	subl	%esi, %r10d
	cvtsi2ss	%r10d, %xmm1
	mulss	%xmm0, %xmm1
	cvttss2si	%xmm1, %r10d
	movl	%r10d, 28(%rdi)
	addl	28(%r9), %esi
	movl	%eax, %r10d
	subl	%esi, %r10d
	cvtsi2ss	%r10d, %xmm1
	mulss	%xmm0, %xmm1
	cvttss2si	%xmm1, %esi
	movl	%esi, 28(%r9)
	movl	(%rdi), %esi
	movl	(%r9), %r10d
	movl	%esi, %r11d
	addl	8(%rdi), %r11d
	movl	%r11d, (%rdi)
	movl	%r10d, %r11d
	addl	8(%r9), %r11d
	movl	%r11d, (%r9)
	subl	8(%rdi), %esi
	movl	%esi, 8(%rdi)
	subl	8(%r9), %r10d
	movl	%r10d, 8(%r9)
	movl	4(%rdi), %esi
	movl	4(%r9), %r10d
	movl	%esi, %r11d
	addl	12(%rdi), %r11d
	movl	%r11d, 4(%rdi)
	movl	%r10d, %r11d
	addl	12(%r9), %r11d
	movl	%r11d, 4(%r9)
	subl	12(%rdi), %esi
	movl	%esi, 12(%rdi)
	subl	12(%r9), %r10d
	movl	%r10d, 12(%r9)
	movl	12(%rdi), %esi
	movl	%r10d, 12(%rdi)
	movl	%eax, %r10d
	subl	%esi, %r10d
	movl	%r10d, 12(%r9)
	movl	(%rdi), %esi
	movl	(%r9), %r10d
	movl	%esi, %r11d
	addl	4(%rdi), %r11d
	movl	%r11d, (%rdi)
	movl	%r10d, %r11d
	addl	4(%r9), %r11d
	movl	%r11d, (%r9)
	subl	4(%rdi), %esi
	movl	%esi, 4(%rdi)
	subl	4(%r9), %r10d
	movl	%r10d, 4(%r9)
	movl	8(%rdi), %esi
	movl	8(%r9), %r10d
	movl	%esi, %r11d
	addl	12(%rdi), %r11d
	movl	%r11d, 8(%rdi)
	movl	%r10d, %r11d
	addl	12(%r9), %r11d
	movl	%r11d, 8(%r9)
	subl	12(%rdi), %esi
	movl	%esi, 12(%rdi)
	subl	12(%r9), %r10d
	movl	%r10d, 12(%r9)
	movl	16(%rdi), %esi
	movl	16(%r9), %r10d
	movl	%esi, %r11d
	addl	24(%rdi), %r11d
	movl	%r11d, 16(%rdi)
	movl	%r10d, %r11d
	addl	24(%r9), %r11d
	movl	%r11d, 16(%r9)
	subl	24(%rdi), %esi
	movl	%esi, 24(%rdi)
	subl	24(%r9), %r10d
	movl	%r10d, 24(%r9)
	movl	20(%rdi), %esi
	movl	20(%r9), %r10d
	movl	%esi, %r11d
	addl	28(%rdi), %r11d
	movl	%r11d, 20(%rdi)
	movl	%r10d, %r11d
	addl	28(%r9), %r11d
	movl	%r11d, 20(%r9)
	subl	28(%rdi), %esi
	movl	%esi, 28(%rdi)
	subl	28(%r9), %r10d
	movl	%r10d, 28(%r9)
	movl	28(%rdi), %esi
	movl	%r10d, 28(%rdi)
	subl	%esi, %eax
	movl	%eax, 28(%r9)
	movl	16(%rdi), %eax
	movl	16(%r9), %esi
	movl	%eax, %r10d
	addl	20(%rdi), %r10d
	movl	%r10d, 16(%rdi)
	movl	%esi, %r10d
	addl	20(%r9), %r10d
	movl	%r10d, 16(%r9)
	subl	20(%rdi), %eax
	movl	%eax, 20(%rdi)
	subl	20(%r9), %esi
	movl	%esi, 20(%r9)
	movl	24(%rdi), %eax
	movl	24(%r9), %esi
	movl	%eax, %r10d
	addl	28(%rdi), %r10d
	movl	%r10d, 24(%rdi)
	movl	%esi, %r10d
	addl	28(%r9), %r10d
	movl	%r10d, 24(%r9)
	subl	28(%rdi), %eax
	movl	%eax, 28(%rdi)
	subl	28(%r9), %esi
	movl	%esi, 28(%r9)
# %bb.37:                               # %for.body278.11
                                        #   in Loop: Header=BB0_1 Depth=1
	movq	-184(%rbp), %rax        # 8-byte Reload
	imulq	$7, %rax, %rcx
	movq	-72(%rbp), %rdx         # 8-byte Reload
	cvttss2si	(%rdx,%rcx,4), %esi
	imulq	$7, %rax, %rcx
	movq	-80(%rbp), %rdi         # 8-byte Reload
	cvttss2si	(%rdi,%rcx,4), %r8d
	movq	-32(%rbp), %rcx         # 8-byte Reload
	movl	4(%rcx), %r9d
	movl	%esi, %r10d
	imull	4(%rcx), %r10d
	movl	%r8d, %r11d
	movq	-24(%rbp), %rbx         # 8-byte Reload
	imull	4(%rbx), %r11d
	subl	%r11d, %r10d
	movl	%r10d, 4(%rcx)
	imull	%r8d, %r9d
	imull	4(%rbx), %esi
	addl	%esi, %r9d
	movl	%r9d, 4(%rbx)
	imulq	$7, %rax, %r14
	cvttss2si	4(%rdx,%r14,4), %esi
	imulq	$7, %rax, %r14
	cvttss2si	4(%rdi,%r14,4), %r8d
	movl	8(%rcx), %r9d
	movl	%esi, %r10d
	imull	8(%rcx), %r10d
	movl	%r8d, %r11d
	imull	8(%rbx), %r11d
	subl	%r11d, %r10d
	movl	%r10d, 8(%rcx)
	imull	%r8d, %r9d
	imull	8(%rbx), %esi
	addl	%esi, %r9d
	movl	%r9d, 8(%rbx)
	imulq	$7, %rax, %r14
	cvttss2si	8(%rdx,%r14,4), %esi
	imulq	$7, %rax, %r14
	cvttss2si	8(%rdi,%r14,4), %r8d
	movl	12(%rcx), %r9d
	movl	%esi, %r10d
	imull	12(%rcx), %r10d
	movl	%r8d, %r11d
	imull	12(%rbx), %r11d
	subl	%r11d, %r10d
	movl	%r10d, 12(%rcx)
	imull	%r8d, %r9d
	imull	12(%rbx), %esi
	addl	%esi, %r9d
	movl	%r9d, 12(%rbx)
	imulq	$7, %rax, %r14
	cvttss2si	12(%rdx,%r14,4), %esi
	imulq	$7, %rax, %r14
	cvttss2si	12(%rdi,%r14,4), %r8d
	movl	16(%rcx), %r9d
	movl	%esi, %r10d
	imull	16(%rcx), %r10d
	movl	%r8d, %r11d
	imull	16(%rbx), %r11d
	subl	%r11d, %r10d
	movl	%r10d, 16(%rcx)
	imull	%r8d, %r9d
	imull	16(%rbx), %esi
	addl	%esi, %r9d
	movl	%r9d, 16(%rbx)
	imulq	$7, %rax, %r14
	cvttss2si	16(%rdx,%r14,4), %esi
	imulq	$7, %rax, %r14
	cvttss2si	16(%rdi,%r14,4), %r8d
	movl	20(%rcx), %r9d
	movl	%esi, %r10d
	imull	20(%rcx), %r10d
	movl	%r8d, %r11d
	imull	20(%rbx), %r11d
	subl	%r11d, %r10d
	movl	%r10d, 20(%rcx)
	imull	%r8d, %r9d
	imull	20(%rbx), %esi
	addl	%esi, %r9d
	movl	%r9d, 20(%rbx)
	imulq	$7, %rax, %r14
	cvttss2si	20(%rdx,%r14,4), %esi
	imulq	$7, %rax, %r14
	cvttss2si	20(%rdi,%r14,4), %r8d
	movl	24(%rcx), %r9d
	movl	%esi, %r10d
	imull	24(%rcx), %r10d
	movl	%r8d, %r11d
	imull	24(%rbx), %r11d
	subl	%r11d, %r10d
	movl	%r10d, 24(%rcx)
	imull	%r8d, %r9d
	imull	24(%rbx), %esi
	addl	%esi, %r9d
	movl	%r9d, 24(%rbx)
	imulq	$7, %rax, %r14
	cvttss2si	24(%rdx,%r14,4), %esi
	imulq	$7, %rax, %r14
	cvttss2si	24(%rdi,%r14,4), %r8d
	movl	28(%rcx), %r9d
	movl	%esi, %r10d
	imull	28(%rcx), %r10d
	movl	%r8d, %r11d
	imull	28(%rbx), %r11d
	subl	%r11d, %r10d
	movl	%r10d, 28(%rcx)
	imull	%r8d, %r9d
	imull	28(%rbx), %esi
	addl	%esi, %r9d
	movl	%r9d, 28(%rbx)
# %bb.38:                               # %for.body316.11
                                        #   in Loop: Header=BB0_1 Depth=1
	movq	-32(%rbp), %rax         # 8-byte Reload
	movl	(%rax), %ecx
	movq	-184(%rbp), %rdx        # 8-byte Reload
	shlq	$3, %rdx
	movq	-48(%rbp), %rsi         # 8-byte Reload
	movl	%ecx, (%rsi,%rdx,4)
	movq	-24(%rbp), %rdx         # 8-byte Reload
	movl	(%rdx), %ecx
	movq	-184(%rbp), %rdi        # 8-byte Reload
	shlq	$3, %rdi
	movq	-40(%rbp), %r8          # 8-byte Reload
	movl	%ecx, (%r8,%rdi,4)
	movl	4(%rax), %ecx
	movq	-184(%rbp), %rdi        # 8-byte Reload
	shlq	$3, %rdi
	movl	%ecx, 4(%rsi,%rdi,4)
	movl	4(%rdx), %ecx
	movq	-184(%rbp), %rdi        # 8-byte Reload
	shlq	$3, %rdi
	movl	%ecx, 4(%r8,%rdi,4)
	movl	8(%rax), %ecx
	movq	-184(%rbp), %rdi        # 8-byte Reload
	shlq	$3, %rdi
	movl	%ecx, 8(%rsi,%rdi,4)
	movl	8(%rdx), %ecx
	movq	-184(%rbp), %rdi        # 8-byte Reload
	shlq	$3, %rdi
	movl	%ecx, 8(%r8,%rdi,4)
	movl	12(%rax), %ecx
	movq	-184(%rbp), %rdi        # 8-byte Reload
	shlq	$3, %rdi
	movl	%ecx, 12(%rsi,%rdi,4)
	movl	12(%rdx), %ecx
	movq	-184(%rbp), %rdi        # 8-byte Reload
	shlq	$3, %rdi
	movl	%ecx, 12(%r8,%rdi,4)
	movl	16(%rax), %ecx
	movq	-184(%rbp), %rdi        # 8-byte Reload
	shlq	$3, %rdi
	movl	%ecx, 16(%rsi,%rdi,4)
	movl	16(%rdx), %ecx
	movq	-184(%rbp), %rdi        # 8-byte Reload
	shlq	$3, %rdi
	movl	%ecx, 16(%r8,%rdi,4)
	movl	20(%rax), %ecx
	movq	-184(%rbp), %rdi        # 8-byte Reload
	shlq	$3, %rdi
	movl	%ecx, 20(%rsi,%rdi,4)
	movl	20(%rdx), %ecx
	movq	-184(%rbp), %rdi        # 8-byte Reload
	shlq	$3, %rdi
	movl	%ecx, 20(%r8,%rdi,4)
	movl	24(%rax), %ecx
	movq	-184(%rbp), %rdi        # 8-byte Reload
	shlq	$3, %rdi
	movl	%ecx, 24(%rsi,%rdi,4)
	movl	24(%rdx), %ecx
	movq	-184(%rbp), %rdi        # 8-byte Reload
	shlq	$3, %rdi
	movl	%ecx, 24(%r8,%rdi,4)
	movl	28(%rax), %ecx
	movq	-184(%rbp), %rdi        # 8-byte Reload
	shlq	$3, %rdi
	movl	%ecx, 28(%rsi,%rdi,4)
	movl	28(%rdx), %ecx
	movq	-184(%rbp), %rdi        # 8-byte Reload
	shlq	$3, %rdi
	movl	%ecx, 28(%r8,%rdi,4)
	movq	-184(%rbp), %rdi        # 8-byte Reload
	addq	$1, %rdi
	movq	%rdi, -192(%rbp)        # 8-byte Spill
# %bb.39:                               # %for.body3.12
                                        #   in Loop: Header=BB0_1 Depth=1
	xorl	%eax, %eax
	movss	.LCPI0_0(%rip), %xmm0   # xmm0 = mem[0],zero,zero,zero
	movq	-64(%rbp), %rcx         # 8-byte Reload
	movq	-192(%rbp), %rdx        # 8-byte Reload
	movl	(%rcx,%rdx,4), %esi
	movq	-32(%rbp), %rdi         # 8-byte Reload
	movl	%esi, (%rdi)
	movq	-56(%rbp), %r8          # 8-byte Reload
	movl	(%r8,%rdx,4), %esi
	movq	-24(%rbp), %r9          # 8-byte Reload
	movl	%esi, (%r9)
	addq	$64, %rdx
	movl	(%rcx,%rdx,4), %esi
	movl	%esi, 4(%rdi)
	movq	-192(%rbp), %rdx        # 8-byte Reload
	addq	$64, %rdx
	movl	(%r8,%rdx,4), %esi
	movl	%esi, 4(%r9)
	movq	-192(%rbp), %rdx        # 8-byte Reload
	addq	$128, %rdx
	movl	(%rcx,%rdx,4), %esi
	movl	%esi, 8(%rdi)
	movq	-192(%rbp), %rdx        # 8-byte Reload
	addq	$128, %rdx
	movl	(%r8,%rdx,4), %esi
	movl	%esi, 8(%r9)
	movq	-192(%rbp), %rdx        # 8-byte Reload
	addq	$192, %rdx
	movl	(%rcx,%rdx,4), %esi
	movl	%esi, 12(%rdi)
	movq	-192(%rbp), %rdx        # 8-byte Reload
	addq	$192, %rdx
	movl	(%r8,%rdx,4), %esi
	movl	%esi, 12(%r9)
	movq	-192(%rbp), %rdx        # 8-byte Reload
	addq	$256, %rdx              # imm = 0x100
	movl	(%rcx,%rdx,4), %esi
	movl	%esi, 16(%rdi)
	movq	-192(%rbp), %rdx        # 8-byte Reload
	addq	$256, %rdx              # imm = 0x100
	movl	(%r8,%rdx,4), %esi
	movl	%esi, 16(%r9)
	movq	-192(%rbp), %rdx        # 8-byte Reload
	addq	$320, %rdx              # imm = 0x140
	movl	(%rcx,%rdx,4), %esi
	movl	%esi, 20(%rdi)
	movq	-192(%rbp), %rdx        # 8-byte Reload
	addq	$320, %rdx              # imm = 0x140
	movl	(%r8,%rdx,4), %esi
	movl	%esi, 20(%r9)
	movq	-192(%rbp), %rdx        # 8-byte Reload
	addq	$384, %rdx              # imm = 0x180
	movl	(%rcx,%rdx,4), %esi
	movl	%esi, 24(%rdi)
	movq	-192(%rbp), %rdx        # 8-byte Reload
	addq	$384, %rdx              # imm = 0x180
	movl	(%r8,%rdx,4), %esi
	movl	%esi, 24(%r9)
	movq	-192(%rbp), %rdx        # 8-byte Reload
	addq	$448, %rdx              # imm = 0x1C0
	movl	(%rcx,%rdx,4), %esi
	movl	%esi, 28(%rdi)
	movq	-192(%rbp), %rdx        # 8-byte Reload
	addq	$448, %rdx              # imm = 0x1C0
	movl	(%r8,%rdx,4), %esi
	movl	%esi, 28(%r9)
	movl	(%rdi), %esi
	movl	(%r9), %r10d
	movl	%esi, %r11d
	addl	16(%rdi), %r11d
	movl	%r11d, (%rdi)
	movl	%r10d, %r11d
	addl	16(%r9), %r11d
	movl	%r11d, (%r9)
	subl	16(%rdi), %esi
	movl	%esi, 16(%rdi)
	subl	16(%r9), %r10d
	movl	%r10d, 16(%r9)
	movl	4(%rdi), %esi
	movl	4(%r9), %r10d
	movl	%esi, %r11d
	addl	20(%rdi), %r11d
	movl	%r11d, 4(%rdi)
	movl	%r10d, %r11d
	addl	20(%r9), %r11d
	movl	%r11d, 4(%r9)
	subl	20(%rdi), %esi
	movl	%esi, 20(%rdi)
	subl	20(%r9), %r10d
	movl	%r10d, 20(%r9)
	movl	8(%rdi), %esi
	movl	8(%r9), %r10d
	movl	%esi, %r11d
	addl	24(%rdi), %r11d
	movl	%r11d, 8(%rdi)
	movl	%r10d, %r11d
	addl	24(%r9), %r11d
	movl	%r11d, 8(%r9)
	subl	24(%rdi), %esi
	movl	%esi, 24(%rdi)
	subl	24(%r9), %r10d
	movl	%r10d, 24(%r9)
	movl	12(%rdi), %esi
	movl	12(%r9), %r10d
	movl	%esi, %r11d
	addl	28(%rdi), %r11d
	movl	%r11d, 12(%rdi)
	movl	%r10d, %r11d
	addl	28(%r9), %r11d
	movl	%r11d, 12(%r9)
	subl	28(%rdi), %esi
	movl	%esi, 28(%rdi)
	subl	28(%r9), %r10d
	movl	%r10d, 28(%r9)
	movl	20(%rdi), %esi
	movl	%esi, %r10d
	addl	20(%r9), %r10d
	cvtsi2ss	%r10d, %xmm1
	mulss	%xmm0, %xmm1
	cvttss2si	%xmm1, %r10d
	movl	%r10d, 20(%rdi)
	movl	20(%r9), %r10d
	subl	%esi, %r10d
	cvtsi2ss	%r10d, %xmm1
	mulss	%xmm0, %xmm1
	cvttss2si	%xmm1, %esi
	movl	%esi, 20(%r9)
	movl	24(%rdi), %esi
	movl	24(%r9), %r10d
	movl	%r10d, 24(%rdi)
	movl	%eax, %r10d
	subl	%esi, %r10d
	movl	%r10d, 24(%r9)
	movl	28(%rdi), %esi
	movl	28(%r9), %r10d
	subl	%esi, %r10d
	cvtsi2ss	%r10d, %xmm1
	mulss	%xmm0, %xmm1
	cvttss2si	%xmm1, %r10d
	movl	%r10d, 28(%rdi)
	addl	28(%r9), %esi
	movl	%eax, %r10d
	subl	%esi, %r10d
	cvtsi2ss	%r10d, %xmm1
	mulss	%xmm0, %xmm1
	cvttss2si	%xmm1, %esi
	movl	%esi, 28(%r9)
	movl	(%rdi), %esi
	movl	(%r9), %r10d
	movl	%esi, %r11d
	addl	8(%rdi), %r11d
	movl	%r11d, (%rdi)
	movl	%r10d, %r11d
	addl	8(%r9), %r11d
	movl	%r11d, (%r9)
	subl	8(%rdi), %esi
	movl	%esi, 8(%rdi)
	subl	8(%r9), %r10d
	movl	%r10d, 8(%r9)
	movl	4(%rdi), %esi
	movl	4(%r9), %r10d
	movl	%esi, %r11d
	addl	12(%rdi), %r11d
	movl	%r11d, 4(%rdi)
	movl	%r10d, %r11d
	addl	12(%r9), %r11d
	movl	%r11d, 4(%r9)
	subl	12(%rdi), %esi
	movl	%esi, 12(%rdi)
	subl	12(%r9), %r10d
	movl	%r10d, 12(%r9)
	movl	12(%rdi), %esi
	movl	%r10d, 12(%rdi)
	movl	%eax, %r10d
	subl	%esi, %r10d
	movl	%r10d, 12(%r9)
	movl	(%rdi), %esi
	movl	(%r9), %r10d
	movl	%esi, %r11d
	addl	4(%rdi), %r11d
	movl	%r11d, (%rdi)
	movl	%r10d, %r11d
	addl	4(%r9), %r11d
	movl	%r11d, (%r9)
	subl	4(%rdi), %esi
	movl	%esi, 4(%rdi)
	subl	4(%r9), %r10d
	movl	%r10d, 4(%r9)
	movl	8(%rdi), %esi
	movl	8(%r9), %r10d
	movl	%esi, %r11d
	addl	12(%rdi), %r11d
	movl	%r11d, 8(%rdi)
	movl	%r10d, %r11d
	addl	12(%r9), %r11d
	movl	%r11d, 8(%r9)
	subl	12(%rdi), %esi
	movl	%esi, 12(%rdi)
	subl	12(%r9), %r10d
	movl	%r10d, 12(%r9)
	movl	16(%rdi), %esi
	movl	16(%r9), %r10d
	movl	%esi, %r11d
	addl	24(%rdi), %r11d
	movl	%r11d, 16(%rdi)
	movl	%r10d, %r11d
	addl	24(%r9), %r11d
	movl	%r11d, 16(%r9)
	subl	24(%rdi), %esi
	movl	%esi, 24(%rdi)
	subl	24(%r9), %r10d
	movl	%r10d, 24(%r9)
	movl	20(%rdi), %esi
	movl	20(%r9), %r10d
	movl	%esi, %r11d
	addl	28(%rdi), %r11d
	movl	%r11d, 20(%rdi)
	movl	%r10d, %r11d
	addl	28(%r9), %r11d
	movl	%r11d, 20(%r9)
	subl	28(%rdi), %esi
	movl	%esi, 28(%rdi)
	subl	28(%r9), %r10d
	movl	%r10d, 28(%r9)
	movl	28(%rdi), %esi
	movl	%r10d, 28(%rdi)
	subl	%esi, %eax
	movl	%eax, 28(%r9)
	movl	16(%rdi), %eax
	movl	16(%r9), %esi
	movl	%eax, %r10d
	addl	20(%rdi), %r10d
	movl	%r10d, 16(%rdi)
	movl	%esi, %r10d
	addl	20(%r9), %r10d
	movl	%r10d, 16(%r9)
	subl	20(%rdi), %eax
	movl	%eax, 20(%rdi)
	subl	20(%r9), %esi
	movl	%esi, 20(%r9)
	movl	24(%rdi), %eax
	movl	24(%r9), %esi
	movl	%eax, %r10d
	addl	28(%rdi), %r10d
	movl	%r10d, 24(%rdi)
	movl	%esi, %r10d
	addl	28(%r9), %r10d
	movl	%r10d, 24(%r9)
	subl	28(%rdi), %eax
	movl	%eax, 28(%rdi)
	subl	28(%r9), %esi
	movl	%esi, 28(%r9)
# %bb.40:                               # %for.body278.12
                                        #   in Loop: Header=BB0_1 Depth=1
	movq	-192(%rbp), %rax        # 8-byte Reload
	imulq	$7, %rax, %rcx
	movq	-72(%rbp), %rdx         # 8-byte Reload
	cvttss2si	(%rdx,%rcx,4), %esi
	imulq	$7, %rax, %rcx
	movq	-80(%rbp), %rdi         # 8-byte Reload
	cvttss2si	(%rdi,%rcx,4), %r8d
	movq	-32(%rbp), %rcx         # 8-byte Reload
	movl	4(%rcx), %r9d
	movl	%esi, %r10d
	imull	4(%rcx), %r10d
	movl	%r8d, %r11d
	movq	-24(%rbp), %rbx         # 8-byte Reload
	imull	4(%rbx), %r11d
	subl	%r11d, %r10d
	movl	%r10d, 4(%rcx)
	imull	%r8d, %r9d
	imull	4(%rbx), %esi
	addl	%esi, %r9d
	movl	%r9d, 4(%rbx)
	imulq	$7, %rax, %r14
	cvttss2si	4(%rdx,%r14,4), %esi
	imulq	$7, %rax, %r14
	cvttss2si	4(%rdi,%r14,4), %r8d
	movl	8(%rcx), %r9d
	movl	%esi, %r10d
	imull	8(%rcx), %r10d
	movl	%r8d, %r11d
	imull	8(%rbx), %r11d
	subl	%r11d, %r10d
	movl	%r10d, 8(%rcx)
	imull	%r8d, %r9d
	imull	8(%rbx), %esi
	addl	%esi, %r9d
	movl	%r9d, 8(%rbx)
	imulq	$7, %rax, %r14
	cvttss2si	8(%rdx,%r14,4), %esi
	imulq	$7, %rax, %r14
	cvttss2si	8(%rdi,%r14,4), %r8d
	movl	12(%rcx), %r9d
	movl	%esi, %r10d
	imull	12(%rcx), %r10d
	movl	%r8d, %r11d
	imull	12(%rbx), %r11d
	subl	%r11d, %r10d
	movl	%r10d, 12(%rcx)
	imull	%r8d, %r9d
	imull	12(%rbx), %esi
	addl	%esi, %r9d
	movl	%r9d, 12(%rbx)
	imulq	$7, %rax, %r14
	cvttss2si	12(%rdx,%r14,4), %esi
	imulq	$7, %rax, %r14
	cvttss2si	12(%rdi,%r14,4), %r8d
	movl	16(%rcx), %r9d
	movl	%esi, %r10d
	imull	16(%rcx), %r10d
	movl	%r8d, %r11d
	imull	16(%rbx), %r11d
	subl	%r11d, %r10d
	movl	%r10d, 16(%rcx)
	imull	%r8d, %r9d
	imull	16(%rbx), %esi
	addl	%esi, %r9d
	movl	%r9d, 16(%rbx)
	imulq	$7, %rax, %r14
	cvttss2si	16(%rdx,%r14,4), %esi
	imulq	$7, %rax, %r14
	cvttss2si	16(%rdi,%r14,4), %r8d
	movl	20(%rcx), %r9d
	movl	%esi, %r10d
	imull	20(%rcx), %r10d
	movl	%r8d, %r11d
	imull	20(%rbx), %r11d
	subl	%r11d, %r10d
	movl	%r10d, 20(%rcx)
	imull	%r8d, %r9d
	imull	20(%rbx), %esi
	addl	%esi, %r9d
	movl	%r9d, 20(%rbx)
	imulq	$7, %rax, %r14
	cvttss2si	20(%rdx,%r14,4), %esi
	imulq	$7, %rax, %r14
	cvttss2si	20(%rdi,%r14,4), %r8d
	movl	24(%rcx), %r9d
	movl	%esi, %r10d
	imull	24(%rcx), %r10d
	movl	%r8d, %r11d
	imull	24(%rbx), %r11d
	subl	%r11d, %r10d
	movl	%r10d, 24(%rcx)
	imull	%r8d, %r9d
	imull	24(%rbx), %esi
	addl	%esi, %r9d
	movl	%r9d, 24(%rbx)
	imulq	$7, %rax, %r14
	cvttss2si	24(%rdx,%r14,4), %esi
	imulq	$7, %rax, %r14
	cvttss2si	24(%rdi,%r14,4), %r8d
	movl	28(%rcx), %r9d
	movl	%esi, %r10d
	imull	28(%rcx), %r10d
	movl	%r8d, %r11d
	imull	28(%rbx), %r11d
	subl	%r11d, %r10d
	movl	%r10d, 28(%rcx)
	imull	%r8d, %r9d
	imull	28(%rbx), %esi
	addl	%esi, %r9d
	movl	%r9d, 28(%rbx)
# %bb.41:                               # %for.body316.12
                                        #   in Loop: Header=BB0_1 Depth=1
	movq	-32(%rbp), %rax         # 8-byte Reload
	movl	(%rax), %ecx
	movq	-192(%rbp), %rdx        # 8-byte Reload
	shlq	$3, %rdx
	movq	-48(%rbp), %rsi         # 8-byte Reload
	movl	%ecx, (%rsi,%rdx,4)
	movq	-24(%rbp), %rdx         # 8-byte Reload
	movl	(%rdx), %ecx
	movq	-192(%rbp), %rdi        # 8-byte Reload
	shlq	$3, %rdi
	movq	-40(%rbp), %r8          # 8-byte Reload
	movl	%ecx, (%r8,%rdi,4)
	movl	4(%rax), %ecx
	movq	-192(%rbp), %rdi        # 8-byte Reload
	shlq	$3, %rdi
	movl	%ecx, 4(%rsi,%rdi,4)
	movl	4(%rdx), %ecx
	movq	-192(%rbp), %rdi        # 8-byte Reload
	shlq	$3, %rdi
	movl	%ecx, 4(%r8,%rdi,4)
	movl	8(%rax), %ecx
	movq	-192(%rbp), %rdi        # 8-byte Reload
	shlq	$3, %rdi
	movl	%ecx, 8(%rsi,%rdi,4)
	movl	8(%rdx), %ecx
	movq	-192(%rbp), %rdi        # 8-byte Reload
	shlq	$3, %rdi
	movl	%ecx, 8(%r8,%rdi,4)
	movl	12(%rax), %ecx
	movq	-192(%rbp), %rdi        # 8-byte Reload
	shlq	$3, %rdi
	movl	%ecx, 12(%rsi,%rdi,4)
	movl	12(%rdx), %ecx
	movq	-192(%rbp), %rdi        # 8-byte Reload
	shlq	$3, %rdi
	movl	%ecx, 12(%r8,%rdi,4)
	movl	16(%rax), %ecx
	movq	-192(%rbp), %rdi        # 8-byte Reload
	shlq	$3, %rdi
	movl	%ecx, 16(%rsi,%rdi,4)
	movl	16(%rdx), %ecx
	movq	-192(%rbp), %rdi        # 8-byte Reload
	shlq	$3, %rdi
	movl	%ecx, 16(%r8,%rdi,4)
	movl	20(%rax), %ecx
	movq	-192(%rbp), %rdi        # 8-byte Reload
	shlq	$3, %rdi
	movl	%ecx, 20(%rsi,%rdi,4)
	movl	20(%rdx), %ecx
	movq	-192(%rbp), %rdi        # 8-byte Reload
	shlq	$3, %rdi
	movl	%ecx, 20(%r8,%rdi,4)
	movl	24(%rax), %ecx
	movq	-192(%rbp), %rdi        # 8-byte Reload
	shlq	$3, %rdi
	movl	%ecx, 24(%rsi,%rdi,4)
	movl	24(%rdx), %ecx
	movq	-192(%rbp), %rdi        # 8-byte Reload
	shlq	$3, %rdi
	movl	%ecx, 24(%r8,%rdi,4)
	movl	28(%rax), %ecx
	movq	-192(%rbp), %rdi        # 8-byte Reload
	shlq	$3, %rdi
	movl	%ecx, 28(%rsi,%rdi,4)
	movl	28(%rdx), %ecx
	movq	-192(%rbp), %rdi        # 8-byte Reload
	shlq	$3, %rdi
	movl	%ecx, 28(%r8,%rdi,4)
	movq	-192(%rbp), %rdi        # 8-byte Reload
	addq	$1, %rdi
	movq	%rdi, -200(%rbp)        # 8-byte Spill
# %bb.42:                               # %for.body3.13
                                        #   in Loop: Header=BB0_1 Depth=1
	xorl	%eax, %eax
	movss	.LCPI0_0(%rip), %xmm0   # xmm0 = mem[0],zero,zero,zero
	movq	-64(%rbp), %rcx         # 8-byte Reload
	movq	-200(%rbp), %rdx        # 8-byte Reload
	movl	(%rcx,%rdx,4), %esi
	movq	-32(%rbp), %rdi         # 8-byte Reload
	movl	%esi, (%rdi)
	movq	-56(%rbp), %r8          # 8-byte Reload
	movl	(%r8,%rdx,4), %esi
	movq	-24(%rbp), %r9          # 8-byte Reload
	movl	%esi, (%r9)
	addq	$64, %rdx
	movl	(%rcx,%rdx,4), %esi
	movl	%esi, 4(%rdi)
	movq	-200(%rbp), %rdx        # 8-byte Reload
	addq	$64, %rdx
	movl	(%r8,%rdx,4), %esi
	movl	%esi, 4(%r9)
	movq	-200(%rbp), %rdx        # 8-byte Reload
	addq	$128, %rdx
	movl	(%rcx,%rdx,4), %esi
	movl	%esi, 8(%rdi)
	movq	-200(%rbp), %rdx        # 8-byte Reload
	addq	$128, %rdx
	movl	(%r8,%rdx,4), %esi
	movl	%esi, 8(%r9)
	movq	-200(%rbp), %rdx        # 8-byte Reload
	addq	$192, %rdx
	movl	(%rcx,%rdx,4), %esi
	movl	%esi, 12(%rdi)
	movq	-200(%rbp), %rdx        # 8-byte Reload
	addq	$192, %rdx
	movl	(%r8,%rdx,4), %esi
	movl	%esi, 12(%r9)
	movq	-200(%rbp), %rdx        # 8-byte Reload
	addq	$256, %rdx              # imm = 0x100
	movl	(%rcx,%rdx,4), %esi
	movl	%esi, 16(%rdi)
	movq	-200(%rbp), %rdx        # 8-byte Reload
	addq	$256, %rdx              # imm = 0x100
	movl	(%r8,%rdx,4), %esi
	movl	%esi, 16(%r9)
	movq	-200(%rbp), %rdx        # 8-byte Reload
	addq	$320, %rdx              # imm = 0x140
	movl	(%rcx,%rdx,4), %esi
	movl	%esi, 20(%rdi)
	movq	-200(%rbp), %rdx        # 8-byte Reload
	addq	$320, %rdx              # imm = 0x140
	movl	(%r8,%rdx,4), %esi
	movl	%esi, 20(%r9)
	movq	-200(%rbp), %rdx        # 8-byte Reload
	addq	$384, %rdx              # imm = 0x180
	movl	(%rcx,%rdx,4), %esi
	movl	%esi, 24(%rdi)
	movq	-200(%rbp), %rdx        # 8-byte Reload
	addq	$384, %rdx              # imm = 0x180
	movl	(%r8,%rdx,4), %esi
	movl	%esi, 24(%r9)
	movq	-200(%rbp), %rdx        # 8-byte Reload
	addq	$448, %rdx              # imm = 0x1C0
	movl	(%rcx,%rdx,4), %esi
	movl	%esi, 28(%rdi)
	movq	-200(%rbp), %rdx        # 8-byte Reload
	addq	$448, %rdx              # imm = 0x1C0
	movl	(%r8,%rdx,4), %esi
	movl	%esi, 28(%r9)
	movl	(%rdi), %esi
	movl	(%r9), %r10d
	movl	%esi, %r11d
	addl	16(%rdi), %r11d
	movl	%r11d, (%rdi)
	movl	%r10d, %r11d
	addl	16(%r9), %r11d
	movl	%r11d, (%r9)
	subl	16(%rdi), %esi
	movl	%esi, 16(%rdi)
	subl	16(%r9), %r10d
	movl	%r10d, 16(%r9)
	movl	4(%rdi), %esi
	movl	4(%r9), %r10d
	movl	%esi, %r11d
	addl	20(%rdi), %r11d
	movl	%r11d, 4(%rdi)
	movl	%r10d, %r11d
	addl	20(%r9), %r11d
	movl	%r11d, 4(%r9)
	subl	20(%rdi), %esi
	movl	%esi, 20(%rdi)
	subl	20(%r9), %r10d
	movl	%r10d, 20(%r9)
	movl	8(%rdi), %esi
	movl	8(%r9), %r10d
	movl	%esi, %r11d
	addl	24(%rdi), %r11d
	movl	%r11d, 8(%rdi)
	movl	%r10d, %r11d
	addl	24(%r9), %r11d
	movl	%r11d, 8(%r9)
	subl	24(%rdi), %esi
	movl	%esi, 24(%rdi)
	subl	24(%r9), %r10d
	movl	%r10d, 24(%r9)
	movl	12(%rdi), %esi
	movl	12(%r9), %r10d
	movl	%esi, %r11d
	addl	28(%rdi), %r11d
	movl	%r11d, 12(%rdi)
	movl	%r10d, %r11d
	addl	28(%r9), %r11d
	movl	%r11d, 12(%r9)
	subl	28(%rdi), %esi
	movl	%esi, 28(%rdi)
	subl	28(%r9), %r10d
	movl	%r10d, 28(%r9)
	movl	20(%rdi), %esi
	movl	%esi, %r10d
	addl	20(%r9), %r10d
	cvtsi2ss	%r10d, %xmm1
	mulss	%xmm0, %xmm1
	cvttss2si	%xmm1, %r10d
	movl	%r10d, 20(%rdi)
	movl	20(%r9), %r10d
	subl	%esi, %r10d
	cvtsi2ss	%r10d, %xmm1
	mulss	%xmm0, %xmm1
	cvttss2si	%xmm1, %esi
	movl	%esi, 20(%r9)
	movl	24(%rdi), %esi
	movl	24(%r9), %r10d
	movl	%r10d, 24(%rdi)
	movl	%eax, %r10d
	subl	%esi, %r10d
	movl	%r10d, 24(%r9)
	movl	28(%rdi), %esi
	movl	28(%r9), %r10d
	subl	%esi, %r10d
	cvtsi2ss	%r10d, %xmm1
	mulss	%xmm0, %xmm1
	cvttss2si	%xmm1, %r10d
	movl	%r10d, 28(%rdi)
	addl	28(%r9), %esi
	movl	%eax, %r10d
	subl	%esi, %r10d
	cvtsi2ss	%r10d, %xmm1
	mulss	%xmm0, %xmm1
	cvttss2si	%xmm1, %esi
	movl	%esi, 28(%r9)
	movl	(%rdi), %esi
	movl	(%r9), %r10d
	movl	%esi, %r11d
	addl	8(%rdi), %r11d
	movl	%r11d, (%rdi)
	movl	%r10d, %r11d
	addl	8(%r9), %r11d
	movl	%r11d, (%r9)
	subl	8(%rdi), %esi
	movl	%esi, 8(%rdi)
	subl	8(%r9), %r10d
	movl	%r10d, 8(%r9)
	movl	4(%rdi), %esi
	movl	4(%r9), %r10d
	movl	%esi, %r11d
	addl	12(%rdi), %r11d
	movl	%r11d, 4(%rdi)
	movl	%r10d, %r11d
	addl	12(%r9), %r11d
	movl	%r11d, 4(%r9)
	subl	12(%rdi), %esi
	movl	%esi, 12(%rdi)
	subl	12(%r9), %r10d
	movl	%r10d, 12(%r9)
	movl	12(%rdi), %esi
	movl	%r10d, 12(%rdi)
	movl	%eax, %r10d
	subl	%esi, %r10d
	movl	%r10d, 12(%r9)
	movl	(%rdi), %esi
	movl	(%r9), %r10d
	movl	%esi, %r11d
	addl	4(%rdi), %r11d
	movl	%r11d, (%rdi)
	movl	%r10d, %r11d
	addl	4(%r9), %r11d
	movl	%r11d, (%r9)
	subl	4(%rdi), %esi
	movl	%esi, 4(%rdi)
	subl	4(%r9), %r10d
	movl	%r10d, 4(%r9)
	movl	8(%rdi), %esi
	movl	8(%r9), %r10d
	movl	%esi, %r11d
	addl	12(%rdi), %r11d
	movl	%r11d, 8(%rdi)
	movl	%r10d, %r11d
	addl	12(%r9), %r11d
	movl	%r11d, 8(%r9)
	subl	12(%rdi), %esi
	movl	%esi, 12(%rdi)
	subl	12(%r9), %r10d
	movl	%r10d, 12(%r9)
	movl	16(%rdi), %esi
	movl	16(%r9), %r10d
	movl	%esi, %r11d
	addl	24(%rdi), %r11d
	movl	%r11d, 16(%rdi)
	movl	%r10d, %r11d
	addl	24(%r9), %r11d
	movl	%r11d, 16(%r9)
	subl	24(%rdi), %esi
	movl	%esi, 24(%rdi)
	subl	24(%r9), %r10d
	movl	%r10d, 24(%r9)
	movl	20(%rdi), %esi
	movl	20(%r9), %r10d
	movl	%esi, %r11d
	addl	28(%rdi), %r11d
	movl	%r11d, 20(%rdi)
	movl	%r10d, %r11d
	addl	28(%r9), %r11d
	movl	%r11d, 20(%r9)
	subl	28(%rdi), %esi
	movl	%esi, 28(%rdi)
	subl	28(%r9), %r10d
	movl	%r10d, 28(%r9)
	movl	28(%rdi), %esi
	movl	%r10d, 28(%rdi)
	subl	%esi, %eax
	movl	%eax, 28(%r9)
	movl	16(%rdi), %eax
	movl	16(%r9), %esi
	movl	%eax, %r10d
	addl	20(%rdi), %r10d
	movl	%r10d, 16(%rdi)
	movl	%esi, %r10d
	addl	20(%r9), %r10d
	movl	%r10d, 16(%r9)
	subl	20(%rdi), %eax
	movl	%eax, 20(%rdi)
	subl	20(%r9), %esi
	movl	%esi, 20(%r9)
	movl	24(%rdi), %eax
	movl	24(%r9), %esi
	movl	%eax, %r10d
	addl	28(%rdi), %r10d
	movl	%r10d, 24(%rdi)
	movl	%esi, %r10d
	addl	28(%r9), %r10d
	movl	%r10d, 24(%r9)
	subl	28(%rdi), %eax
	movl	%eax, 28(%rdi)
	subl	28(%r9), %esi
	movl	%esi, 28(%r9)
# %bb.43:                               # %for.body278.13
                                        #   in Loop: Header=BB0_1 Depth=1
	movq	-200(%rbp), %rax        # 8-byte Reload
	imulq	$7, %rax, %rcx
	movq	-72(%rbp), %rdx         # 8-byte Reload
	cvttss2si	(%rdx,%rcx,4), %esi
	imulq	$7, %rax, %rcx
	movq	-80(%rbp), %rdi         # 8-byte Reload
	cvttss2si	(%rdi,%rcx,4), %r8d
	movq	-32(%rbp), %rcx         # 8-byte Reload
	movl	4(%rcx), %r9d
	movl	%esi, %r10d
	imull	4(%rcx), %r10d
	movl	%r8d, %r11d
	movq	-24(%rbp), %rbx         # 8-byte Reload
	imull	4(%rbx), %r11d
	subl	%r11d, %r10d
	movl	%r10d, 4(%rcx)
	imull	%r8d, %r9d
	imull	4(%rbx), %esi
	addl	%esi, %r9d
	movl	%r9d, 4(%rbx)
	imulq	$7, %rax, %r14
	cvttss2si	4(%rdx,%r14,4), %esi
	imulq	$7, %rax, %r14
	cvttss2si	4(%rdi,%r14,4), %r8d
	movl	8(%rcx), %r9d
	movl	%esi, %r10d
	imull	8(%rcx), %r10d
	movl	%r8d, %r11d
	imull	8(%rbx), %r11d
	subl	%r11d, %r10d
	movl	%r10d, 8(%rcx)
	imull	%r8d, %r9d
	imull	8(%rbx), %esi
	addl	%esi, %r9d
	movl	%r9d, 8(%rbx)
	imulq	$7, %rax, %r14
	cvttss2si	8(%rdx,%r14,4), %esi
	imulq	$7, %rax, %r14
	cvttss2si	8(%rdi,%r14,4), %r8d
	movl	12(%rcx), %r9d
	movl	%esi, %r10d
	imull	12(%rcx), %r10d
	movl	%r8d, %r11d
	imull	12(%rbx), %r11d
	subl	%r11d, %r10d
	movl	%r10d, 12(%rcx)
	imull	%r8d, %r9d
	imull	12(%rbx), %esi
	addl	%esi, %r9d
	movl	%r9d, 12(%rbx)
	imulq	$7, %rax, %r14
	cvttss2si	12(%rdx,%r14,4), %esi
	imulq	$7, %rax, %r14
	cvttss2si	12(%rdi,%r14,4), %r8d
	movl	16(%rcx), %r9d
	movl	%esi, %r10d
	imull	16(%rcx), %r10d
	movl	%r8d, %r11d
	imull	16(%rbx), %r11d
	subl	%r11d, %r10d
	movl	%r10d, 16(%rcx)
	imull	%r8d, %r9d
	imull	16(%rbx), %esi
	addl	%esi, %r9d
	movl	%r9d, 16(%rbx)
	imulq	$7, %rax, %r14
	cvttss2si	16(%rdx,%r14,4), %esi
	imulq	$7, %rax, %r14
	cvttss2si	16(%rdi,%r14,4), %r8d
	movl	20(%rcx), %r9d
	movl	%esi, %r10d
	imull	20(%rcx), %r10d
	movl	%r8d, %r11d
	imull	20(%rbx), %r11d
	subl	%r11d, %r10d
	movl	%r10d, 20(%rcx)
	imull	%r8d, %r9d
	imull	20(%rbx), %esi
	addl	%esi, %r9d
	movl	%r9d, 20(%rbx)
	imulq	$7, %rax, %r14
	cvttss2si	20(%rdx,%r14,4), %esi
	imulq	$7, %rax, %r14
	cvttss2si	20(%rdi,%r14,4), %r8d
	movl	24(%rcx), %r9d
	movl	%esi, %r10d
	imull	24(%rcx), %r10d
	movl	%r8d, %r11d
	imull	24(%rbx), %r11d
	subl	%r11d, %r10d
	movl	%r10d, 24(%rcx)
	imull	%r8d, %r9d
	imull	24(%rbx), %esi
	addl	%esi, %r9d
	movl	%r9d, 24(%rbx)
	imulq	$7, %rax, %r14
	cvttss2si	24(%rdx,%r14,4), %esi
	imulq	$7, %rax, %r14
	cvttss2si	24(%rdi,%r14,4), %r8d
	movl	28(%rcx), %r9d
	movl	%esi, %r10d
	imull	28(%rcx), %r10d
	movl	%r8d, %r11d
	imull	28(%rbx), %r11d
	subl	%r11d, %r10d
	movl	%r10d, 28(%rcx)
	imull	%r8d, %r9d
	imull	28(%rbx), %esi
	addl	%esi, %r9d
	movl	%r9d, 28(%rbx)
# %bb.44:                               # %for.body316.13
                                        #   in Loop: Header=BB0_1 Depth=1
	movq	-32(%rbp), %rax         # 8-byte Reload
	movl	(%rax), %ecx
	movq	-200(%rbp), %rdx        # 8-byte Reload
	shlq	$3, %rdx
	movq	-48(%rbp), %rsi         # 8-byte Reload
	movl	%ecx, (%rsi,%rdx,4)
	movq	-24(%rbp), %rdx         # 8-byte Reload
	movl	(%rdx), %ecx
	movq	-200(%rbp), %rdi        # 8-byte Reload
	shlq	$3, %rdi
	movq	-40(%rbp), %r8          # 8-byte Reload
	movl	%ecx, (%r8,%rdi,4)
	movl	4(%rax), %ecx
	movq	-200(%rbp), %rdi        # 8-byte Reload
	shlq	$3, %rdi
	movl	%ecx, 4(%rsi,%rdi,4)
	movl	4(%rdx), %ecx
	movq	-200(%rbp), %rdi        # 8-byte Reload
	shlq	$3, %rdi
	movl	%ecx, 4(%r8,%rdi,4)
	movl	8(%rax), %ecx
	movq	-200(%rbp), %rdi        # 8-byte Reload
	shlq	$3, %rdi
	movl	%ecx, 8(%rsi,%rdi,4)
	movl	8(%rdx), %ecx
	movq	-200(%rbp), %rdi        # 8-byte Reload
	shlq	$3, %rdi
	movl	%ecx, 8(%r8,%rdi,4)
	movl	12(%rax), %ecx
	movq	-200(%rbp), %rdi        # 8-byte Reload
	shlq	$3, %rdi
	movl	%ecx, 12(%rsi,%rdi,4)
	movl	12(%rdx), %ecx
	movq	-200(%rbp), %rdi        # 8-byte Reload
	shlq	$3, %rdi
	movl	%ecx, 12(%r8,%rdi,4)
	movl	16(%rax), %ecx
	movq	-200(%rbp), %rdi        # 8-byte Reload
	shlq	$3, %rdi
	movl	%ecx, 16(%rsi,%rdi,4)
	movl	16(%rdx), %ecx
	movq	-200(%rbp), %rdi        # 8-byte Reload
	shlq	$3, %rdi
	movl	%ecx, 16(%r8,%rdi,4)
	movl	20(%rax), %ecx
	movq	-200(%rbp), %rdi        # 8-byte Reload
	shlq	$3, %rdi
	movl	%ecx, 20(%rsi,%rdi,4)
	movl	20(%rdx), %ecx
	movq	-200(%rbp), %rdi        # 8-byte Reload
	shlq	$3, %rdi
	movl	%ecx, 20(%r8,%rdi,4)
	movl	24(%rax), %ecx
	movq	-200(%rbp), %rdi        # 8-byte Reload
	shlq	$3, %rdi
	movl	%ecx, 24(%rsi,%rdi,4)
	movl	24(%rdx), %ecx
	movq	-200(%rbp), %rdi        # 8-byte Reload
	shlq	$3, %rdi
	movl	%ecx, 24(%r8,%rdi,4)
	movl	28(%rax), %ecx
	movq	-200(%rbp), %rdi        # 8-byte Reload
	shlq	$3, %rdi
	movl	%ecx, 28(%rsi,%rdi,4)
	movl	28(%rdx), %ecx
	movq	-200(%rbp), %rdi        # 8-byte Reload
	shlq	$3, %rdi
	movl	%ecx, 28(%r8,%rdi,4)
	movq	-200(%rbp), %rdi        # 8-byte Reload
	addq	$1, %rdi
	movq	%rdi, -208(%rbp)        # 8-byte Spill
# %bb.45:                               # %for.body3.14
                                        #   in Loop: Header=BB0_1 Depth=1
	xorl	%eax, %eax
	movss	.LCPI0_0(%rip), %xmm0   # xmm0 = mem[0],zero,zero,zero
	movq	-64(%rbp), %rcx         # 8-byte Reload
	movq	-208(%rbp), %rdx        # 8-byte Reload
	movl	(%rcx,%rdx,4), %esi
	movq	-32(%rbp), %rdi         # 8-byte Reload
	movl	%esi, (%rdi)
	movq	-56(%rbp), %r8          # 8-byte Reload
	movl	(%r8,%rdx,4), %esi
	movq	-24(%rbp), %r9          # 8-byte Reload
	movl	%esi, (%r9)
	addq	$64, %rdx
	movl	(%rcx,%rdx,4), %esi
	movl	%esi, 4(%rdi)
	movq	-208(%rbp), %rdx        # 8-byte Reload
	addq	$64, %rdx
	movl	(%r8,%rdx,4), %esi
	movl	%esi, 4(%r9)
	movq	-208(%rbp), %rdx        # 8-byte Reload
	addq	$128, %rdx
	movl	(%rcx,%rdx,4), %esi
	movl	%esi, 8(%rdi)
	movq	-208(%rbp), %rdx        # 8-byte Reload
	addq	$128, %rdx
	movl	(%r8,%rdx,4), %esi
	movl	%esi, 8(%r9)
	movq	-208(%rbp), %rdx        # 8-byte Reload
	addq	$192, %rdx
	movl	(%rcx,%rdx,4), %esi
	movl	%esi, 12(%rdi)
	movq	-208(%rbp), %rdx        # 8-byte Reload
	addq	$192, %rdx
	movl	(%r8,%rdx,4), %esi
	movl	%esi, 12(%r9)
	movq	-208(%rbp), %rdx        # 8-byte Reload
	addq	$256, %rdx              # imm = 0x100
	movl	(%rcx,%rdx,4), %esi
	movl	%esi, 16(%rdi)
	movq	-208(%rbp), %rdx        # 8-byte Reload
	addq	$256, %rdx              # imm = 0x100
	movl	(%r8,%rdx,4), %esi
	movl	%esi, 16(%r9)
	movq	-208(%rbp), %rdx        # 8-byte Reload
	addq	$320, %rdx              # imm = 0x140
	movl	(%rcx,%rdx,4), %esi
	movl	%esi, 20(%rdi)
	movq	-208(%rbp), %rdx        # 8-byte Reload
	addq	$320, %rdx              # imm = 0x140
	movl	(%r8,%rdx,4), %esi
	movl	%esi, 20(%r9)
	movq	-208(%rbp), %rdx        # 8-byte Reload
	addq	$384, %rdx              # imm = 0x180
	movl	(%rcx,%rdx,4), %esi
	movl	%esi, 24(%rdi)
	movq	-208(%rbp), %rdx        # 8-byte Reload
	addq	$384, %rdx              # imm = 0x180
	movl	(%r8,%rdx,4), %esi
	movl	%esi, 24(%r9)
	movq	-208(%rbp), %rdx        # 8-byte Reload
	addq	$448, %rdx              # imm = 0x1C0
	movl	(%rcx,%rdx,4), %esi
	movl	%esi, 28(%rdi)
	movq	-208(%rbp), %rdx        # 8-byte Reload
	addq	$448, %rdx              # imm = 0x1C0
	movl	(%r8,%rdx,4), %esi
	movl	%esi, 28(%r9)
	movl	(%rdi), %esi
	movl	(%r9), %r10d
	movl	%esi, %r11d
	addl	16(%rdi), %r11d
	movl	%r11d, (%rdi)
	movl	%r10d, %r11d
	addl	16(%r9), %r11d
	movl	%r11d, (%r9)
	subl	16(%rdi), %esi
	movl	%esi, 16(%rdi)
	subl	16(%r9), %r10d
	movl	%r10d, 16(%r9)
	movl	4(%rdi), %esi
	movl	4(%r9), %r10d
	movl	%esi, %r11d
	addl	20(%rdi), %r11d
	movl	%r11d, 4(%rdi)
	movl	%r10d, %r11d
	addl	20(%r9), %r11d
	movl	%r11d, 4(%r9)
	subl	20(%rdi), %esi
	movl	%esi, 20(%rdi)
	subl	20(%r9), %r10d
	movl	%r10d, 20(%r9)
	movl	8(%rdi), %esi
	movl	8(%r9), %r10d
	movl	%esi, %r11d
	addl	24(%rdi), %r11d
	movl	%r11d, 8(%rdi)
	movl	%r10d, %r11d
	addl	24(%r9), %r11d
	movl	%r11d, 8(%r9)
	subl	24(%rdi), %esi
	movl	%esi, 24(%rdi)
	subl	24(%r9), %r10d
	movl	%r10d, 24(%r9)
	movl	12(%rdi), %esi
	movl	12(%r9), %r10d
	movl	%esi, %r11d
	addl	28(%rdi), %r11d
	movl	%r11d, 12(%rdi)
	movl	%r10d, %r11d
	addl	28(%r9), %r11d
	movl	%r11d, 12(%r9)
	subl	28(%rdi), %esi
	movl	%esi, 28(%rdi)
	subl	28(%r9), %r10d
	movl	%r10d, 28(%r9)
	movl	20(%rdi), %esi
	movl	%esi, %r10d
	addl	20(%r9), %r10d
	cvtsi2ss	%r10d, %xmm1
	mulss	%xmm0, %xmm1
	cvttss2si	%xmm1, %r10d
	movl	%r10d, 20(%rdi)
	movl	20(%r9), %r10d
	subl	%esi, %r10d
	cvtsi2ss	%r10d, %xmm1
	mulss	%xmm0, %xmm1
	cvttss2si	%xmm1, %esi
	movl	%esi, 20(%r9)
	movl	24(%rdi), %esi
	movl	24(%r9), %r10d
	movl	%r10d, 24(%rdi)
	movl	%eax, %r10d
	subl	%esi, %r10d
	movl	%r10d, 24(%r9)
	movl	28(%rdi), %esi
	movl	28(%r9), %r10d
	subl	%esi, %r10d
	cvtsi2ss	%r10d, %xmm1
	mulss	%xmm0, %xmm1
	cvttss2si	%xmm1, %r10d
	movl	%r10d, 28(%rdi)
	addl	28(%r9), %esi
	movl	%eax, %r10d
	subl	%esi, %r10d
	cvtsi2ss	%r10d, %xmm1
	mulss	%xmm0, %xmm1
	cvttss2si	%xmm1, %esi
	movl	%esi, 28(%r9)
	movl	(%rdi), %esi
	movl	(%r9), %r10d
	movl	%esi, %r11d
	addl	8(%rdi), %r11d
	movl	%r11d, (%rdi)
	movl	%r10d, %r11d
	addl	8(%r9), %r11d
	movl	%r11d, (%r9)
	subl	8(%rdi), %esi
	movl	%esi, 8(%rdi)
	subl	8(%r9), %r10d
	movl	%r10d, 8(%r9)
	movl	4(%rdi), %esi
	movl	4(%r9), %r10d
	movl	%esi, %r11d
	addl	12(%rdi), %r11d
	movl	%r11d, 4(%rdi)
	movl	%r10d, %r11d
	addl	12(%r9), %r11d
	movl	%r11d, 4(%r9)
	subl	12(%rdi), %esi
	movl	%esi, 12(%rdi)
	subl	12(%r9), %r10d
	movl	%r10d, 12(%r9)
	movl	12(%rdi), %esi
	movl	%r10d, 12(%rdi)
	movl	%eax, %r10d
	subl	%esi, %r10d
	movl	%r10d, 12(%r9)
	movl	(%rdi), %esi
	movl	(%r9), %r10d
	movl	%esi, %r11d
	addl	4(%rdi), %r11d
	movl	%r11d, (%rdi)
	movl	%r10d, %r11d
	addl	4(%r9), %r11d
	movl	%r11d, (%r9)
	subl	4(%rdi), %esi
	movl	%esi, 4(%rdi)
	subl	4(%r9), %r10d
	movl	%r10d, 4(%r9)
	movl	8(%rdi), %esi
	movl	8(%r9), %r10d
	movl	%esi, %r11d
	addl	12(%rdi), %r11d
	movl	%r11d, 8(%rdi)
	movl	%r10d, %r11d
	addl	12(%r9), %r11d
	movl	%r11d, 8(%r9)
	subl	12(%rdi), %esi
	movl	%esi, 12(%rdi)
	subl	12(%r9), %r10d
	movl	%r10d, 12(%r9)
	movl	16(%rdi), %esi
	movl	16(%r9), %r10d
	movl	%esi, %r11d
	addl	24(%rdi), %r11d
	movl	%r11d, 16(%rdi)
	movl	%r10d, %r11d
	addl	24(%r9), %r11d
	movl	%r11d, 16(%r9)
	subl	24(%rdi), %esi
	movl	%esi, 24(%rdi)
	subl	24(%r9), %r10d
	movl	%r10d, 24(%r9)
	movl	20(%rdi), %esi
	movl	20(%r9), %r10d
	movl	%esi, %r11d
	addl	28(%rdi), %r11d
	movl	%r11d, 20(%rdi)
	movl	%r10d, %r11d
	addl	28(%r9), %r11d
	movl	%r11d, 20(%r9)
	subl	28(%rdi), %esi
	movl	%esi, 28(%rdi)
	subl	28(%r9), %r10d
	movl	%r10d, 28(%r9)
	movl	28(%rdi), %esi
	movl	%r10d, 28(%rdi)
	subl	%esi, %eax
	movl	%eax, 28(%r9)
	movl	16(%rdi), %eax
	movl	16(%r9), %esi
	movl	%eax, %r10d
	addl	20(%rdi), %r10d
	movl	%r10d, 16(%rdi)
	movl	%esi, %r10d
	addl	20(%r9), %r10d
	movl	%r10d, 16(%r9)
	subl	20(%rdi), %eax
	movl	%eax, 20(%rdi)
	subl	20(%r9), %esi
	movl	%esi, 20(%r9)
	movl	24(%rdi), %eax
	movl	24(%r9), %esi
	movl	%eax, %r10d
	addl	28(%rdi), %r10d
	movl	%r10d, 24(%rdi)
	movl	%esi, %r10d
	addl	28(%r9), %r10d
	movl	%r10d, 24(%r9)
	subl	28(%rdi), %eax
	movl	%eax, 28(%rdi)
	subl	28(%r9), %esi
	movl	%esi, 28(%r9)
# %bb.46:                               # %for.body278.14
                                        #   in Loop: Header=BB0_1 Depth=1
	movq	-208(%rbp), %rax        # 8-byte Reload
	imulq	$7, %rax, %rcx
	movq	-72(%rbp), %rdx         # 8-byte Reload
	cvttss2si	(%rdx,%rcx,4), %esi
	imulq	$7, %rax, %rcx
	movq	-80(%rbp), %rdi         # 8-byte Reload
	cvttss2si	(%rdi,%rcx,4), %r8d
	movq	-32(%rbp), %rcx         # 8-byte Reload
	movl	4(%rcx), %r9d
	movl	%esi, %r10d
	imull	4(%rcx), %r10d
	movl	%r8d, %r11d
	movq	-24(%rbp), %rbx         # 8-byte Reload
	imull	4(%rbx), %r11d
	subl	%r11d, %r10d
	movl	%r10d, 4(%rcx)
	imull	%r8d, %r9d
	imull	4(%rbx), %esi
	addl	%esi, %r9d
	movl	%r9d, 4(%rbx)
	imulq	$7, %rax, %r14
	cvttss2si	4(%rdx,%r14,4), %esi
	imulq	$7, %rax, %r14
	cvttss2si	4(%rdi,%r14,4), %r8d
	movl	8(%rcx), %r9d
	movl	%esi, %r10d
	imull	8(%rcx), %r10d
	movl	%r8d, %r11d
	imull	8(%rbx), %r11d
	subl	%r11d, %r10d
	movl	%r10d, 8(%rcx)
	imull	%r8d, %r9d
	imull	8(%rbx), %esi
	addl	%esi, %r9d
	movl	%r9d, 8(%rbx)
	imulq	$7, %rax, %r14
	cvttss2si	8(%rdx,%r14,4), %esi
	imulq	$7, %rax, %r14
	cvttss2si	8(%rdi,%r14,4), %r8d
	movl	12(%rcx), %r9d
	movl	%esi, %r10d
	imull	12(%rcx), %r10d
	movl	%r8d, %r11d
	imull	12(%rbx), %r11d
	subl	%r11d, %r10d
	movl	%r10d, 12(%rcx)
	imull	%r8d, %r9d
	imull	12(%rbx), %esi
	addl	%esi, %r9d
	movl	%r9d, 12(%rbx)
	imulq	$7, %rax, %r14
	cvttss2si	12(%rdx,%r14,4), %esi
	imulq	$7, %rax, %r14
	cvttss2si	12(%rdi,%r14,4), %r8d
	movl	16(%rcx), %r9d
	movl	%esi, %r10d
	imull	16(%rcx), %r10d
	movl	%r8d, %r11d
	imull	16(%rbx), %r11d
	subl	%r11d, %r10d
	movl	%r10d, 16(%rcx)
	imull	%r8d, %r9d
	imull	16(%rbx), %esi
	addl	%esi, %r9d
	movl	%r9d, 16(%rbx)
	imulq	$7, %rax, %r14
	cvttss2si	16(%rdx,%r14,4), %esi
	imulq	$7, %rax, %r14
	cvttss2si	16(%rdi,%r14,4), %r8d
	movl	20(%rcx), %r9d
	movl	%esi, %r10d
	imull	20(%rcx), %r10d
	movl	%r8d, %r11d
	imull	20(%rbx), %r11d
	subl	%r11d, %r10d
	movl	%r10d, 20(%rcx)
	imull	%r8d, %r9d
	imull	20(%rbx), %esi
	addl	%esi, %r9d
	movl	%r9d, 20(%rbx)
	imulq	$7, %rax, %r14
	cvttss2si	20(%rdx,%r14,4), %esi
	imulq	$7, %rax, %r14
	cvttss2si	20(%rdi,%r14,4), %r8d
	movl	24(%rcx), %r9d
	movl	%esi, %r10d
	imull	24(%rcx), %r10d
	movl	%r8d, %r11d
	imull	24(%rbx), %r11d
	subl	%r11d, %r10d
	movl	%r10d, 24(%rcx)
	imull	%r8d, %r9d
	imull	24(%rbx), %esi
	addl	%esi, %r9d
	movl	%r9d, 24(%rbx)
	imulq	$7, %rax, %r14
	cvttss2si	24(%rdx,%r14,4), %esi
	imulq	$7, %rax, %r14
	cvttss2si	24(%rdi,%r14,4), %r8d
	movl	28(%rcx), %r9d
	movl	%esi, %r10d
	imull	28(%rcx), %r10d
	movl	%r8d, %r11d
	imull	28(%rbx), %r11d
	subl	%r11d, %r10d
	movl	%r10d, 28(%rcx)
	imull	%r8d, %r9d
	imull	28(%rbx), %esi
	addl	%esi, %r9d
	movl	%r9d, 28(%rbx)
# %bb.47:                               # %for.body316.14
                                        #   in Loop: Header=BB0_1 Depth=1
	movq	-32(%rbp), %rax         # 8-byte Reload
	movl	(%rax), %ecx
	movq	-208(%rbp), %rdx        # 8-byte Reload
	shlq	$3, %rdx
	movq	-48(%rbp), %rsi         # 8-byte Reload
	movl	%ecx, (%rsi,%rdx,4)
	movq	-24(%rbp), %rdx         # 8-byte Reload
	movl	(%rdx), %ecx
	movq	-208(%rbp), %rdi        # 8-byte Reload
	shlq	$3, %rdi
	movq	-40(%rbp), %r8          # 8-byte Reload
	movl	%ecx, (%r8,%rdi,4)
	movl	4(%rax), %ecx
	movq	-208(%rbp), %rdi        # 8-byte Reload
	shlq	$3, %rdi
	movl	%ecx, 4(%rsi,%rdi,4)
	movl	4(%rdx), %ecx
	movq	-208(%rbp), %rdi        # 8-byte Reload
	shlq	$3, %rdi
	movl	%ecx, 4(%r8,%rdi,4)
	movl	8(%rax), %ecx
	movq	-208(%rbp), %rdi        # 8-byte Reload
	shlq	$3, %rdi
	movl	%ecx, 8(%rsi,%rdi,4)
	movl	8(%rdx), %ecx
	movq	-208(%rbp), %rdi        # 8-byte Reload
	shlq	$3, %rdi
	movl	%ecx, 8(%r8,%rdi,4)
	movl	12(%rax), %ecx
	movq	-208(%rbp), %rdi        # 8-byte Reload
	shlq	$3, %rdi
	movl	%ecx, 12(%rsi,%rdi,4)
	movl	12(%rdx), %ecx
	movq	-208(%rbp), %rdi        # 8-byte Reload
	shlq	$3, %rdi
	movl	%ecx, 12(%r8,%rdi,4)
	movl	16(%rax), %ecx
	movq	-208(%rbp), %rdi        # 8-byte Reload
	shlq	$3, %rdi
	movl	%ecx, 16(%rsi,%rdi,4)
	movl	16(%rdx), %ecx
	movq	-208(%rbp), %rdi        # 8-byte Reload
	shlq	$3, %rdi
	movl	%ecx, 16(%r8,%rdi,4)
	movl	20(%rax), %ecx
	movq	-208(%rbp), %rdi        # 8-byte Reload
	shlq	$3, %rdi
	movl	%ecx, 20(%rsi,%rdi,4)
	movl	20(%rdx), %ecx
	movq	-208(%rbp), %rdi        # 8-byte Reload
	shlq	$3, %rdi
	movl	%ecx, 20(%r8,%rdi,4)
	movl	24(%rax), %ecx
	movq	-208(%rbp), %rdi        # 8-byte Reload
	shlq	$3, %rdi
	movl	%ecx, 24(%rsi,%rdi,4)
	movl	24(%rdx), %ecx
	movq	-208(%rbp), %rdi        # 8-byte Reload
	shlq	$3, %rdi
	movl	%ecx, 24(%r8,%rdi,4)
	movl	28(%rax), %ecx
	movq	-208(%rbp), %rdi        # 8-byte Reload
	shlq	$3, %rdi
	movl	%ecx, 28(%rsi,%rdi,4)
	movl	28(%rdx), %ecx
	movq	-208(%rbp), %rdi        # 8-byte Reload
	shlq	$3, %rdi
	movl	%ecx, 28(%r8,%rdi,4)
	movq	-208(%rbp), %rdi        # 8-byte Reload
	addq	$1, %rdi
	movq	%rdi, -216(%rbp)        # 8-byte Spill
# %bb.48:                               # %for.body3.15
                                        #   in Loop: Header=BB0_1 Depth=1
	xorl	%eax, %eax
	movss	.LCPI0_0(%rip), %xmm0   # xmm0 = mem[0],zero,zero,zero
	movq	-64(%rbp), %rcx         # 8-byte Reload
	movq	-216(%rbp), %rdx        # 8-byte Reload
	movl	(%rcx,%rdx,4), %esi
	movq	-32(%rbp), %rdi         # 8-byte Reload
	movl	%esi, (%rdi)
	movq	-56(%rbp), %r8          # 8-byte Reload
	movl	(%r8,%rdx,4), %esi
	movq	-24(%rbp), %r9          # 8-byte Reload
	movl	%esi, (%r9)
	addq	$64, %rdx
	movl	(%rcx,%rdx,4), %esi
	movl	%esi, 4(%rdi)
	movq	-216(%rbp), %rdx        # 8-byte Reload
	addq	$64, %rdx
	movl	(%r8,%rdx,4), %esi
	movl	%esi, 4(%r9)
	movq	-216(%rbp), %rdx        # 8-byte Reload
	addq	$128, %rdx
	movl	(%rcx,%rdx,4), %esi
	movl	%esi, 8(%rdi)
	movq	-216(%rbp), %rdx        # 8-byte Reload
	addq	$128, %rdx
	movl	(%r8,%rdx,4), %esi
	movl	%esi, 8(%r9)
	movq	-216(%rbp), %rdx        # 8-byte Reload
	addq	$192, %rdx
	movl	(%rcx,%rdx,4), %esi
	movl	%esi, 12(%rdi)
	movq	-216(%rbp), %rdx        # 8-byte Reload
	addq	$192, %rdx
	movl	(%r8,%rdx,4), %esi
	movl	%esi, 12(%r9)
	movq	-216(%rbp), %rdx        # 8-byte Reload
	addq	$256, %rdx              # imm = 0x100
	movl	(%rcx,%rdx,4), %esi
	movl	%esi, 16(%rdi)
	movq	-216(%rbp), %rdx        # 8-byte Reload
	addq	$256, %rdx              # imm = 0x100
	movl	(%r8,%rdx,4), %esi
	movl	%esi, 16(%r9)
	movq	-216(%rbp), %rdx        # 8-byte Reload
	addq	$320, %rdx              # imm = 0x140
	movl	(%rcx,%rdx,4), %esi
	movl	%esi, 20(%rdi)
	movq	-216(%rbp), %rdx        # 8-byte Reload
	addq	$320, %rdx              # imm = 0x140
	movl	(%r8,%rdx,4), %esi
	movl	%esi, 20(%r9)
	movq	-216(%rbp), %rdx        # 8-byte Reload
	addq	$384, %rdx              # imm = 0x180
	movl	(%rcx,%rdx,4), %esi
	movl	%esi, 24(%rdi)
	movq	-216(%rbp), %rdx        # 8-byte Reload
	addq	$384, %rdx              # imm = 0x180
	movl	(%r8,%rdx,4), %esi
	movl	%esi, 24(%r9)
	movq	-216(%rbp), %rdx        # 8-byte Reload
	addq	$448, %rdx              # imm = 0x1C0
	movl	(%rcx,%rdx,4), %esi
	movl	%esi, 28(%rdi)
	movq	-216(%rbp), %rdx        # 8-byte Reload
	addq	$448, %rdx              # imm = 0x1C0
	movl	(%r8,%rdx,4), %esi
	movl	%esi, 28(%r9)
	movl	(%rdi), %esi
	movl	(%r9), %r10d
	movl	%esi, %r11d
	addl	16(%rdi), %r11d
	movl	%r11d, (%rdi)
	movl	%r10d, %r11d
	addl	16(%r9), %r11d
	movl	%r11d, (%r9)
	subl	16(%rdi), %esi
	movl	%esi, 16(%rdi)
	subl	16(%r9), %r10d
	movl	%r10d, 16(%r9)
	movl	4(%rdi), %esi
	movl	4(%r9), %r10d
	movl	%esi, %r11d
	addl	20(%rdi), %r11d
	movl	%r11d, 4(%rdi)
	movl	%r10d, %r11d
	addl	20(%r9), %r11d
	movl	%r11d, 4(%r9)
	subl	20(%rdi), %esi
	movl	%esi, 20(%rdi)
	subl	20(%r9), %r10d
	movl	%r10d, 20(%r9)
	movl	8(%rdi), %esi
	movl	8(%r9), %r10d
	movl	%esi, %r11d
	addl	24(%rdi), %r11d
	movl	%r11d, 8(%rdi)
	movl	%r10d, %r11d
	addl	24(%r9), %r11d
	movl	%r11d, 8(%r9)
	subl	24(%rdi), %esi
	movl	%esi, 24(%rdi)
	subl	24(%r9), %r10d
	movl	%r10d, 24(%r9)
	movl	12(%rdi), %esi
	movl	12(%r9), %r10d
	movl	%esi, %r11d
	addl	28(%rdi), %r11d
	movl	%r11d, 12(%rdi)
	movl	%r10d, %r11d
	addl	28(%r9), %r11d
	movl	%r11d, 12(%r9)
	subl	28(%rdi), %esi
	movl	%esi, 28(%rdi)
	subl	28(%r9), %r10d
	movl	%r10d, 28(%r9)
	movl	20(%rdi), %esi
	movl	%esi, %r10d
	addl	20(%r9), %r10d
	cvtsi2ss	%r10d, %xmm1
	mulss	%xmm0, %xmm1
	cvttss2si	%xmm1, %r10d
	movl	%r10d, 20(%rdi)
	movl	20(%r9), %r10d
	subl	%esi, %r10d
	cvtsi2ss	%r10d, %xmm1
	mulss	%xmm0, %xmm1
	cvttss2si	%xmm1, %esi
	movl	%esi, 20(%r9)
	movl	24(%rdi), %esi
	movl	24(%r9), %r10d
	movl	%r10d, 24(%rdi)
	movl	%eax, %r10d
	subl	%esi, %r10d
	movl	%r10d, 24(%r9)
	movl	28(%rdi), %esi
	movl	28(%r9), %r10d
	subl	%esi, %r10d
	cvtsi2ss	%r10d, %xmm1
	mulss	%xmm0, %xmm1
	cvttss2si	%xmm1, %r10d
	movl	%r10d, 28(%rdi)
	addl	28(%r9), %esi
	movl	%eax, %r10d
	subl	%esi, %r10d
	cvtsi2ss	%r10d, %xmm1
	mulss	%xmm0, %xmm1
	cvttss2si	%xmm1, %esi
	movl	%esi, 28(%r9)
	movl	(%rdi), %esi
	movl	(%r9), %r10d
	movl	%esi, %r11d
	addl	8(%rdi), %r11d
	movl	%r11d, (%rdi)
	movl	%r10d, %r11d
	addl	8(%r9), %r11d
	movl	%r11d, (%r9)
	subl	8(%rdi), %esi
	movl	%esi, 8(%rdi)
	subl	8(%r9), %r10d
	movl	%r10d, 8(%r9)
	movl	4(%rdi), %esi
	movl	4(%r9), %r10d
	movl	%esi, %r11d
	addl	12(%rdi), %r11d
	movl	%r11d, 4(%rdi)
	movl	%r10d, %r11d
	addl	12(%r9), %r11d
	movl	%r11d, 4(%r9)
	subl	12(%rdi), %esi
	movl	%esi, 12(%rdi)
	subl	12(%r9), %r10d
	movl	%r10d, 12(%r9)
	movl	12(%rdi), %esi
	movl	%r10d, 12(%rdi)
	movl	%eax, %r10d
	subl	%esi, %r10d
	movl	%r10d, 12(%r9)
	movl	(%rdi), %esi
	movl	(%r9), %r10d
	movl	%esi, %r11d
	addl	4(%rdi), %r11d
	movl	%r11d, (%rdi)
	movl	%r10d, %r11d
	addl	4(%r9), %r11d
	movl	%r11d, (%r9)
	subl	4(%rdi), %esi
	movl	%esi, 4(%rdi)
	subl	4(%r9), %r10d
	movl	%r10d, 4(%r9)
	movl	8(%rdi), %esi
	movl	8(%r9), %r10d
	movl	%esi, %r11d
	addl	12(%rdi), %r11d
	movl	%r11d, 8(%rdi)
	movl	%r10d, %r11d
	addl	12(%r9), %r11d
	movl	%r11d, 8(%r9)
	subl	12(%rdi), %esi
	movl	%esi, 12(%rdi)
	subl	12(%r9), %r10d
	movl	%r10d, 12(%r9)
	movl	16(%rdi), %esi
	movl	16(%r9), %r10d
	movl	%esi, %r11d
	addl	24(%rdi), %r11d
	movl	%r11d, 16(%rdi)
	movl	%r10d, %r11d
	addl	24(%r9), %r11d
	movl	%r11d, 16(%r9)
	subl	24(%rdi), %esi
	movl	%esi, 24(%rdi)
	subl	24(%r9), %r10d
	movl	%r10d, 24(%r9)
	movl	20(%rdi), %esi
	movl	20(%r9), %r10d
	movl	%esi, %r11d
	addl	28(%rdi), %r11d
	movl	%r11d, 20(%rdi)
	movl	%r10d, %r11d
	addl	28(%r9), %r11d
	movl	%r11d, 20(%r9)
	subl	28(%rdi), %esi
	movl	%esi, 28(%rdi)
	subl	28(%r9), %r10d
	movl	%r10d, 28(%r9)
	movl	28(%rdi), %esi
	movl	%r10d, 28(%rdi)
	subl	%esi, %eax
	movl	%eax, 28(%r9)
	movl	16(%rdi), %eax
	movl	16(%r9), %esi
	movl	%eax, %r10d
	addl	20(%rdi), %r10d
	movl	%r10d, 16(%rdi)
	movl	%esi, %r10d
	addl	20(%r9), %r10d
	movl	%r10d, 16(%r9)
	subl	20(%rdi), %eax
	movl	%eax, 20(%rdi)
	subl	20(%r9), %esi
	movl	%esi, 20(%r9)
	movl	24(%rdi), %eax
	movl	24(%r9), %esi
	movl	%eax, %r10d
	addl	28(%rdi), %r10d
	movl	%r10d, 24(%rdi)
	movl	%esi, %r10d
	addl	28(%r9), %r10d
	movl	%r10d, 24(%r9)
	subl	28(%rdi), %eax
	movl	%eax, 28(%rdi)
	subl	28(%r9), %esi
	movl	%esi, 28(%r9)
# %bb.49:                               # %for.body278.15
                                        #   in Loop: Header=BB0_1 Depth=1
	movq	-216(%rbp), %rax        # 8-byte Reload
	imulq	$7, %rax, %rcx
	movq	-72(%rbp), %rdx         # 8-byte Reload
	cvttss2si	(%rdx,%rcx,4), %esi
	imulq	$7, %rax, %rcx
	movq	-80(%rbp), %rdi         # 8-byte Reload
	cvttss2si	(%rdi,%rcx,4), %r8d
	movq	-32(%rbp), %rcx         # 8-byte Reload
	movl	4(%rcx), %r9d
	movl	%esi, %r10d
	imull	4(%rcx), %r10d
	movl	%r8d, %r11d
	movq	-24(%rbp), %rbx         # 8-byte Reload
	imull	4(%rbx), %r11d
	subl	%r11d, %r10d
	movl	%r10d, 4(%rcx)
	imull	%r8d, %r9d
	imull	4(%rbx), %esi
	addl	%esi, %r9d
	movl	%r9d, 4(%rbx)
	imulq	$7, %rax, %r14
	cvttss2si	4(%rdx,%r14,4), %esi
	imulq	$7, %rax, %r14
	cvttss2si	4(%rdi,%r14,4), %r8d
	movl	8(%rcx), %r9d
	movl	%esi, %r10d
	imull	8(%rcx), %r10d
	movl	%r8d, %r11d
	imull	8(%rbx), %r11d
	subl	%r11d, %r10d
	movl	%r10d, 8(%rcx)
	imull	%r8d, %r9d
	imull	8(%rbx), %esi
	addl	%esi, %r9d
	movl	%r9d, 8(%rbx)
	imulq	$7, %rax, %r14
	cvttss2si	8(%rdx,%r14,4), %esi
	imulq	$7, %rax, %r14
	cvttss2si	8(%rdi,%r14,4), %r8d
	movl	12(%rcx), %r9d
	movl	%esi, %r10d
	imull	12(%rcx), %r10d
	movl	%r8d, %r11d
	imull	12(%rbx), %r11d
	subl	%r11d, %r10d
	movl	%r10d, 12(%rcx)
	imull	%r8d, %r9d
	imull	12(%rbx), %esi
	addl	%esi, %r9d
	movl	%r9d, 12(%rbx)
	imulq	$7, %rax, %r14
	cvttss2si	12(%rdx,%r14,4), %esi
	imulq	$7, %rax, %r14
	cvttss2si	12(%rdi,%r14,4), %r8d
	movl	16(%rcx), %r9d
	movl	%esi, %r10d
	imull	16(%rcx), %r10d
	movl	%r8d, %r11d
	imull	16(%rbx), %r11d
	subl	%r11d, %r10d
	movl	%r10d, 16(%rcx)
	imull	%r8d, %r9d
	imull	16(%rbx), %esi
	addl	%esi, %r9d
	movl	%r9d, 16(%rbx)
	imulq	$7, %rax, %r14
	cvttss2si	16(%rdx,%r14,4), %esi
	imulq	$7, %rax, %r14
	cvttss2si	16(%rdi,%r14,4), %r8d
	movl	20(%rcx), %r9d
	movl	%esi, %r10d
	imull	20(%rcx), %r10d
	movl	%r8d, %r11d
	imull	20(%rbx), %r11d
	subl	%r11d, %r10d
	movl	%r10d, 20(%rcx)
	imull	%r8d, %r9d
	imull	20(%rbx), %esi
	addl	%esi, %r9d
	movl	%r9d, 20(%rbx)
	imulq	$7, %rax, %r14
	cvttss2si	20(%rdx,%r14,4), %esi
	imulq	$7, %rax, %r14
	cvttss2si	20(%rdi,%r14,4), %r8d
	movl	24(%rcx), %r9d
	movl	%esi, %r10d
	imull	24(%rcx), %r10d
	movl	%r8d, %r11d
	imull	24(%rbx), %r11d
	subl	%r11d, %r10d
	movl	%r10d, 24(%rcx)
	imull	%r8d, %r9d
	imull	24(%rbx), %esi
	addl	%esi, %r9d
	movl	%r9d, 24(%rbx)
	imulq	$7, %rax, %r14
	cvttss2si	24(%rdx,%r14,4), %esi
	imulq	$7, %rax, %r14
	cvttss2si	24(%rdi,%r14,4), %r8d
	movl	28(%rcx), %r9d
	movl	%esi, %r10d
	imull	28(%rcx), %r10d
	movl	%r8d, %r11d
	imull	28(%rbx), %r11d
	subl	%r11d, %r10d
	movl	%r10d, 28(%rcx)
	imull	%r8d, %r9d
	imull	28(%rbx), %esi
	addl	%esi, %r9d
	movl	%r9d, 28(%rbx)
# %bb.50:                               # %for.body316.15
                                        #   in Loop: Header=BB0_1 Depth=1
	movq	-32(%rbp), %rax         # 8-byte Reload
	movl	(%rax), %ecx
	movq	-216(%rbp), %rdx        # 8-byte Reload
	shlq	$3, %rdx
	movq	-48(%rbp), %rsi         # 8-byte Reload
	movl	%ecx, (%rsi,%rdx,4)
	movq	-24(%rbp), %rdx         # 8-byte Reload
	movl	(%rdx), %ecx
	movq	-216(%rbp), %rdi        # 8-byte Reload
	shlq	$3, %rdi
	movq	-40(%rbp), %r8          # 8-byte Reload
	movl	%ecx, (%r8,%rdi,4)
	movl	4(%rax), %ecx
	movq	-216(%rbp), %rdi        # 8-byte Reload
	shlq	$3, %rdi
	movl	%ecx, 4(%rsi,%rdi,4)
	movl	4(%rdx), %ecx
	movq	-216(%rbp), %rdi        # 8-byte Reload
	shlq	$3, %rdi
	movl	%ecx, 4(%r8,%rdi,4)
	movl	8(%rax), %ecx
	movq	-216(%rbp), %rdi        # 8-byte Reload
	shlq	$3, %rdi
	movl	%ecx, 8(%rsi,%rdi,4)
	movl	8(%rdx), %ecx
	movq	-216(%rbp), %rdi        # 8-byte Reload
	shlq	$3, %rdi
	movl	%ecx, 8(%r8,%rdi,4)
	movl	12(%rax), %ecx
	movq	-216(%rbp), %rdi        # 8-byte Reload
	shlq	$3, %rdi
	movl	%ecx, 12(%rsi,%rdi,4)
	movl	12(%rdx), %ecx
	movq	-216(%rbp), %rdi        # 8-byte Reload
	shlq	$3, %rdi
	movl	%ecx, 12(%r8,%rdi,4)
	movl	16(%rax), %ecx
	movq	-216(%rbp), %rdi        # 8-byte Reload
	shlq	$3, %rdi
	movl	%ecx, 16(%rsi,%rdi,4)
	movl	16(%rdx), %ecx
	movq	-216(%rbp), %rdi        # 8-byte Reload
	shlq	$3, %rdi
	movl	%ecx, 16(%r8,%rdi,4)
	movl	20(%rax), %ecx
	movq	-216(%rbp), %rdi        # 8-byte Reload
	shlq	$3, %rdi
	movl	%ecx, 20(%rsi,%rdi,4)
	movl	20(%rdx), %ecx
	movq	-216(%rbp), %rdi        # 8-byte Reload
	shlq	$3, %rdi
	movl	%ecx, 20(%r8,%rdi,4)
	movl	24(%rax), %ecx
	movq	-216(%rbp), %rdi        # 8-byte Reload
	shlq	$3, %rdi
	movl	%ecx, 24(%rsi,%rdi,4)
	movl	24(%rdx), %ecx
	movq	-216(%rbp), %rdi        # 8-byte Reload
	shlq	$3, %rdi
	movl	%ecx, 24(%r8,%rdi,4)
	movl	28(%rax), %ecx
	movq	-216(%rbp), %rdi        # 8-byte Reload
	shlq	$3, %rdi
	movl	%ecx, 28(%rsi,%rdi,4)
	movl	28(%rdx), %ecx
	movq	-216(%rbp), %rdi        # 8-byte Reload
	shlq	$3, %rdi
	movl	%ecx, 28(%r8,%rdi,4)
	movq	-216(%rbp), %rdi        # 8-byte Reload
	addq	$1, %rdi
	movq	%rdi, -224(%rbp)        # 8-byte Spill
# %bb.51:                               # %for.body3.16
                                        #   in Loop: Header=BB0_1 Depth=1
	xorl	%eax, %eax
	movss	.LCPI0_0(%rip), %xmm0   # xmm0 = mem[0],zero,zero,zero
	movq	-64(%rbp), %rcx         # 8-byte Reload
	movq	-224(%rbp), %rdx        # 8-byte Reload
	movl	(%rcx,%rdx,4), %esi
	movq	-32(%rbp), %rdi         # 8-byte Reload
	movl	%esi, (%rdi)
	movq	-56(%rbp), %r8          # 8-byte Reload
	movl	(%r8,%rdx,4), %esi
	movq	-24(%rbp), %r9          # 8-byte Reload
	movl	%esi, (%r9)
	addq	$64, %rdx
	movl	(%rcx,%rdx,4), %esi
	movl	%esi, 4(%rdi)
	movq	-224(%rbp), %rdx        # 8-byte Reload
	addq	$64, %rdx
	movl	(%r8,%rdx,4), %esi
	movl	%esi, 4(%r9)
	movq	-224(%rbp), %rdx        # 8-byte Reload
	addq	$128, %rdx
	movl	(%rcx,%rdx,4), %esi
	movl	%esi, 8(%rdi)
	movq	-224(%rbp), %rdx        # 8-byte Reload
	addq	$128, %rdx
	movl	(%r8,%rdx,4), %esi
	movl	%esi, 8(%r9)
	movq	-224(%rbp), %rdx        # 8-byte Reload
	addq	$192, %rdx
	movl	(%rcx,%rdx,4), %esi
	movl	%esi, 12(%rdi)
	movq	-224(%rbp), %rdx        # 8-byte Reload
	addq	$192, %rdx
	movl	(%r8,%rdx,4), %esi
	movl	%esi, 12(%r9)
	movq	-224(%rbp), %rdx        # 8-byte Reload
	addq	$256, %rdx              # imm = 0x100
	movl	(%rcx,%rdx,4), %esi
	movl	%esi, 16(%rdi)
	movq	-224(%rbp), %rdx        # 8-byte Reload
	addq	$256, %rdx              # imm = 0x100
	movl	(%r8,%rdx,4), %esi
	movl	%esi, 16(%r9)
	movq	-224(%rbp), %rdx        # 8-byte Reload
	addq	$320, %rdx              # imm = 0x140
	movl	(%rcx,%rdx,4), %esi
	movl	%esi, 20(%rdi)
	movq	-224(%rbp), %rdx        # 8-byte Reload
	addq	$320, %rdx              # imm = 0x140
	movl	(%r8,%rdx,4), %esi
	movl	%esi, 20(%r9)
	movq	-224(%rbp), %rdx        # 8-byte Reload
	addq	$384, %rdx              # imm = 0x180
	movl	(%rcx,%rdx,4), %esi
	movl	%esi, 24(%rdi)
	movq	-224(%rbp), %rdx        # 8-byte Reload
	addq	$384, %rdx              # imm = 0x180
	movl	(%r8,%rdx,4), %esi
	movl	%esi, 24(%r9)
	movq	-224(%rbp), %rdx        # 8-byte Reload
	addq	$448, %rdx              # imm = 0x1C0
	movl	(%rcx,%rdx,4), %esi
	movl	%esi, 28(%rdi)
	movq	-224(%rbp), %rdx        # 8-byte Reload
	addq	$448, %rdx              # imm = 0x1C0
	movl	(%r8,%rdx,4), %esi
	movl	%esi, 28(%r9)
	movl	(%rdi), %esi
	movl	(%r9), %r10d
	movl	%esi, %r11d
	addl	16(%rdi), %r11d
	movl	%r11d, (%rdi)
	movl	%r10d, %r11d
	addl	16(%r9), %r11d
	movl	%r11d, (%r9)
	subl	16(%rdi), %esi
	movl	%esi, 16(%rdi)
	subl	16(%r9), %r10d
	movl	%r10d, 16(%r9)
	movl	4(%rdi), %esi
	movl	4(%r9), %r10d
	movl	%esi, %r11d
	addl	20(%rdi), %r11d
	movl	%r11d, 4(%rdi)
	movl	%r10d, %r11d
	addl	20(%r9), %r11d
	movl	%r11d, 4(%r9)
	subl	20(%rdi), %esi
	movl	%esi, 20(%rdi)
	subl	20(%r9), %r10d
	movl	%r10d, 20(%r9)
	movl	8(%rdi), %esi
	movl	8(%r9), %r10d
	movl	%esi, %r11d
	addl	24(%rdi), %r11d
	movl	%r11d, 8(%rdi)
	movl	%r10d, %r11d
	addl	24(%r9), %r11d
	movl	%r11d, 8(%r9)
	subl	24(%rdi), %esi
	movl	%esi, 24(%rdi)
	subl	24(%r9), %r10d
	movl	%r10d, 24(%r9)
	movl	12(%rdi), %esi
	movl	12(%r9), %r10d
	movl	%esi, %r11d
	addl	28(%rdi), %r11d
	movl	%r11d, 12(%rdi)
	movl	%r10d, %r11d
	addl	28(%r9), %r11d
	movl	%r11d, 12(%r9)
	subl	28(%rdi), %esi
	movl	%esi, 28(%rdi)
	subl	28(%r9), %r10d
	movl	%r10d, 28(%r9)
	movl	20(%rdi), %esi
	movl	%esi, %r10d
	addl	20(%r9), %r10d
	cvtsi2ss	%r10d, %xmm1
	mulss	%xmm0, %xmm1
	cvttss2si	%xmm1, %r10d
	movl	%r10d, 20(%rdi)
	movl	20(%r9), %r10d
	subl	%esi, %r10d
	cvtsi2ss	%r10d, %xmm1
	mulss	%xmm0, %xmm1
	cvttss2si	%xmm1, %esi
	movl	%esi, 20(%r9)
	movl	24(%rdi), %esi
	movl	24(%r9), %r10d
	movl	%r10d, 24(%rdi)
	movl	%eax, %r10d
	subl	%esi, %r10d
	movl	%r10d, 24(%r9)
	movl	28(%rdi), %esi
	movl	28(%r9), %r10d
	subl	%esi, %r10d
	cvtsi2ss	%r10d, %xmm1
	mulss	%xmm0, %xmm1
	cvttss2si	%xmm1, %r10d
	movl	%r10d, 28(%rdi)
	addl	28(%r9), %esi
	movl	%eax, %r10d
	subl	%esi, %r10d
	cvtsi2ss	%r10d, %xmm1
	mulss	%xmm0, %xmm1
	cvttss2si	%xmm1, %esi
	movl	%esi, 28(%r9)
	movl	(%rdi), %esi
	movl	(%r9), %r10d
	movl	%esi, %r11d
	addl	8(%rdi), %r11d
	movl	%r11d, (%rdi)
	movl	%r10d, %r11d
	addl	8(%r9), %r11d
	movl	%r11d, (%r9)
	subl	8(%rdi), %esi
	movl	%esi, 8(%rdi)
	subl	8(%r9), %r10d
	movl	%r10d, 8(%r9)
	movl	4(%rdi), %esi
	movl	4(%r9), %r10d
	movl	%esi, %r11d
	addl	12(%rdi), %r11d
	movl	%r11d, 4(%rdi)
	movl	%r10d, %r11d
	addl	12(%r9), %r11d
	movl	%r11d, 4(%r9)
	subl	12(%rdi), %esi
	movl	%esi, 12(%rdi)
	subl	12(%r9), %r10d
	movl	%r10d, 12(%r9)
	movl	12(%rdi), %esi
	movl	%r10d, 12(%rdi)
	movl	%eax, %r10d
	subl	%esi, %r10d
	movl	%r10d, 12(%r9)
	movl	(%rdi), %esi
	movl	(%r9), %r10d
	movl	%esi, %r11d
	addl	4(%rdi), %r11d
	movl	%r11d, (%rdi)
	movl	%r10d, %r11d
	addl	4(%r9), %r11d
	movl	%r11d, (%r9)
	subl	4(%rdi), %esi
	movl	%esi, 4(%rdi)
	subl	4(%r9), %r10d
	movl	%r10d, 4(%r9)
	movl	8(%rdi), %esi
	movl	8(%r9), %r10d
	movl	%esi, %r11d
	addl	12(%rdi), %r11d
	movl	%r11d, 8(%rdi)
	movl	%r10d, %r11d
	addl	12(%r9), %r11d
	movl	%r11d, 8(%r9)
	subl	12(%rdi), %esi
	movl	%esi, 12(%rdi)
	subl	12(%r9), %r10d
	movl	%r10d, 12(%r9)
	movl	16(%rdi), %esi
	movl	16(%r9), %r10d
	movl	%esi, %r11d
	addl	24(%rdi), %r11d
	movl	%r11d, 16(%rdi)
	movl	%r10d, %r11d
	addl	24(%r9), %r11d
	movl	%r11d, 16(%r9)
	subl	24(%rdi), %esi
	movl	%esi, 24(%rdi)
	subl	24(%r9), %r10d
	movl	%r10d, 24(%r9)
	movl	20(%rdi), %esi
	movl	20(%r9), %r10d
	movl	%esi, %r11d
	addl	28(%rdi), %r11d
	movl	%r11d, 20(%rdi)
	movl	%r10d, %r11d
	addl	28(%r9), %r11d
	movl	%r11d, 20(%r9)
	subl	28(%rdi), %esi
	movl	%esi, 28(%rdi)
	subl	28(%r9), %r10d
	movl	%r10d, 28(%r9)
	movl	28(%rdi), %esi
	movl	%r10d, 28(%rdi)
	subl	%esi, %eax
	movl	%eax, 28(%r9)
	movl	16(%rdi), %eax
	movl	16(%r9), %esi
	movl	%eax, %r10d
	addl	20(%rdi), %r10d
	movl	%r10d, 16(%rdi)
	movl	%esi, %r10d
	addl	20(%r9), %r10d
	movl	%r10d, 16(%r9)
	subl	20(%rdi), %eax
	movl	%eax, 20(%rdi)
	subl	20(%r9), %esi
	movl	%esi, 20(%r9)
	movl	24(%rdi), %eax
	movl	24(%r9), %esi
	movl	%eax, %r10d
	addl	28(%rdi), %r10d
	movl	%r10d, 24(%rdi)
	movl	%esi, %r10d
	addl	28(%r9), %r10d
	movl	%r10d, 24(%r9)
	subl	28(%rdi), %eax
	movl	%eax, 28(%rdi)
	subl	28(%r9), %esi
	movl	%esi, 28(%r9)
# %bb.52:                               # %for.body278.16
                                        #   in Loop: Header=BB0_1 Depth=1
	movq	-224(%rbp), %rax        # 8-byte Reload
	imulq	$7, %rax, %rcx
	movq	-72(%rbp), %rdx         # 8-byte Reload
	cvttss2si	(%rdx,%rcx,4), %esi
	imulq	$7, %rax, %rcx
	movq	-80(%rbp), %rdi         # 8-byte Reload
	cvttss2si	(%rdi,%rcx,4), %r8d
	movq	-32(%rbp), %rcx         # 8-byte Reload
	movl	4(%rcx), %r9d
	movl	%esi, %r10d
	imull	4(%rcx), %r10d
	movl	%r8d, %r11d
	movq	-24(%rbp), %rbx         # 8-byte Reload
	imull	4(%rbx), %r11d
	subl	%r11d, %r10d
	movl	%r10d, 4(%rcx)
	imull	%r8d, %r9d
	imull	4(%rbx), %esi
	addl	%esi, %r9d
	movl	%r9d, 4(%rbx)
	imulq	$7, %rax, %r14
	cvttss2si	4(%rdx,%r14,4), %esi
	imulq	$7, %rax, %r14
	cvttss2si	4(%rdi,%r14,4), %r8d
	movl	8(%rcx), %r9d
	movl	%esi, %r10d
	imull	8(%rcx), %r10d
	movl	%r8d, %r11d
	imull	8(%rbx), %r11d
	subl	%r11d, %r10d
	movl	%r10d, 8(%rcx)
	imull	%r8d, %r9d
	imull	8(%rbx), %esi
	addl	%esi, %r9d
	movl	%r9d, 8(%rbx)
	imulq	$7, %rax, %r14
	cvttss2si	8(%rdx,%r14,4), %esi
	imulq	$7, %rax, %r14
	cvttss2si	8(%rdi,%r14,4), %r8d
	movl	12(%rcx), %r9d
	movl	%esi, %r10d
	imull	12(%rcx), %r10d
	movl	%r8d, %r11d
	imull	12(%rbx), %r11d
	subl	%r11d, %r10d
	movl	%r10d, 12(%rcx)
	imull	%r8d, %r9d
	imull	12(%rbx), %esi
	addl	%esi, %r9d
	movl	%r9d, 12(%rbx)
	imulq	$7, %rax, %r14
	cvttss2si	12(%rdx,%r14,4), %esi
	imulq	$7, %rax, %r14
	cvttss2si	12(%rdi,%r14,4), %r8d
	movl	16(%rcx), %r9d
	movl	%esi, %r10d
	imull	16(%rcx), %r10d
	movl	%r8d, %r11d
	imull	16(%rbx), %r11d
	subl	%r11d, %r10d
	movl	%r10d, 16(%rcx)
	imull	%r8d, %r9d
	imull	16(%rbx), %esi
	addl	%esi, %r9d
	movl	%r9d, 16(%rbx)
	imulq	$7, %rax, %r14
	cvttss2si	16(%rdx,%r14,4), %esi
	imulq	$7, %rax, %r14
	cvttss2si	16(%rdi,%r14,4), %r8d
	movl	20(%rcx), %r9d
	movl	%esi, %r10d
	imull	20(%rcx), %r10d
	movl	%r8d, %r11d
	imull	20(%rbx), %r11d
	subl	%r11d, %r10d
	movl	%r10d, 20(%rcx)
	imull	%r8d, %r9d
	imull	20(%rbx), %esi
	addl	%esi, %r9d
	movl	%r9d, 20(%rbx)
	imulq	$7, %rax, %r14
	cvttss2si	20(%rdx,%r14,4), %esi
	imulq	$7, %rax, %r14
	cvttss2si	20(%rdi,%r14,4), %r8d
	movl	24(%rcx), %r9d
	movl	%esi, %r10d
	imull	24(%rcx), %r10d
	movl	%r8d, %r11d
	imull	24(%rbx), %r11d
	subl	%r11d, %r10d
	movl	%r10d, 24(%rcx)
	imull	%r8d, %r9d
	imull	24(%rbx), %esi
	addl	%esi, %r9d
	movl	%r9d, 24(%rbx)
	imulq	$7, %rax, %r14
	cvttss2si	24(%rdx,%r14,4), %esi
	imulq	$7, %rax, %r14
	cvttss2si	24(%rdi,%r14,4), %r8d
	movl	28(%rcx), %r9d
	movl	%esi, %r10d
	imull	28(%rcx), %r10d
	movl	%r8d, %r11d
	imull	28(%rbx), %r11d
	subl	%r11d, %r10d
	movl	%r10d, 28(%rcx)
	imull	%r8d, %r9d
	imull	28(%rbx), %esi
	addl	%esi, %r9d
	movl	%r9d, 28(%rbx)
# %bb.53:                               # %for.body316.16
                                        #   in Loop: Header=BB0_1 Depth=1
	movq	-32(%rbp), %rax         # 8-byte Reload
	movl	(%rax), %ecx
	movq	-224(%rbp), %rdx        # 8-byte Reload
	shlq	$3, %rdx
	movq	-48(%rbp), %rsi         # 8-byte Reload
	movl	%ecx, (%rsi,%rdx,4)
	movq	-24(%rbp), %rdx         # 8-byte Reload
	movl	(%rdx), %ecx
	movq	-224(%rbp), %rdi        # 8-byte Reload
	shlq	$3, %rdi
	movq	-40(%rbp), %r8          # 8-byte Reload
	movl	%ecx, (%r8,%rdi,4)
	movl	4(%rax), %ecx
	movq	-224(%rbp), %rdi        # 8-byte Reload
	shlq	$3, %rdi
	movl	%ecx, 4(%rsi,%rdi,4)
	movl	4(%rdx), %ecx
	movq	-224(%rbp), %rdi        # 8-byte Reload
	shlq	$3, %rdi
	movl	%ecx, 4(%r8,%rdi,4)
	movl	8(%rax), %ecx
	movq	-224(%rbp), %rdi        # 8-byte Reload
	shlq	$3, %rdi
	movl	%ecx, 8(%rsi,%rdi,4)
	movl	8(%rdx), %ecx
	movq	-224(%rbp), %rdi        # 8-byte Reload
	shlq	$3, %rdi
	movl	%ecx, 8(%r8,%rdi,4)
	movl	12(%rax), %ecx
	movq	-224(%rbp), %rdi        # 8-byte Reload
	shlq	$3, %rdi
	movl	%ecx, 12(%rsi,%rdi,4)
	movl	12(%rdx), %ecx
	movq	-224(%rbp), %rdi        # 8-byte Reload
	shlq	$3, %rdi
	movl	%ecx, 12(%r8,%rdi,4)
	movl	16(%rax), %ecx
	movq	-224(%rbp), %rdi        # 8-byte Reload
	shlq	$3, %rdi
	movl	%ecx, 16(%rsi,%rdi,4)
	movl	16(%rdx), %ecx
	movq	-224(%rbp), %rdi        # 8-byte Reload
	shlq	$3, %rdi
	movl	%ecx, 16(%r8,%rdi,4)
	movl	20(%rax), %ecx
	movq	-224(%rbp), %rdi        # 8-byte Reload
	shlq	$3, %rdi
	movl	%ecx, 20(%rsi,%rdi,4)
	movl	20(%rdx), %ecx
	movq	-224(%rbp), %rdi        # 8-byte Reload
	shlq	$3, %rdi
	movl	%ecx, 20(%r8,%rdi,4)
	movl	24(%rax), %ecx
	movq	-224(%rbp), %rdi        # 8-byte Reload
	shlq	$3, %rdi
	movl	%ecx, 24(%rsi,%rdi,4)
	movl	24(%rdx), %ecx
	movq	-224(%rbp), %rdi        # 8-byte Reload
	shlq	$3, %rdi
	movl	%ecx, 24(%r8,%rdi,4)
	movl	28(%rax), %ecx
	movq	-224(%rbp), %rdi        # 8-byte Reload
	shlq	$3, %rdi
	movl	%ecx, 28(%rsi,%rdi,4)
	movl	28(%rdx), %ecx
	movq	-224(%rbp), %rdi        # 8-byte Reload
	shlq	$3, %rdi
	movl	%ecx, 28(%r8,%rdi,4)
	movq	-224(%rbp), %rdi        # 8-byte Reload
	addq	$1, %rdi
	movq	%rdi, -232(%rbp)        # 8-byte Spill
# %bb.54:                               # %for.body3.17
                                        #   in Loop: Header=BB0_1 Depth=1
	xorl	%eax, %eax
	movss	.LCPI0_0(%rip), %xmm0   # xmm0 = mem[0],zero,zero,zero
	movq	-64(%rbp), %rcx         # 8-byte Reload
	movq	-232(%rbp), %rdx        # 8-byte Reload
	movl	(%rcx,%rdx,4), %esi
	movq	-32(%rbp), %rdi         # 8-byte Reload
	movl	%esi, (%rdi)
	movq	-56(%rbp), %r8          # 8-byte Reload
	movl	(%r8,%rdx,4), %esi
	movq	-24(%rbp), %r9          # 8-byte Reload
	movl	%esi, (%r9)
	addq	$64, %rdx
	movl	(%rcx,%rdx,4), %esi
	movl	%esi, 4(%rdi)
	movq	-232(%rbp), %rdx        # 8-byte Reload
	addq	$64, %rdx
	movl	(%r8,%rdx,4), %esi
	movl	%esi, 4(%r9)
	movq	-232(%rbp), %rdx        # 8-byte Reload
	addq	$128, %rdx
	movl	(%rcx,%rdx,4), %esi
	movl	%esi, 8(%rdi)
	movq	-232(%rbp), %rdx        # 8-byte Reload
	addq	$128, %rdx
	movl	(%r8,%rdx,4), %esi
	movl	%esi, 8(%r9)
	movq	-232(%rbp), %rdx        # 8-byte Reload
	addq	$192, %rdx
	movl	(%rcx,%rdx,4), %esi
	movl	%esi, 12(%rdi)
	movq	-232(%rbp), %rdx        # 8-byte Reload
	addq	$192, %rdx
	movl	(%r8,%rdx,4), %esi
	movl	%esi, 12(%r9)
	movq	-232(%rbp), %rdx        # 8-byte Reload
	addq	$256, %rdx              # imm = 0x100
	movl	(%rcx,%rdx,4), %esi
	movl	%esi, 16(%rdi)
	movq	-232(%rbp), %rdx        # 8-byte Reload
	addq	$256, %rdx              # imm = 0x100
	movl	(%r8,%rdx,4), %esi
	movl	%esi, 16(%r9)
	movq	-232(%rbp), %rdx        # 8-byte Reload
	addq	$320, %rdx              # imm = 0x140
	movl	(%rcx,%rdx,4), %esi
	movl	%esi, 20(%rdi)
	movq	-232(%rbp), %rdx        # 8-byte Reload
	addq	$320, %rdx              # imm = 0x140
	movl	(%r8,%rdx,4), %esi
	movl	%esi, 20(%r9)
	movq	-232(%rbp), %rdx        # 8-byte Reload
	addq	$384, %rdx              # imm = 0x180
	movl	(%rcx,%rdx,4), %esi
	movl	%esi, 24(%rdi)
	movq	-232(%rbp), %rdx        # 8-byte Reload
	addq	$384, %rdx              # imm = 0x180
	movl	(%r8,%rdx,4), %esi
	movl	%esi, 24(%r9)
	movq	-232(%rbp), %rdx        # 8-byte Reload
	addq	$448, %rdx              # imm = 0x1C0
	movl	(%rcx,%rdx,4), %esi
	movl	%esi, 28(%rdi)
	movq	-232(%rbp), %rdx        # 8-byte Reload
	addq	$448, %rdx              # imm = 0x1C0
	movl	(%r8,%rdx,4), %esi
	movl	%esi, 28(%r9)
	movl	(%rdi), %esi
	movl	(%r9), %r10d
	movl	%esi, %r11d
	addl	16(%rdi), %r11d
	movl	%r11d, (%rdi)
	movl	%r10d, %r11d
	addl	16(%r9), %r11d
	movl	%r11d, (%r9)
	subl	16(%rdi), %esi
	movl	%esi, 16(%rdi)
	subl	16(%r9), %r10d
	movl	%r10d, 16(%r9)
	movl	4(%rdi), %esi
	movl	4(%r9), %r10d
	movl	%esi, %r11d
	addl	20(%rdi), %r11d
	movl	%r11d, 4(%rdi)
	movl	%r10d, %r11d
	addl	20(%r9), %r11d
	movl	%r11d, 4(%r9)
	subl	20(%rdi), %esi
	movl	%esi, 20(%rdi)
	subl	20(%r9), %r10d
	movl	%r10d, 20(%r9)
	movl	8(%rdi), %esi
	movl	8(%r9), %r10d
	movl	%esi, %r11d
	addl	24(%rdi), %r11d
	movl	%r11d, 8(%rdi)
	movl	%r10d, %r11d
	addl	24(%r9), %r11d
	movl	%r11d, 8(%r9)
	subl	24(%rdi), %esi
	movl	%esi, 24(%rdi)
	subl	24(%r9), %r10d
	movl	%r10d, 24(%r9)
	movl	12(%rdi), %esi
	movl	12(%r9), %r10d
	movl	%esi, %r11d
	addl	28(%rdi), %r11d
	movl	%r11d, 12(%rdi)
	movl	%r10d, %r11d
	addl	28(%r9), %r11d
	movl	%r11d, 12(%r9)
	subl	28(%rdi), %esi
	movl	%esi, 28(%rdi)
	subl	28(%r9), %r10d
	movl	%r10d, 28(%r9)
	movl	20(%rdi), %esi
	movl	%esi, %r10d
	addl	20(%r9), %r10d
	cvtsi2ss	%r10d, %xmm1
	mulss	%xmm0, %xmm1
	cvttss2si	%xmm1, %r10d
	movl	%r10d, 20(%rdi)
	movl	20(%r9), %r10d
	subl	%esi, %r10d
	cvtsi2ss	%r10d, %xmm1
	mulss	%xmm0, %xmm1
	cvttss2si	%xmm1, %esi
	movl	%esi, 20(%r9)
	movl	24(%rdi), %esi
	movl	24(%r9), %r10d
	movl	%r10d, 24(%rdi)
	movl	%eax, %r10d
	subl	%esi, %r10d
	movl	%r10d, 24(%r9)
	movl	28(%rdi), %esi
	movl	28(%r9), %r10d
	subl	%esi, %r10d
	cvtsi2ss	%r10d, %xmm1
	mulss	%xmm0, %xmm1
	cvttss2si	%xmm1, %r10d
	movl	%r10d, 28(%rdi)
	addl	28(%r9), %esi
	movl	%eax, %r10d
	subl	%esi, %r10d
	cvtsi2ss	%r10d, %xmm1
	mulss	%xmm0, %xmm1
	cvttss2si	%xmm1, %esi
	movl	%esi, 28(%r9)
	movl	(%rdi), %esi
	movl	(%r9), %r10d
	movl	%esi, %r11d
	addl	8(%rdi), %r11d
	movl	%r11d, (%rdi)
	movl	%r10d, %r11d
	addl	8(%r9), %r11d
	movl	%r11d, (%r9)
	subl	8(%rdi), %esi
	movl	%esi, 8(%rdi)
	subl	8(%r9), %r10d
	movl	%r10d, 8(%r9)
	movl	4(%rdi), %esi
	movl	4(%r9), %r10d
	movl	%esi, %r11d
	addl	12(%rdi), %r11d
	movl	%r11d, 4(%rdi)
	movl	%r10d, %r11d
	addl	12(%r9), %r11d
	movl	%r11d, 4(%r9)
	subl	12(%rdi), %esi
	movl	%esi, 12(%rdi)
	subl	12(%r9), %r10d
	movl	%r10d, 12(%r9)
	movl	12(%rdi), %esi
	movl	%r10d, 12(%rdi)
	movl	%eax, %r10d
	subl	%esi, %r10d
	movl	%r10d, 12(%r9)
	movl	(%rdi), %esi
	movl	(%r9), %r10d
	movl	%esi, %r11d
	addl	4(%rdi), %r11d
	movl	%r11d, (%rdi)
	movl	%r10d, %r11d
	addl	4(%r9), %r11d
	movl	%r11d, (%r9)
	subl	4(%rdi), %esi
	movl	%esi, 4(%rdi)
	subl	4(%r9), %r10d
	movl	%r10d, 4(%r9)
	movl	8(%rdi), %esi
	movl	8(%r9), %r10d
	movl	%esi, %r11d
	addl	12(%rdi), %r11d
	movl	%r11d, 8(%rdi)
	movl	%r10d, %r11d
	addl	12(%r9), %r11d
	movl	%r11d, 8(%r9)
	subl	12(%rdi), %esi
	movl	%esi, 12(%rdi)
	subl	12(%r9), %r10d
	movl	%r10d, 12(%r9)
	movl	16(%rdi), %esi
	movl	16(%r9), %r10d
	movl	%esi, %r11d
	addl	24(%rdi), %r11d
	movl	%r11d, 16(%rdi)
	movl	%r10d, %r11d
	addl	24(%r9), %r11d
	movl	%r11d, 16(%r9)
	subl	24(%rdi), %esi
	movl	%esi, 24(%rdi)
	subl	24(%r9), %r10d
	movl	%r10d, 24(%r9)
	movl	20(%rdi), %esi
	movl	20(%r9), %r10d
	movl	%esi, %r11d
	addl	28(%rdi), %r11d
	movl	%r11d, 20(%rdi)
	movl	%r10d, %r11d
	addl	28(%r9), %r11d
	movl	%r11d, 20(%r9)
	subl	28(%rdi), %esi
	movl	%esi, 28(%rdi)
	subl	28(%r9), %r10d
	movl	%r10d, 28(%r9)
	movl	28(%rdi), %esi
	movl	%r10d, 28(%rdi)
	subl	%esi, %eax
	movl	%eax, 28(%r9)
	movl	16(%rdi), %eax
	movl	16(%r9), %esi
	movl	%eax, %r10d
	addl	20(%rdi), %r10d
	movl	%r10d, 16(%rdi)
	movl	%esi, %r10d
	addl	20(%r9), %r10d
	movl	%r10d, 16(%r9)
	subl	20(%rdi), %eax
	movl	%eax, 20(%rdi)
	subl	20(%r9), %esi
	movl	%esi, 20(%r9)
	movl	24(%rdi), %eax
	movl	24(%r9), %esi
	movl	%eax, %r10d
	addl	28(%rdi), %r10d
	movl	%r10d, 24(%rdi)
	movl	%esi, %r10d
	addl	28(%r9), %r10d
	movl	%r10d, 24(%r9)
	subl	28(%rdi), %eax
	movl	%eax, 28(%rdi)
	subl	28(%r9), %esi
	movl	%esi, 28(%r9)
# %bb.55:                               # %for.body278.17
                                        #   in Loop: Header=BB0_1 Depth=1
	movq	-232(%rbp), %rax        # 8-byte Reload
	imulq	$7, %rax, %rcx
	movq	-72(%rbp), %rdx         # 8-byte Reload
	cvttss2si	(%rdx,%rcx,4), %esi
	imulq	$7, %rax, %rcx
	movq	-80(%rbp), %rdi         # 8-byte Reload
	cvttss2si	(%rdi,%rcx,4), %r8d
	movq	-32(%rbp), %rcx         # 8-byte Reload
	movl	4(%rcx), %r9d
	movl	%esi, %r10d
	imull	4(%rcx), %r10d
	movl	%r8d, %r11d
	movq	-24(%rbp), %rbx         # 8-byte Reload
	imull	4(%rbx), %r11d
	subl	%r11d, %r10d
	movl	%r10d, 4(%rcx)
	imull	%r8d, %r9d
	imull	4(%rbx), %esi
	addl	%esi, %r9d
	movl	%r9d, 4(%rbx)
	imulq	$7, %rax, %r14
	cvttss2si	4(%rdx,%r14,4), %esi
	imulq	$7, %rax, %r14
	cvttss2si	4(%rdi,%r14,4), %r8d
	movl	8(%rcx), %r9d
	movl	%esi, %r10d
	imull	8(%rcx), %r10d
	movl	%r8d, %r11d
	imull	8(%rbx), %r11d
	subl	%r11d, %r10d
	movl	%r10d, 8(%rcx)
	imull	%r8d, %r9d
	imull	8(%rbx), %esi
	addl	%esi, %r9d
	movl	%r9d, 8(%rbx)
	imulq	$7, %rax, %r14
	cvttss2si	8(%rdx,%r14,4), %esi
	imulq	$7, %rax, %r14
	cvttss2si	8(%rdi,%r14,4), %r8d
	movl	12(%rcx), %r9d
	movl	%esi, %r10d
	imull	12(%rcx), %r10d
	movl	%r8d, %r11d
	imull	12(%rbx), %r11d
	subl	%r11d, %r10d
	movl	%r10d, 12(%rcx)
	imull	%r8d, %r9d
	imull	12(%rbx), %esi
	addl	%esi, %r9d
	movl	%r9d, 12(%rbx)
	imulq	$7, %rax, %r14
	cvttss2si	12(%rdx,%r14,4), %esi
	imulq	$7, %rax, %r14
	cvttss2si	12(%rdi,%r14,4), %r8d
	movl	16(%rcx), %r9d
	movl	%esi, %r10d
	imull	16(%rcx), %r10d
	movl	%r8d, %r11d
	imull	16(%rbx), %r11d
	subl	%r11d, %r10d
	movl	%r10d, 16(%rcx)
	imull	%r8d, %r9d
	imull	16(%rbx), %esi
	addl	%esi, %r9d
	movl	%r9d, 16(%rbx)
	imulq	$7, %rax, %r14
	cvttss2si	16(%rdx,%r14,4), %esi
	imulq	$7, %rax, %r14
	cvttss2si	16(%rdi,%r14,4), %r8d
	movl	20(%rcx), %r9d
	movl	%esi, %r10d
	imull	20(%rcx), %r10d
	movl	%r8d, %r11d
	imull	20(%rbx), %r11d
	subl	%r11d, %r10d
	movl	%r10d, 20(%rcx)
	imull	%r8d, %r9d
	imull	20(%rbx), %esi
	addl	%esi, %r9d
	movl	%r9d, 20(%rbx)
	imulq	$7, %rax, %r14
	cvttss2si	20(%rdx,%r14,4), %esi
	imulq	$7, %rax, %r14
	cvttss2si	20(%rdi,%r14,4), %r8d
	movl	24(%rcx), %r9d
	movl	%esi, %r10d
	imull	24(%rcx), %r10d
	movl	%r8d, %r11d
	imull	24(%rbx), %r11d
	subl	%r11d, %r10d
	movl	%r10d, 24(%rcx)
	imull	%r8d, %r9d
	imull	24(%rbx), %esi
	addl	%esi, %r9d
	movl	%r9d, 24(%rbx)
	imulq	$7, %rax, %r14
	cvttss2si	24(%rdx,%r14,4), %esi
	imulq	$7, %rax, %r14
	cvttss2si	24(%rdi,%r14,4), %r8d
	movl	28(%rcx), %r9d
	movl	%esi, %r10d
	imull	28(%rcx), %r10d
	movl	%r8d, %r11d
	imull	28(%rbx), %r11d
	subl	%r11d, %r10d
	movl	%r10d, 28(%rcx)
	imull	%r8d, %r9d
	imull	28(%rbx), %esi
	addl	%esi, %r9d
	movl	%r9d, 28(%rbx)
# %bb.56:                               # %for.body316.17
                                        #   in Loop: Header=BB0_1 Depth=1
	movq	-32(%rbp), %rax         # 8-byte Reload
	movl	(%rax), %ecx
	movq	-232(%rbp), %rdx        # 8-byte Reload
	shlq	$3, %rdx
	movq	-48(%rbp), %rsi         # 8-byte Reload
	movl	%ecx, (%rsi,%rdx,4)
	movq	-24(%rbp), %rdx         # 8-byte Reload
	movl	(%rdx), %ecx
	movq	-232(%rbp), %rdi        # 8-byte Reload
	shlq	$3, %rdi
	movq	-40(%rbp), %r8          # 8-byte Reload
	movl	%ecx, (%r8,%rdi,4)
	movl	4(%rax), %ecx
	movq	-232(%rbp), %rdi        # 8-byte Reload
	shlq	$3, %rdi
	movl	%ecx, 4(%rsi,%rdi,4)
	movl	4(%rdx), %ecx
	movq	-232(%rbp), %rdi        # 8-byte Reload
	shlq	$3, %rdi
	movl	%ecx, 4(%r8,%rdi,4)
	movl	8(%rax), %ecx
	movq	-232(%rbp), %rdi        # 8-byte Reload
	shlq	$3, %rdi
	movl	%ecx, 8(%rsi,%rdi,4)
	movl	8(%rdx), %ecx
	movq	-232(%rbp), %rdi        # 8-byte Reload
	shlq	$3, %rdi
	movl	%ecx, 8(%r8,%rdi,4)
	movl	12(%rax), %ecx
	movq	-232(%rbp), %rdi        # 8-byte Reload
	shlq	$3, %rdi
	movl	%ecx, 12(%rsi,%rdi,4)
	movl	12(%rdx), %ecx
	movq	-232(%rbp), %rdi        # 8-byte Reload
	shlq	$3, %rdi
	movl	%ecx, 12(%r8,%rdi,4)
	movl	16(%rax), %ecx
	movq	-232(%rbp), %rdi        # 8-byte Reload
	shlq	$3, %rdi
	movl	%ecx, 16(%rsi,%rdi,4)
	movl	16(%rdx), %ecx
	movq	-232(%rbp), %rdi        # 8-byte Reload
	shlq	$3, %rdi
	movl	%ecx, 16(%r8,%rdi,4)
	movl	20(%rax), %ecx
	movq	-232(%rbp), %rdi        # 8-byte Reload
	shlq	$3, %rdi
	movl	%ecx, 20(%rsi,%rdi,4)
	movl	20(%rdx), %ecx
	movq	-232(%rbp), %rdi        # 8-byte Reload
	shlq	$3, %rdi
	movl	%ecx, 20(%r8,%rdi,4)
	movl	24(%rax), %ecx
	movq	-232(%rbp), %rdi        # 8-byte Reload
	shlq	$3, %rdi
	movl	%ecx, 24(%rsi,%rdi,4)
	movl	24(%rdx), %ecx
	movq	-232(%rbp), %rdi        # 8-byte Reload
	shlq	$3, %rdi
	movl	%ecx, 24(%r8,%rdi,4)
	movl	28(%rax), %ecx
	movq	-232(%rbp), %rdi        # 8-byte Reload
	shlq	$3, %rdi
	movl	%ecx, 28(%rsi,%rdi,4)
	movl	28(%rdx), %ecx
	movq	-232(%rbp), %rdi        # 8-byte Reload
	shlq	$3, %rdi
	movl	%ecx, 28(%r8,%rdi,4)
	movq	-232(%rbp), %rdi        # 8-byte Reload
	addq	$1, %rdi
	movq	%rdi, -240(%rbp)        # 8-byte Spill
# %bb.57:                               # %for.body3.18
                                        #   in Loop: Header=BB0_1 Depth=1
	xorl	%eax, %eax
	movss	.LCPI0_0(%rip), %xmm0   # xmm0 = mem[0],zero,zero,zero
	movq	-64(%rbp), %rcx         # 8-byte Reload
	movq	-240(%rbp), %rdx        # 8-byte Reload
	movl	(%rcx,%rdx,4), %esi
	movq	-32(%rbp), %rdi         # 8-byte Reload
	movl	%esi, (%rdi)
	movq	-56(%rbp), %r8          # 8-byte Reload
	movl	(%r8,%rdx,4), %esi
	movq	-24(%rbp), %r9          # 8-byte Reload
	movl	%esi, (%r9)
	addq	$64, %rdx
	movl	(%rcx,%rdx,4), %esi
	movl	%esi, 4(%rdi)
	movq	-240(%rbp), %rdx        # 8-byte Reload
	addq	$64, %rdx
	movl	(%r8,%rdx,4), %esi
	movl	%esi, 4(%r9)
	movq	-240(%rbp), %rdx        # 8-byte Reload
	addq	$128, %rdx
	movl	(%rcx,%rdx,4), %esi
	movl	%esi, 8(%rdi)
	movq	-240(%rbp), %rdx        # 8-byte Reload
	addq	$128, %rdx
	movl	(%r8,%rdx,4), %esi
	movl	%esi, 8(%r9)
	movq	-240(%rbp), %rdx        # 8-byte Reload
	addq	$192, %rdx
	movl	(%rcx,%rdx,4), %esi
	movl	%esi, 12(%rdi)
	movq	-240(%rbp), %rdx        # 8-byte Reload
	addq	$192, %rdx
	movl	(%r8,%rdx,4), %esi
	movl	%esi, 12(%r9)
	movq	-240(%rbp), %rdx        # 8-byte Reload
	addq	$256, %rdx              # imm = 0x100
	movl	(%rcx,%rdx,4), %esi
	movl	%esi, 16(%rdi)
	movq	-240(%rbp), %rdx        # 8-byte Reload
	addq	$256, %rdx              # imm = 0x100
	movl	(%r8,%rdx,4), %esi
	movl	%esi, 16(%r9)
	movq	-240(%rbp), %rdx        # 8-byte Reload
	addq	$320, %rdx              # imm = 0x140
	movl	(%rcx,%rdx,4), %esi
	movl	%esi, 20(%rdi)
	movq	-240(%rbp), %rdx        # 8-byte Reload
	addq	$320, %rdx              # imm = 0x140
	movl	(%r8,%rdx,4), %esi
	movl	%esi, 20(%r9)
	movq	-240(%rbp), %rdx        # 8-byte Reload
	addq	$384, %rdx              # imm = 0x180
	movl	(%rcx,%rdx,4), %esi
	movl	%esi, 24(%rdi)
	movq	-240(%rbp), %rdx        # 8-byte Reload
	addq	$384, %rdx              # imm = 0x180
	movl	(%r8,%rdx,4), %esi
	movl	%esi, 24(%r9)
	movq	-240(%rbp), %rdx        # 8-byte Reload
	addq	$448, %rdx              # imm = 0x1C0
	movl	(%rcx,%rdx,4), %esi
	movl	%esi, 28(%rdi)
	movq	-240(%rbp), %rdx        # 8-byte Reload
	addq	$448, %rdx              # imm = 0x1C0
	movl	(%r8,%rdx,4), %esi
	movl	%esi, 28(%r9)
	movl	(%rdi), %esi
	movl	(%r9), %r10d
	movl	%esi, %r11d
	addl	16(%rdi), %r11d
	movl	%r11d, (%rdi)
	movl	%r10d, %r11d
	addl	16(%r9), %r11d
	movl	%r11d, (%r9)
	subl	16(%rdi), %esi
	movl	%esi, 16(%rdi)
	subl	16(%r9), %r10d
	movl	%r10d, 16(%r9)
	movl	4(%rdi), %esi
	movl	4(%r9), %r10d
	movl	%esi, %r11d
	addl	20(%rdi), %r11d
	movl	%r11d, 4(%rdi)
	movl	%r10d, %r11d
	addl	20(%r9), %r11d
	movl	%r11d, 4(%r9)
	subl	20(%rdi), %esi
	movl	%esi, 20(%rdi)
	subl	20(%r9), %r10d
	movl	%r10d, 20(%r9)
	movl	8(%rdi), %esi
	movl	8(%r9), %r10d
	movl	%esi, %r11d
	addl	24(%rdi), %r11d
	movl	%r11d, 8(%rdi)
	movl	%r10d, %r11d
	addl	24(%r9), %r11d
	movl	%r11d, 8(%r9)
	subl	24(%rdi), %esi
	movl	%esi, 24(%rdi)
	subl	24(%r9), %r10d
	movl	%r10d, 24(%r9)
	movl	12(%rdi), %esi
	movl	12(%r9), %r10d
	movl	%esi, %r11d
	addl	28(%rdi), %r11d
	movl	%r11d, 12(%rdi)
	movl	%r10d, %r11d
	addl	28(%r9), %r11d
	movl	%r11d, 12(%r9)
	subl	28(%rdi), %esi
	movl	%esi, 28(%rdi)
	subl	28(%r9), %r10d
	movl	%r10d, 28(%r9)
	movl	20(%rdi), %esi
	movl	%esi, %r10d
	addl	20(%r9), %r10d
	cvtsi2ss	%r10d, %xmm1
	mulss	%xmm0, %xmm1
	cvttss2si	%xmm1, %r10d
	movl	%r10d, 20(%rdi)
	movl	20(%r9), %r10d
	subl	%esi, %r10d
	cvtsi2ss	%r10d, %xmm1
	mulss	%xmm0, %xmm1
	cvttss2si	%xmm1, %esi
	movl	%esi, 20(%r9)
	movl	24(%rdi), %esi
	movl	24(%r9), %r10d
	movl	%r10d, 24(%rdi)
	movl	%eax, %r10d
	subl	%esi, %r10d
	movl	%r10d, 24(%r9)
	movl	28(%rdi), %esi
	movl	28(%r9), %r10d
	subl	%esi, %r10d
	cvtsi2ss	%r10d, %xmm1
	mulss	%xmm0, %xmm1
	cvttss2si	%xmm1, %r10d
	movl	%r10d, 28(%rdi)
	addl	28(%r9), %esi
	movl	%eax, %r10d
	subl	%esi, %r10d
	cvtsi2ss	%r10d, %xmm1
	mulss	%xmm0, %xmm1
	cvttss2si	%xmm1, %esi
	movl	%esi, 28(%r9)
	movl	(%rdi), %esi
	movl	(%r9), %r10d
	movl	%esi, %r11d
	addl	8(%rdi), %r11d
	movl	%r11d, (%rdi)
	movl	%r10d, %r11d
	addl	8(%r9), %r11d
	movl	%r11d, (%r9)
	subl	8(%rdi), %esi
	movl	%esi, 8(%rdi)
	subl	8(%r9), %r10d
	movl	%r10d, 8(%r9)
	movl	4(%rdi), %esi
	movl	4(%r9), %r10d
	movl	%esi, %r11d
	addl	12(%rdi), %r11d
	movl	%r11d, 4(%rdi)
	movl	%r10d, %r11d
	addl	12(%r9), %r11d
	movl	%r11d, 4(%r9)
	subl	12(%rdi), %esi
	movl	%esi, 12(%rdi)
	subl	12(%r9), %r10d
	movl	%r10d, 12(%r9)
	movl	12(%rdi), %esi
	movl	%r10d, 12(%rdi)
	movl	%eax, %r10d
	subl	%esi, %r10d
	movl	%r10d, 12(%r9)
	movl	(%rdi), %esi
	movl	(%r9), %r10d
	movl	%esi, %r11d
	addl	4(%rdi), %r11d
	movl	%r11d, (%rdi)
	movl	%r10d, %r11d
	addl	4(%r9), %r11d
	movl	%r11d, (%r9)
	subl	4(%rdi), %esi
	movl	%esi, 4(%rdi)
	subl	4(%r9), %r10d
	movl	%r10d, 4(%r9)
	movl	8(%rdi), %esi
	movl	8(%r9), %r10d
	movl	%esi, %r11d
	addl	12(%rdi), %r11d
	movl	%r11d, 8(%rdi)
	movl	%r10d, %r11d
	addl	12(%r9), %r11d
	movl	%r11d, 8(%r9)
	subl	12(%rdi), %esi
	movl	%esi, 12(%rdi)
	subl	12(%r9), %r10d
	movl	%r10d, 12(%r9)
	movl	16(%rdi), %esi
	movl	16(%r9), %r10d
	movl	%esi, %r11d
	addl	24(%rdi), %r11d
	movl	%r11d, 16(%rdi)
	movl	%r10d, %r11d
	addl	24(%r9), %r11d
	movl	%r11d, 16(%r9)
	subl	24(%rdi), %esi
	movl	%esi, 24(%rdi)
	subl	24(%r9), %r10d
	movl	%r10d, 24(%r9)
	movl	20(%rdi), %esi
	movl	20(%r9), %r10d
	movl	%esi, %r11d
	addl	28(%rdi), %r11d
	movl	%r11d, 20(%rdi)
	movl	%r10d, %r11d
	addl	28(%r9), %r11d
	movl	%r11d, 20(%r9)
	subl	28(%rdi), %esi
	movl	%esi, 28(%rdi)
	subl	28(%r9), %r10d
	movl	%r10d, 28(%r9)
	movl	28(%rdi), %esi
	movl	%r10d, 28(%rdi)
	subl	%esi, %eax
	movl	%eax, 28(%r9)
	movl	16(%rdi), %eax
	movl	16(%r9), %esi
	movl	%eax, %r10d
	addl	20(%rdi), %r10d
	movl	%r10d, 16(%rdi)
	movl	%esi, %r10d
	addl	20(%r9), %r10d
	movl	%r10d, 16(%r9)
	subl	20(%rdi), %eax
	movl	%eax, 20(%rdi)
	subl	20(%r9), %esi
	movl	%esi, 20(%r9)
	movl	24(%rdi), %eax
	movl	24(%r9), %esi
	movl	%eax, %r10d
	addl	28(%rdi), %r10d
	movl	%r10d, 24(%rdi)
	movl	%esi, %r10d
	addl	28(%r9), %r10d
	movl	%r10d, 24(%r9)
	subl	28(%rdi), %eax
	movl	%eax, 28(%rdi)
	subl	28(%r9), %esi
	movl	%esi, 28(%r9)
# %bb.58:                               # %for.body278.18
                                        #   in Loop: Header=BB0_1 Depth=1
	movq	-240(%rbp), %rax        # 8-byte Reload
	imulq	$7, %rax, %rcx
	movq	-72(%rbp), %rdx         # 8-byte Reload
	cvttss2si	(%rdx,%rcx,4), %esi
	imulq	$7, %rax, %rcx
	movq	-80(%rbp), %rdi         # 8-byte Reload
	cvttss2si	(%rdi,%rcx,4), %r8d
	movq	-32(%rbp), %rcx         # 8-byte Reload
	movl	4(%rcx), %r9d
	movl	%esi, %r10d
	imull	4(%rcx), %r10d
	movl	%r8d, %r11d
	movq	-24(%rbp), %rbx         # 8-byte Reload
	imull	4(%rbx), %r11d
	subl	%r11d, %r10d
	movl	%r10d, 4(%rcx)
	imull	%r8d, %r9d
	imull	4(%rbx), %esi
	addl	%esi, %r9d
	movl	%r9d, 4(%rbx)
	imulq	$7, %rax, %r14
	cvttss2si	4(%rdx,%r14,4), %esi
	imulq	$7, %rax, %r14
	cvttss2si	4(%rdi,%r14,4), %r8d
	movl	8(%rcx), %r9d
	movl	%esi, %r10d
	imull	8(%rcx), %r10d
	movl	%r8d, %r11d
	imull	8(%rbx), %r11d
	subl	%r11d, %r10d
	movl	%r10d, 8(%rcx)
	imull	%r8d, %r9d
	imull	8(%rbx), %esi
	addl	%esi, %r9d
	movl	%r9d, 8(%rbx)
	imulq	$7, %rax, %r14
	cvttss2si	8(%rdx,%r14,4), %esi
	imulq	$7, %rax, %r14
	cvttss2si	8(%rdi,%r14,4), %r8d
	movl	12(%rcx), %r9d
	movl	%esi, %r10d
	imull	12(%rcx), %r10d
	movl	%r8d, %r11d
	imull	12(%rbx), %r11d
	subl	%r11d, %r10d
	movl	%r10d, 12(%rcx)
	imull	%r8d, %r9d
	imull	12(%rbx), %esi
	addl	%esi, %r9d
	movl	%r9d, 12(%rbx)
	imulq	$7, %rax, %r14
	cvttss2si	12(%rdx,%r14,4), %esi
	imulq	$7, %rax, %r14
	cvttss2si	12(%rdi,%r14,4), %r8d
	movl	16(%rcx), %r9d
	movl	%esi, %r10d
	imull	16(%rcx), %r10d
	movl	%r8d, %r11d
	imull	16(%rbx), %r11d
	subl	%r11d, %r10d
	movl	%r10d, 16(%rcx)
	imull	%r8d, %r9d
	imull	16(%rbx), %esi
	addl	%esi, %r9d
	movl	%r9d, 16(%rbx)
	imulq	$7, %rax, %r14
	cvttss2si	16(%rdx,%r14,4), %esi
	imulq	$7, %rax, %r14
	cvttss2si	16(%rdi,%r14,4), %r8d
	movl	20(%rcx), %r9d
	movl	%esi, %r10d
	imull	20(%rcx), %r10d
	movl	%r8d, %r11d
	imull	20(%rbx), %r11d
	subl	%r11d, %r10d
	movl	%r10d, 20(%rcx)
	imull	%r8d, %r9d
	imull	20(%rbx), %esi
	addl	%esi, %r9d
	movl	%r9d, 20(%rbx)
	imulq	$7, %rax, %r14
	cvttss2si	20(%rdx,%r14,4), %esi
	imulq	$7, %rax, %r14
	cvttss2si	20(%rdi,%r14,4), %r8d
	movl	24(%rcx), %r9d
	movl	%esi, %r10d
	imull	24(%rcx), %r10d
	movl	%r8d, %r11d
	imull	24(%rbx), %r11d
	subl	%r11d, %r10d
	movl	%r10d, 24(%rcx)
	imull	%r8d, %r9d
	imull	24(%rbx), %esi
	addl	%esi, %r9d
	movl	%r9d, 24(%rbx)
	imulq	$7, %rax, %r14
	cvttss2si	24(%rdx,%r14,4), %esi
	imulq	$7, %rax, %r14
	cvttss2si	24(%rdi,%r14,4), %r8d
	movl	28(%rcx), %r9d
	movl	%esi, %r10d
	imull	28(%rcx), %r10d
	movl	%r8d, %r11d
	imull	28(%rbx), %r11d
	subl	%r11d, %r10d
	movl	%r10d, 28(%rcx)
	imull	%r8d, %r9d
	imull	28(%rbx), %esi
	addl	%esi, %r9d
	movl	%r9d, 28(%rbx)
# %bb.59:                               # %for.body316.18
                                        #   in Loop: Header=BB0_1 Depth=1
	movq	-32(%rbp), %rax         # 8-byte Reload
	movl	(%rax), %ecx
	movq	-240(%rbp), %rdx        # 8-byte Reload
	shlq	$3, %rdx
	movq	-48(%rbp), %rsi         # 8-byte Reload
	movl	%ecx, (%rsi,%rdx,4)
	movq	-24(%rbp), %rdx         # 8-byte Reload
	movl	(%rdx), %ecx
	movq	-240(%rbp), %rdi        # 8-byte Reload
	shlq	$3, %rdi
	movq	-40(%rbp), %r8          # 8-byte Reload
	movl	%ecx, (%r8,%rdi,4)
	movl	4(%rax), %ecx
	movq	-240(%rbp), %rdi        # 8-byte Reload
	shlq	$3, %rdi
	movl	%ecx, 4(%rsi,%rdi,4)
	movl	4(%rdx), %ecx
	movq	-240(%rbp), %rdi        # 8-byte Reload
	shlq	$3, %rdi
	movl	%ecx, 4(%r8,%rdi,4)
	movl	8(%rax), %ecx
	movq	-240(%rbp), %rdi        # 8-byte Reload
	shlq	$3, %rdi
	movl	%ecx, 8(%rsi,%rdi,4)
	movl	8(%rdx), %ecx
	movq	-240(%rbp), %rdi        # 8-byte Reload
	shlq	$3, %rdi
	movl	%ecx, 8(%r8,%rdi,4)
	movl	12(%rax), %ecx
	movq	-240(%rbp), %rdi        # 8-byte Reload
	shlq	$3, %rdi
	movl	%ecx, 12(%rsi,%rdi,4)
	movl	12(%rdx), %ecx
	movq	-240(%rbp), %rdi        # 8-byte Reload
	shlq	$3, %rdi
	movl	%ecx, 12(%r8,%rdi,4)
	movl	16(%rax), %ecx
	movq	-240(%rbp), %rdi        # 8-byte Reload
	shlq	$3, %rdi
	movl	%ecx, 16(%rsi,%rdi,4)
	movl	16(%rdx), %ecx
	movq	-240(%rbp), %rdi        # 8-byte Reload
	shlq	$3, %rdi
	movl	%ecx, 16(%r8,%rdi,4)
	movl	20(%rax), %ecx
	movq	-240(%rbp), %rdi        # 8-byte Reload
	shlq	$3, %rdi
	movl	%ecx, 20(%rsi,%rdi,4)
	movl	20(%rdx), %ecx
	movq	-240(%rbp), %rdi        # 8-byte Reload
	shlq	$3, %rdi
	movl	%ecx, 20(%r8,%rdi,4)
	movl	24(%rax), %ecx
	movq	-240(%rbp), %rdi        # 8-byte Reload
	shlq	$3, %rdi
	movl	%ecx, 24(%rsi,%rdi,4)
	movl	24(%rdx), %ecx
	movq	-240(%rbp), %rdi        # 8-byte Reload
	shlq	$3, %rdi
	movl	%ecx, 24(%r8,%rdi,4)
	movl	28(%rax), %ecx
	movq	-240(%rbp), %rdi        # 8-byte Reload
	shlq	$3, %rdi
	movl	%ecx, 28(%rsi,%rdi,4)
	movl	28(%rdx), %ecx
	movq	-240(%rbp), %rdi        # 8-byte Reload
	shlq	$3, %rdi
	movl	%ecx, 28(%r8,%rdi,4)
	movq	-240(%rbp), %rdi        # 8-byte Reload
	addq	$1, %rdi
	movq	%rdi, -248(%rbp)        # 8-byte Spill
# %bb.60:                               # %for.body3.19
                                        #   in Loop: Header=BB0_1 Depth=1
	xorl	%eax, %eax
	movss	.LCPI0_0(%rip), %xmm0   # xmm0 = mem[0],zero,zero,zero
	movq	-64(%rbp), %rcx         # 8-byte Reload
	movq	-248(%rbp), %rdx        # 8-byte Reload
	movl	(%rcx,%rdx,4), %esi
	movq	-32(%rbp), %rdi         # 8-byte Reload
	movl	%esi, (%rdi)
	movq	-56(%rbp), %r8          # 8-byte Reload
	movl	(%r8,%rdx,4), %esi
	movq	-24(%rbp), %r9          # 8-byte Reload
	movl	%esi, (%r9)
	addq	$64, %rdx
	movl	(%rcx,%rdx,4), %esi
	movl	%esi, 4(%rdi)
	movq	-248(%rbp), %rdx        # 8-byte Reload
	addq	$64, %rdx
	movl	(%r8,%rdx,4), %esi
	movl	%esi, 4(%r9)
	movq	-248(%rbp), %rdx        # 8-byte Reload
	addq	$128, %rdx
	movl	(%rcx,%rdx,4), %esi
	movl	%esi, 8(%rdi)
	movq	-248(%rbp), %rdx        # 8-byte Reload
	addq	$128, %rdx
	movl	(%r8,%rdx,4), %esi
	movl	%esi, 8(%r9)
	movq	-248(%rbp), %rdx        # 8-byte Reload
	addq	$192, %rdx
	movl	(%rcx,%rdx,4), %esi
	movl	%esi, 12(%rdi)
	movq	-248(%rbp), %rdx        # 8-byte Reload
	addq	$192, %rdx
	movl	(%r8,%rdx,4), %esi
	movl	%esi, 12(%r9)
	movq	-248(%rbp), %rdx        # 8-byte Reload
	addq	$256, %rdx              # imm = 0x100
	movl	(%rcx,%rdx,4), %esi
	movl	%esi, 16(%rdi)
	movq	-248(%rbp), %rdx        # 8-byte Reload
	addq	$256, %rdx              # imm = 0x100
	movl	(%r8,%rdx,4), %esi
	movl	%esi, 16(%r9)
	movq	-248(%rbp), %rdx        # 8-byte Reload
	addq	$320, %rdx              # imm = 0x140
	movl	(%rcx,%rdx,4), %esi
	movl	%esi, 20(%rdi)
	movq	-248(%rbp), %rdx        # 8-byte Reload
	addq	$320, %rdx              # imm = 0x140
	movl	(%r8,%rdx,4), %esi
	movl	%esi, 20(%r9)
	movq	-248(%rbp), %rdx        # 8-byte Reload
	addq	$384, %rdx              # imm = 0x180
	movl	(%rcx,%rdx,4), %esi
	movl	%esi, 24(%rdi)
	movq	-248(%rbp), %rdx        # 8-byte Reload
	addq	$384, %rdx              # imm = 0x180
	movl	(%r8,%rdx,4), %esi
	movl	%esi, 24(%r9)
	movq	-248(%rbp), %rdx        # 8-byte Reload
	addq	$448, %rdx              # imm = 0x1C0
	movl	(%rcx,%rdx,4), %esi
	movl	%esi, 28(%rdi)
	movq	-248(%rbp), %rdx        # 8-byte Reload
	addq	$448, %rdx              # imm = 0x1C0
	movl	(%r8,%rdx,4), %esi
	movl	%esi, 28(%r9)
	movl	(%rdi), %esi
	movl	(%r9), %r10d
	movl	%esi, %r11d
	addl	16(%rdi), %r11d
	movl	%r11d, (%rdi)
	movl	%r10d, %r11d
	addl	16(%r9), %r11d
	movl	%r11d, (%r9)
	subl	16(%rdi), %esi
	movl	%esi, 16(%rdi)
	subl	16(%r9), %r10d
	movl	%r10d, 16(%r9)
	movl	4(%rdi), %esi
	movl	4(%r9), %r10d
	movl	%esi, %r11d
	addl	20(%rdi), %r11d
	movl	%r11d, 4(%rdi)
	movl	%r10d, %r11d
	addl	20(%r9), %r11d
	movl	%r11d, 4(%r9)
	subl	20(%rdi), %esi
	movl	%esi, 20(%rdi)
	subl	20(%r9), %r10d
	movl	%r10d, 20(%r9)
	movl	8(%rdi), %esi
	movl	8(%r9), %r10d
	movl	%esi, %r11d
	addl	24(%rdi), %r11d
	movl	%r11d, 8(%rdi)
	movl	%r10d, %r11d
	addl	24(%r9), %r11d
	movl	%r11d, 8(%r9)
	subl	24(%rdi), %esi
	movl	%esi, 24(%rdi)
	subl	24(%r9), %r10d
	movl	%r10d, 24(%r9)
	movl	12(%rdi), %esi
	movl	12(%r9), %r10d
	movl	%esi, %r11d
	addl	28(%rdi), %r11d
	movl	%r11d, 12(%rdi)
	movl	%r10d, %r11d
	addl	28(%r9), %r11d
	movl	%r11d, 12(%r9)
	subl	28(%rdi), %esi
	movl	%esi, 28(%rdi)
	subl	28(%r9), %r10d
	movl	%r10d, 28(%r9)
	movl	20(%rdi), %esi
	movl	%esi, %r10d
	addl	20(%r9), %r10d
	cvtsi2ss	%r10d, %xmm1
	mulss	%xmm0, %xmm1
	cvttss2si	%xmm1, %r10d
	movl	%r10d, 20(%rdi)
	movl	20(%r9), %r10d
	subl	%esi, %r10d
	cvtsi2ss	%r10d, %xmm1
	mulss	%xmm0, %xmm1
	cvttss2si	%xmm1, %esi
	movl	%esi, 20(%r9)
	movl	24(%rdi), %esi
	movl	24(%r9), %r10d
	movl	%r10d, 24(%rdi)
	movl	%eax, %r10d
	subl	%esi, %r10d
	movl	%r10d, 24(%r9)
	movl	28(%rdi), %esi
	movl	28(%r9), %r10d
	subl	%esi, %r10d
	cvtsi2ss	%r10d, %xmm1
	mulss	%xmm0, %xmm1
	cvttss2si	%xmm1, %r10d
	movl	%r10d, 28(%rdi)
	addl	28(%r9), %esi
	movl	%eax, %r10d
	subl	%esi, %r10d
	cvtsi2ss	%r10d, %xmm1
	mulss	%xmm0, %xmm1
	cvttss2si	%xmm1, %esi
	movl	%esi, 28(%r9)
	movl	(%rdi), %esi
	movl	(%r9), %r10d
	movl	%esi, %r11d
	addl	8(%rdi), %r11d
	movl	%r11d, (%rdi)
	movl	%r10d, %r11d
	addl	8(%r9), %r11d
	movl	%r11d, (%r9)
	subl	8(%rdi), %esi
	movl	%esi, 8(%rdi)
	subl	8(%r9), %r10d
	movl	%r10d, 8(%r9)
	movl	4(%rdi), %esi
	movl	4(%r9), %r10d
	movl	%esi, %r11d
	addl	12(%rdi), %r11d
	movl	%r11d, 4(%rdi)
	movl	%r10d, %r11d
	addl	12(%r9), %r11d
	movl	%r11d, 4(%r9)
	subl	12(%rdi), %esi
	movl	%esi, 12(%rdi)
	subl	12(%r9), %r10d
	movl	%r10d, 12(%r9)
	movl	12(%rdi), %esi
	movl	%r10d, 12(%rdi)
	movl	%eax, %r10d
	subl	%esi, %r10d
	movl	%r10d, 12(%r9)
	movl	(%rdi), %esi
	movl	(%r9), %r10d
	movl	%esi, %r11d
	addl	4(%rdi), %r11d
	movl	%r11d, (%rdi)
	movl	%r10d, %r11d
	addl	4(%r9), %r11d
	movl	%r11d, (%r9)
	subl	4(%rdi), %esi
	movl	%esi, 4(%rdi)
	subl	4(%r9), %r10d
	movl	%r10d, 4(%r9)
	movl	8(%rdi), %esi
	movl	8(%r9), %r10d
	movl	%esi, %r11d
	addl	12(%rdi), %r11d
	movl	%r11d, 8(%rdi)
	movl	%r10d, %r11d
	addl	12(%r9), %r11d
	movl	%r11d, 8(%r9)
	subl	12(%rdi), %esi
	movl	%esi, 12(%rdi)
	subl	12(%r9), %r10d
	movl	%r10d, 12(%r9)
	movl	16(%rdi), %esi
	movl	16(%r9), %r10d
	movl	%esi, %r11d
	addl	24(%rdi), %r11d
	movl	%r11d, 16(%rdi)
	movl	%r10d, %r11d
	addl	24(%r9), %r11d
	movl	%r11d, 16(%r9)
	subl	24(%rdi), %esi
	movl	%esi, 24(%rdi)
	subl	24(%r9), %r10d
	movl	%r10d, 24(%r9)
	movl	20(%rdi), %esi
	movl	20(%r9), %r10d
	movl	%esi, %r11d
	addl	28(%rdi), %r11d
	movl	%r11d, 20(%rdi)
	movl	%r10d, %r11d
	addl	28(%r9), %r11d
	movl	%r11d, 20(%r9)
	subl	28(%rdi), %esi
	movl	%esi, 28(%rdi)
	subl	28(%r9), %r10d
	movl	%r10d, 28(%r9)
	movl	28(%rdi), %esi
	movl	%r10d, 28(%rdi)
	subl	%esi, %eax
	movl	%eax, 28(%r9)
	movl	16(%rdi), %eax
	movl	16(%r9), %esi
	movl	%eax, %r10d
	addl	20(%rdi), %r10d
	movl	%r10d, 16(%rdi)
	movl	%esi, %r10d
	addl	20(%r9), %r10d
	movl	%r10d, 16(%r9)
	subl	20(%rdi), %eax
	movl	%eax, 20(%rdi)
	subl	20(%r9), %esi
	movl	%esi, 20(%r9)
	movl	24(%rdi), %eax
	movl	24(%r9), %esi
	movl	%eax, %r10d
	addl	28(%rdi), %r10d
	movl	%r10d, 24(%rdi)
	movl	%esi, %r10d
	addl	28(%r9), %r10d
	movl	%r10d, 24(%r9)
	subl	28(%rdi), %eax
	movl	%eax, 28(%rdi)
	subl	28(%r9), %esi
	movl	%esi, 28(%r9)
# %bb.61:                               # %for.body278.19
                                        #   in Loop: Header=BB0_1 Depth=1
	movq	-248(%rbp), %rax        # 8-byte Reload
	imulq	$7, %rax, %rcx
	movq	-72(%rbp), %rdx         # 8-byte Reload
	cvttss2si	(%rdx,%rcx,4), %esi
	imulq	$7, %rax, %rcx
	movq	-80(%rbp), %rdi         # 8-byte Reload
	cvttss2si	(%rdi,%rcx,4), %r8d
	movq	-32(%rbp), %rcx         # 8-byte Reload
	movl	4(%rcx), %r9d
	movl	%esi, %r10d
	imull	4(%rcx), %r10d
	movl	%r8d, %r11d
	movq	-24(%rbp), %rbx         # 8-byte Reload
	imull	4(%rbx), %r11d
	subl	%r11d, %r10d
	movl	%r10d, 4(%rcx)
	imull	%r8d, %r9d
	imull	4(%rbx), %esi
	addl	%esi, %r9d
	movl	%r9d, 4(%rbx)
	imulq	$7, %rax, %r14
	cvttss2si	4(%rdx,%r14,4), %esi
	imulq	$7, %rax, %r14
	cvttss2si	4(%rdi,%r14,4), %r8d
	movl	8(%rcx), %r9d
	movl	%esi, %r10d
	imull	8(%rcx), %r10d
	movl	%r8d, %r11d
	imull	8(%rbx), %r11d
	subl	%r11d, %r10d
	movl	%r10d, 8(%rcx)
	imull	%r8d, %r9d
	imull	8(%rbx), %esi
	addl	%esi, %r9d
	movl	%r9d, 8(%rbx)
	imulq	$7, %rax, %r14
	cvttss2si	8(%rdx,%r14,4), %esi
	imulq	$7, %rax, %r14
	cvttss2si	8(%rdi,%r14,4), %r8d
	movl	12(%rcx), %r9d
	movl	%esi, %r10d
	imull	12(%rcx), %r10d
	movl	%r8d, %r11d
	imull	12(%rbx), %r11d
	subl	%r11d, %r10d
	movl	%r10d, 12(%rcx)
	imull	%r8d, %r9d
	imull	12(%rbx), %esi
	addl	%esi, %r9d
	movl	%r9d, 12(%rbx)
	imulq	$7, %rax, %r14
	cvttss2si	12(%rdx,%r14,4), %esi
	imulq	$7, %rax, %r14
	cvttss2si	12(%rdi,%r14,4), %r8d
	movl	16(%rcx), %r9d
	movl	%esi, %r10d
	imull	16(%rcx), %r10d
	movl	%r8d, %r11d
	imull	16(%rbx), %r11d
	subl	%r11d, %r10d
	movl	%r10d, 16(%rcx)
	imull	%r8d, %r9d
	imull	16(%rbx), %esi
	addl	%esi, %r9d
	movl	%r9d, 16(%rbx)
	imulq	$7, %rax, %r14
	cvttss2si	16(%rdx,%r14,4), %esi
	imulq	$7, %rax, %r14
	cvttss2si	16(%rdi,%r14,4), %r8d
	movl	20(%rcx), %r9d
	movl	%esi, %r10d
	imull	20(%rcx), %r10d
	movl	%r8d, %r11d
	imull	20(%rbx), %r11d
	subl	%r11d, %r10d
	movl	%r10d, 20(%rcx)
	imull	%r8d, %r9d
	imull	20(%rbx), %esi
	addl	%esi, %r9d
	movl	%r9d, 20(%rbx)
	imulq	$7, %rax, %r14
	cvttss2si	20(%rdx,%r14,4), %esi
	imulq	$7, %rax, %r14
	cvttss2si	20(%rdi,%r14,4), %r8d
	movl	24(%rcx), %r9d
	movl	%esi, %r10d
	imull	24(%rcx), %r10d
	movl	%r8d, %r11d
	imull	24(%rbx), %r11d
	subl	%r11d, %r10d
	movl	%r10d, 24(%rcx)
	imull	%r8d, %r9d
	imull	24(%rbx), %esi
	addl	%esi, %r9d
	movl	%r9d, 24(%rbx)
	imulq	$7, %rax, %r14
	cvttss2si	24(%rdx,%r14,4), %esi
	imulq	$7, %rax, %r14
	cvttss2si	24(%rdi,%r14,4), %r8d
	movl	28(%rcx), %r9d
	movl	%esi, %r10d
	imull	28(%rcx), %r10d
	movl	%r8d, %r11d
	imull	28(%rbx), %r11d
	subl	%r11d, %r10d
	movl	%r10d, 28(%rcx)
	imull	%r8d, %r9d
	imull	28(%rbx), %esi
	addl	%esi, %r9d
	movl	%r9d, 28(%rbx)
# %bb.62:                               # %for.body316.19
                                        #   in Loop: Header=BB0_1 Depth=1
	movq	-32(%rbp), %rax         # 8-byte Reload
	movl	(%rax), %ecx
	movq	-248(%rbp), %rdx        # 8-byte Reload
	shlq	$3, %rdx
	movq	-48(%rbp), %rsi         # 8-byte Reload
	movl	%ecx, (%rsi,%rdx,4)
	movq	-24(%rbp), %rdx         # 8-byte Reload
	movl	(%rdx), %ecx
	movq	-248(%rbp), %rdi        # 8-byte Reload
	shlq	$3, %rdi
	movq	-40(%rbp), %r8          # 8-byte Reload
	movl	%ecx, (%r8,%rdi,4)
	movl	4(%rax), %ecx
	movq	-248(%rbp), %rdi        # 8-byte Reload
	shlq	$3, %rdi
	movl	%ecx, 4(%rsi,%rdi,4)
	movl	4(%rdx), %ecx
	movq	-248(%rbp), %rdi        # 8-byte Reload
	shlq	$3, %rdi
	movl	%ecx, 4(%r8,%rdi,4)
	movl	8(%rax), %ecx
	movq	-248(%rbp), %rdi        # 8-byte Reload
	shlq	$3, %rdi
	movl	%ecx, 8(%rsi,%rdi,4)
	movl	8(%rdx), %ecx
	movq	-248(%rbp), %rdi        # 8-byte Reload
	shlq	$3, %rdi
	movl	%ecx, 8(%r8,%rdi,4)
	movl	12(%rax), %ecx
	movq	-248(%rbp), %rdi        # 8-byte Reload
	shlq	$3, %rdi
	movl	%ecx, 12(%rsi,%rdi,4)
	movl	12(%rdx), %ecx
	movq	-248(%rbp), %rdi        # 8-byte Reload
	shlq	$3, %rdi
	movl	%ecx, 12(%r8,%rdi,4)
	movl	16(%rax), %ecx
	movq	-248(%rbp), %rdi        # 8-byte Reload
	shlq	$3, %rdi
	movl	%ecx, 16(%rsi,%rdi,4)
	movl	16(%rdx), %ecx
	movq	-248(%rbp), %rdi        # 8-byte Reload
	shlq	$3, %rdi
	movl	%ecx, 16(%r8,%rdi,4)
	movl	20(%rax), %ecx
	movq	-248(%rbp), %rdi        # 8-byte Reload
	shlq	$3, %rdi
	movl	%ecx, 20(%rsi,%rdi,4)
	movl	20(%rdx), %ecx
	movq	-248(%rbp), %rdi        # 8-byte Reload
	shlq	$3, %rdi
	movl	%ecx, 20(%r8,%rdi,4)
	movl	24(%rax), %ecx
	movq	-248(%rbp), %rdi        # 8-byte Reload
	shlq	$3, %rdi
	movl	%ecx, 24(%rsi,%rdi,4)
	movl	24(%rdx), %ecx
	movq	-248(%rbp), %rdi        # 8-byte Reload
	shlq	$3, %rdi
	movl	%ecx, 24(%r8,%rdi,4)
	movl	28(%rax), %ecx
	movq	-248(%rbp), %rdi        # 8-byte Reload
	shlq	$3, %rdi
	movl	%ecx, 28(%rsi,%rdi,4)
	movl	28(%rdx), %ecx
	movq	-248(%rbp), %rdi        # 8-byte Reload
	shlq	$3, %rdi
	movl	%ecx, 28(%r8,%rdi,4)
	movq	-248(%rbp), %rdi        # 8-byte Reload
	addq	$1, %rdi
	movq	%rdi, -256(%rbp)        # 8-byte Spill
# %bb.63:                               # %for.body3.20
                                        #   in Loop: Header=BB0_1 Depth=1
	xorl	%eax, %eax
	movss	.LCPI0_0(%rip), %xmm0   # xmm0 = mem[0],zero,zero,zero
	movq	-64(%rbp), %rcx         # 8-byte Reload
	movq	-256(%rbp), %rdx        # 8-byte Reload
	movl	(%rcx,%rdx,4), %esi
	movq	-32(%rbp), %rdi         # 8-byte Reload
	movl	%esi, (%rdi)
	movq	-56(%rbp), %r8          # 8-byte Reload
	movl	(%r8,%rdx,4), %esi
	movq	-24(%rbp), %r9          # 8-byte Reload
	movl	%esi, (%r9)
	addq	$64, %rdx
	movl	(%rcx,%rdx,4), %esi
	movl	%esi, 4(%rdi)
	movq	-256(%rbp), %rdx        # 8-byte Reload
	addq	$64, %rdx
	movl	(%r8,%rdx,4), %esi
	movl	%esi, 4(%r9)
	movq	-256(%rbp), %rdx        # 8-byte Reload
	addq	$128, %rdx
	movl	(%rcx,%rdx,4), %esi
	movl	%esi, 8(%rdi)
	movq	-256(%rbp), %rdx        # 8-byte Reload
	addq	$128, %rdx
	movl	(%r8,%rdx,4), %esi
	movl	%esi, 8(%r9)
	movq	-256(%rbp), %rdx        # 8-byte Reload
	addq	$192, %rdx
	movl	(%rcx,%rdx,4), %esi
	movl	%esi, 12(%rdi)
	movq	-256(%rbp), %rdx        # 8-byte Reload
	addq	$192, %rdx
	movl	(%r8,%rdx,4), %esi
	movl	%esi, 12(%r9)
	movq	-256(%rbp), %rdx        # 8-byte Reload
	addq	$256, %rdx              # imm = 0x100
	movl	(%rcx,%rdx,4), %esi
	movl	%esi, 16(%rdi)
	movq	-256(%rbp), %rdx        # 8-byte Reload
	addq	$256, %rdx              # imm = 0x100
	movl	(%r8,%rdx,4), %esi
	movl	%esi, 16(%r9)
	movq	-256(%rbp), %rdx        # 8-byte Reload
	addq	$320, %rdx              # imm = 0x140
	movl	(%rcx,%rdx,4), %esi
	movl	%esi, 20(%rdi)
	movq	-256(%rbp), %rdx        # 8-byte Reload
	addq	$320, %rdx              # imm = 0x140
	movl	(%r8,%rdx,4), %esi
	movl	%esi, 20(%r9)
	movq	-256(%rbp), %rdx        # 8-byte Reload
	addq	$384, %rdx              # imm = 0x180
	movl	(%rcx,%rdx,4), %esi
	movl	%esi, 24(%rdi)
	movq	-256(%rbp), %rdx        # 8-byte Reload
	addq	$384, %rdx              # imm = 0x180
	movl	(%r8,%rdx,4), %esi
	movl	%esi, 24(%r9)
	movq	-256(%rbp), %rdx        # 8-byte Reload
	addq	$448, %rdx              # imm = 0x1C0
	movl	(%rcx,%rdx,4), %esi
	movl	%esi, 28(%rdi)
	movq	-256(%rbp), %rdx        # 8-byte Reload
	addq	$448, %rdx              # imm = 0x1C0
	movl	(%r8,%rdx,4), %esi
	movl	%esi, 28(%r9)
	movl	(%rdi), %esi
	movl	(%r9), %r10d
	movl	%esi, %r11d
	addl	16(%rdi), %r11d
	movl	%r11d, (%rdi)
	movl	%r10d, %r11d
	addl	16(%r9), %r11d
	movl	%r11d, (%r9)
	subl	16(%rdi), %esi
	movl	%esi, 16(%rdi)
	subl	16(%r9), %r10d
	movl	%r10d, 16(%r9)
	movl	4(%rdi), %esi
	movl	4(%r9), %r10d
	movl	%esi, %r11d
	addl	20(%rdi), %r11d
	movl	%r11d, 4(%rdi)
	movl	%r10d, %r11d
	addl	20(%r9), %r11d
	movl	%r11d, 4(%r9)
	subl	20(%rdi), %esi
	movl	%esi, 20(%rdi)
	subl	20(%r9), %r10d
	movl	%r10d, 20(%r9)
	movl	8(%rdi), %esi
	movl	8(%r9), %r10d
	movl	%esi, %r11d
	addl	24(%rdi), %r11d
	movl	%r11d, 8(%rdi)
	movl	%r10d, %r11d
	addl	24(%r9), %r11d
	movl	%r11d, 8(%r9)
	subl	24(%rdi), %esi
	movl	%esi, 24(%rdi)
	subl	24(%r9), %r10d
	movl	%r10d, 24(%r9)
	movl	12(%rdi), %esi
	movl	12(%r9), %r10d
	movl	%esi, %r11d
	addl	28(%rdi), %r11d
	movl	%r11d, 12(%rdi)
	movl	%r10d, %r11d
	addl	28(%r9), %r11d
	movl	%r11d, 12(%r9)
	subl	28(%rdi), %esi
	movl	%esi, 28(%rdi)
	subl	28(%r9), %r10d
	movl	%r10d, 28(%r9)
	movl	20(%rdi), %esi
	movl	%esi, %r10d
	addl	20(%r9), %r10d
	cvtsi2ss	%r10d, %xmm1
	mulss	%xmm0, %xmm1
	cvttss2si	%xmm1, %r10d
	movl	%r10d, 20(%rdi)
	movl	20(%r9), %r10d
	subl	%esi, %r10d
	cvtsi2ss	%r10d, %xmm1
	mulss	%xmm0, %xmm1
	cvttss2si	%xmm1, %esi
	movl	%esi, 20(%r9)
	movl	24(%rdi), %esi
	movl	24(%r9), %r10d
	movl	%r10d, 24(%rdi)
	movl	%eax, %r10d
	subl	%esi, %r10d
	movl	%r10d, 24(%r9)
	movl	28(%rdi), %esi
	movl	28(%r9), %r10d
	subl	%esi, %r10d
	cvtsi2ss	%r10d, %xmm1
	mulss	%xmm0, %xmm1
	cvttss2si	%xmm1, %r10d
	movl	%r10d, 28(%rdi)
	addl	28(%r9), %esi
	movl	%eax, %r10d
	subl	%esi, %r10d
	cvtsi2ss	%r10d, %xmm1
	mulss	%xmm0, %xmm1
	cvttss2si	%xmm1, %esi
	movl	%esi, 28(%r9)
	movl	(%rdi), %esi
	movl	(%r9), %r10d
	movl	%esi, %r11d
	addl	8(%rdi), %r11d
	movl	%r11d, (%rdi)
	movl	%r10d, %r11d
	addl	8(%r9), %r11d
	movl	%r11d, (%r9)
	subl	8(%rdi), %esi
	movl	%esi, 8(%rdi)
	subl	8(%r9), %r10d
	movl	%r10d, 8(%r9)
	movl	4(%rdi), %esi
	movl	4(%r9), %r10d
	movl	%esi, %r11d
	addl	12(%rdi), %r11d
	movl	%r11d, 4(%rdi)
	movl	%r10d, %r11d
	addl	12(%r9), %r11d
	movl	%r11d, 4(%r9)
	subl	12(%rdi), %esi
	movl	%esi, 12(%rdi)
	subl	12(%r9), %r10d
	movl	%r10d, 12(%r9)
	movl	12(%rdi), %esi
	movl	%r10d, 12(%rdi)
	movl	%eax, %r10d
	subl	%esi, %r10d
	movl	%r10d, 12(%r9)
	movl	(%rdi), %esi
	movl	(%r9), %r10d
	movl	%esi, %r11d
	addl	4(%rdi), %r11d
	movl	%r11d, (%rdi)
	movl	%r10d, %r11d
	addl	4(%r9), %r11d
	movl	%r11d, (%r9)
	subl	4(%rdi), %esi
	movl	%esi, 4(%rdi)
	subl	4(%r9), %r10d
	movl	%r10d, 4(%r9)
	movl	8(%rdi), %esi
	movl	8(%r9), %r10d
	movl	%esi, %r11d
	addl	12(%rdi), %r11d
	movl	%r11d, 8(%rdi)
	movl	%r10d, %r11d
	addl	12(%r9), %r11d
	movl	%r11d, 8(%r9)
	subl	12(%rdi), %esi
	movl	%esi, 12(%rdi)
	subl	12(%r9), %r10d
	movl	%r10d, 12(%r9)
	movl	16(%rdi), %esi
	movl	16(%r9), %r10d
	movl	%esi, %r11d
	addl	24(%rdi), %r11d
	movl	%r11d, 16(%rdi)
	movl	%r10d, %r11d
	addl	24(%r9), %r11d
	movl	%r11d, 16(%r9)
	subl	24(%rdi), %esi
	movl	%esi, 24(%rdi)
	subl	24(%r9), %r10d
	movl	%r10d, 24(%r9)
	movl	20(%rdi), %esi
	movl	20(%r9), %r10d
	movl	%esi, %r11d
	addl	28(%rdi), %r11d
	movl	%r11d, 20(%rdi)
	movl	%r10d, %r11d
	addl	28(%r9), %r11d
	movl	%r11d, 20(%r9)
	subl	28(%rdi), %esi
	movl	%esi, 28(%rdi)
	subl	28(%r9), %r10d
	movl	%r10d, 28(%r9)
	movl	28(%rdi), %esi
	movl	%r10d, 28(%rdi)
	subl	%esi, %eax
	movl	%eax, 28(%r9)
	movl	16(%rdi), %eax
	movl	16(%r9), %esi
	movl	%eax, %r10d
	addl	20(%rdi), %r10d
	movl	%r10d, 16(%rdi)
	movl	%esi, %r10d
	addl	20(%r9), %r10d
	movl	%r10d, 16(%r9)
	subl	20(%rdi), %eax
	movl	%eax, 20(%rdi)
	subl	20(%r9), %esi
	movl	%esi, 20(%r9)
	movl	24(%rdi), %eax
	movl	24(%r9), %esi
	movl	%eax, %r10d
	addl	28(%rdi), %r10d
	movl	%r10d, 24(%rdi)
	movl	%esi, %r10d
	addl	28(%r9), %r10d
	movl	%r10d, 24(%r9)
	subl	28(%rdi), %eax
	movl	%eax, 28(%rdi)
	subl	28(%r9), %esi
	movl	%esi, 28(%r9)
# %bb.64:                               # %for.body278.20
                                        #   in Loop: Header=BB0_1 Depth=1
	movq	-256(%rbp), %rax        # 8-byte Reload
	imulq	$7, %rax, %rcx
	movq	-72(%rbp), %rdx         # 8-byte Reload
	cvttss2si	(%rdx,%rcx,4), %esi
	imulq	$7, %rax, %rcx
	movq	-80(%rbp), %rdi         # 8-byte Reload
	cvttss2si	(%rdi,%rcx,4), %r8d
	movq	-32(%rbp), %rcx         # 8-byte Reload
	movl	4(%rcx), %r9d
	movl	%esi, %r10d
	imull	4(%rcx), %r10d
	movl	%r8d, %r11d
	movq	-24(%rbp), %rbx         # 8-byte Reload
	imull	4(%rbx), %r11d
	subl	%r11d, %r10d
	movl	%r10d, 4(%rcx)
	imull	%r8d, %r9d
	imull	4(%rbx), %esi
	addl	%esi, %r9d
	movl	%r9d, 4(%rbx)
	imulq	$7, %rax, %r14
	cvttss2si	4(%rdx,%r14,4), %esi
	imulq	$7, %rax, %r14
	cvttss2si	4(%rdi,%r14,4), %r8d
	movl	8(%rcx), %r9d
	movl	%esi, %r10d
	imull	8(%rcx), %r10d
	movl	%r8d, %r11d
	imull	8(%rbx), %r11d
	subl	%r11d, %r10d
	movl	%r10d, 8(%rcx)
	imull	%r8d, %r9d
	imull	8(%rbx), %esi
	addl	%esi, %r9d
	movl	%r9d, 8(%rbx)
	imulq	$7, %rax, %r14
	cvttss2si	8(%rdx,%r14,4), %esi
	imulq	$7, %rax, %r14
	cvttss2si	8(%rdi,%r14,4), %r8d
	movl	12(%rcx), %r9d
	movl	%esi, %r10d
	imull	12(%rcx), %r10d
	movl	%r8d, %r11d
	imull	12(%rbx), %r11d
	subl	%r11d, %r10d
	movl	%r10d, 12(%rcx)
	imull	%r8d, %r9d
	imull	12(%rbx), %esi
	addl	%esi, %r9d
	movl	%r9d, 12(%rbx)
	imulq	$7, %rax, %r14
	cvttss2si	12(%rdx,%r14,4), %esi
	imulq	$7, %rax, %r14
	cvttss2si	12(%rdi,%r14,4), %r8d
	movl	16(%rcx), %r9d
	movl	%esi, %r10d
	imull	16(%rcx), %r10d
	movl	%r8d, %r11d
	imull	16(%rbx), %r11d
	subl	%r11d, %r10d
	movl	%r10d, 16(%rcx)
	imull	%r8d, %r9d
	imull	16(%rbx), %esi
	addl	%esi, %r9d
	movl	%r9d, 16(%rbx)
	imulq	$7, %rax, %r14
	cvttss2si	16(%rdx,%r14,4), %esi
	imulq	$7, %rax, %r14
	cvttss2si	16(%rdi,%r14,4), %r8d
	movl	20(%rcx), %r9d
	movl	%esi, %r10d
	imull	20(%rcx), %r10d
	movl	%r8d, %r11d
	imull	20(%rbx), %r11d
	subl	%r11d, %r10d
	movl	%r10d, 20(%rcx)
	imull	%r8d, %r9d
	imull	20(%rbx), %esi
	addl	%esi, %r9d
	movl	%r9d, 20(%rbx)
	imulq	$7, %rax, %r14
	cvttss2si	20(%rdx,%r14,4), %esi
	imulq	$7, %rax, %r14
	cvttss2si	20(%rdi,%r14,4), %r8d
	movl	24(%rcx), %r9d
	movl	%esi, %r10d
	imull	24(%rcx), %r10d
	movl	%r8d, %r11d
	imull	24(%rbx), %r11d
	subl	%r11d, %r10d
	movl	%r10d, 24(%rcx)
	imull	%r8d, %r9d
	imull	24(%rbx), %esi
	addl	%esi, %r9d
	movl	%r9d, 24(%rbx)
	imulq	$7, %rax, %r14
	cvttss2si	24(%rdx,%r14,4), %esi
	imulq	$7, %rax, %r14
	cvttss2si	24(%rdi,%r14,4), %r8d
	movl	28(%rcx), %r9d
	movl	%esi, %r10d
	imull	28(%rcx), %r10d
	movl	%r8d, %r11d
	imull	28(%rbx), %r11d
	subl	%r11d, %r10d
	movl	%r10d, 28(%rcx)
	imull	%r8d, %r9d
	imull	28(%rbx), %esi
	addl	%esi, %r9d
	movl	%r9d, 28(%rbx)
# %bb.65:                               # %for.body316.20
                                        #   in Loop: Header=BB0_1 Depth=1
	movq	-32(%rbp), %rax         # 8-byte Reload
	movl	(%rax), %ecx
	movq	-256(%rbp), %rdx        # 8-byte Reload
	shlq	$3, %rdx
	movq	-48(%rbp), %rsi         # 8-byte Reload
	movl	%ecx, (%rsi,%rdx,4)
	movq	-24(%rbp), %rdx         # 8-byte Reload
	movl	(%rdx), %ecx
	movq	-256(%rbp), %rdi        # 8-byte Reload
	shlq	$3, %rdi
	movq	-40(%rbp), %r8          # 8-byte Reload
	movl	%ecx, (%r8,%rdi,4)
	movl	4(%rax), %ecx
	movq	-256(%rbp), %rdi        # 8-byte Reload
	shlq	$3, %rdi
	movl	%ecx, 4(%rsi,%rdi,4)
	movl	4(%rdx), %ecx
	movq	-256(%rbp), %rdi        # 8-byte Reload
	shlq	$3, %rdi
	movl	%ecx, 4(%r8,%rdi,4)
	movl	8(%rax), %ecx
	movq	-256(%rbp), %rdi        # 8-byte Reload
	shlq	$3, %rdi
	movl	%ecx, 8(%rsi,%rdi,4)
	movl	8(%rdx), %ecx
	movq	-256(%rbp), %rdi        # 8-byte Reload
	shlq	$3, %rdi
	movl	%ecx, 8(%r8,%rdi,4)
	movl	12(%rax), %ecx
	movq	-256(%rbp), %rdi        # 8-byte Reload
	shlq	$3, %rdi
	movl	%ecx, 12(%rsi,%rdi,4)
	movl	12(%rdx), %ecx
	movq	-256(%rbp), %rdi        # 8-byte Reload
	shlq	$3, %rdi
	movl	%ecx, 12(%r8,%rdi,4)
	movl	16(%rax), %ecx
	movq	-256(%rbp), %rdi        # 8-byte Reload
	shlq	$3, %rdi
	movl	%ecx, 16(%rsi,%rdi,4)
	movl	16(%rdx), %ecx
	movq	-256(%rbp), %rdi        # 8-byte Reload
	shlq	$3, %rdi
	movl	%ecx, 16(%r8,%rdi,4)
	movl	20(%rax), %ecx
	movq	-256(%rbp), %rdi        # 8-byte Reload
	shlq	$3, %rdi
	movl	%ecx, 20(%rsi,%rdi,4)
	movl	20(%rdx), %ecx
	movq	-256(%rbp), %rdi        # 8-byte Reload
	shlq	$3, %rdi
	movl	%ecx, 20(%r8,%rdi,4)
	movl	24(%rax), %ecx
	movq	-256(%rbp), %rdi        # 8-byte Reload
	shlq	$3, %rdi
	movl	%ecx, 24(%rsi,%rdi,4)
	movl	24(%rdx), %ecx
	movq	-256(%rbp), %rdi        # 8-byte Reload
	shlq	$3, %rdi
	movl	%ecx, 24(%r8,%rdi,4)
	movl	28(%rax), %ecx
	movq	-256(%rbp), %rdi        # 8-byte Reload
	shlq	$3, %rdi
	movl	%ecx, 28(%rsi,%rdi,4)
	movl	28(%rdx), %ecx
	movq	-256(%rbp), %rdi        # 8-byte Reload
	shlq	$3, %rdi
	movl	%ecx, 28(%r8,%rdi,4)
	movq	-256(%rbp), %rdi        # 8-byte Reload
	addq	$1, %rdi
	movq	%rdi, -264(%rbp)        # 8-byte Spill
# %bb.66:                               # %for.body3.21
                                        #   in Loop: Header=BB0_1 Depth=1
	xorl	%eax, %eax
	movss	.LCPI0_0(%rip), %xmm0   # xmm0 = mem[0],zero,zero,zero
	movq	-64(%rbp), %rcx         # 8-byte Reload
	movq	-264(%rbp), %rdx        # 8-byte Reload
	movl	(%rcx,%rdx,4), %esi
	movq	-32(%rbp), %rdi         # 8-byte Reload
	movl	%esi, (%rdi)
	movq	-56(%rbp), %r8          # 8-byte Reload
	movl	(%r8,%rdx,4), %esi
	movq	-24(%rbp), %r9          # 8-byte Reload
	movl	%esi, (%r9)
	addq	$64, %rdx
	movl	(%rcx,%rdx,4), %esi
	movl	%esi, 4(%rdi)
	movq	-264(%rbp), %rdx        # 8-byte Reload
	addq	$64, %rdx
	movl	(%r8,%rdx,4), %esi
	movl	%esi, 4(%r9)
	movq	-264(%rbp), %rdx        # 8-byte Reload
	addq	$128, %rdx
	movl	(%rcx,%rdx,4), %esi
	movl	%esi, 8(%rdi)
	movq	-264(%rbp), %rdx        # 8-byte Reload
	addq	$128, %rdx
	movl	(%r8,%rdx,4), %esi
	movl	%esi, 8(%r9)
	movq	-264(%rbp), %rdx        # 8-byte Reload
	addq	$192, %rdx
	movl	(%rcx,%rdx,4), %esi
	movl	%esi, 12(%rdi)
	movq	-264(%rbp), %rdx        # 8-byte Reload
	addq	$192, %rdx
	movl	(%r8,%rdx,4), %esi
	movl	%esi, 12(%r9)
	movq	-264(%rbp), %rdx        # 8-byte Reload
	addq	$256, %rdx              # imm = 0x100
	movl	(%rcx,%rdx,4), %esi
	movl	%esi, 16(%rdi)
	movq	-264(%rbp), %rdx        # 8-byte Reload
	addq	$256, %rdx              # imm = 0x100
	movl	(%r8,%rdx,4), %esi
	movl	%esi, 16(%r9)
	movq	-264(%rbp), %rdx        # 8-byte Reload
	addq	$320, %rdx              # imm = 0x140
	movl	(%rcx,%rdx,4), %esi
	movl	%esi, 20(%rdi)
	movq	-264(%rbp), %rdx        # 8-byte Reload
	addq	$320, %rdx              # imm = 0x140
	movl	(%r8,%rdx,4), %esi
	movl	%esi, 20(%r9)
	movq	-264(%rbp), %rdx        # 8-byte Reload
	addq	$384, %rdx              # imm = 0x180
	movl	(%rcx,%rdx,4), %esi
	movl	%esi, 24(%rdi)
	movq	-264(%rbp), %rdx        # 8-byte Reload
	addq	$384, %rdx              # imm = 0x180
	movl	(%r8,%rdx,4), %esi
	movl	%esi, 24(%r9)
	movq	-264(%rbp), %rdx        # 8-byte Reload
	addq	$448, %rdx              # imm = 0x1C0
	movl	(%rcx,%rdx,4), %esi
	movl	%esi, 28(%rdi)
	movq	-264(%rbp), %rdx        # 8-byte Reload
	addq	$448, %rdx              # imm = 0x1C0
	movl	(%r8,%rdx,4), %esi
	movl	%esi, 28(%r9)
	movl	(%rdi), %esi
	movl	(%r9), %r10d
	movl	%esi, %r11d
	addl	16(%rdi), %r11d
	movl	%r11d, (%rdi)
	movl	%r10d, %r11d
	addl	16(%r9), %r11d
	movl	%r11d, (%r9)
	subl	16(%rdi), %esi
	movl	%esi, 16(%rdi)
	subl	16(%r9), %r10d
	movl	%r10d, 16(%r9)
	movl	4(%rdi), %esi
	movl	4(%r9), %r10d
	movl	%esi, %r11d
	addl	20(%rdi), %r11d
	movl	%r11d, 4(%rdi)
	movl	%r10d, %r11d
	addl	20(%r9), %r11d
	movl	%r11d, 4(%r9)
	subl	20(%rdi), %esi
	movl	%esi, 20(%rdi)
	subl	20(%r9), %r10d
	movl	%r10d, 20(%r9)
	movl	8(%rdi), %esi
	movl	8(%r9), %r10d
	movl	%esi, %r11d
	addl	24(%rdi), %r11d
	movl	%r11d, 8(%rdi)
	movl	%r10d, %r11d
	addl	24(%r9), %r11d
	movl	%r11d, 8(%r9)
	subl	24(%rdi), %esi
	movl	%esi, 24(%rdi)
	subl	24(%r9), %r10d
	movl	%r10d, 24(%r9)
	movl	12(%rdi), %esi
	movl	12(%r9), %r10d
	movl	%esi, %r11d
	addl	28(%rdi), %r11d
	movl	%r11d, 12(%rdi)
	movl	%r10d, %r11d
	addl	28(%r9), %r11d
	movl	%r11d, 12(%r9)
	subl	28(%rdi), %esi
	movl	%esi, 28(%rdi)
	subl	28(%r9), %r10d
	movl	%r10d, 28(%r9)
	movl	20(%rdi), %esi
	movl	%esi, %r10d
	addl	20(%r9), %r10d
	cvtsi2ss	%r10d, %xmm1
	mulss	%xmm0, %xmm1
	cvttss2si	%xmm1, %r10d
	movl	%r10d, 20(%rdi)
	movl	20(%r9), %r10d
	subl	%esi, %r10d
	cvtsi2ss	%r10d, %xmm1
	mulss	%xmm0, %xmm1
	cvttss2si	%xmm1, %esi
	movl	%esi, 20(%r9)
	movl	24(%rdi), %esi
	movl	24(%r9), %r10d
	movl	%r10d, 24(%rdi)
	movl	%eax, %r10d
	subl	%esi, %r10d
	movl	%r10d, 24(%r9)
	movl	28(%rdi), %esi
	movl	28(%r9), %r10d
	subl	%esi, %r10d
	cvtsi2ss	%r10d, %xmm1
	mulss	%xmm0, %xmm1
	cvttss2si	%xmm1, %r10d
	movl	%r10d, 28(%rdi)
	addl	28(%r9), %esi
	movl	%eax, %r10d
	subl	%esi, %r10d
	cvtsi2ss	%r10d, %xmm1
	mulss	%xmm0, %xmm1
	cvttss2si	%xmm1, %esi
	movl	%esi, 28(%r9)
	movl	(%rdi), %esi
	movl	(%r9), %r10d
	movl	%esi, %r11d
	addl	8(%rdi), %r11d
	movl	%r11d, (%rdi)
	movl	%r10d, %r11d
	addl	8(%r9), %r11d
	movl	%r11d, (%r9)
	subl	8(%rdi), %esi
	movl	%esi, 8(%rdi)
	subl	8(%r9), %r10d
	movl	%r10d, 8(%r9)
	movl	4(%rdi), %esi
	movl	4(%r9), %r10d
	movl	%esi, %r11d
	addl	12(%rdi), %r11d
	movl	%r11d, 4(%rdi)
	movl	%r10d, %r11d
	addl	12(%r9), %r11d
	movl	%r11d, 4(%r9)
	subl	12(%rdi), %esi
	movl	%esi, 12(%rdi)
	subl	12(%r9), %r10d
	movl	%r10d, 12(%r9)
	movl	12(%rdi), %esi
	movl	%r10d, 12(%rdi)
	movl	%eax, %r10d
	subl	%esi, %r10d
	movl	%r10d, 12(%r9)
	movl	(%rdi), %esi
	movl	(%r9), %r10d
	movl	%esi, %r11d
	addl	4(%rdi), %r11d
	movl	%r11d, (%rdi)
	movl	%r10d, %r11d
	addl	4(%r9), %r11d
	movl	%r11d, (%r9)
	subl	4(%rdi), %esi
	movl	%esi, 4(%rdi)
	subl	4(%r9), %r10d
	movl	%r10d, 4(%r9)
	movl	8(%rdi), %esi
	movl	8(%r9), %r10d
	movl	%esi, %r11d
	addl	12(%rdi), %r11d
	movl	%r11d, 8(%rdi)
	movl	%r10d, %r11d
	addl	12(%r9), %r11d
	movl	%r11d, 8(%r9)
	subl	12(%rdi), %esi
	movl	%esi, 12(%rdi)
	subl	12(%r9), %r10d
	movl	%r10d, 12(%r9)
	movl	16(%rdi), %esi
	movl	16(%r9), %r10d
	movl	%esi, %r11d
	addl	24(%rdi), %r11d
	movl	%r11d, 16(%rdi)
	movl	%r10d, %r11d
	addl	24(%r9), %r11d
	movl	%r11d, 16(%r9)
	subl	24(%rdi), %esi
	movl	%esi, 24(%rdi)
	subl	24(%r9), %r10d
	movl	%r10d, 24(%r9)
	movl	20(%rdi), %esi
	movl	20(%r9), %r10d
	movl	%esi, %r11d
	addl	28(%rdi), %r11d
	movl	%r11d, 20(%rdi)
	movl	%r10d, %r11d
	addl	28(%r9), %r11d
	movl	%r11d, 20(%r9)
	subl	28(%rdi), %esi
	movl	%esi, 28(%rdi)
	subl	28(%r9), %r10d
	movl	%r10d, 28(%r9)
	movl	28(%rdi), %esi
	movl	%r10d, 28(%rdi)
	subl	%esi, %eax
	movl	%eax, 28(%r9)
	movl	16(%rdi), %eax
	movl	16(%r9), %esi
	movl	%eax, %r10d
	addl	20(%rdi), %r10d
	movl	%r10d, 16(%rdi)
	movl	%esi, %r10d
	addl	20(%r9), %r10d
	movl	%r10d, 16(%r9)
	subl	20(%rdi), %eax
	movl	%eax, 20(%rdi)
	subl	20(%r9), %esi
	movl	%esi, 20(%r9)
	movl	24(%rdi), %eax
	movl	24(%r9), %esi
	movl	%eax, %r10d
	addl	28(%rdi), %r10d
	movl	%r10d, 24(%rdi)
	movl	%esi, %r10d
	addl	28(%r9), %r10d
	movl	%r10d, 24(%r9)
	subl	28(%rdi), %eax
	movl	%eax, 28(%rdi)
	subl	28(%r9), %esi
	movl	%esi, 28(%r9)
# %bb.67:                               # %for.body278.21
                                        #   in Loop: Header=BB0_1 Depth=1
	movq	-264(%rbp), %rax        # 8-byte Reload
	imulq	$7, %rax, %rcx
	movq	-72(%rbp), %rdx         # 8-byte Reload
	cvttss2si	(%rdx,%rcx,4), %esi
	imulq	$7, %rax, %rcx
	movq	-80(%rbp), %rdi         # 8-byte Reload
	cvttss2si	(%rdi,%rcx,4), %r8d
	movq	-32(%rbp), %rcx         # 8-byte Reload
	movl	4(%rcx), %r9d
	movl	%esi, %r10d
	imull	4(%rcx), %r10d
	movl	%r8d, %r11d
	movq	-24(%rbp), %rbx         # 8-byte Reload
	imull	4(%rbx), %r11d
	subl	%r11d, %r10d
	movl	%r10d, 4(%rcx)
	imull	%r8d, %r9d
	imull	4(%rbx), %esi
	addl	%esi, %r9d
	movl	%r9d, 4(%rbx)
	imulq	$7, %rax, %r14
	cvttss2si	4(%rdx,%r14,4), %esi
	imulq	$7, %rax, %r14
	cvttss2si	4(%rdi,%r14,4), %r8d
	movl	8(%rcx), %r9d
	movl	%esi, %r10d
	imull	8(%rcx), %r10d
	movl	%r8d, %r11d
	imull	8(%rbx), %r11d
	subl	%r11d, %r10d
	movl	%r10d, 8(%rcx)
	imull	%r8d, %r9d
	imull	8(%rbx), %esi
	addl	%esi, %r9d
	movl	%r9d, 8(%rbx)
	imulq	$7, %rax, %r14
	cvttss2si	8(%rdx,%r14,4), %esi
	imulq	$7, %rax, %r14
	cvttss2si	8(%rdi,%r14,4), %r8d
	movl	12(%rcx), %r9d
	movl	%esi, %r10d
	imull	12(%rcx), %r10d
	movl	%r8d, %r11d
	imull	12(%rbx), %r11d
	subl	%r11d, %r10d
	movl	%r10d, 12(%rcx)
	imull	%r8d, %r9d
	imull	12(%rbx), %esi
	addl	%esi, %r9d
	movl	%r9d, 12(%rbx)
	imulq	$7, %rax, %r14
	cvttss2si	12(%rdx,%r14,4), %esi
	imulq	$7, %rax, %r14
	cvttss2si	12(%rdi,%r14,4), %r8d
	movl	16(%rcx), %r9d
	movl	%esi, %r10d
	imull	16(%rcx), %r10d
	movl	%r8d, %r11d
	imull	16(%rbx), %r11d
	subl	%r11d, %r10d
	movl	%r10d, 16(%rcx)
	imull	%r8d, %r9d
	imull	16(%rbx), %esi
	addl	%esi, %r9d
	movl	%r9d, 16(%rbx)
	imulq	$7, %rax, %r14
	cvttss2si	16(%rdx,%r14,4), %esi
	imulq	$7, %rax, %r14
	cvttss2si	16(%rdi,%r14,4), %r8d
	movl	20(%rcx), %r9d
	movl	%esi, %r10d
	imull	20(%rcx), %r10d
	movl	%r8d, %r11d
	imull	20(%rbx), %r11d
	subl	%r11d, %r10d
	movl	%r10d, 20(%rcx)
	imull	%r8d, %r9d
	imull	20(%rbx), %esi
	addl	%esi, %r9d
	movl	%r9d, 20(%rbx)
	imulq	$7, %rax, %r14
	cvttss2si	20(%rdx,%r14,4), %esi
	imulq	$7, %rax, %r14
	cvttss2si	20(%rdi,%r14,4), %r8d
	movl	24(%rcx), %r9d
	movl	%esi, %r10d
	imull	24(%rcx), %r10d
	movl	%r8d, %r11d
	imull	24(%rbx), %r11d
	subl	%r11d, %r10d
	movl	%r10d, 24(%rcx)
	imull	%r8d, %r9d
	imull	24(%rbx), %esi
	addl	%esi, %r9d
	movl	%r9d, 24(%rbx)
	imulq	$7, %rax, %r14
	cvttss2si	24(%rdx,%r14,4), %esi
	imulq	$7, %rax, %r14
	cvttss2si	24(%rdi,%r14,4), %r8d
	movl	28(%rcx), %r9d
	movl	%esi, %r10d
	imull	28(%rcx), %r10d
	movl	%r8d, %r11d
	imull	28(%rbx), %r11d
	subl	%r11d, %r10d
	movl	%r10d, 28(%rcx)
	imull	%r8d, %r9d
	imull	28(%rbx), %esi
	addl	%esi, %r9d
	movl	%r9d, 28(%rbx)
# %bb.68:                               # %for.body316.21
                                        #   in Loop: Header=BB0_1 Depth=1
	movq	-32(%rbp), %rax         # 8-byte Reload
	movl	(%rax), %ecx
	movq	-264(%rbp), %rdx        # 8-byte Reload
	shlq	$3, %rdx
	movq	-48(%rbp), %rsi         # 8-byte Reload
	movl	%ecx, (%rsi,%rdx,4)
	movq	-24(%rbp), %rdx         # 8-byte Reload
	movl	(%rdx), %ecx
	movq	-264(%rbp), %rdi        # 8-byte Reload
	shlq	$3, %rdi
	movq	-40(%rbp), %r8          # 8-byte Reload
	movl	%ecx, (%r8,%rdi,4)
	movl	4(%rax), %ecx
	movq	-264(%rbp), %rdi        # 8-byte Reload
	shlq	$3, %rdi
	movl	%ecx, 4(%rsi,%rdi,4)
	movl	4(%rdx), %ecx
	movq	-264(%rbp), %rdi        # 8-byte Reload
	shlq	$3, %rdi
	movl	%ecx, 4(%r8,%rdi,4)
	movl	8(%rax), %ecx
	movq	-264(%rbp), %rdi        # 8-byte Reload
	shlq	$3, %rdi
	movl	%ecx, 8(%rsi,%rdi,4)
	movl	8(%rdx), %ecx
	movq	-264(%rbp), %rdi        # 8-byte Reload
	shlq	$3, %rdi
	movl	%ecx, 8(%r8,%rdi,4)
	movl	12(%rax), %ecx
	movq	-264(%rbp), %rdi        # 8-byte Reload
	shlq	$3, %rdi
	movl	%ecx, 12(%rsi,%rdi,4)
	movl	12(%rdx), %ecx
	movq	-264(%rbp), %rdi        # 8-byte Reload
	shlq	$3, %rdi
	movl	%ecx, 12(%r8,%rdi,4)
	movl	16(%rax), %ecx
	movq	-264(%rbp), %rdi        # 8-byte Reload
	shlq	$3, %rdi
	movl	%ecx, 16(%rsi,%rdi,4)
	movl	16(%rdx), %ecx
	movq	-264(%rbp), %rdi        # 8-byte Reload
	shlq	$3, %rdi
	movl	%ecx, 16(%r8,%rdi,4)
	movl	20(%rax), %ecx
	movq	-264(%rbp), %rdi        # 8-byte Reload
	shlq	$3, %rdi
	movl	%ecx, 20(%rsi,%rdi,4)
	movl	20(%rdx), %ecx
	movq	-264(%rbp), %rdi        # 8-byte Reload
	shlq	$3, %rdi
	movl	%ecx, 20(%r8,%rdi,4)
	movl	24(%rax), %ecx
	movq	-264(%rbp), %rdi        # 8-byte Reload
	shlq	$3, %rdi
	movl	%ecx, 24(%rsi,%rdi,4)
	movl	24(%rdx), %ecx
	movq	-264(%rbp), %rdi        # 8-byte Reload
	shlq	$3, %rdi
	movl	%ecx, 24(%r8,%rdi,4)
	movl	28(%rax), %ecx
	movq	-264(%rbp), %rdi        # 8-byte Reload
	shlq	$3, %rdi
	movl	%ecx, 28(%rsi,%rdi,4)
	movl	28(%rdx), %ecx
	movq	-264(%rbp), %rdi        # 8-byte Reload
	shlq	$3, %rdi
	movl	%ecx, 28(%r8,%rdi,4)
	movq	-264(%rbp), %rdi        # 8-byte Reload
	addq	$1, %rdi
	movq	%rdi, -272(%rbp)        # 8-byte Spill
# %bb.69:                               # %for.body3.22
                                        #   in Loop: Header=BB0_1 Depth=1
	xorl	%eax, %eax
	movss	.LCPI0_0(%rip), %xmm0   # xmm0 = mem[0],zero,zero,zero
	movq	-64(%rbp), %rcx         # 8-byte Reload
	movq	-272(%rbp), %rdx        # 8-byte Reload
	movl	(%rcx,%rdx,4), %esi
	movq	-32(%rbp), %rdi         # 8-byte Reload
	movl	%esi, (%rdi)
	movq	-56(%rbp), %r8          # 8-byte Reload
	movl	(%r8,%rdx,4), %esi
	movq	-24(%rbp), %r9          # 8-byte Reload
	movl	%esi, (%r9)
	addq	$64, %rdx
	movl	(%rcx,%rdx,4), %esi
	movl	%esi, 4(%rdi)
	movq	-272(%rbp), %rdx        # 8-byte Reload
	addq	$64, %rdx
	movl	(%r8,%rdx,4), %esi
	movl	%esi, 4(%r9)
	movq	-272(%rbp), %rdx        # 8-byte Reload
	addq	$128, %rdx
	movl	(%rcx,%rdx,4), %esi
	movl	%esi, 8(%rdi)
	movq	-272(%rbp), %rdx        # 8-byte Reload
	addq	$128, %rdx
	movl	(%r8,%rdx,4), %esi
	movl	%esi, 8(%r9)
	movq	-272(%rbp), %rdx        # 8-byte Reload
	addq	$192, %rdx
	movl	(%rcx,%rdx,4), %esi
	movl	%esi, 12(%rdi)
	movq	-272(%rbp), %rdx        # 8-byte Reload
	addq	$192, %rdx
	movl	(%r8,%rdx,4), %esi
	movl	%esi, 12(%r9)
	movq	-272(%rbp), %rdx        # 8-byte Reload
	addq	$256, %rdx              # imm = 0x100
	movl	(%rcx,%rdx,4), %esi
	movl	%esi, 16(%rdi)
	movq	-272(%rbp), %rdx        # 8-byte Reload
	addq	$256, %rdx              # imm = 0x100
	movl	(%r8,%rdx,4), %esi
	movl	%esi, 16(%r9)
	movq	-272(%rbp), %rdx        # 8-byte Reload
	addq	$320, %rdx              # imm = 0x140
	movl	(%rcx,%rdx,4), %esi
	movl	%esi, 20(%rdi)
	movq	-272(%rbp), %rdx        # 8-byte Reload
	addq	$320, %rdx              # imm = 0x140
	movl	(%r8,%rdx,4), %esi
	movl	%esi, 20(%r9)
	movq	-272(%rbp), %rdx        # 8-byte Reload
	addq	$384, %rdx              # imm = 0x180
	movl	(%rcx,%rdx,4), %esi
	movl	%esi, 24(%rdi)
	movq	-272(%rbp), %rdx        # 8-byte Reload
	addq	$384, %rdx              # imm = 0x180
	movl	(%r8,%rdx,4), %esi
	movl	%esi, 24(%r9)
	movq	-272(%rbp), %rdx        # 8-byte Reload
	addq	$448, %rdx              # imm = 0x1C0
	movl	(%rcx,%rdx,4), %esi
	movl	%esi, 28(%rdi)
	movq	-272(%rbp), %rdx        # 8-byte Reload
	addq	$448, %rdx              # imm = 0x1C0
	movl	(%r8,%rdx,4), %esi
	movl	%esi, 28(%r9)
	movl	(%rdi), %esi
	movl	(%r9), %r10d
	movl	%esi, %r11d
	addl	16(%rdi), %r11d
	movl	%r11d, (%rdi)
	movl	%r10d, %r11d
	addl	16(%r9), %r11d
	movl	%r11d, (%r9)
	subl	16(%rdi), %esi
	movl	%esi, 16(%rdi)
	subl	16(%r9), %r10d
	movl	%r10d, 16(%r9)
	movl	4(%rdi), %esi
	movl	4(%r9), %r10d
	movl	%esi, %r11d
	addl	20(%rdi), %r11d
	movl	%r11d, 4(%rdi)
	movl	%r10d, %r11d
	addl	20(%r9), %r11d
	movl	%r11d, 4(%r9)
	subl	20(%rdi), %esi
	movl	%esi, 20(%rdi)
	subl	20(%r9), %r10d
	movl	%r10d, 20(%r9)
	movl	8(%rdi), %esi
	movl	8(%r9), %r10d
	movl	%esi, %r11d
	addl	24(%rdi), %r11d
	movl	%r11d, 8(%rdi)
	movl	%r10d, %r11d
	addl	24(%r9), %r11d
	movl	%r11d, 8(%r9)
	subl	24(%rdi), %esi
	movl	%esi, 24(%rdi)
	subl	24(%r9), %r10d
	movl	%r10d, 24(%r9)
	movl	12(%rdi), %esi
	movl	12(%r9), %r10d
	movl	%esi, %r11d
	addl	28(%rdi), %r11d
	movl	%r11d, 12(%rdi)
	movl	%r10d, %r11d
	addl	28(%r9), %r11d
	movl	%r11d, 12(%r9)
	subl	28(%rdi), %esi
	movl	%esi, 28(%rdi)
	subl	28(%r9), %r10d
	movl	%r10d, 28(%r9)
	movl	20(%rdi), %esi
	movl	%esi, %r10d
	addl	20(%r9), %r10d
	cvtsi2ss	%r10d, %xmm1
	mulss	%xmm0, %xmm1
	cvttss2si	%xmm1, %r10d
	movl	%r10d, 20(%rdi)
	movl	20(%r9), %r10d
	subl	%esi, %r10d
	cvtsi2ss	%r10d, %xmm1
	mulss	%xmm0, %xmm1
	cvttss2si	%xmm1, %esi
	movl	%esi, 20(%r9)
	movl	24(%rdi), %esi
	movl	24(%r9), %r10d
	movl	%r10d, 24(%rdi)
	movl	%eax, %r10d
	subl	%esi, %r10d
	movl	%r10d, 24(%r9)
	movl	28(%rdi), %esi
	movl	28(%r9), %r10d
	subl	%esi, %r10d
	cvtsi2ss	%r10d, %xmm1
	mulss	%xmm0, %xmm1
	cvttss2si	%xmm1, %r10d
	movl	%r10d, 28(%rdi)
	addl	28(%r9), %esi
	movl	%eax, %r10d
	subl	%esi, %r10d
	cvtsi2ss	%r10d, %xmm1
	mulss	%xmm0, %xmm1
	cvttss2si	%xmm1, %esi
	movl	%esi, 28(%r9)
	movl	(%rdi), %esi
	movl	(%r9), %r10d
	movl	%esi, %r11d
	addl	8(%rdi), %r11d
	movl	%r11d, (%rdi)
	movl	%r10d, %r11d
	addl	8(%r9), %r11d
	movl	%r11d, (%r9)
	subl	8(%rdi), %esi
	movl	%esi, 8(%rdi)
	subl	8(%r9), %r10d
	movl	%r10d, 8(%r9)
	movl	4(%rdi), %esi
	movl	4(%r9), %r10d
	movl	%esi, %r11d
	addl	12(%rdi), %r11d
	movl	%r11d, 4(%rdi)
	movl	%r10d, %r11d
	addl	12(%r9), %r11d
	movl	%r11d, 4(%r9)
	subl	12(%rdi), %esi
	movl	%esi, 12(%rdi)
	subl	12(%r9), %r10d
	movl	%r10d, 12(%r9)
	movl	12(%rdi), %esi
	movl	%r10d, 12(%rdi)
	movl	%eax, %r10d
	subl	%esi, %r10d
	movl	%r10d, 12(%r9)
	movl	(%rdi), %esi
	movl	(%r9), %r10d
	movl	%esi, %r11d
	addl	4(%rdi), %r11d
	movl	%r11d, (%rdi)
	movl	%r10d, %r11d
	addl	4(%r9), %r11d
	movl	%r11d, (%r9)
	subl	4(%rdi), %esi
	movl	%esi, 4(%rdi)
	subl	4(%r9), %r10d
	movl	%r10d, 4(%r9)
	movl	8(%rdi), %esi
	movl	8(%r9), %r10d
	movl	%esi, %r11d
	addl	12(%rdi), %r11d
	movl	%r11d, 8(%rdi)
	movl	%r10d, %r11d
	addl	12(%r9), %r11d
	movl	%r11d, 8(%r9)
	subl	12(%rdi), %esi
	movl	%esi, 12(%rdi)
	subl	12(%r9), %r10d
	movl	%r10d, 12(%r9)
	movl	16(%rdi), %esi
	movl	16(%r9), %r10d
	movl	%esi, %r11d
	addl	24(%rdi), %r11d
	movl	%r11d, 16(%rdi)
	movl	%r10d, %r11d
	addl	24(%r9), %r11d
	movl	%r11d, 16(%r9)
	subl	24(%rdi), %esi
	movl	%esi, 24(%rdi)
	subl	24(%r9), %r10d
	movl	%r10d, 24(%r9)
	movl	20(%rdi), %esi
	movl	20(%r9), %r10d
	movl	%esi, %r11d
	addl	28(%rdi), %r11d
	movl	%r11d, 20(%rdi)
	movl	%r10d, %r11d
	addl	28(%r9), %r11d
	movl	%r11d, 20(%r9)
	subl	28(%rdi), %esi
	movl	%esi, 28(%rdi)
	subl	28(%r9), %r10d
	movl	%r10d, 28(%r9)
	movl	28(%rdi), %esi
	movl	%r10d, 28(%rdi)
	subl	%esi, %eax
	movl	%eax, 28(%r9)
	movl	16(%rdi), %eax
	movl	16(%r9), %esi
	movl	%eax, %r10d
	addl	20(%rdi), %r10d
	movl	%r10d, 16(%rdi)
	movl	%esi, %r10d
	addl	20(%r9), %r10d
	movl	%r10d, 16(%r9)
	subl	20(%rdi), %eax
	movl	%eax, 20(%rdi)
	subl	20(%r9), %esi
	movl	%esi, 20(%r9)
	movl	24(%rdi), %eax
	movl	24(%r9), %esi
	movl	%eax, %r10d
	addl	28(%rdi), %r10d
	movl	%r10d, 24(%rdi)
	movl	%esi, %r10d
	addl	28(%r9), %r10d
	movl	%r10d, 24(%r9)
	subl	28(%rdi), %eax
	movl	%eax, 28(%rdi)
	subl	28(%r9), %esi
	movl	%esi, 28(%r9)
# %bb.70:                               # %for.body278.22
                                        #   in Loop: Header=BB0_1 Depth=1
	movq	-272(%rbp), %rax        # 8-byte Reload
	imulq	$7, %rax, %rcx
	movq	-72(%rbp), %rdx         # 8-byte Reload
	cvttss2si	(%rdx,%rcx,4), %esi
	imulq	$7, %rax, %rcx
	movq	-80(%rbp), %rdi         # 8-byte Reload
	cvttss2si	(%rdi,%rcx,4), %r8d
	movq	-32(%rbp), %rcx         # 8-byte Reload
	movl	4(%rcx), %r9d
	movl	%esi, %r10d
	imull	4(%rcx), %r10d
	movl	%r8d, %r11d
	movq	-24(%rbp), %rbx         # 8-byte Reload
	imull	4(%rbx), %r11d
	subl	%r11d, %r10d
	movl	%r10d, 4(%rcx)
	imull	%r8d, %r9d
	imull	4(%rbx), %esi
	addl	%esi, %r9d
	movl	%r9d, 4(%rbx)
	imulq	$7, %rax, %r14
	cvttss2si	4(%rdx,%r14,4), %esi
	imulq	$7, %rax, %r14
	cvttss2si	4(%rdi,%r14,4), %r8d
	movl	8(%rcx), %r9d
	movl	%esi, %r10d
	imull	8(%rcx), %r10d
	movl	%r8d, %r11d
	imull	8(%rbx), %r11d
	subl	%r11d, %r10d
	movl	%r10d, 8(%rcx)
	imull	%r8d, %r9d
	imull	8(%rbx), %esi
	addl	%esi, %r9d
	movl	%r9d, 8(%rbx)
	imulq	$7, %rax, %r14
	cvttss2si	8(%rdx,%r14,4), %esi
	imulq	$7, %rax, %r14
	cvttss2si	8(%rdi,%r14,4), %r8d
	movl	12(%rcx), %r9d
	movl	%esi, %r10d
	imull	12(%rcx), %r10d
	movl	%r8d, %r11d
	imull	12(%rbx), %r11d
	subl	%r11d, %r10d
	movl	%r10d, 12(%rcx)
	imull	%r8d, %r9d
	imull	12(%rbx), %esi
	addl	%esi, %r9d
	movl	%r9d, 12(%rbx)
	imulq	$7, %rax, %r14
	cvttss2si	12(%rdx,%r14,4), %esi
	imulq	$7, %rax, %r14
	cvttss2si	12(%rdi,%r14,4), %r8d
	movl	16(%rcx), %r9d
	movl	%esi, %r10d
	imull	16(%rcx), %r10d
	movl	%r8d, %r11d
	imull	16(%rbx), %r11d
	subl	%r11d, %r10d
	movl	%r10d, 16(%rcx)
	imull	%r8d, %r9d
	imull	16(%rbx), %esi
	addl	%esi, %r9d
	movl	%r9d, 16(%rbx)
	imulq	$7, %rax, %r14
	cvttss2si	16(%rdx,%r14,4), %esi
	imulq	$7, %rax, %r14
	cvttss2si	16(%rdi,%r14,4), %r8d
	movl	20(%rcx), %r9d
	movl	%esi, %r10d
	imull	20(%rcx), %r10d
	movl	%r8d, %r11d
	imull	20(%rbx), %r11d
	subl	%r11d, %r10d
	movl	%r10d, 20(%rcx)
	imull	%r8d, %r9d
	imull	20(%rbx), %esi
	addl	%esi, %r9d
	movl	%r9d, 20(%rbx)
	imulq	$7, %rax, %r14
	cvttss2si	20(%rdx,%r14,4), %esi
	imulq	$7, %rax, %r14
	cvttss2si	20(%rdi,%r14,4), %r8d
	movl	24(%rcx), %r9d
	movl	%esi, %r10d
	imull	24(%rcx), %r10d
	movl	%r8d, %r11d
	imull	24(%rbx), %r11d
	subl	%r11d, %r10d
	movl	%r10d, 24(%rcx)
	imull	%r8d, %r9d
	imull	24(%rbx), %esi
	addl	%esi, %r9d
	movl	%r9d, 24(%rbx)
	imulq	$7, %rax, %r14
	cvttss2si	24(%rdx,%r14,4), %esi
	imulq	$7, %rax, %r14
	cvttss2si	24(%rdi,%r14,4), %r8d
	movl	28(%rcx), %r9d
	movl	%esi, %r10d
	imull	28(%rcx), %r10d
	movl	%r8d, %r11d
	imull	28(%rbx), %r11d
	subl	%r11d, %r10d
	movl	%r10d, 28(%rcx)
	imull	%r8d, %r9d
	imull	28(%rbx), %esi
	addl	%esi, %r9d
	movl	%r9d, 28(%rbx)
# %bb.71:                               # %for.body316.22
                                        #   in Loop: Header=BB0_1 Depth=1
	movq	-32(%rbp), %rax         # 8-byte Reload
	movl	(%rax), %ecx
	movq	-272(%rbp), %rdx        # 8-byte Reload
	shlq	$3, %rdx
	movq	-48(%rbp), %rsi         # 8-byte Reload
	movl	%ecx, (%rsi,%rdx,4)
	movq	-24(%rbp), %rdx         # 8-byte Reload
	movl	(%rdx), %ecx
	movq	-272(%rbp), %rdi        # 8-byte Reload
	shlq	$3, %rdi
	movq	-40(%rbp), %r8          # 8-byte Reload
	movl	%ecx, (%r8,%rdi,4)
	movl	4(%rax), %ecx
	movq	-272(%rbp), %rdi        # 8-byte Reload
	shlq	$3, %rdi
	movl	%ecx, 4(%rsi,%rdi,4)
	movl	4(%rdx), %ecx
	movq	-272(%rbp), %rdi        # 8-byte Reload
	shlq	$3, %rdi
	movl	%ecx, 4(%r8,%rdi,4)
	movl	8(%rax), %ecx
	movq	-272(%rbp), %rdi        # 8-byte Reload
	shlq	$3, %rdi
	movl	%ecx, 8(%rsi,%rdi,4)
	movl	8(%rdx), %ecx
	movq	-272(%rbp), %rdi        # 8-byte Reload
	shlq	$3, %rdi
	movl	%ecx, 8(%r8,%rdi,4)
	movl	12(%rax), %ecx
	movq	-272(%rbp), %rdi        # 8-byte Reload
	shlq	$3, %rdi
	movl	%ecx, 12(%rsi,%rdi,4)
	movl	12(%rdx), %ecx
	movq	-272(%rbp), %rdi        # 8-byte Reload
	shlq	$3, %rdi
	movl	%ecx, 12(%r8,%rdi,4)
	movl	16(%rax), %ecx
	movq	-272(%rbp), %rdi        # 8-byte Reload
	shlq	$3, %rdi
	movl	%ecx, 16(%rsi,%rdi,4)
	movl	16(%rdx), %ecx
	movq	-272(%rbp), %rdi        # 8-byte Reload
	shlq	$3, %rdi
	movl	%ecx, 16(%r8,%rdi,4)
	movl	20(%rax), %ecx
	movq	-272(%rbp), %rdi        # 8-byte Reload
	shlq	$3, %rdi
	movl	%ecx, 20(%rsi,%rdi,4)
	movl	20(%rdx), %ecx
