	.text
	.file	"md.c"
	.globl	md                      # -- Begin function md
	.p2align	4, 0x90
	.type	md,@function
md:                                     # @md
	.cfi_startproc
# %bb.0:                                # %entry
	pushq	%rbp
	.cfi_def_cfa_offset 16
	.cfi_offset %rbp, -16
	movq	%rsp, %rbp
	.cfi_def_cfa_register %rbp
	pushq	%r15
	pushq	%r14
	pushq	%r13
	pushq	%r12
	pushq	%rbx
	.cfi_offset %rbx, -56
	.cfi_offset %r12, -48
	.cfi_offset %r13, -40
	.cfi_offset %r14, -32
	.cfi_offset %r15, -24
	movq	16(%rbp), %rax
	xorl	%r10d, %r10d
	movl	%r10d, %r11d
	movq	%r9, -48(%rbp)          # 8-byte Spill
	movq	%r8, -56(%rbp)          # 8-byte Spill
	movq	%rcx, -64(%rbp)         # 8-byte Spill
	movq	%rdx, -72(%rbp)         # 8-byte Spill
	movq	%rsi, -80(%rbp)         # 8-byte Spill
	movq	%rdi, -88(%rbp)         # 8-byte Spill
	movq	%rax, -96(%rbp)         # 8-byte Spill
	movq	%r11, -104(%rbp)        # 8-byte Spill
	jmp	.LBB0_1
.LBB0_1:                                # %for.body
                                        # =>This Loop Header: Depth=1
                                        #     Child Loop BB0_2 Depth 2
	movq	-104(%rbp), %rax        # 8-byte Reload
	xorl	%ecx, %ecx
	movl	%ecx, %edx
	xorl	%ecx, %ecx
	movq	-64(%rbp), %rsi         # 8-byte Reload
	movl	(%rsi,%rax,4), %edi
	movq	-56(%rbp), %r8          # 8-byte Reload
	movl	(%r8,%rax,4), %r9d
	movq	-48(%rbp), %r10         # 8-byte Reload
	movl	(%r10,%rax,4), %r11d
	movl	%ecx, %ebx
	movl	%ecx, %r14d
	movq	%rax, -112(%rbp)        # 8-byte Spill
	movl	%edi, -116(%rbp)        # 4-byte Spill
	movl	%r9d, -120(%rbp)        # 4-byte Spill
	movl	%r11d, -124(%rbp)       # 4-byte Spill
	movq	%rdx, -136(%rbp)        # 8-byte Spill
	movl	%ebx, -140(%rbp)        # 4-byte Spill
	movl	%r14d, -144(%rbp)       # 4-byte Spill
	movl	%ecx, -148(%rbp)        # 4-byte Spill
.LBB0_2:                                # %for.body7
                                        #   Parent Loop BB0_1 Depth=1
                                        # =>  This Inner Loop Header: Depth=2
	movl	-148(%rbp), %eax        # 4-byte Reload
	movl	-144(%rbp), %ecx        # 4-byte Reload
	movl	-140(%rbp), %edx        # 4-byte Reload
	movq	-136(%rbp), %rsi        # 8-byte Reload
	movq	-112(%rbp), %rdi        # 8-byte Reload
	shlq	$5, %rdi
	addq	%rsi, %rdi
	movq	-96(%rbp), %r8          # 8-byte Reload
	movl	(%r8,%rdi,4), %r9d
	movslq	%r9d, %rdi
	movq	-64(%rbp), %r10         # 8-byte Reload
	movl	(%r10,%rdi,4), %r11d
	movslq	%r9d, %rdi
	movq	-56(%rbp), %rbx         # 8-byte Reload
	movl	(%rbx,%rdi,4), %r14d
	movslq	%r9d, %rdi
	movq	-48(%rbp), %r15         # 8-byte Reload
	movl	(%r15,%rdi,4), %r9d
	movl	-116(%rbp), %r12d       # 4-byte Reload
	subl	%r11d, %r12d
	movl	-120(%rbp), %r11d       # 4-byte Reload
	subl	%r14d, %r11d
	movl	-124(%rbp), %r14d       # 4-byte Reload
	subl	%r9d, %r14d
	movl	%r12d, %r9d
	imull	%r9d, %r9d
	movl	%r11d, %r13d
	imull	%r13d, %r13d
	movl	%r14d, %edi
	imull	%edi, %edi
	addl	%r13d, %r9d
	addl	%edi, %r9d
	movl	%r9d, %edi
	imull	%edi, %edi
	imull	%r9d, %edi
	imull	%edi, %r9d
	imull	$15, %edi, %edi
	addl	$-20, %edi
	imull	%edi, %r9d
	imull	%r9d, %r12d
	addl	%r12d, %eax
	imull	%r9d, %r11d
	addl	%r11d, %ecx
	imull	%r9d, %r14d
	addl	%r14d, %edx
	addq	$1, %rsi
	movq	-112(%rbp), %rdi        # 8-byte Reload
	shlq	$5, %rdi
	addq	%rsi, %rdi
	movl	(%r8,%rdi,4), %r9d
	movslq	%r9d, %rdi
	movl	(%r10,%rdi,4), %r11d
	movslq	%r9d, %rdi
	movl	(%rbx,%rdi,4), %r14d
	movslq	%r9d, %rdi
	movl	(%r15,%rdi,4), %r9d
	movl	-116(%rbp), %r12d       # 4-byte Reload
	subl	%r11d, %r12d
	movl	-120(%rbp), %r11d       # 4-byte Reload
	subl	%r14d, %r11d
	movl	-124(%rbp), %r14d       # 4-byte Reload
	subl	%r9d, %r14d
	movl	%r12d, %r9d
	imull	%r9d, %r9d
	movl	%r11d, %r13d
	imull	%r13d, %r13d
	movl	%r14d, %edi
	imull	%edi, %edi
	addl	%r13d, %r9d
	addl	%edi, %r9d
	movl	%r9d, %edi
	imull	%edi, %edi
	imull	%r9d, %edi
	imull	%edi, %r9d
	imull	$15, %edi, %edi
	addl	$-20, %edi
	imull	%edi, %r9d
	imull	%r9d, %r12d
	addl	%r12d, %eax
	imull	%r9d, %r11d
	addl	%r11d, %ecx
	imull	%r9d, %r14d
	addl	%r14d, %edx
	addq	$1, %rsi
	movq	-112(%rbp), %rdi        # 8-byte Reload
	shlq	$5, %rdi
	addq	%rsi, %rdi
	movl	(%r8,%rdi,4), %r9d
	movslq	%r9d, %rdi
	movl	(%r10,%rdi,4), %r11d
	movslq	%r9d, %rdi
	movl	(%rbx,%rdi,4), %r14d
	movslq	%r9d, %rdi
	movl	(%r15,%rdi,4), %r9d
	movl	-116(%rbp), %r12d       # 4-byte Reload
	subl	%r11d, %r12d
	movl	-120(%rbp), %r11d       # 4-byte Reload
	subl	%r14d, %r11d
	movl	-124(%rbp), %r14d       # 4-byte Reload
	subl	%r9d, %r14d
	movl	%r12d, %r9d
	imull	%r9d, %r9d
	movl	%r11d, %r13d
	imull	%r13d, %r13d
	movl	%r14d, %edi
	imull	%edi, %edi
	addl	%r13d, %r9d
	addl	%edi, %r9d
	movl	%r9d, %edi
	imull	%edi, %edi
	imull	%r9d, %edi
	imull	%edi, %r9d
	imull	$15, %edi, %edi
	addl	$-20, %edi
	imull	%edi, %r9d
	imull	%r9d, %r12d
	addl	%r12d, %eax
	imull	%r9d, %r11d
	addl	%r11d, %ecx
	imull	%r9d, %r14d
	addl	%r14d, %edx
	addq	$1, %rsi
	movq	-112(%rbp), %rdi        # 8-byte Reload
	shlq	$5, %rdi
	addq	%rsi, %rdi
	movl	(%r8,%rdi,4), %r9d
	movslq	%r9d, %rdi
	movl	(%r10,%rdi,4), %r11d
	movslq	%r9d, %rdi
	movl	(%rbx,%rdi,4), %r14d
	movslq	%r9d, %rdi
	movl	(%r15,%rdi,4), %r9d
	movl	-116(%rbp), %r12d       # 4-byte Reload
	subl	%r11d, %r12d
	movl	-120(%rbp), %r11d       # 4-byte Reload
	subl	%r14d, %r11d
	movl	-124(%rbp), %r14d       # 4-byte Reload
	subl	%r9d, %r14d
	movl	%r12d, %r9d
	imull	%r9d, %r9d
	movl	%r11d, %r13d
	imull	%r13d, %r13d
	movl	%r14d, %edi
	imull	%edi, %edi
	addl	%r13d, %r9d
	addl	%edi, %r9d
	movl	%r9d, %edi
	imull	%edi, %edi
	imull	%r9d, %edi
	imull	%edi, %r9d
	imull	$15, %edi, %edi
	addl	$-20, %edi
	imull	%edi, %r9d
	imull	%r9d, %r12d
	addl	%r12d, %eax
	imull	%r9d, %r11d
	addl	%r11d, %ecx
	imull	%r9d, %r14d
	addl	%r14d, %edx
	addq	$1, %rsi
	movq	-112(%rbp), %rdi        # 8-byte Reload
	shlq	$5, %rdi
	addq	%rsi, %rdi
	movl	(%r8,%rdi,4), %r9d
	movslq	%r9d, %rdi
	movl	(%r10,%rdi,4), %r11d
	movslq	%r9d, %rdi
	movl	(%rbx,%rdi,4), %r14d
	movslq	%r9d, %rdi
	movl	(%r15,%rdi,4), %r9d
	movl	-116(%rbp), %r12d       # 4-byte Reload
	subl	%r11d, %r12d
	movl	-120(%rbp), %r11d       # 4-byte Reload
	subl	%r14d, %r11d
	movl	-124(%rbp), %r14d       # 4-byte Reload
	subl	%r9d, %r14d
	movl	%r12d, %r9d
	imull	%r9d, %r9d
	movl	%r11d, %r13d
	imull	%r13d, %r13d
	movl	%r14d, %edi
	imull	%edi, %edi
	addl	%r13d, %r9d
	addl	%edi, %r9d
	movl	%r9d, %edi
	imull	%edi, %edi
	imull	%r9d, %edi
	imull	%edi, %r9d
	imull	$15, %edi, %edi
	addl	$-20, %edi
	imull	%edi, %r9d
	imull	%r9d, %r12d
	addl	%r12d, %eax
	imull	%r9d, %r11d
	addl	%r11d, %ecx
	imull	%r9d, %r14d
	addl	%r14d, %edx
	addq	$1, %rsi
	movq	-112(%rbp), %rdi        # 8-byte Reload
	shlq	$5, %rdi
	addq	%rsi, %rdi
	movl	(%r8,%rdi,4), %r9d
	movslq	%r9d, %rdi
	movl	(%r10,%rdi,4), %r11d
	movslq	%r9d, %rdi
	movl	(%rbx,%rdi,4), %r14d
	movslq	%r9d, %rdi
	movl	(%r15,%rdi,4), %r9d
	movl	-116(%rbp), %r12d       # 4-byte Reload
	subl	%r11d, %r12d
	movl	-120(%rbp), %r11d       # 4-byte Reload
	subl	%r14d, %r11d
	movl	-124(%rbp), %r14d       # 4-byte Reload
	subl	%r9d, %r14d
	movl	%r12d, %r9d
	imull	%r9d, %r9d
	movl	%r11d, %r13d
	imull	%r13d, %r13d
	movl	%r14d, %edi
	imull	%edi, %edi
	addl	%r13d, %r9d
	addl	%edi, %r9d
	movl	%r9d, %edi
	imull	%edi, %edi
	imull	%r9d, %edi
	imull	%edi, %r9d
	imull	$15, %edi, %edi
	addl	$-20, %edi
	imull	%edi, %r9d
	imull	%r9d, %r12d
	addl	%r12d, %eax
	imull	%r9d, %r11d
	addl	%r11d, %ecx
	imull	%r9d, %r14d
	addl	%r14d, %edx
	addq	$1, %rsi
	movq	-112(%rbp), %rdi        # 8-byte Reload
	shlq	$5, %rdi
	addq	%rsi, %rdi
	movl	(%r8,%rdi,4), %r9d
	movslq	%r9d, %rdi
	movl	(%r10,%rdi,4), %r11d
	movslq	%r9d, %rdi
	movl	(%rbx,%rdi,4), %r14d
	movslq	%r9d, %rdi
	movl	(%r15,%rdi,4), %r9d
	movl	-116(%rbp), %r12d       # 4-byte Reload
	subl	%r11d, %r12d
	movl	-120(%rbp), %r11d       # 4-byte Reload
	subl	%r14d, %r11d
	movl	-124(%rbp), %r14d       # 4-byte Reload
	subl	%r9d, %r14d
	movl	%r12d, %r9d
	imull	%r9d, %r9d
	movl	%r11d, %r13d
	imull	%r13d, %r13d
	movl	%r14d, %edi
	imull	%edi, %edi
	addl	%r13d, %r9d
	addl	%edi, %r9d
	movl	%r9d, %edi
	imull	%edi, %edi
	imull	%r9d, %edi
	imull	%edi, %r9d
	imull	$15, %edi, %edi
	addl	$-20, %edi
	imull	%edi, %r9d
	imull	%r9d, %r12d
	addl	%r12d, %eax
	imull	%r9d, %r11d
	addl	%r11d, %ecx
	imull	%r9d, %r14d
	addl	%r14d, %edx
	addq	$1, %rsi
	movq	-112(%rbp), %rdi        # 8-byte Reload
	shlq	$5, %rdi
	addq	%rsi, %rdi
	movl	(%r8,%rdi,4), %r9d
	movslq	%r9d, %rdi
	movl	(%r10,%rdi,4), %r11d
	movslq	%r9d, %rdi
	movl	(%rbx,%rdi,4), %r14d
	movslq	%r9d, %rdi
	movl	(%r15,%rdi,4), %r9d
	movl	-116(%rbp), %r12d       # 4-byte Reload
	subl	%r11d, %r12d
	movl	-120(%rbp), %r11d       # 4-byte Reload
	subl	%r14d, %r11d
	movl	-124(%rbp), %r14d       # 4-byte Reload
	subl	%r9d, %r14d
	movl	%r12d, %r9d
	imull	%r9d, %r9d
	movl	%r11d, %r13d
	imull	%r13d, %r13d
	movl	%r14d, %edi
	imull	%edi, %edi
	addl	%r13d, %r9d
	addl	%edi, %r9d
	movl	%r9d, %edi
	imull	%edi, %edi
	imull	%r9d, %edi
	imull	%edi, %r9d
	imull	$15, %edi, %edi
	addl	$-20, %edi
	imull	%edi, %r9d
	imull	%r9d, %r12d
	addl	%r12d, %eax
	imull	%r9d, %r11d
	addl	%r11d, %ecx
	imull	%r9d, %r14d
	addl	%r14d, %edx
	addq	$1, %rsi
	movq	-112(%rbp), %rdi        # 8-byte Reload
	shlq	$5, %rdi
	addq	%rsi, %rdi
	movl	(%r8,%rdi,4), %r9d
	movslq	%r9d, %rdi
	movl	(%r10,%rdi,4), %r11d
	movslq	%r9d, %rdi
	movl	(%rbx,%rdi,4), %r14d
	movslq	%r9d, %rdi
	movl	(%r15,%rdi,4), %r9d
	movl	-116(%rbp), %r12d       # 4-byte Reload
	subl	%r11d, %r12d
	movl	-120(%rbp), %r11d       # 4-byte Reload
	subl	%r14d, %r11d
	movl	-124(%rbp), %r14d       # 4-byte Reload
	subl	%r9d, %r14d
	movl	%r12d, %r9d
	imull	%r9d, %r9d
	movl	%r11d, %r13d
	imull	%r13d, %r13d
	movl	%r14d, %edi
	imull	%edi, %edi
	addl	%r13d, %r9d
	addl	%edi, %r9d
	movl	%r9d, %edi
	imull	%edi, %edi
	imull	%r9d, %edi
	imull	%edi, %r9d
	imull	$15, %edi, %edi
	addl	$-20, %edi
	imull	%edi, %r9d
	imull	%r9d, %r12d
	addl	%r12d, %eax
	imull	%r9d, %r11d
	addl	%r11d, %ecx
	imull	%r9d, %r14d
	addl	%r14d, %edx
	addq	$1, %rsi
	movq	-112(%rbp), %rdi        # 8-byte Reload
	shlq	$5, %rdi
	addq	%rsi, %rdi
	movl	(%r8,%rdi,4), %r9d
	movslq	%r9d, %rdi
	movl	(%r10,%rdi,4), %r11d
	movslq	%r9d, %rdi
	movl	(%rbx,%rdi,4), %r14d
	movslq	%r9d, %rdi
	movl	(%r15,%rdi,4), %r9d
	movl	-116(%rbp), %r12d       # 4-byte Reload
	subl	%r11d, %r12d
	movl	-120(%rbp), %r11d       # 4-byte Reload
	subl	%r14d, %r11d
	movl	-124(%rbp), %r14d       # 4-byte Reload
	subl	%r9d, %r14d
	movl	%r12d, %r9d
	imull	%r9d, %r9d
	movl	%r11d, %r13d
	imull	%r13d, %r13d
	movl	%r14d, %edi
	imull	%edi, %edi
	addl	%r13d, %r9d
	addl	%edi, %r9d
	movl	%r9d, %edi
	imull	%edi, %edi
	imull	%r9d, %edi
	imull	%edi, %r9d
	imull	$15, %edi, %edi
	addl	$-20, %edi
	imull	%edi, %r9d
	imull	%r9d, %r12d
	addl	%r12d, %eax
	imull	%r9d, %r11d
	addl	%r11d, %ecx
	imull	%r9d, %r14d
	addl	%r14d, %edx
	addq	$1, %rsi
	movq	-112(%rbp), %rdi        # 8-byte Reload
	shlq	$5, %rdi
	addq	%rsi, %rdi
	movl	(%r8,%rdi,4), %r9d
	movslq	%r9d, %rdi
	movl	(%r10,%rdi,4), %r11d
	movslq	%r9d, %rdi
	movl	(%rbx,%rdi,4), %r14d
	movslq	%r9d, %rdi
	movl	(%r15,%rdi,4), %r9d
	movl	-116(%rbp), %r12d       # 4-byte Reload
	subl	%r11d, %r12d
	movl	-120(%rbp), %r11d       # 4-byte Reload
	subl	%r14d, %r11d
	movl	-124(%rbp), %r14d       # 4-byte Reload
	subl	%r9d, %r14d
	movl	%r12d, %r9d
	imull	%r9d, %r9d
	movl	%r11d, %r13d
	imull	%r13d, %r13d
	movl	%r14d, %edi
	imull	%edi, %edi
	addl	%r13d, %r9d
	addl	%edi, %r9d
	movl	%r9d, %edi
	imull	%edi, %edi
	imull	%r9d, %edi
	imull	%edi, %r9d
	imull	$15, %edi, %edi
	addl	$-20, %edi
	imull	%edi, %r9d
	imull	%r9d, %r12d
	addl	%r12d, %eax
	imull	%r9d, %r11d
	addl	%r11d, %ecx
	imull	%r9d, %r14d
	addl	%r14d, %edx
	addq	$1, %rsi
	movq	-112(%rbp), %rdi        # 8-byte Reload
	shlq	$5, %rdi
	addq	%rsi, %rdi
	movl	(%r8,%rdi,4), %r9d
	movslq	%r9d, %rdi
	movl	(%r10,%rdi,4), %r11d
	movslq	%r9d, %rdi
	movl	(%rbx,%rdi,4), %r14d
	movslq	%r9d, %rdi
	movl	(%r15,%rdi,4), %r9d
	movl	-116(%rbp), %r12d       # 4-byte Reload
	subl	%r11d, %r12d
	movl	-120(%rbp), %r11d       # 4-byte Reload
	subl	%r14d, %r11d
	movl	-124(%rbp), %r14d       # 4-byte Reload
	subl	%r9d, %r14d
	movl	%r12d, %r9d
	imull	%r9d, %r9d
	movl	%r11d, %r13d
	imull	%r13d, %r13d
	movl	%r14d, %edi
	imull	%edi, %edi
	addl	%r13d, %r9d
	addl	%edi, %r9d
	movl	%r9d, %edi
	imull	%edi, %edi
	imull	%r9d, %edi
	imull	%edi, %r9d
	imull	$15, %edi, %edi
	addl	$-20, %edi
	imull	%edi, %r9d
	imull	%r9d, %r12d
	addl	%r12d, %eax
	imull	%r9d, %r11d
	addl	%r11d, %ecx
	imull	%r9d, %r14d
	addl	%r14d, %edx
	addq	$1, %rsi
	movq	-112(%rbp), %rdi        # 8-byte Reload
	shlq	$5, %rdi
	addq	%rsi, %rdi
	movl	(%r8,%rdi,4), %r9d
	movslq	%r9d, %rdi
	movl	(%r10,%rdi,4), %r11d
	movslq	%r9d, %rdi
	movl	(%rbx,%rdi,4), %r14d
	movslq	%r9d, %rdi
	movl	(%r15,%rdi,4), %r9d
	movl	-116(%rbp), %r12d       # 4-byte Reload
	subl	%r11d, %r12d
	movl	-120(%rbp), %r11d       # 4-byte Reload
	subl	%r14d, %r11d
	movl	-124(%rbp), %r14d       # 4-byte Reload
	subl	%r9d, %r14d
	movl	%r12d, %r9d
	imull	%r9d, %r9d
	movl	%r11d, %r13d
	imull	%r13d, %r13d
	movl	%r14d, %edi
	imull	%edi, %edi
	addl	%r13d, %r9d
	addl	%edi, %r9d
	movl	%r9d, %edi
	imull	%edi, %edi
	imull	%r9d, %edi
	imull	%edi, %r9d
	imull	$15, %edi, %edi
	addl	$-20, %edi
	imull	%edi, %r9d
	imull	%r9d, %r12d
	addl	%r12d, %eax
	imull	%r9d, %r11d
	addl	%r11d, %ecx
	imull	%r9d, %r14d
	addl	%r14d, %edx
	addq	$1, %rsi
	movq	-112(%rbp), %rdi        # 8-byte Reload
	shlq	$5, %rdi
	addq	%rsi, %rdi
	movl	(%r8,%rdi,4), %r9d
	movslq	%r9d, %rdi
	movl	(%r10,%rdi,4), %r11d
	movslq	%r9d, %rdi
	movl	(%rbx,%rdi,4), %r14d
	movslq	%r9d, %rdi
	movl	(%r15,%rdi,4), %r9d
	movl	-116(%rbp), %r12d       # 4-byte Reload
	subl	%r11d, %r12d
	movl	-120(%rbp), %r11d       # 4-byte Reload
	subl	%r14d, %r11d
	movl	-124(%rbp), %r14d       # 4-byte Reload
	subl	%r9d, %r14d
	movl	%r12d, %r9d
	imull	%r9d, %r9d
	movl	%r11d, %r13d
	imull	%r13d, %r13d
	movl	%r14d, %edi
	imull	%edi, %edi
	addl	%r13d, %r9d
	addl	%edi, %r9d
	movl	%r9d, %edi
	imull	%edi, %edi
	imull	%r9d, %edi
	imull	%edi, %r9d
	imull	$15, %edi, %edi
	addl	$-20, %edi
	imull	%edi, %r9d
	imull	%r9d, %r12d
	addl	%r12d, %eax
	imull	%r9d, %r11d
	addl	%r11d, %ecx
	imull	%r9d, %r14d
	addl	%r14d, %edx
	addq	$1, %rsi
	movq	-112(%rbp), %rdi        # 8-byte Reload
	shlq	$5, %rdi
	addq	%rsi, %rdi
	movl	(%r8,%rdi,4), %r9d
	movslq	%r9d, %rdi
	movl	(%r10,%rdi,4), %r11d
	movslq	%r9d, %rdi
	movl	(%rbx,%rdi,4), %r14d
	movslq	%r9d, %rdi
	movl	(%r15,%rdi,4), %r9d
	movl	-116(%rbp), %r12d       # 4-byte Reload
	subl	%r11d, %r12d
	movl	-120(%rbp), %r11d       # 4-byte Reload
	subl	%r14d, %r11d
	movl	-124(%rbp), %r14d       # 4-byte Reload
	subl	%r9d, %r14d
	movl	%r12d, %r9d
	imull	%r9d, %r9d
	movl	%r11d, %r13d
	imull	%r13d, %r13d
	movl	%r14d, %edi
	imull	%edi, %edi
	addl	%r13d, %r9d
	addl	%edi, %r9d
	movl	%r9d, %edi
	imull	%edi, %edi
	imull	%r9d, %edi
	imull	%edi, %r9d
	imull	$15, %edi, %edi
	addl	$-20, %edi
	imull	%edi, %r9d
	imull	%r9d, %r12d
	addl	%r12d, %eax
	imull	%r9d, %r11d
	addl	%r11d, %ecx
	imull	%r9d, %r14d
	addl	%r14d, %edx
	addq	$1, %rsi
	movq	-112(%rbp), %rdi        # 8-byte Reload
	shlq	$5, %rdi
	addq	%rsi, %rdi
	movl	(%r8,%rdi,4), %r9d
	movslq	%r9d, %rdi
	movl	(%r10,%rdi,4), %r11d
	movslq	%r9d, %rdi
	movl	(%rbx,%rdi,4), %r14d
	movslq	%r9d, %rdi
	movl	(%r15,%rdi,4), %r9d
	movl	-116(%rbp), %r12d       # 4-byte Reload
	subl	%r11d, %r12d
	movl	-120(%rbp), %r11d       # 4-byte Reload
	subl	%r14d, %r11d
	movl	-124(%rbp), %r14d       # 4-byte Reload
	subl	%r9d, %r14d
	movl	%r12d, %r9d
	imull	%r9d, %r9d
	movl	%r11d, %r13d
	imull	%r13d, %r13d
	movl	%r14d, %edi
	imull	%edi, %edi
	addl	%r13d, %r9d
	addl	%edi, %r9d
	movl	%r9d, %edi
	imull	%edi, %edi
	imull	%r9d, %edi
	imull	%edi, %r9d
	imull	$15, %edi, %edi
	addl	$-20, %edi
	imull	%edi, %r9d
	imull	%r9d, %r12d
	addl	%r12d, %eax
	imull	%r9d, %r11d
	addl	%r11d, %ecx
	imull	%r9d, %r14d
	addl	%r14d, %edx
	addq	$1, %rsi
	movq	-112(%rbp), %rdi        # 8-byte Reload
	shlq	$5, %rdi
	addq	%rsi, %rdi
	movl	(%r8,%rdi,4), %r9d
	movslq	%r9d, %rdi
	movl	(%r10,%rdi,4), %r11d
	movslq	%r9d, %rdi
	movl	(%rbx,%rdi,4), %r14d
	movslq	%r9d, %rdi
	movl	(%r15,%rdi,4), %r9d
	movl	-116(%rbp), %r12d       # 4-byte Reload
	subl	%r11d, %r12d
	movl	-120(%rbp), %r11d       # 4-byte Reload
	subl	%r14d, %r11d
	movl	-124(%rbp), %r14d       # 4-byte Reload
	subl	%r9d, %r14d
	movl	%r12d, %r9d
	imull	%r9d, %r9d
	movl	%r11d, %r13d
	imull	%r13d, %r13d
	movl	%r14d, %edi
	imull	%edi, %edi
	addl	%r13d, %r9d
	addl	%edi, %r9d
	movl	%r9d, %edi
	imull	%edi, %edi
	imull	%r9d, %edi
	imull	%edi, %r9d
	imull	$15, %edi, %edi
	addl	$-20, %edi
	imull	%edi, %r9d
	imull	%r9d, %r12d
	addl	%r12d, %eax
	imull	%r9d, %r11d
	addl	%r11d, %ecx
	imull	%r9d, %r14d
	addl	%r14d, %edx
	addq	$1, %rsi
	movq	-112(%rbp), %rdi        # 8-byte Reload
	shlq	$5, %rdi
	addq	%rsi, %rdi
	movl	(%r8,%rdi,4), %r9d
	movslq	%r9d, %rdi
	movl	(%r10,%rdi,4), %r11d
	movslq	%r9d, %rdi
	movl	(%rbx,%rdi,4), %r14d
	movslq	%r9d, %rdi
	movl	(%r15,%rdi,4), %r9d
	movl	-116(%rbp), %r12d       # 4-byte Reload
	subl	%r11d, %r12d
	movl	-120(%rbp), %r11d       # 4-byte Reload
	subl	%r14d, %r11d
	movl	-124(%rbp), %r14d       # 4-byte Reload
	subl	%r9d, %r14d
	movl	%r12d, %r9d
	imull	%r9d, %r9d
	movl	%r11d, %r13d
	imull	%r13d, %r13d
	movl	%r14d, %edi
	imull	%edi, %edi
	addl	%r13d, %r9d
	addl	%edi, %r9d
	movl	%r9d, %edi
	imull	%edi, %edi
	imull	%r9d, %edi
	imull	%edi, %r9d
	imull	$15, %edi, %edi
	addl	$-20, %edi
	imull	%edi, %r9d
	imull	%r9d, %r12d
	addl	%r12d, %eax
	imull	%r9d, %r11d
	addl	%r11d, %ecx
	imull	%r9d, %r14d
	addl	%r14d, %edx
	addq	$1, %rsi
	movq	-112(%rbp), %rdi        # 8-byte Reload
	shlq	$5, %rdi
	addq	%rsi, %rdi
	movl	(%r8,%rdi,4), %r9d
	movslq	%r9d, %rdi
	movl	(%r10,%rdi,4), %r11d
	movslq	%r9d, %rdi
	movl	(%rbx,%rdi,4), %r14d
	movslq	%r9d, %rdi
	movl	(%r15,%rdi,4), %r9d
	movl	-116(%rbp), %r12d       # 4-byte Reload
	subl	%r11d, %r12d
	movl	-120(%rbp), %r11d       # 4-byte Reload
	subl	%r14d, %r11d
	movl	-124(%rbp), %r14d       # 4-byte Reload
	subl	%r9d, %r14d
	movl	%r12d, %r9d
	imull	%r9d, %r9d
	movl	%r11d, %r13d
	imull	%r13d, %r13d
	movl	%r14d, %edi
	imull	%edi, %edi
	addl	%r13d, %r9d
	addl	%edi, %r9d
	movl	%r9d, %edi
	imull	%edi, %edi
	imull	%r9d, %edi
	imull	%edi, %r9d
	imull	$15, %edi, %edi
	addl	$-20, %edi
	imull	%edi, %r9d
	imull	%r9d, %r12d
	addl	%r12d, %eax
	imull	%r9d, %r11d
	addl	%r11d, %ecx
	imull	%r9d, %r14d
	addl	%r14d, %edx
	addq	$1, %rsi
	movq	-112(%rbp), %rdi        # 8-byte Reload
	shlq	$5, %rdi
	addq	%rsi, %rdi
	movl	(%r8,%rdi,4), %r9d
	movslq	%r9d, %rdi
	movl	(%r10,%rdi,4), %r11d
	movslq	%r9d, %rdi
	movl	(%rbx,%rdi,4), %r14d
	movslq	%r9d, %rdi
	movl	(%r15,%rdi,4), %r9d
	movl	-116(%rbp), %r12d       # 4-byte Reload
	subl	%r11d, %r12d
	movl	-120(%rbp), %r11d       # 4-byte Reload
	subl	%r14d, %r11d
	movl	-124(%rbp), %r14d       # 4-byte Reload
	subl	%r9d, %r14d
	movl	%r12d, %r9d
	imull	%r9d, %r9d
	movl	%r11d, %r13d
	imull	%r13d, %r13d
	movl	%r14d, %edi
	imull	%edi, %edi
	addl	%r13d, %r9d
	addl	%edi, %r9d
	movl	%r9d, %edi
	imull	%edi, %edi
	imull	%r9d, %edi
	imull	%edi, %r9d
	imull	$15, %edi, %edi
	addl	$-20, %edi
	imull	%edi, %r9d
	imull	%r9d, %r12d
	addl	%r12d, %eax
	imull	%r9d, %r11d
	addl	%r11d, %ecx
	imull	%r9d, %r14d
	addl	%r14d, %edx
	addq	$1, %rsi
	movq	-112(%rbp), %rdi        # 8-byte Reload
	shlq	$5, %rdi
	addq	%rsi, %rdi
	movl	(%r8,%rdi,4), %r9d
	movslq	%r9d, %rdi
	movl	(%r10,%rdi,4), %r11d
	movslq	%r9d, %rdi
	movl	(%rbx,%rdi,4), %r14d
	movslq	%r9d, %rdi
	movl	(%r15,%rdi,4), %r9d
	movl	-116(%rbp), %r12d       # 4-byte Reload
	subl	%r11d, %r12d
	movl	-120(%rbp), %r11d       # 4-byte Reload
	subl	%r14d, %r11d
	movl	-124(%rbp), %r14d       # 4-byte Reload
	subl	%r9d, %r14d
	movl	%r12d, %r9d
	imull	%r9d, %r9d
	movl	%r11d, %r13d
	imull	%r13d, %r13d
	movl	%r14d, %edi
	imull	%edi, %edi
	addl	%r13d, %r9d
	addl	%edi, %r9d
	movl	%r9d, %edi
	imull	%edi, %edi
	imull	%r9d, %edi
	imull	%edi, %r9d
	imull	$15, %edi, %edi
	addl	$-20, %edi
	imull	%edi, %r9d
	imull	%r9d, %r12d
	addl	%r12d, %eax
	imull	%r9d, %r11d
	addl	%r11d, %ecx
	imull	%r9d, %r14d
	addl	%r14d, %edx
	addq	$1, %rsi
	movq	-112(%rbp), %rdi        # 8-byte Reload
	shlq	$5, %rdi
	addq	%rsi, %rdi
	movl	(%r8,%rdi,4), %r9d
	movslq	%r9d, %rdi
	movl	(%r10,%rdi,4), %r11d
	movslq	%r9d, %rdi
	movl	(%rbx,%rdi,4), %r14d
	movslq	%r9d, %rdi
	movl	(%r15,%rdi,4), %r9d
	movl	-116(%rbp), %r12d       # 4-byte Reload
	subl	%r11d, %r12d
	movl	-120(%rbp), %r11d       # 4-byte Reload
	subl	%r14d, %r11d
	movl	-124(%rbp), %r14d       # 4-byte Reload
	subl	%r9d, %r14d
	movl	%r12d, %r9d
	imull	%r9d, %r9d
	movl	%r11d, %r13d
	imull	%r13d, %r13d
	movl	%r14d, %edi
	imull	%edi, %edi
	addl	%r13d, %r9d
	addl	%edi, %r9d
	movl	%r9d, %edi
	imull	%edi, %edi
	imull	%r9d, %edi
	imull	%edi, %r9d
	imull	$15, %edi, %edi
	addl	$-20, %edi
	imull	%edi, %r9d
	imull	%r9d, %r12d
	addl	%r12d, %eax
	imull	%r9d, %r11d
	addl	%r11d, %ecx
	imull	%r9d, %r14d
	addl	%r14d, %edx
	addq	$1, %rsi
	movq	-112(%rbp), %rdi        # 8-byte Reload
	shlq	$5, %rdi
	addq	%rsi, %rdi
	movl	(%r8,%rdi,4), %r9d
	movslq	%r9d, %rdi
	movl	(%r10,%rdi,4), %r11d
	movslq	%r9d, %rdi
	movl	(%rbx,%rdi,4), %r14d
	movslq	%r9d, %rdi
	movl	(%r15,%rdi,4), %r9d
	movl	-116(%rbp), %r12d       # 4-byte Reload
	subl	%r11d, %r12d
	movl	-120(%rbp), %r11d       # 4-byte Reload
	subl	%r14d, %r11d
	movl	-124(%rbp), %r14d       # 4-byte Reload
	subl	%r9d, %r14d
	movl	%r12d, %r9d
	imull	%r9d, %r9d
	movl	%r11d, %r13d
	imull	%r13d, %r13d
	movl	%r14d, %edi
	imull	%edi, %edi
	addl	%r13d, %r9d
	addl	%edi, %r9d
	movl	%r9d, %edi
	imull	%edi, %edi
	imull	%r9d, %edi
	imull	%edi, %r9d
	imull	$15, %edi, %edi
	addl	$-20, %edi
	imull	%edi, %r9d
	imull	%r9d, %r12d
	addl	%r12d, %eax
	imull	%r9d, %r11d
	addl	%r11d, %ecx
	imull	%r9d, %r14d
	addl	%r14d, %edx
	addq	$1, %rsi
	movq	-112(%rbp), %rdi        # 8-byte Reload
	shlq	$5, %rdi
	addq	%rsi, %rdi
	movl	(%r8,%rdi,4), %r9d
	movslq	%r9d, %rdi
	movl	(%r10,%rdi,4), %r11d
	movslq	%r9d, %rdi
	movl	(%rbx,%rdi,4), %r14d
	movslq	%r9d, %rdi
	movl	(%r15,%rdi,4), %r9d
	movl	-116(%rbp), %r12d       # 4-byte Reload
	subl	%r11d, %r12d
	movl	-120(%rbp), %r11d       # 4-byte Reload
	subl	%r14d, %r11d
	movl	-124(%rbp), %r14d       # 4-byte Reload
	subl	%r9d, %r14d
	movl	%r12d, %r9d
	imull	%r9d, %r9d
	movl	%r11d, %r13d
	imull	%r13d, %r13d
	movl	%r14d, %edi
	imull	%edi, %edi
	addl	%r13d, %r9d
	addl	%edi, %r9d
	movl	%r9d, %edi
	imull	%edi, %edi
	imull	%r9d, %edi
	imull	%edi, %r9d
	imull	$15, %edi, %edi
	addl	$-20, %edi
	imull	%edi, %r9d
	imull	%r9d, %r12d
	addl	%r12d, %eax
	imull	%r9d, %r11d
	addl	%r11d, %ecx
	imull	%r9d, %r14d
	addl	%r14d, %edx
	addq	$1, %rsi
	movq	-112(%rbp), %rdi        # 8-byte Reload
	shlq	$5, %rdi
	addq	%rsi, %rdi
	movl	(%r8,%rdi,4), %r9d
	movslq	%r9d, %rdi
	movl	(%r10,%rdi,4), %r11d
	movslq	%r9d, %rdi
	movl	(%rbx,%rdi,4), %r14d
	movslq	%r9d, %rdi
	movl	(%r15,%rdi,4), %r9d
	movl	-116(%rbp), %r12d       # 4-byte Reload
	subl	%r11d, %r12d
	movl	-120(%rbp), %r11d       # 4-byte Reload
	subl	%r14d, %r11d
	movl	-124(%rbp), %r14d       # 4-byte Reload
	subl	%r9d, %r14d
	movl	%r12d, %r9d
	imull	%r9d, %r9d
	movl	%r11d, %r13d
	imull	%r13d, %r13d
	movl	%r14d, %edi
	imull	%edi, %edi
	addl	%r13d, %r9d
	addl	%edi, %r9d
	movl	%r9d, %edi
	imull	%edi, %edi
	imull	%r9d, %edi
	imull	%edi, %r9d
	imull	$15, %edi, %edi
	addl	$-20, %edi
	imull	%edi, %r9d
	imull	%r9d, %r12d
	addl	%r12d, %eax
	imull	%r9d, %r11d
	addl	%r11d, %ecx
	imull	%r9d, %r14d
	addl	%r14d, %edx
	addq	$1, %rsi
	movq	-112(%rbp), %rdi        # 8-byte Reload
	shlq	$5, %rdi
	addq	%rsi, %rdi
	movl	(%r8,%rdi,4), %r9d
	movslq	%r9d, %rdi
	movl	(%r10,%rdi,4), %r11d
	movslq	%r9d, %rdi
	movl	(%rbx,%rdi,4), %r14d
	movslq	%r9d, %rdi
	movl	(%r15,%rdi,4), %r9d
	movl	-116(%rbp), %r12d       # 4-byte Reload
	subl	%r11d, %r12d
	movl	-120(%rbp), %r11d       # 4-byte Reload
	subl	%r14d, %r11d
	movl	-124(%rbp), %r14d       # 4-byte Reload
	subl	%r9d, %r14d
	movl	%r12d, %r9d
	imull	%r9d, %r9d
	movl	%r11d, %r13d
	imull	%r13d, %r13d
	movl	%r14d, %edi
	imull	%edi, %edi
	addl	%r13d, %r9d
	addl	%edi, %r9d
	movl	%r9d, %edi
	imull	%edi, %edi
	imull	%r9d, %edi
	imull	%edi, %r9d
	imull	$15, %edi, %edi
	addl	$-20, %edi
	imull	%edi, %r9d
	imull	%r9d, %r12d
	addl	%r12d, %eax
	imull	%r9d, %r11d
	addl	%r11d, %ecx
	imull	%r9d, %r14d
	addl	%r14d, %edx
	addq	$1, %rsi
	movq	-112(%rbp), %rdi        # 8-byte Reload
	shlq	$5, %rdi
	addq	%rsi, %rdi
	movl	(%r8,%rdi,4), %r9d
	movslq	%r9d, %rdi
	movl	(%r10,%rdi,4), %r11d
	movslq	%r9d, %rdi
	movl	(%rbx,%rdi,4), %r14d
	movslq	%r9d, %rdi
	movl	(%r15,%rdi,4), %r9d
	movl	-116(%rbp), %r12d       # 4-byte Reload
	subl	%r11d, %r12d
	movl	-120(%rbp), %r11d       # 4-byte Reload
	subl	%r14d, %r11d
	movl	-124(%rbp), %r14d       # 4-byte Reload
	subl	%r9d, %r14d
	movl	%r12d, %r9d
	imull	%r9d, %r9d
	movl	%r11d, %r13d
	imull	%r13d, %r13d
	movl	%r14d, %edi
	imull	%edi, %edi
	addl	%r13d, %r9d
	addl	%edi, %r9d
	movl	%r9d, %edi
	imull	%edi, %edi
	imull	%r9d, %edi
	imull	%edi, %r9d
	imull	$15, %edi, %edi
	addl	$-20, %edi
	imull	%edi, %r9d
	imull	%r9d, %r12d
	addl	%r12d, %eax
	imull	%r9d, %r11d
	addl	%r11d, %ecx
	imull	%r9d, %r14d
	addl	%r14d, %edx
	addq	$1, %rsi
	movq	-112(%rbp), %rdi        # 8-byte Reload
	shlq	$5, %rdi
	addq	%rsi, %rdi
	movl	(%r8,%rdi,4), %r9d
	movslq	%r9d, %rdi
	movl	(%r10,%rdi,4), %r11d
	movslq	%r9d, %rdi
	movl	(%rbx,%rdi,4), %r14d
	movslq	%r9d, %rdi
	movl	(%r15,%rdi,4), %r9d
	movl	-116(%rbp), %r12d       # 4-byte Reload
	subl	%r11d, %r12d
	movl	-120(%rbp), %r11d       # 4-byte Reload
	subl	%r14d, %r11d
	movl	-124(%rbp), %r14d       # 4-byte Reload
	subl	%r9d, %r14d
	movl	%r12d, %r9d
	imull	%r9d, %r9d
	movl	%r11d, %r13d
	imull	%r13d, %r13d
	movl	%r14d, %edi
	imull	%edi, %edi
	addl	%r13d, %r9d
	addl	%edi, %r9d
	movl	%r9d, %edi
	imull	%edi, %edi
	imull	%r9d, %edi
	imull	%edi, %r9d
	imull	$15, %edi, %edi
	addl	$-20, %edi
	imull	%edi, %r9d
	imull	%r9d, %r12d
	addl	%r12d, %eax
	imull	%r9d, %r11d
	addl	%r11d, %ecx
	imull	%r9d, %r14d
	addl	%r14d, %edx
	addq	$1, %rsi
	movq	-112(%rbp), %rdi        # 8-byte Reload
	shlq	$5, %rdi
	addq	%rsi, %rdi
	movl	(%r8,%rdi,4), %r9d
	movslq	%r9d, %rdi
	movl	(%r10,%rdi,4), %r11d
	movslq	%r9d, %rdi
	movl	(%rbx,%rdi,4), %r14d
	movslq	%r9d, %rdi
	movl	(%r15,%rdi,4), %r9d
	movl	-116(%rbp), %r12d       # 4-byte Reload
	subl	%r11d, %r12d
	movl	-120(%rbp), %r11d       # 4-byte Reload
	subl	%r14d, %r11d
	movl	-124(%rbp), %r14d       # 4-byte Reload
	subl	%r9d, %r14d
	movl	%r12d, %r9d
	imull	%r9d, %r9d
	movl	%r11d, %r13d
	imull	%r13d, %r13d
	movl	%r14d, %edi
	imull	%edi, %edi
	addl	%r13d, %r9d
	addl	%edi, %r9d
	movl	%r9d, %edi
	imull	%edi, %edi
	imull	%r9d, %edi
	imull	%edi, %r9d
	imull	$15, %edi, %edi
	addl	$-20, %edi
	imull	%edi, %r9d
	imull	%r9d, %r12d
	addl	%r12d, %eax
	imull	%r9d, %r11d
	addl	%r11d, %ecx
	imull	%r9d, %r14d
	addl	%r14d, %edx
	addq	$1, %rsi
	movq	-112(%rbp), %rdi        # 8-byte Reload
	shlq	$5, %rdi
	addq	%rsi, %rdi
	movl	(%r8,%rdi,4), %r9d
	movslq	%r9d, %rdi
	movl	(%r10,%rdi,4), %r11d
	movslq	%r9d, %rdi
	movl	(%rbx,%rdi,4), %r14d
	movslq	%r9d, %rdi
	movl	(%r15,%rdi,4), %r9d
	movl	-116(%rbp), %r12d       # 4-byte Reload
	subl	%r11d, %r12d
	movl	-120(%rbp), %r11d       # 4-byte Reload
	subl	%r14d, %r11d
	movl	-124(%rbp), %r14d       # 4-byte Reload
	subl	%r9d, %r14d
	movl	%r12d, %r9d
	imull	%r9d, %r9d
	movl	%r11d, %r13d
	imull	%r13d, %r13d
	movl	%r14d, %edi
	imull	%edi, %edi
	addl	%r13d, %r9d
	addl	%edi, %r9d
	movl	%r9d, %edi
	imull	%edi, %edi
	imull	%r9d, %edi
	imull	%edi, %r9d
	imull	$15, %edi, %edi
	addl	$-20, %edi
	imull	%edi, %r9d
	imull	%r9d, %r12d
	addl	%r12d, %eax
	imull	%r9d, %r11d
	addl	%r11d, %ecx
	imull	%r9d, %r14d
	addl	%r14d, %edx
	addq	$1, %rsi
	movq	-112(%rbp), %rdi        # 8-byte Reload
	shlq	$5, %rdi
	addq	%rsi, %rdi
	movl	(%r8,%rdi,4), %r9d
	movslq	%r9d, %rdi
	movl	(%r10,%rdi,4), %r11d
	movslq	%r9d, %rdi
	movl	(%rbx,%rdi,4), %r14d
	movslq	%r9d, %rdi
	movl	(%r15,%rdi,4), %r9d
	movl	-116(%rbp), %r12d       # 4-byte Reload
	subl	%r11d, %r12d
	movl	-120(%rbp), %r11d       # 4-byte Reload
	subl	%r14d, %r11d
	movl	-124(%rbp), %r14d       # 4-byte Reload
	subl	%r9d, %r14d
	movl	%r12d, %r9d
	imull	%r9d, %r9d
	movl	%r11d, %r13d
	imull	%r13d, %r13d
	movl	%r14d, %edi
	imull	%edi, %edi
	addl	%r13d, %r9d
	addl	%edi, %r9d
	movl	%r9d, %edi
	imull	%edi, %edi
	imull	%r9d, %edi
	imull	%edi, %r9d
	imull	$15, %edi, %edi
	addl	$-20, %edi
	imull	%edi, %r9d
	imull	%r9d, %r12d
	addl	%r12d, %eax
	imull	%r9d, %r11d
	addl	%r11d, %ecx
	imull	%r9d, %r14d
	addl	%r14d, %edx
	addq	$1, %rsi
	movq	-112(%rbp), %rdi        # 8-byte Reload
	shlq	$5, %rdi
	addq	%rsi, %rdi
	movl	(%r8,%rdi,4), %r9d
	movslq	%r9d, %rdi
	movl	(%r10,%rdi,4), %r11d
	movslq	%r9d, %rdi
	movl	(%rbx,%rdi,4), %r14d
	movslq	%r9d, %rdi
	movl	(%r15,%rdi,4), %r9d
	movl	-116(%rbp), %r12d       # 4-byte Reload
	subl	%r11d, %r12d
	movl	-120(%rbp), %r11d       # 4-byte Reload
	subl	%r14d, %r11d
	movl	-124(%rbp), %r14d       # 4-byte Reload
	subl	%r9d, %r14d
	movl	%r12d, %r9d
	imull	%r9d, %r9d
	movl	%r11d, %r13d
	imull	%r13d, %r13d
	movl	%r14d, %edi
	imull	%edi, %edi
	addl	%r13d, %r9d
	addl	%edi, %r9d
	movl	%r9d, %edi
	imull	%edi, %edi
	imull	%r9d, %edi
	imull	%edi, %r9d
	imull	$15, %edi, %edi
	addl	$-20, %edi
	imull	%edi, %r9d
	imull	%r9d, %r12d
	addl	%r12d, %eax
	imull	%r9d, %r11d
	addl	%r11d, %ecx
	imull	%r9d, %r14d
	addl	%r14d, %edx
	addq	$1, %rsi
	movq	-112(%rbp), %rdi        # 8-byte Reload
	shlq	$5, %rdi
	addq	%rsi, %rdi
	movl	(%r8,%rdi,4), %r9d
	movslq	%r9d, %rdi
	movl	(%r10,%rdi,4), %r11d
	movslq	%r9d, %rdi
	movl	(%rbx,%rdi,4), %r14d
	movslq	%r9d, %rdi
	movl	(%r15,%rdi,4), %r9d
	movl	-116(%rbp), %r12d       # 4-byte Reload
	subl	%r11d, %r12d
	movl	-120(%rbp), %r11d       # 4-byte Reload
	subl	%r14d, %r11d
	movl	-124(%rbp), %r14d       # 4-byte Reload
	subl	%r9d, %r14d
	movl	%r12d, %r9d
	imull	%r9d, %r9d
	movl	%r11d, %r13d
	imull	%r13d, %r13d
	movl	%r14d, %edi
	imull	%edi, %edi
	addl	%r13d, %r9d
	addl	%edi, %r9d
	movl	%r9d, %edi
	imull	%edi, %edi
	imull	%r9d, %edi
	imull	%edi, %r9d
	imull	$15, %edi, %edi
	addl	$-20, %edi
	imull	%edi, %r9d
	imull	%r9d, %r12d
	addl	%r12d, %eax
	imull	%r9d, %r11d
	addl	%r11d, %ecx
	imull	%r9d, %r14d
	addl	%r14d, %edx
	addq	$1, %rsi
	movq	-112(%rbp), %rdi        # 8-byte Reload
	shlq	$5, %rdi
	addq	%rsi, %rdi
	movl	(%r8,%rdi,4), %r9d
	movslq	%r9d, %rdi
	movl	(%r10,%rdi,4), %r11d
	movslq	%r9d, %rdi
	movl	(%rbx,%rdi,4), %r14d
	movslq	%r9d, %rdi
	movl	(%r15,%rdi,4), %r9d
	movl	-116(%rbp), %r12d       # 4-byte Reload
	subl	%r11d, %r12d
	movl	-120(%rbp), %r11d       # 4-byte Reload
	subl	%r14d, %r11d
	movl	-124(%rbp), %r14d       # 4-byte Reload
	subl	%r9d, %r14d
	movl	%r12d, %r9d
	imull	%r9d, %r9d
	movl	%r11d, %r13d
	imull	%r13d, %r13d
	movl	%r14d, %edi
	imull	%edi, %edi
	addl	%r13d, %r9d
	addl	%edi, %r9d
	movl	%r9d, %edi
	imull	%edi, %edi
	imull	%r9d, %edi
	imull	%edi, %r9d
	imull	$15, %edi, %edi
	addl	$-20, %edi
	imull	%edi, %r9d
	imull	%r9d, %r12d
	addl	%r12d, %eax
	imull	%r9d, %r11d
	addl	%r11d, %ecx
	imull	%r9d, %r14d
	addl	%r14d, %edx
	addq	$1, %rsi
	movq	-112(%rbp), %rdi        # 8-byte Reload
	shlq	$5, %rdi
	addq	%rsi, %rdi
	movl	(%r8,%rdi,4), %r9d
	movslq	%r9d, %rdi
	movl	(%r10,%rdi,4), %r11d
	movslq	%r9d, %rdi
	movl	(%rbx,%rdi,4), %r14d
	movslq	%r9d, %rdi
	movl	(%r15,%rdi,4), %r9d
	movl	-116(%rbp), %r12d       # 4-byte Reload
	subl	%r11d, %r12d
	movl	-120(%rbp), %r11d       # 4-byte Reload
	subl	%r14d, %r11d
	movl	-124(%rbp), %r14d       # 4-byte Reload
	subl	%r9d, %r14d
	movl	%r12d, %r9d
	imull	%r9d, %r9d
	movl	%r11d, %r13d
	imull	%r13d, %r13d
	movl	%r14d, %edi
	imull	%edi, %edi
	addl	%r13d, %r9d
	addl	%edi, %r9d
	movl	%r9d, %edi
	imull	%edi, %edi
	imull	%r9d, %edi
	imull	%edi, %r9d
	imull	$15, %edi, %edi
	addl	$-20, %edi
	imull	%edi, %r9d
	imull	%r9d, %r12d
	addl	%r12d, %eax
	imull	%r9d, %r11d
	addl	%r11d, %ecx
	imull	%r9d, %r14d
	addl	%r14d, %edx
	addq	$1, %rsi
	movq	-112(%rbp), %rdi        # 8-byte Reload
	shlq	$5, %rdi
	addq	%rsi, %rdi
	movl	(%r8,%rdi,4), %r9d
	movslq	%r9d, %rdi
	movl	(%r10,%rdi,4), %r11d
	movslq	%r9d, %rdi
	movl	(%rbx,%rdi,4), %r14d
	movslq	%r9d, %rdi
	movl	(%r15,%rdi,4), %r9d
	movl	-116(%rbp), %r12d       # 4-byte Reload
	subl	%r11d, %r12d
	movl	-120(%rbp), %r11d       # 4-byte Reload
	subl	%r14d, %r11d
	movl	-124(%rbp), %r14d       # 4-byte Reload
	subl	%r9d, %r14d
	movl	%r12d, %r9d
	imull	%r9d, %r9d
	movl	%r11d, %r13d
	imull	%r13d, %r13d
	movl	%r14d, %edi
	imull	%edi, %edi
	addl	%r13d, %r9d
	addl	%edi, %r9d
	movl	%r9d, %edi
	imull	%edi, %edi
	imull	%r9d, %edi
	imull	%edi, %r9d
	imull	$15, %edi, %edi
	addl	$-20, %edi
	imull	%edi, %r9d
	imull	%r9d, %r12d
	addl	%r12d, %eax
	imull	%r9d, %r11d
	addl	%r11d, %ecx
	imull	%r9d, %r14d
	addl	%r14d, %edx
	addq	$1, %rsi
	movq	-112(%rbp), %rdi        # 8-byte Reload
	shlq	$5, %rdi
	addq	%rsi, %rdi
	movl	(%r8,%rdi,4), %r9d
	movslq	%r9d, %rdi
	movl	(%r10,%rdi,4), %r11d
	movslq	%r9d, %rdi
	movl	(%rbx,%rdi,4), %r14d
	movslq	%r9d, %rdi
	movl	(%r15,%rdi,4), %r9d
	movl	-116(%rbp), %r12d       # 4-byte Reload
	subl	%r11d, %r12d
	movl	-120(%rbp), %r11d       # 4-byte Reload
	subl	%r14d, %r11d
	movl	-124(%rbp), %r14d       # 4-byte Reload
	subl	%r9d, %r14d
	movl	%r12d, %r9d
	imull	%r9d, %r9d
	movl	%r11d, %r13d
	imull	%r13d, %r13d
	movl	%r14d, %edi
	imull	%edi, %edi
	addl	%r13d, %r9d
	addl	%edi, %r9d
	movl	%r9d, %edi
	imull	%edi, %edi
	imull	%r9d, %edi
	imull	%edi, %r9d
	imull	$15, %edi, %edi
	addl	$-20, %edi
	imull	%edi, %r9d
	imull	%r9d, %r12d
	addl	%r12d, %eax
	imull	%r9d, %r11d
	addl	%r11d, %ecx
	imull	%r9d, %r14d
	addl	%r14d, %edx
	addq	$1, %rsi
	movq	-112(%rbp), %rdi        # 8-byte Reload
	shlq	$5, %rdi
	addq	%rsi, %rdi
	movl	(%r8,%rdi,4), %r9d
	movslq	%r9d, %rdi
	movl	(%r10,%rdi,4), %r11d
	movslq	%r9d, %rdi
	movl	(%rbx,%rdi,4), %r14d
	movslq	%r9d, %rdi
	movl	(%r15,%rdi,4), %r9d
	movl	-116(%rbp), %r12d       # 4-byte Reload
	subl	%r11d, %r12d
	movl	-120(%rbp), %r11d       # 4-byte Reload
	subl	%r14d, %r11d
	movl	-124(%rbp), %r14d       # 4-byte Reload
	subl	%r9d, %r14d
	movl	%r12d, %r9d
	imull	%r9d, %r9d
	movl	%r11d, %r13d
	imull	%r13d, %r13d
	movl	%r14d, %edi
	imull	%edi, %edi
	addl	%r13d, %r9d
	addl	%edi, %r9d
	movl	%r9d, %edi
	imull	%edi, %edi
	imull	%r9d, %edi
	imull	%edi, %r9d
	imull	$15, %edi, %edi
	addl	$-20, %edi
	imull	%edi, %r9d
	imull	%r9d, %r12d
	addl	%r12d, %eax
	imull	%r9d, %r11d
	addl	%r11d, %ecx
	imull	%r9d, %r14d
	addl	%r14d, %edx
	addq	$1, %rsi
	movq	-112(%rbp), %rdi        # 8-byte Reload
	shlq	$5, %rdi
	addq	%rsi, %rdi
	movl	(%r8,%rdi,4), %r9d
	movslq	%r9d, %rdi
	movl	(%r10,%rdi,4), %r11d
	movslq	%r9d, %rdi
	movl	(%rbx,%rdi,4), %r14d
	movslq	%r9d, %rdi
	movl	(%r15,%rdi,4), %r9d
	movl	-116(%rbp), %r12d       # 4-byte Reload
	subl	%r11d, %r12d
	movl	-120(%rbp), %r11d       # 4-byte Reload
	subl	%r14d, %r11d
	movl	-124(%rbp), %r14d       # 4-byte Reload
	subl	%r9d, %r14d
	movl	%r12d, %r9d
	imull	%r9d, %r9d
	movl	%r11d, %r13d
	imull	%r13d, %r13d
	movl	%r14d, %edi
	imull	%edi, %edi
	addl	%r13d, %r9d
	addl	%edi, %r9d
	movl	%r9d, %edi
	imull	%edi, %edi
	imull	%r9d, %edi
	imull	%edi, %r9d
	imull	$15, %edi, %edi
	addl	$-20, %edi
	imull	%edi, %r9d
	imull	%r9d, %r12d
	addl	%r12d, %eax
	imull	%r9d, %r11d
	addl	%r11d, %ecx
	imull	%r9d, %r14d
	addl	%r14d, %edx
	addq	$1, %rsi
	movq	-112(%rbp), %rdi        # 8-byte Reload
	shlq	$5, %rdi
	addq	%rsi, %rdi
	movl	(%r8,%rdi,4), %r9d
	movslq	%r9d, %rdi
	movl	(%r10,%rdi,4), %r11d
	movslq	%r9d, %rdi
	movl	(%rbx,%rdi,4), %r14d
	movslq	%r9d, %rdi
	movl	(%r15,%rdi,4), %r9d
	movl	-116(%rbp), %r12d       # 4-byte Reload
	subl	%r11d, %r12d
	movl	-120(%rbp), %r11d       # 4-byte Reload
	subl	%r14d, %r11d
	movl	-124(%rbp), %r14d       # 4-byte Reload
	subl	%r9d, %r14d
	movl	%r12d, %r9d
	imull	%r9d, %r9d
	movl	%r11d, %r13d
	imull	%r13d, %r13d
	movl	%r14d, %edi
	imull	%edi, %edi
	addl	%r13d, %r9d
	addl	%edi, %r9d
	movl	%r9d, %edi
	imull	%edi, %edi
	imull	%r9d, %edi
	imull	%edi, %r9d
	imull	$15, %edi, %edi
	addl	$-20, %edi
	imull	%edi, %r9d
	imull	%r9d, %r12d
	addl	%r12d, %eax
	imull	%r9d, %r11d
	addl	%r11d, %ecx
	imull	%r9d, %r14d
	addl	%r14d, %edx
	addq	$1, %rsi
	movq	-112(%rbp), %rdi        # 8-byte Reload
	shlq	$5, %rdi
	addq	%rsi, %rdi
	movl	(%r8,%rdi,4), %r9d
	movslq	%r9d, %rdi
	movl	(%r10,%rdi,4), %r11d
	movslq	%r9d, %rdi
	movl	(%rbx,%rdi,4), %r14d
	movslq	%r9d, %rdi
	movl	(%r15,%rdi,4), %r9d
	movl	-116(%rbp), %r12d       # 4-byte Reload
	subl	%r11d, %r12d
	movl	-120(%rbp), %r11d       # 4-byte Reload
	subl	%r14d, %r11d
	movl	-124(%rbp), %r14d       # 4-byte Reload
	subl	%r9d, %r14d
	movl	%r12d, %r9d
	imull	%r9d, %r9d
	movl	%r11d, %r13d
	imull	%r13d, %r13d
	movl	%r14d, %edi
	imull	%edi, %edi
	addl	%r13d, %r9d
	addl	%edi, %r9d
	movl	%r9d, %edi
	imull	%edi, %edi
	imull	%r9d, %edi
	imull	%edi, %r9d
	imull	$15, %edi, %edi
	addl	$-20, %edi
	imull	%edi, %r9d
	imull	%r9d, %r12d
	addl	%r12d, %eax
	imull	%r9d, %r11d
	addl	%r11d, %ecx
	imull	%r9d, %r14d
	addl	%r14d, %edx
	addq	$1, %rsi
	movq	-112(%rbp), %rdi        # 8-byte Reload
	shlq	$5, %rdi
	addq	%rsi, %rdi
	movl	(%r8,%rdi,4), %r9d
	movslq	%r9d, %rdi
	movl	(%r10,%rdi,4), %r11d
	movslq	%r9d, %rdi
	movl	(%rbx,%rdi,4), %r14d
	movslq	%r9d, %rdi
	movl	(%r15,%rdi,4), %r9d
	movl	-116(%rbp), %r12d       # 4-byte Reload
	subl	%r11d, %r12d
	movl	-120(%rbp), %r11d       # 4-byte Reload
	subl	%r14d, %r11d
	movl	-124(%rbp), %r14d       # 4-byte Reload
	subl	%r9d, %r14d
	movl	%r12d, %r9d
	imull	%r9d, %r9d
	movl	%r11d, %r13d
	imull	%r13d, %r13d
	movl	%r14d, %edi
	imull	%edi, %edi
	addl	%r13d, %r9d
	addl	%edi, %r9d
	movl	%r9d, %edi
	imull	%edi, %edi
	imull	%r9d, %edi
	imull	%edi, %r9d
	imull	$15, %edi, %edi
	addl	$-20, %edi
	imull	%edi, %r9d
	imull	%r9d, %r12d
	addl	%r12d, %eax
	imull	%r9d, %r11d
	addl	%r11d, %ecx
	imull	%r9d, %r14d
	addl	%r14d, %edx
	addq	$1, %rsi
	movq	-112(%rbp), %rdi        # 8-byte Reload
	shlq	$5, %rdi
	addq	%rsi, %rdi
	movl	(%r8,%rdi,4), %r9d
	movslq	%r9d, %rdi
	movl	(%r10,%rdi,4), %r11d
	movslq	%r9d, %rdi
	movl	(%rbx,%rdi,4), %r14d
	movslq	%r9d, %rdi
	movl	(%r15,%rdi,4), %r9d
	movl	-116(%rbp), %r12d       # 4-byte Reload
	subl	%r11d, %r12d
	movl	-120(%rbp), %r11d       # 4-byte Reload
	subl	%r14d, %r11d
	movl	-124(%rbp), %r14d       # 4-byte Reload
	subl	%r9d, %r14d
	movl	%r12d, %r9d
	imull	%r9d, %r9d
	movl	%r11d, %r13d
	imull	%r13d, %r13d
	movl	%r14d, %edi
	imull	%edi, %edi
	addl	%r13d, %r9d
	addl	%edi, %r9d
	movl	%r9d, %edi
	imull	%edi, %edi
	imull	%r9d, %edi
	imull	%edi, %r9d
	imull	$15, %edi, %edi
	addl	$-20, %edi
	imull	%edi, %r9d
	imull	%r9d, %r12d
	addl	%r12d, %eax
	imull	%r9d, %r11d
	addl	%r11d, %ecx
	imull	%r9d, %r14d
	addl	%r14d, %edx
	addq	$1, %rsi
	movq	-112(%rbp), %rdi        # 8-byte Reload
	shlq	$5, %rdi
	addq	%rsi, %rdi
	movl	(%r8,%rdi,4), %r9d
	movslq	%r9d, %rdi
	movl	(%r10,%rdi,4), %r11d
	movslq	%r9d, %rdi
	movl	(%rbx,%rdi,4), %r14d
	movslq	%r9d, %rdi
	movl	(%r15,%rdi,4), %r9d
	movl	-116(%rbp), %r12d       # 4-byte Reload
	subl	%r11d, %r12d
	movl	-120(%rbp), %r11d       # 4-byte Reload
	subl	%r14d, %r11d
	movl	-124(%rbp), %r14d       # 4-byte Reload
	subl	%r9d, %r14d
	movl	%r12d, %r9d
	imull	%r9d, %r9d
	movl	%r11d, %r13d
	imull	%r13d, %r13d
	movl	%r14d, %edi
	imull	%edi, %edi
	addl	%r13d, %r9d
	addl	%edi, %r9d
	movl	%r9d, %edi
	imull	%edi, %edi
	imull	%r9d, %edi
	imull	%edi, %r9d
	imull	$15, %edi, %edi
	addl	$-20, %edi
	imull	%edi, %r9d
	imull	%r9d, %r12d
	addl	%r12d, %eax
	imull	%r9d, %r11d
	addl	%r11d, %ecx
	imull	%r9d, %r14d
	addl	%r14d, %edx
	addq	$1, %rsi
	movq	-112(%rbp), %rdi        # 8-byte Reload
	shlq	$5, %rdi
	addq	%rsi, %rdi
	movl	(%r8,%rdi,4), %r9d
	movslq	%r9d, %rdi
	movl	(%r10,%rdi,4), %r11d
	movslq	%r9d, %rdi
	movl	(%rbx,%rdi,4), %r14d
	movslq	%r9d, %rdi
	movl	(%r15,%rdi,4), %r9d
	movl	-116(%rbp), %r12d       # 4-byte Reload
	subl	%r11d, %r12d
	movl	-120(%rbp), %r11d       # 4-byte Reload
	subl	%r14d, %r11d
	movl	-124(%rbp), %r14d       # 4-byte Reload
	subl	%r9d, %r14d
	movl	%r12d, %r9d
	imull	%r9d, %r9d
	movl	%r11d, %r13d
	imull	%r13d, %r13d
	movl	%r14d, %edi
	imull	%edi, %edi
	addl	%r13d, %r9d
	addl	%edi, %r9d
	movl	%r9d, %edi
	imull	%edi, %edi
	imull	%r9d, %edi
	imull	%edi, %r9d
	imull	$15, %edi, %edi
	addl	$-20, %edi
	imull	%edi, %r9d
	imull	%r9d, %r12d
	addl	%r12d, %eax
	imull	%r9d, %r11d
	addl	%r11d, %ecx
	imull	%r9d, %r14d
	addl	%r14d, %edx
	addq	$1, %rsi
	movq	-112(%rbp), %rdi        # 8-byte Reload
	shlq	$5, %rdi
	addq	%rsi, %rdi
	movl	(%r8,%rdi,4), %r9d
	movslq	%r9d, %rdi
	movl	(%r10,%rdi,4), %r11d
	movslq	%r9d, %rdi
	movl	(%rbx,%rdi,4), %r14d
	movslq	%r9d, %rdi
	movl	(%r15,%rdi,4), %r9d
	movl	-116(%rbp), %r12d       # 4-byte Reload
	subl	%r11d, %r12d
	movl	-120(%rbp), %r11d       # 4-byte Reload
	subl	%r14d, %r11d
	movl	-124(%rbp), %r14d       # 4-byte Reload
	subl	%r9d, %r14d
	movl	%r12d, %r9d
	imull	%r9d, %r9d
	movl	%r11d, %r13d
	imull	%r13d, %r13d
	movl	%r14d, %edi
	imull	%edi, %edi
	addl	%r13d, %r9d
	addl	%edi, %r9d
	movl	%r9d, %edi
	imull	%edi, %edi
	imull	%r9d, %edi
	imull	%edi, %r9d
	imull	$15, %edi, %edi
	addl	$-20, %edi
	imull	%edi, %r9d
	imull	%r9d, %r12d
	addl	%r12d, %eax
	imull	%r9d, %r11d
	addl	%r11d, %ecx
	imull	%r9d, %r14d
	addl	%r14d, %edx
	addq	$1, %rsi
	movq	-112(%rbp), %rdi        # 8-byte Reload
	shlq	$5, %rdi
	addq	%rsi, %rdi
	movl	(%r8,%rdi,4), %r9d
	movslq	%r9d, %rdi
	movl	(%r10,%rdi,4), %r11d
	movslq	%r9d, %rdi
	movl	(%rbx,%rdi,4), %r14d
	movslq	%r9d, %rdi
	movl	(%r15,%rdi,4), %r9d
	movl	-116(%rbp), %r12d       # 4-byte Reload
	subl	%r11d, %r12d
	movl	-120(%rbp), %r11d       # 4-byte Reload
	subl	%r14d, %r11d
	movl	-124(%rbp), %r14d       # 4-byte Reload
	subl	%r9d, %r14d
	movl	%r12d, %r9d
	imull	%r9d, %r9d
	movl	%r11d, %r13d
	imull	%r13d, %r13d
	movl	%r14d, %edi
	imull	%edi, %edi
	addl	%r13d, %r9d
	addl	%edi, %r9d
	movl	%r9d, %edi
	imull	%edi, %edi
	imull	%r9d, %edi
	imull	%edi, %r9d
	imull	$15, %edi, %edi
	addl	$-20, %edi
	imull	%edi, %r9d
	imull	%r9d, %r12d
	addl	%r12d, %eax
	imull	%r9d, %r11d
	addl	%r11d, %ecx
	imull	%r9d, %r14d
	addl	%r14d, %edx
	addq	$1, %rsi
	movq	-112(%rbp), %rdi        # 8-byte Reload
	shlq	$5, %rdi
	addq	%rsi, %rdi
	movl	(%r8,%rdi,4), %r9d
	movslq	%r9d, %rdi
	movl	(%r10,%rdi,4), %r11d
	movslq	%r9d, %rdi
	movl	(%rbx,%rdi,4), %r14d
	movslq	%r9d, %rdi
	movl	(%r15,%rdi,4), %r9d
	movl	-116(%rbp), %r12d       # 4-byte Reload
	subl	%r11d, %r12d
	movl	-120(%rbp), %r11d       # 4-byte Reload
	subl	%r14d, %r11d
	movl	-124(%rbp), %r14d       # 4-byte Reload
	subl	%r9d, %r14d
	movl	%r12d, %r9d
	imull	%r9d, %r9d
	movl	%r11d, %r13d
	imull	%r13d, %r13d
	movl	%r14d, %edi
	imull	%edi, %edi
	addl	%r13d, %r9d
	addl	%edi, %r9d
	movl	%r9d, %edi
	imull	%edi, %edi
	imull	%r9d, %edi
	imull	%edi, %r9d
	imull	$15, %edi, %edi
	addl	$-20, %edi
	imull	%edi, %r9d
	imull	%r9d, %r12d
	addl	%r12d, %eax
	imull	%r9d, %r11d
	addl	%r11d, %ecx
	imull	%r9d, %r14d
	addl	%r14d, %edx
	addq	$1, %rsi
	movq	-112(%rbp), %rdi        # 8-byte Reload
	shlq	$5, %rdi
	addq	%rsi, %rdi
	movl	(%r8,%rdi,4), %r9d
	movslq	%r9d, %rdi
	movl	(%r10,%rdi,4), %r11d
	movslq	%r9d, %rdi
	movl	(%rbx,%rdi,4), %r14d
	movslq	%r9d, %rdi
	movl	(%r15,%rdi,4), %r9d
	movl	-116(%rbp), %r12d       # 4-byte Reload
	subl	%r11d, %r12d
	movl	-120(%rbp), %r11d       # 4-byte Reload
	subl	%r14d, %r11d
	movl	-124(%rbp), %r14d       # 4-byte Reload
	subl	%r9d, %r14d
	movl	%r12d, %r9d
	imull	%r9d, %r9d
	movl	%r11d, %r13d
	imull	%r13d, %r13d
	movl	%r14d, %edi
	imull	%edi, %edi
	addl	%r13d, %r9d
	addl	%edi, %r9d
	movl	%r9d, %edi
	imull	%edi, %edi
	imull	%r9d, %edi
	imull	%edi, %r9d
	imull	$15, %edi, %edi
	addl	$-20, %edi
	imull	%edi, %r9d
	imull	%r9d, %r12d
	addl	%r12d, %eax
	imull	%r9d, %r11d
	addl	%r11d, %ecx
	imull	%r9d, %r14d
	addl	%r14d, %edx
	addq	$1, %rsi
	movq	-112(%rbp), %rdi        # 8-byte Reload
	shlq	$5, %rdi
	addq	%rsi, %rdi
	movl	(%r8,%rdi,4), %r9d
	movslq	%r9d, %rdi
	movl	(%r10,%rdi,4), %r11d
	movslq	%r9d, %rdi
	movl	(%rbx,%rdi,4), %r14d
	movslq	%r9d, %rdi
	movl	(%r15,%rdi,4), %r9d
	movl	-116(%rbp), %r12d       # 4-byte Reload
	subl	%r11d, %r12d
	movl	-120(%rbp), %r11d       # 4-byte Reload
	subl	%r14d, %r11d
	movl	-124(%rbp), %r14d       # 4-byte Reload
	subl	%r9d, %r14d
	movl	%r12d, %r9d
	imull	%r9d, %r9d
	movl	%r11d, %r13d
	imull	%r13d, %r13d
	movl	%r14d, %edi
	imull	%edi, %edi
	addl	%r13d, %r9d
	addl	%edi, %r9d
	movl	%r9d, %edi
	imull	%edi, %edi
	imull	%r9d, %edi
	imull	%edi, %r9d
	imull	$15, %edi, %edi
	addl	$-20, %edi
	imull	%edi, %r9d
	imull	%r9d, %r12d
	addl	%r12d, %eax
	imull	%r9d, %r11d
	addl	%r11d, %ecx
	imull	%r9d, %r14d
	addl	%r14d, %edx
	addq	$1, %rsi
	movq	-112(%rbp), %rdi        # 8-byte Reload
	shlq	$5, %rdi
	addq	%rsi, %rdi
	movl	(%r8,%rdi,4), %r9d
	movslq	%r9d, %rdi
	movl	(%r10,%rdi,4), %r11d
	movslq	%r9d, %rdi
	movl	(%rbx,%rdi,4), %r14d
	movslq	%r9d, %rdi
	movl	(%r15,%rdi,4), %r9d
	movl	-116(%rbp), %r12d       # 4-byte Reload
	subl	%r11d, %r12d
	movl	-120(%rbp), %r11d       # 4-byte Reload
	subl	%r14d, %r11d
	movl	-124(%rbp), %r14d       # 4-byte Reload
	subl	%r9d, %r14d
	movl	%r12d, %r9d
	imull	%r9d, %r9d
	movl	%r11d, %r13d
	imull	%r13d, %r13d
	movl	%r14d, %edi
	imull	%edi, %edi
	addl	%r13d, %r9d
	addl	%edi, %r9d
	movl	%r9d, %edi
	imull	%edi, %edi
	imull	%r9d, %edi
	imull	%edi, %r9d
	imull	$15, %edi, %edi
	addl	$-20, %edi
	imull	%edi, %r9d
	imull	%r9d, %r12d
	addl	%r12d, %eax
	imull	%r9d, %r11d
	addl	%r11d, %ecx
	imull	%r9d, %r14d
	addl	%r14d, %edx
	addq	$1, %rsi
	movq	-112(%rbp), %rdi        # 8-byte Reload
	shlq	$5, %rdi
	addq	%rsi, %rdi
	movl	(%r8,%rdi,4), %r9d
	movslq	%r9d, %rdi
	movl	(%r10,%rdi,4), %r11d
	movslq	%r9d, %rdi
	movl	(%rbx,%rdi,4), %r14d
	movslq	%r9d, %rdi
	movl	(%r15,%rdi,4), %r9d
	movl	-116(%rbp), %r12d       # 4-byte Reload
	subl	%r11d, %r12d
	movl	-120(%rbp), %r11d       # 4-byte Reload
	subl	%r14d, %r11d
	movl	-124(%rbp), %r14d       # 4-byte Reload
	subl	%r9d, %r14d
	movl	%r12d, %r9d
	imull	%r9d, %r9d
	movl	%r11d, %r13d
	imull	%r13d, %r13d
	movl	%r14d, %edi
	imull	%edi, %edi
	addl	%r13d, %r9d
	addl	%edi, %r9d
	movl	%r9d, %edi
	imull	%edi, %edi
	imull	%r9d, %edi
	imull	%edi, %r9d
	imull	$15, %edi, %edi
	addl	$-20, %edi
	imull	%edi, %r9d
	imull	%r9d, %r12d
	addl	%r12d, %eax
	imull	%r9d, %r11d
	addl	%r11d, %ecx
	imull	%r9d, %r14d
	addl	%r14d, %edx
	addq	$1, %rsi
	movq	-112(%rbp), %rdi        # 8-byte Reload
	shlq	$5, %rdi
	addq	%rsi, %rdi
	movl	(%r8,%rdi,4), %r9d
	movslq	%r9d, %rdi
	movl	(%r10,%rdi,4), %r11d
	movslq	%r9d, %rdi
	movl	(%rbx,%rdi,4), %r14d
	movslq	%r9d, %rdi
	movl	(%r15,%rdi,4), %r9d
	movl	-116(%rbp), %r12d       # 4-byte Reload
	subl	%r11d, %r12d
	movl	-120(%rbp), %r11d       # 4-byte Reload
	subl	%r14d, %r11d
	movl	-124(%rbp), %r14d       # 4-byte Reload
	subl	%r9d, %r14d
	movl	%r12d, %r9d
	imull	%r9d, %r9d
	movl	%r11d, %r13d
	imull	%r13d, %r13d
	movl	%r14d, %edi
	imull	%edi, %edi
	addl	%r13d, %r9d
	addl	%edi, %r9d
	movl	%r9d, %edi
	imull	%edi, %edi
	imull	%r9d, %edi
	imull	%edi, %r9d
	imull	$15, %edi, %edi
	addl	$-20, %edi
	imull	%edi, %r9d
	imull	%r9d, %r12d
	addl	%r12d, %eax
	imull	%r9d, %r11d
	addl	%r11d, %ecx
	imull	%r9d, %r14d
	addl	%r14d, %edx
	addq	$1, %rsi
	movq	-112(%rbp), %rdi        # 8-byte Reload
	shlq	$5, %rdi
	addq	%rsi, %rdi
	movl	(%r8,%rdi,4), %r9d
	movslq	%r9d, %rdi
	movl	(%r10,%rdi,4), %r11d
	movslq	%r9d, %rdi
	movl	(%rbx,%rdi,4), %r14d
	movslq	%r9d, %rdi
	movl	(%r15,%rdi,4), %r9d
	movl	-116(%rbp), %r12d       # 4-byte Reload
	subl	%r11d, %r12d
	movl	-120(%rbp), %r11d       # 4-byte Reload
	subl	%r14d, %r11d
	movl	-124(%rbp), %r14d       # 4-byte Reload
	subl	%r9d, %r14d
	movl	%r12d, %r9d
	imull	%r9d, %r9d
	movl	%r11d, %r13d
	imull	%r13d, %r13d
	movl	%r14d, %edi
	imull	%edi, %edi
	addl	%r13d, %r9d
	addl	%edi, %r9d
	movl	%r9d, %edi
	imull	%edi, %edi
	imull	%r9d, %edi
	imull	%edi, %r9d
	imull	$15, %edi, %edi
	addl	$-20, %edi
	imull	%edi, %r9d
	imull	%r9d, %r12d
	addl	%r12d, %eax
	imull	%r9d, %r11d
	addl	%r11d, %ecx
	imull	%r9d, %r14d
	addl	%r14d, %edx
	addq	$1, %rsi
	movq	-112(%rbp), %rdi        # 8-byte Reload
	shlq	$5, %rdi
	addq	%rsi, %rdi
	movl	(%r8,%rdi,4), %r9d
	movslq	%r9d, %rdi
	movl	(%r10,%rdi,4), %r11d
	movslq	%r9d, %rdi
	movl	(%rbx,%rdi,4), %r14d
	movslq	%r9d, %rdi
	movl	(%r15,%rdi,4), %r9d
	movl	-116(%rbp), %r12d       # 4-byte Reload
	subl	%r11d, %r12d
	movl	-120(%rbp), %r11d       # 4-byte Reload
	subl	%r14d, %r11d
	movl	-124(%rbp), %r14d       # 4-byte Reload
	subl	%r9d, %r14d
	movl	%r12d, %r9d
	imull	%r9d, %r9d
	movl	%r11d, %r13d
	imull	%r13d, %r13d
	movl	%r14d, %edi
	imull	%edi, %edi
	addl	%r13d, %r9d
	addl	%edi, %r9d
	movl	%r9d, %edi
	imull	%edi, %edi
	imull	%r9d, %edi
	imull	%edi, %r9d
	imull	$15, %edi, %edi
	addl	$-20, %edi
	imull	%edi, %r9d
	imull	%r9d, %r12d
	addl	%r12d, %eax
	imull	%r9d, %r11d
	addl	%r11d, %ecx
	imull	%r9d, %r14d
	addl	%r14d, %edx
	addq	$1, %rsi
	movq	-112(%rbp), %rdi        # 8-byte Reload
	shlq	$5, %rdi
	addq	%rsi, %rdi
	movl	(%r8,%rdi,4), %r9d
	movslq	%r9d, %rdi
	movl	(%r10,%rdi,4), %r11d
	movslq	%r9d, %rdi
	movl	(%rbx,%rdi,4), %r14d
	movslq	%r9d, %rdi
	movl	(%r15,%rdi,4), %r9d
	movl	-116(%rbp), %r12d       # 4-byte Reload
	subl	%r11d, %r12d
	movl	-120(%rbp), %r11d       # 4-byte Reload
	subl	%r14d, %r11d
	movl	-124(%rbp), %r14d       # 4-byte Reload
	subl	%r9d, %r14d
	movl	%r12d, %r9d
	imull	%r9d, %r9d
	movl	%r11d, %r13d
	imull	%r13d, %r13d
	movl	%r14d, %edi
	imull	%edi, %edi
	addl	%r13d, %r9d
	addl	%edi, %r9d
	movl	%r9d, %edi
	imull	%edi, %edi
	imull	%r9d, %edi
	imull	%edi, %r9d
	imull	$15, %edi, %edi
	addl	$-20, %edi
	imull	%edi, %r9d
	imull	%r9d, %r12d
	addl	%r12d, %eax
	imull	%r9d, %r11d
	addl	%r11d, %ecx
	imull	%r9d, %r14d
	addl	%r14d, %edx
	addq	$1, %rsi
	movq	-112(%rbp), %rdi        # 8-byte Reload
	shlq	$5, %rdi
	addq	%rsi, %rdi
	movl	(%r8,%rdi,4), %r9d
	movslq	%r9d, %rdi
	movl	(%r10,%rdi,4), %r11d
	movslq	%r9d, %rdi
	movl	(%rbx,%rdi,4), %r14d
	movslq	%r9d, %rdi
	movl	(%r15,%rdi,4), %r9d
	movl	-116(%rbp), %r12d       # 4-byte Reload
	subl	%r11d, %r12d
	movl	-120(%rbp), %r11d       # 4-byte Reload
	subl	%r14d, %r11d
	movl	-124(%rbp), %r14d       # 4-byte Reload
	subl	%r9d, %r14d
	movl	%r12d, %r9d
	imull	%r9d, %r9d
	movl	%r11d, %r13d
	imull	%r13d, %r13d
	movl	%r14d, %edi
	imull	%edi, %edi
	addl	%r13d, %r9d
	addl	%edi, %r9d
	movl	%r9d, %edi
	imull	%edi, %edi
	imull	%r9d, %edi
	imull	%edi, %r9d
	imull	$15, %edi, %edi
	addl	$-20, %edi
	imull	%edi, %r9d
	imull	%r9d, %r12d
	addl	%r12d, %eax
	imull	%r9d, %r11d
	addl	%r11d, %ecx
	imull	%r9d, %r14d
	addl	%r14d, %edx
	addq	$1, %rsi
	movq	-112(%rbp), %rdi        # 8-byte Reload
	shlq	$5, %rdi
	addq	%rsi, %rdi
	movl	(%r8,%rdi,4), %r9d
	movslq	%r9d, %rdi
	movl	(%r10,%rdi,4), %r11d
	movslq	%r9d, %rdi
	movl	(%rbx,%rdi,4), %r14d
	movslq	%r9d, %rdi
	movl	(%r15,%rdi,4), %r9d
	movl	-116(%rbp), %r12d       # 4-byte Reload
	subl	%r11d, %r12d
	movl	-120(%rbp), %r11d       # 4-byte Reload
	subl	%r14d, %r11d
	movl	-124(%rbp), %r14d       # 4-byte Reload
	subl	%r9d, %r14d
	movl	%r12d, %r9d
	imull	%r9d, %r9d
	movl	%r11d, %r13d
	imull	%r13d, %r13d
	movl	%r14d, %edi
	imull	%edi, %edi
	addl	%r13d, %r9d
	addl	%edi, %r9d
	movl	%r9d, %edi
	imull	%edi, %edi
	imull	%r9d, %edi
	imull	%edi, %r9d
	imull	$15, %edi, %edi
	addl	$-20, %edi
	imull	%edi, %r9d
	imull	%r9d, %r12d
	addl	%r12d, %eax
	imull	%r9d, %r11d
	addl	%r11d, %ecx
	imull	%r9d, %r14d
	addl	%r14d, %edx
	addq	$1, %rsi
	movq	-112(%rbp), %rdi        # 8-byte Reload
	shlq	$5, %rdi
	addq	%rsi, %rdi
	movl	(%r8,%rdi,4), %r9d
	movslq	%r9d, %rdi
	movl	(%r10,%rdi,4), %r11d
	movslq	%r9d, %rdi
	movl	(%rbx,%rdi,4), %r14d
	movslq	%r9d, %rdi
	movl	(%r15,%rdi,4), %r9d
	movl	-116(%rbp), %r12d       # 4-byte Reload
	subl	%r11d, %r12d
	movl	-120(%rbp), %r11d       # 4-byte Reload
	subl	%r14d, %r11d
	movl	-124(%rbp), %r14d       # 4-byte Reload
	subl	%r9d, %r14d
	movl	%r12d, %r9d
	imull	%r9d, %r9d
	movl	%r11d, %r13d
	imull	%r13d, %r13d
	movl	%r14d, %edi
	imull	%edi, %edi
	addl	%r13d, %r9d
	addl	%edi, %r9d
	movl	%r9d, %edi
	imull	%edi, %edi
	imull	%r9d, %edi
	imull	%edi, %r9d
	imull	$15, %edi, %edi
	addl	$-20, %edi
	imull	%edi, %r9d
	imull	%r9d, %r12d
	addl	%r12d, %eax
	imull	%r9d, %r11d
	addl	%r11d, %ecx
	imull	%r9d, %r14d
	addl	%r14d, %edx
	addq	$1, %rsi
	movq	-112(%rbp), %rdi        # 8-byte Reload
	shlq	$5, %rdi
	addq	%rsi, %rdi
	movl	(%r8,%rdi,4), %r9d
	movslq	%r9d, %rdi
	movl	(%r10,%rdi,4), %r11d
	movslq	%r9d, %rdi
	movl	(%rbx,%rdi,4), %r14d
	movslq	%r9d, %rdi
	movl	(%r15,%rdi,4), %r9d
	movl	-116(%rbp), %r12d       # 4-byte Reload
	subl	%r11d, %r12d
	movl	-120(%rbp), %r11d       # 4-byte Reload
	subl	%r14d, %r11d
	movl	-124(%rbp), %r14d       # 4-byte Reload
	subl	%r9d, %r14d
	movl	%r12d, %r9d
	imull	%r9d, %r9d
	movl	%r11d, %r13d
	imull	%r13d, %r13d
	movl	%r14d, %edi
	imull	%edi, %edi
	addl	%r13d, %r9d
	addl	%edi, %r9d
	movl	%r9d, %edi
	imull	%edi, %edi
	imull	%r9d, %edi
	imull	%edi, %r9d
	imull	$15, %edi, %edi
	addl	$-20, %edi
	imull	%edi, %r9d
	imull	%r9d, %r12d
	addl	%r12d, %eax
	imull	%r9d, %r11d
	addl	%r11d, %ecx
	imull	%r9d, %r14d
	addl	%r14d, %edx
	addq	$1, %rsi
	movq	-112(%rbp), %rdi        # 8-byte Reload
	shlq	$5, %rdi
	addq	%rsi, %rdi
	movl	(%r8,%rdi,4), %r9d
	movslq	%r9d, %rdi
	movl	(%r10,%rdi,4), %r11d
	movslq	%r9d, %rdi
	movl	(%rbx,%rdi,4), %r14d
	movslq	%r9d, %rdi
	movl	(%r15,%rdi,4), %r9d
	movl	-116(%rbp), %r12d       # 4-byte Reload
	subl	%r11d, %r12d
	movl	-120(%rbp), %r11d       # 4-byte Reload
	subl	%r14d, %r11d
	movl	-124(%rbp), %r14d       # 4-byte Reload
	subl	%r9d, %r14d
	movl	%r12d, %r9d
	imull	%r9d, %r9d
	movl	%r11d, %r13d
	imull	%r13d, %r13d
	movl	%r14d, %edi
	imull	%edi, %edi
	addl	%r13d, %r9d
	addl	%edi, %r9d
	movl	%r9d, %edi
	imull	%edi, %edi
	imull	%r9d, %edi
	imull	%edi, %r9d
	imull	$15, %edi, %edi
	addl	$-20, %edi
	imull	%edi, %r9d
	imull	%r9d, %r12d
	addl	%r12d, %eax
	imull	%r9d, %r11d
	addl	%r11d, %ecx
	imull	%r9d, %r14d
	addl	%r14d, %edx
	addq	$1, %rsi
	movq	-112(%rbp), %rdi        # 8-byte Reload
	shlq	$5, %rdi
	addq	%rsi, %rdi
	movl	(%r8,%rdi,4), %r9d
	movslq	%r9d, %rdi
	movl	(%r10,%rdi,4), %r11d
	movslq	%r9d, %rdi
	movl	(%rbx,%rdi,4), %r14d
	movslq	%r9d, %rdi
	movl	(%r15,%rdi,4), %r9d
	movl	-116(%rbp), %r12d       # 4-byte Reload
	subl	%r11d, %r12d
	movl	-120(%rbp), %r11d       # 4-byte Reload
	subl	%r14d, %r11d
	movl	-124(%rbp), %r14d       # 4-byte Reload
	subl	%r9d, %r14d
	movl	%r12d, %r9d
	imull	%r9d, %r9d
	movl	%r11d, %r13d
	imull	%r13d, %r13d
	movl	%r14d, %edi
	imull	%edi, %edi
	addl	%r13d, %r9d
	addl	%edi, %r9d
	movl	%r9d, %edi
	imull	%edi, %edi
	imull	%r9d, %edi
	imull	%edi, %r9d
	imull	$15, %edi, %edi
	addl	$-20, %edi
	imull	%edi, %r9d
	imull	%r9d, %r12d
	addl	%r12d, %eax
	imull	%r9d, %r11d
	addl	%r11d, %ecx
	imull	%r9d, %r14d
	addl	%r14d, %edx
	addq	$1, %rsi
	movq	-112(%rbp), %rdi        # 8-byte Reload
	shlq	$5, %rdi
	addq	%rsi, %rdi
	movl	(%r8,%rdi,4), %r9d
	movslq	%r9d, %rdi
	movl	(%r10,%rdi,4), %r11d
	movslq	%r9d, %rdi
	movl	(%rbx,%rdi,4), %r14d
	movslq	%r9d, %rdi
	movl	(%r15,%rdi,4), %r9d
	movl	-116(%rbp), %r12d       # 4-byte Reload
	subl	%r11d, %r12d
	movl	-120(%rbp), %r11d       # 4-byte Reload
	subl	%r14d, %r11d
	movl	-124(%rbp), %r14d       # 4-byte Reload
	subl	%r9d, %r14d
	movl	%r12d, %r9d
	imull	%r9d, %r9d
	movl	%r11d, %r13d
	imull	%r13d, %r13d
	movl	%r14d, %edi
	imull	%edi, %edi
	addl	%r13d, %r9d
	addl	%edi, %r9d
	movl	%r9d, %edi
	imull	%edi, %edi
	imull	%r9d, %edi
	imull	%edi, %r9d
	imull	$15, %edi, %edi
	addl	$-20, %edi
	imull	%edi, %r9d
	imull	%r9d, %r12d
	addl	%r12d, %eax
	imull	%r9d, %r11d
	addl	%r11d, %ecx
	imull	%r9d, %r14d
	addl	%r14d, %edx
	addq	$1, %rsi
	movq	-112(%rbp), %rdi        # 8-byte Reload
	shlq	$5, %rdi
	addq	%rsi, %rdi
	movl	(%r8,%rdi,4), %r9d
	movslq	%r9d, %rdi
	movl	(%r10,%rdi,4), %r11d
	movslq	%r9d, %rdi
	movl	(%rbx,%rdi,4), %r14d
	movslq	%r9d, %rdi
	movl	(%r15,%rdi,4), %r9d
	movl	-116(%rbp), %r12d       # 4-byte Reload
	subl	%r11d, %r12d
	movl	-120(%rbp), %r11d       # 4-byte Reload
	subl	%r14d, %r11d
	movl	-124(%rbp), %r14d       # 4-byte Reload
	subl	%r9d, %r14d
	movl	%r12d, %r9d
	imull	%r9d, %r9d
	movl	%r11d, %r13d
	imull	%r13d, %r13d
	movl	%r14d, %edi
	imull	%edi, %edi
	addl	%r13d, %r9d
	addl	%edi, %r9d
	movl	%r9d, %edi
	imull	%edi, %edi
	imull	%r9d, %edi
	imull	%edi, %r9d
	imull	$15, %edi, %edi
	addl	$-20, %edi
	imull	%edi, %r9d
	imull	%r9d, %r12d
	addl	%r12d, %eax
	imull	%r9d, %r11d
	addl	%r11d, %ecx
	imull	%r9d, %r14d
	addl	%r14d, %edx
	addq	$1, %rsi
	movq	-112(%rbp), %rdi        # 8-byte Reload
	shlq	$5, %rdi
	addq	%rsi, %rdi
	movl	(%r8,%rdi,4), %r9d
	movslq	%r9d, %rdi
	movl	(%r10,%rdi,4), %r11d
	movslq	%r9d, %rdi
	movl	(%rbx,%rdi,4), %r14d
	movslq	%r9d, %rdi
	movl	(%r15,%rdi,4), %r9d
	movl	-116(%rbp), %r12d       # 4-byte Reload
	subl	%r11d, %r12d
	movl	-120(%rbp), %r11d       # 4-byte Reload
	subl	%r14d, %r11d
	movl	-124(%rbp), %r14d       # 4-byte Reload
	subl	%r9d, %r14d
	movl	%r12d, %r9d
	imull	%r9d, %r9d
	movl	%r11d, %r13d
	imull	%r13d, %r13d
	movl	%r14d, %edi
	imull	%edi, %edi
	addl	%r13d, %r9d
	addl	%edi, %r9d
	movl	%r9d, %edi
	imull	%edi, %edi
	imull	%r9d, %edi
	imull	%edi, %r9d
	imull	$15, %edi, %edi
	addl	$-20, %edi
	imull	%edi, %r9d
	imull	%r9d, %r12d
	addl	%r12d, %eax
	imull	%r9d, %r11d
	addl	%r11d, %ecx
	imull	%r9d, %r14d
	addl	%r14d, %edx
	addq	$1, %rsi
	movq	-112(%rbp), %rdi        # 8-byte Reload
	shlq	$5, %rdi
	addq	%rsi, %rdi
	movl	(%r8,%rdi,4), %r9d
	movslq	%r9d, %rdi
	movl	(%r10,%rdi,4), %r11d
	movslq	%r9d, %rdi
	movl	(%rbx,%rdi,4), %r14d
	movslq	%r9d, %rdi
	movl	(%r15,%rdi,4), %r9d
	movl	-116(%rbp), %r12d       # 4-byte Reload
	subl	%r11d, %r12d
	movl	-120(%rbp), %r11d       # 4-byte Reload
	subl	%r14d, %r11d
	movl	-124(%rbp), %r14d       # 4-byte Reload
	subl	%r9d, %r14d
	movl	%r12d, %r9d
	imull	%r9d, %r9d
	movl	%r11d, %r13d
	imull	%r13d, %r13d
	movl	%r14d, %edi
	imull	%edi, %edi
	addl	%r13d, %r9d
	addl	%edi, %r9d
	movl	%r9d, %edi
	imull	%edi, %edi
	imull	%r9d, %edi
	imull	%edi, %r9d
	imull	$15, %edi, %edi
	addl	$-20, %edi
	imull	%edi, %r9d
	imull	%r9d, %r12d
	addl	%r12d, %eax
	imull	%r9d, %r11d
	addl	%r11d, %ecx
	imull	%r9d, %r14d
	addl	%r14d, %edx
	addq	$1, %rsi
	movq	-112(%rbp), %rdi        # 8-byte Reload
	shlq	$5, %rdi
	addq	%rsi, %rdi
	movl	(%r8,%rdi,4), %r9d
	movslq	%r9d, %rdi
	movl	(%r10,%rdi,4), %r11d
	movslq	%r9d, %rdi
	movl	(%rbx,%rdi,4), %r14d
	movslq	%r9d, %rdi
	movl	(%r15,%rdi,4), %r9d
	movl	-116(%rbp), %r12d       # 4-byte Reload
	subl	%r11d, %r12d
	movl	-120(%rbp), %r11d       # 4-byte Reload
	subl	%r14d, %r11d
	movl	-124(%rbp), %r14d       # 4-byte Reload
	subl	%r9d, %r14d
	movl	%r12d, %r9d
	imull	%r9d, %r9d
	movl	%r11d, %r13d
	imull	%r13d, %r13d
	movl	%r14d, %edi
	imull	%edi, %edi
	addl	%r13d, %r9d
	addl	%edi, %r9d
	movl	%r9d, %edi
	imull	%edi, %edi
	imull	%r9d, %edi
	imull	%edi, %r9d
	imull	$15, %edi, %edi
	addl	$-20, %edi
	imull	%edi, %r9d
	imull	%r9d, %r12d
	addl	%r12d, %eax
	imull	%r9d, %r11d
	addl	%r11d, %ecx
	imull	%r9d, %r14d
	addl	%r14d, %edx
	addq	$1, %rsi
	movq	-112(%rbp), %rdi        # 8-byte Reload
	shlq	$5, %rdi
	addq	%rsi, %rdi
	movl	(%r8,%rdi,4), %r9d
	movslq	%r9d, %rdi
	movl	(%r10,%rdi,4), %r11d
	movslq	%r9d, %rdi
	movl	(%rbx,%rdi,4), %r14d
	movslq	%r9d, %rdi
	movl	(%r15,%rdi,4), %r9d
	movl	-116(%rbp), %r12d       # 4-byte Reload
	subl	%r11d, %r12d
	movl	-120(%rbp), %r11d       # 4-byte Reload
	subl	%r14d, %r11d
	movl	-124(%rbp), %r14d       # 4-byte Reload
	subl	%r9d, %r14d
	movl	%r12d, %r9d
	imull	%r9d, %r9d
	movl	%r11d, %r13d
	imull	%r13d, %r13d
	movl	%r14d, %edi
	imull	%edi, %edi
	addl	%r13d, %r9d
	addl	%edi, %r9d
	movl	%r9d, %edi
	imull	%edi, %edi
	imull	%r9d, %edi
	imull	%edi, %r9d
	imull	$15, %edi, %edi
	addl	$-20, %edi
	imull	%edi, %r9d
	imull	%r9d, %r12d
	addl	%r12d, %eax
	imull	%r9d, %r11d
	addl	%r11d, %ecx
	imull	%r9d, %r14d
	addl	%r14d, %edx
	addq	$1, %rsi
	movq	-112(%rbp), %rdi        # 8-byte Reload
	shlq	$5, %rdi
	addq	%rsi, %rdi
	movl	(%r8,%rdi,4), %r9d
	movslq	%r9d, %rdi
	movl	(%r10,%rdi,4), %r11d
	movslq	%r9d, %rdi
	movl	(%rbx,%rdi,4), %r14d
	movslq	%r9d, %rdi
	movl	(%r15,%rdi,4), %r9d
	movl	-116(%rbp), %r12d       # 4-byte Reload
	subl	%r11d, %r12d
	movl	-120(%rbp), %r11d       # 4-byte Reload
	subl	%r14d, %r11d
	movl	-124(%rbp), %r14d       # 4-byte Reload
	subl	%r9d, %r14d
	movl	%r12d, %r9d
	imull	%r9d, %r9d
	movl	%r11d, %r13d
	imull	%r13d, %r13d
	movl	%r14d, %edi
	imull	%edi, %edi
	addl	%r13d, %r9d
	addl	%edi, %r9d
	movl	%r9d, %edi
	imull	%edi, %edi
	imull	%r9d, %edi
	imull	%edi, %r9d
	imull	$15, %edi, %edi
	addl	$-20, %edi
	imull	%edi, %r9d
	imull	%r9d, %r12d
	addl	%r12d, %eax
	imull	%r9d, %r11d
	addl	%r11d, %ecx
	imull	%r9d, %r14d
	addl	%r14d, %edx
	addq	$1, %rsi
	movq	-112(%rbp), %rdi        # 8-byte Reload
	shlq	$5, %rdi
	addq	%rsi, %rdi
	movl	(%r8,%rdi,4), %r9d
	movslq	%r9d, %rdi
	movl	(%r10,%rdi,4), %r11d
	movslq	%r9d, %rdi
	movl	(%rbx,%rdi,4), %r14d
	movslq	%r9d, %rdi
	movl	(%r15,%rdi,4), %r9d
	movl	-116(%rbp), %r12d       # 4-byte Reload
	subl	%r11d, %r12d
	movl	-120(%rbp), %r11d       # 4-byte Reload
	subl	%r14d, %r11d
	movl	-124(%rbp), %r14d       # 4-byte Reload
	subl	%r9d, %r14d
	movl	%r12d, %r9d
	imull	%r9d, %r9d
	movl	%r11d, %r13d
	imull	%r13d, %r13d
	movl	%r14d, %edi
	imull	%edi, %edi
	addl	%r13d, %r9d
	addl	%edi, %r9d
	movl	%r9d, %edi
	imull	%edi, %edi
	imull	%r9d, %edi
	imull	%edi, %r9d
	imull	$15, %edi, %edi
	addl	$-20, %edi
	imull	%edi, %r9d
	imull	%r9d, %r12d
	addl	%r12d, %eax
	imull	%r9d, %r11d
	addl	%r11d, %ecx
	imull	%r9d, %r14d
	addl	%r14d, %edx
	addq	$1, %rsi
	movq	-112(%rbp), %rdi        # 8-byte Reload
	shlq	$5, %rdi
	addq	%rsi, %rdi
	movl	(%r8,%rdi,4), %r9d
	movslq	%r9d, %rdi
	movl	(%r10,%rdi,4), %r11d
	movslq	%r9d, %rdi
	movl	(%rbx,%rdi,4), %r14d
	movslq	%r9d, %rdi
	movl	(%r15,%rdi,4), %r9d
	movl	-116(%rbp), %r12d       # 4-byte Reload
	subl	%r11d, %r12d
	movl	-120(%rbp), %r11d       # 4-byte Reload
	subl	%r14d, %r11d
	movl	-124(%rbp), %r14d       # 4-byte Reload
	subl	%r9d, %r14d
	movl	%r12d, %r9d
	imull	%r9d, %r9d
	movl	%r11d, %r13d
	imull	%r13d, %r13d
	movl	%r14d, %edi
	imull	%edi, %edi
	addl	%r13d, %r9d
	addl	%edi, %r9d
	movl	%r9d, %edi
	imull	%edi, %edi
	imull	%r9d, %edi
	imull	%edi, %r9d
	imull	$15, %edi, %edi
	addl	$-20, %edi
	imull	%edi, %r9d
	imull	%r9d, %r12d
	addl	%r12d, %eax
	imull	%r9d, %r11d
	addl	%r11d, %ecx
	imull	%r9d, %r14d
	addl	%r14d, %edx
	addq	$1, %rsi
	movq	-112(%rbp), %rdi        # 8-byte Reload
	shlq	$5, %rdi
	addq	%rsi, %rdi
	movl	(%r8,%rdi,4), %r9d
	movslq	%r9d, %rdi
	movl	(%r10,%rdi,4), %r11d
	movslq	%r9d, %rdi
	movl	(%rbx,%rdi,4), %r14d
	movslq	%r9d, %rdi
	movl	(%r15,%rdi,4), %r9d
	movl	-116(%rbp), %r12d       # 4-byte Reload
	subl	%r11d, %r12d
	movl	-120(%rbp), %r11d       # 4-byte Reload
	subl	%r14d, %r11d
	movl	-124(%rbp), %r14d       # 4-byte Reload
	subl	%r9d, %r14d
	movl	%r12d, %r9d
	imull	%r9d, %r9d
	movl	%r11d, %r13d
	imull	%r13d, %r13d
	movl	%r14d, %edi
	imull	%edi, %edi
	addl	%r13d, %r9d
	addl	%edi, %r9d
	movl	%r9d, %edi
	imull	%edi, %edi
	imull	%r9d, %edi
	imull	%edi, %r9d
	imull	$15, %edi, %edi
	addl	$-20, %edi
	imull	%edi, %r9d
	imull	%r9d, %r12d
	addl	%r12d, %eax
	imull	%r9d, %r11d
	addl	%r11d, %ecx
	imull	%r9d, %r14d
	addl	%r14d, %edx
	addq	$1, %rsi
	movq	-112(%rbp), %rdi        # 8-byte Reload
	shlq	$5, %rdi
	addq	%rsi, %rdi
	movl	(%r8,%rdi,4), %r9d
	movslq	%r9d, %rdi
	movl	(%r10,%rdi,4), %r11d
	movslq	%r9d, %rdi
	movl	(%rbx,%rdi,4), %r14d
	movslq	%r9d, %rdi
	movl	(%r15,%rdi,4), %r9d
	movl	-116(%rbp), %r12d       # 4-byte Reload
	subl	%r11d, %r12d
	movl	-120(%rbp), %r11d       # 4-byte Reload
	subl	%r14d, %r11d
	movl	-124(%rbp), %r14d       # 4-byte Reload
	subl	%r9d, %r14d
	movl	%r12d, %r9d
	imull	%r9d, %r9d
	movl	%r11d, %r13d
	imull	%r13d, %r13d
	movl	%r14d, %edi
	imull	%edi, %edi
	addl	%r13d, %r9d
	addl	%edi, %r9d
	movl	%r9d, %edi
	imull	%edi, %edi
	imull	%r9d, %edi
	imull	%edi, %r9d
	imull	$15, %edi, %edi
	addl	$-20, %edi
	imull	%edi, %r9d
	imull	%r9d, %r12d
	addl	%r12d, %eax
	imull	%r9d, %r11d
	addl	%r11d, %ecx
	imull	%r9d, %r14d
	addl	%r14d, %edx
	addq	$1, %rsi
	movq	-112(%rbp), %rdi        # 8-byte Reload
	shlq	$5, %rdi
	addq	%rsi, %rdi
	movl	(%r8,%rdi,4), %r9d
	movslq	%r9d, %rdi
	movl	(%r10,%rdi,4), %r11d
	movslq	%r9d, %rdi
	movl	(%rbx,%rdi,4), %r14d
	movslq	%r9d, %rdi
	movl	(%r15,%rdi,4), %r9d
	movl	-116(%rbp), %r12d       # 4-byte Reload
	subl	%r11d, %r12d
	movl	-120(%rbp), %r11d       # 4-byte Reload
	subl	%r14d, %r11d
	movl	-124(%rbp), %r14d       # 4-byte Reload
	subl	%r9d, %r14d
	movl	%r12d, %r9d
	imull	%r9d, %r9d
	movl	%r11d, %r13d
	imull	%r13d, %r13d
	movl	%r14d, %edi
	imull	%edi, %edi
	addl	%r13d, %r9d
	addl	%edi, %r9d
	movl	%r9d, %edi
	imull	%edi, %edi
	imull	%r9d, %edi
	imull	%edi, %r9d
	imull	$15, %edi, %edi
	addl	$-20, %edi
	imull	%edi, %r9d
	imull	%r9d, %r12d
	addl	%r12d, %eax
	imull	%r9d, %r11d
	addl	%r11d, %ecx
	imull	%r9d, %r14d
	addl	%r14d, %edx
	addq	$1, %rsi
	movq	-112(%rbp), %rdi        # 8-byte Reload
	shlq	$5, %rdi
	addq	%rsi, %rdi
	movl	(%r8,%rdi,4), %r9d
	movslq	%r9d, %rdi
	movl	(%r10,%rdi,4), %r11d
	movslq	%r9d, %rdi
	movl	(%rbx,%rdi,4), %r14d
	movslq	%r9d, %rdi
	movl	(%r15,%rdi,4), %r9d
	movl	-116(%rbp), %r12d       # 4-byte Reload
	subl	%r11d, %r12d
	movl	-120(%rbp), %r11d       # 4-byte Reload
	subl	%r14d, %r11d
	movl	-124(%rbp), %r14d       # 4-byte Reload
	subl	%r9d, %r14d
	movl	%r12d, %r9d
	imull	%r9d, %r9d
	movl	%r11d, %r13d
	imull	%r13d, %r13d
	movl	%r14d, %edi
	imull	%edi, %edi
	addl	%r13d, %r9d
	addl	%edi, %r9d
	movl	%r9d, %edi
	imull	%edi, %edi
	imull	%r9d, %edi
	imull	%edi, %r9d
	imull	$15, %edi, %edi
	addl	$-20, %edi
	imull	%edi, %r9d
	imull	%r9d, %r12d
	addl	%r12d, %eax
	imull	%r9d, %r11d
	addl	%r11d, %ecx
	imull	%r9d, %r14d
	addl	%r14d, %edx
	addq	$1, %rsi
	movq	-112(%rbp), %rdi        # 8-byte Reload
	shlq	$5, %rdi
	addq	%rsi, %rdi
	movl	(%r8,%rdi,4), %r9d
	movslq	%r9d, %rdi
	movl	(%r10,%rdi,4), %r11d
	movslq	%r9d, %rdi
	movl	(%rbx,%rdi,4), %r14d
	movslq	%r9d, %rdi
	movl	(%r15,%rdi,4), %r9d
	movl	-116(%rbp), %r12d       # 4-byte Reload
	subl	%r11d, %r12d
	movl	-120(%rbp), %r11d       # 4-byte Reload
	subl	%r14d, %r11d
	movl	-124(%rbp), %r14d       # 4-byte Reload
	subl	%r9d, %r14d
	movl	%r12d, %r9d
	imull	%r9d, %r9d
	movl	%r11d, %r13d
	imull	%r13d, %r13d
	movl	%r14d, %edi
	imull	%edi, %edi
	addl	%r13d, %r9d
	addl	%edi, %r9d
	movl	%r9d, %edi
	imull	%edi, %edi
	imull	%r9d, %edi
	imull	%edi, %r9d
	imull	$15, %edi, %edi
	addl	$-20, %edi
	imull	%edi, %r9d
	imull	%r9d, %r12d
	addl	%r12d, %eax
	imull	%r9d, %r11d
	addl	%r11d, %ecx
	imull	%r9d, %r14d
	addl	%r14d, %edx
	addq	$1, %rsi
	movq	-112(%rbp), %rdi        # 8-byte Reload
	shlq	$5, %rdi
	addq	%rsi, %rdi
	movl	(%r8,%rdi,4), %r9d
	movslq	%r9d, %rdi
	movl	(%r10,%rdi,4), %r11d
	movslq	%r9d, %rdi
	movl	(%rbx,%rdi,4), %r14d
	movslq	%r9d, %rdi
	movl	(%r15,%rdi,4), %r9d
	movl	-116(%rbp), %r12d       # 4-byte Reload
	subl	%r11d, %r12d
	movl	-120(%rbp), %r11d       # 4-byte Reload
	subl	%r14d, %r11d
	movl	-124(%rbp), %r14d       # 4-byte Reload
	subl	%r9d, %r14d
	movl	%r12d, %r9d
	imull	%r9d, %r9d
	movl	%r11d, %r13d
	imull	%r13d, %r13d
	movl	%r14d, %edi
	imull	%edi, %edi
	addl	%r13d, %r9d
	addl	%edi, %r9d
	movl	%r9d, %edi
	imull	%edi, %edi
	imull	%r9d, %edi
	imull	%edi, %r9d
	imull	$15, %edi, %edi
	addl	$-20, %edi
	imull	%edi, %r9d
	imull	%r9d, %r12d
	addl	%r12d, %eax
	imull	%r9d, %r11d
	addl	%r11d, %ecx
	imull	%r9d, %r14d
	addl	%r14d, %edx
	addq	$1, %rsi
	movq	-112(%rbp), %rdi        # 8-byte Reload
	shlq	$5, %rdi
	addq	%rsi, %rdi
	movl	(%r8,%rdi,4), %r9d
	movslq	%r9d, %rdi
	movl	(%r10,%rdi,4), %r11d
	movslq	%r9d, %rdi
	movl	(%rbx,%rdi,4), %r14d
	movslq	%r9d, %rdi
	movl	(%r15,%rdi,4), %r9d
	movl	-116(%rbp), %r12d       # 4-byte Reload
	subl	%r11d, %r12d
	movl	-120(%rbp), %r11d       # 4-byte Reload
	subl	%r14d, %r11d
	movl	-124(%rbp), %r14d       # 4-byte Reload
	subl	%r9d, %r14d
	movl	%r12d, %r9d
	imull	%r9d, %r9d
	movl	%r11d, %r13d
	imull	%r13d, %r13d
	movl	%r14d, %edi
	imull	%edi, %edi
	addl	%r13d, %r9d
	addl	%edi, %r9d
	movl	%r9d, %edi
	imull	%edi, %edi
	imull	%r9d, %edi
	imull	%edi, %r9d
	imull	$15, %edi, %edi
	addl	$-20, %edi
	imull	%edi, %r9d
	imull	%r9d, %r12d
	addl	%r12d, %eax
	imull	%r9d, %r11d
	addl	%r11d, %ecx
	imull	%r9d, %r14d
	addl	%r14d, %edx
	addq	$1, %rsi
	movq	-112(%rbp), %rdi        # 8-byte Reload
	shlq	$5, %rdi
	addq	%rsi, %rdi
	movl	(%r8,%rdi,4), %r9d
	movslq	%r9d, %rdi
	movl	(%r10,%rdi,4), %r11d
	movslq	%r9d, %rdi
	movl	(%rbx,%rdi,4), %r14d
	movslq	%r9d, %rdi
	movl	(%r15,%rdi,4), %r9d
	movl	-116(%rbp), %r12d       # 4-byte Reload
	subl	%r11d, %r12d
	movl	-120(%rbp), %r11d       # 4-byte Reload
	subl	%r14d, %r11d
	movl	-124(%rbp), %r14d       # 4-byte Reload
	subl	%r9d, %r14d
	movl	%r12d, %r9d
	imull	%r9d, %r9d
	movl	%r11d, %r13d
	imull	%r13d, %r13d
	movl	%r14d, %edi
	imull	%edi, %edi
	addl	%r13d, %r9d
	addl	%edi, %r9d
	movl	%r9d, %edi
	imull	%edi, %edi
	imull	%r9d, %edi
	imull	%edi, %r9d
	imull	$15, %edi, %edi
	addl	$-20, %edi
	imull	%edi, %r9d
	imull	%r9d, %r12d
	addl	%r12d, %eax
	imull	%r9d, %r11d
	addl	%r11d, %ecx
	imull	%r9d, %r14d
	addl	%r14d, %edx
	addq	$1, %rsi
	movq	-112(%rbp), %rdi        # 8-byte Reload
	shlq	$5, %rdi
	addq	%rsi, %rdi
	movl	(%r8,%rdi,4), %r9d
	movslq	%r9d, %rdi
	movl	(%r10,%rdi,4), %r11d
	movslq	%r9d, %rdi
	movl	(%rbx,%rdi,4), %r14d
	movslq	%r9d, %rdi
	movl	(%r15,%rdi,4), %r9d
	movl	-116(%rbp), %r12d       # 4-byte Reload
	subl	%r11d, %r12d
	movl	-120(%rbp), %r11d       # 4-byte Reload
	subl	%r14d, %r11d
	movl	-124(%rbp), %r14d       # 4-byte Reload
	subl	%r9d, %r14d
	movl	%r12d, %r9d
	imull	%r9d, %r9d
	movl	%r11d, %r13d
	imull	%r13d, %r13d
	movl	%r14d, %edi
	imull	%edi, %edi
	addl	%r13d, %r9d
	addl	%edi, %r9d
	movl	%r9d, %edi
	imull	%edi, %edi
	imull	%r9d, %edi
	imull	%edi, %r9d
	imull	$15, %edi, %edi
	addl	$-20, %edi
	imull	%edi, %r9d
	imull	%r9d, %r12d
	addl	%r12d, %eax
	imull	%r9d, %r11d
	addl	%r11d, %ecx
	imull	%r9d, %r14d
	addl	%r14d, %edx
	addq	$1, %rsi
	movq	-112(%rbp), %rdi        # 8-byte Reload
	shlq	$5, %rdi
	addq	%rsi, %rdi
	movl	(%r8,%rdi,4), %r9d
	movslq	%r9d, %rdi
	movl	(%r10,%rdi,4), %r11d
	movslq	%r9d, %rdi
	movl	(%rbx,%rdi,4), %r14d
	movslq	%r9d, %rdi
	movl	(%r15,%rdi,4), %r9d
	movl	-116(%rbp), %r12d       # 4-byte Reload
	subl	%r11d, %r12d
	movl	-120(%rbp), %r11d       # 4-byte Reload
	subl	%r14d, %r11d
	movl	-124(%rbp), %r14d       # 4-byte Reload
	subl	%r9d, %r14d
	movl	%r12d, %r9d
	imull	%r9d, %r9d
	movl	%r11d, %r13d
	imull	%r13d, %r13d
	movl	%r14d, %edi
	imull	%edi, %edi
	addl	%r13d, %r9d
	addl	%edi, %r9d
	movl	%r9d, %edi
	imull	%edi, %edi
	imull	%r9d, %edi
	imull	%edi, %r9d
	imull	$15, %edi, %edi
	addl	$-20, %edi
	imull	%edi, %r9d
	imull	%r9d, %r12d
	addl	%r12d, %eax
	imull	%r9d, %r11d
	addl	%r11d, %ecx
	imull	%r9d, %r14d
	addl	%r14d, %edx
	addq	$1, %rsi
	movq	-112(%rbp), %rdi        # 8-byte Reload
	shlq	$5, %rdi
	addq	%rsi, %rdi
	movl	(%r8,%rdi,4), %r9d
	movslq	%r9d, %rdi
	movl	(%r10,%rdi,4), %r11d
	movslq	%r9d, %rdi
	movl	(%rbx,%rdi,4), %r14d
	movslq	%r9d, %rdi
	movl	(%r15,%rdi,4), %r9d
	movl	-116(%rbp), %r12d       # 4-byte Reload
	subl	%r11d, %r12d
	movl	-120(%rbp), %r11d       # 4-byte Reload
	subl	%r14d, %r11d
	movl	-124(%rbp), %r14d       # 4-byte Reload
	subl	%r9d, %r14d
	movl	%r12d, %r9d
	imull	%r9d, %r9d
	movl	%r11d, %r13d
	imull	%r13d, %r13d
	movl	%r14d, %edi
	imull	%edi, %edi
	addl	%r13d, %r9d
	addl	%edi, %r9d
	movl	%r9d, %edi
	imull	%edi, %edi
	imull	%r9d, %edi
	imull	%edi, %r9d
	imull	$15, %edi, %edi
	addl	$-20, %edi
	imull	%edi, %r9d
	imull	%r9d, %r12d
	addl	%r12d, %eax
	imull	%r9d, %r11d
	addl	%r11d, %ecx
	imull	%r9d, %r14d
	addl	%r14d, %edx
	addq	$1, %rsi
	movq	-112(%rbp), %rdi        # 8-byte Reload
	shlq	$5, %rdi
	addq	%rsi, %rdi
	movl	(%r8,%rdi,4), %r9d
	movslq	%r9d, %rdi
	movl	(%r10,%rdi,4), %r11d
	movslq	%r9d, %rdi
	movl	(%rbx,%rdi,4), %r14d
	movslq	%r9d, %rdi
	movl	(%r15,%rdi,4), %r9d
	movl	-116(%rbp), %r12d       # 4-byte Reload
	subl	%r11d, %r12d
	movl	-120(%rbp), %r11d       # 4-byte Reload
	subl	%r14d, %r11d
	movl	-124(%rbp), %r14d       # 4-byte Reload
	subl	%r9d, %r14d
	movl	%r12d, %r9d
	imull	%r9d, %r9d
	movl	%r11d, %r13d
	imull	%r13d, %r13d
	movl	%r14d, %edi
	imull	%edi, %edi
	addl	%r13d, %r9d
	addl	%edi, %r9d
	movl	%r9d, %edi
	imull	%edi, %edi
	imull	%r9d, %edi
	imull	%edi, %r9d
	imull	$15, %edi, %edi
	addl	$-20, %edi
	imull	%edi, %r9d
	imull	%r9d, %r12d
	addl	%r12d, %eax
	imull	%r9d, %r11d
	addl	%r11d, %ecx
	imull	%r9d, %r14d
	addl	%r14d, %edx
	addq	$1, %rsi
	movq	-112(%rbp), %rdi        # 8-byte Reload
	shlq	$5, %rdi
	addq	%rsi, %rdi
	movl	(%r8,%rdi,4), %r9d
	movslq	%r9d, %rdi
	movl	(%r10,%rdi,4), %r11d
	movslq	%r9d, %rdi
	movl	(%rbx,%rdi,4), %r14d
	movslq	%r9d, %rdi
	movl	(%r15,%rdi,4), %r9d
	movl	-116(%rbp), %r12d       # 4-byte Reload
	subl	%r11d, %r12d
	movl	-120(%rbp), %r11d       # 4-byte Reload
	subl	%r14d, %r11d
	movl	-124(%rbp), %r14d       # 4-byte Reload
	subl	%r9d, %r14d
	movl	%r12d, %r9d
	imull	%r9d, %r9d
	movl	%r11d, %r13d
	imull	%r13d, %r13d
	movl	%r14d, %edi
	imull	%edi, %edi
	addl	%r13d, %r9d
	addl	%edi, %r9d
	movl	%r9d, %edi
	imull	%edi, %edi
	imull	%r9d, %edi
	imull	%edi, %r9d
	imull	$15, %edi, %edi
	addl	$-20, %edi
	imull	%edi, %r9d
	imull	%r9d, %r12d
	addl	%r12d, %eax
	imull	%r9d, %r11d
	addl	%r11d, %ecx
	imull	%r9d, %r14d
	addl	%r14d, %edx
	addq	$1, %rsi
	movq	-112(%rbp), %rdi        # 8-byte Reload
	shlq	$5, %rdi
	addq	%rsi, %rdi
	movl	(%r8,%rdi,4), %r9d
	movslq	%r9d, %rdi
	movl	(%r10,%rdi,4), %r11d
	movslq	%r9d, %rdi
	movl	(%rbx,%rdi,4), %r14d
	movslq	%r9d, %rdi
	movl	(%r15,%rdi,4), %r9d
	movl	-116(%rbp), %r12d       # 4-byte Reload
	subl	%r11d, %r12d
	movl	-120(%rbp), %r11d       # 4-byte Reload
	subl	%r14d, %r11d
	movl	-124(%rbp), %r14d       # 4-byte Reload
	subl	%r9d, %r14d
	movl	%r12d, %r9d
	imull	%r9d, %r9d
	movl	%r11d, %r13d
	imull	%r13d, %r13d
	movl	%r14d, %edi
	imull	%edi, %edi
	addl	%r13d, %r9d
	addl	%edi, %r9d
	movl	%r9d, %edi
	imull	%edi, %edi
	imull	%r9d, %edi
	imull	%edi, %r9d
	imull	$15, %edi, %edi
	addl	$-20, %edi
	imull	%edi, %r9d
	imull	%r9d, %r12d
	addl	%r12d, %eax
	imull	%r9d, %r11d
	addl	%r11d, %ecx
	imull	%r9d, %r14d
	addl	%r14d, %edx
	addq	$1, %rsi
	movq	-112(%rbp), %rdi        # 8-byte Reload
	shlq	$5, %rdi
	addq	%rsi, %rdi
	movl	(%r8,%rdi,4), %r9d
	movslq	%r9d, %rdi
	movl	(%r10,%rdi,4), %r11d
	movslq	%r9d, %rdi
	movl	(%rbx,%rdi,4), %r14d
	movslq	%r9d, %rdi
	movl	(%r15,%rdi,4), %r9d
	movl	-116(%rbp), %r12d       # 4-byte Reload
	subl	%r11d, %r12d
	movl	-120(%rbp), %r11d       # 4-byte Reload
	subl	%r14d, %r11d
	movl	-124(%rbp), %r14d       # 4-byte Reload
	subl	%r9d, %r14d
	movl	%r12d, %r9d
	imull	%r9d, %r9d
	movl	%r11d, %r13d
	imull	%r13d, %r13d
	movl	%r14d, %edi
	imull	%edi, %edi
	addl	%r13d, %r9d
	addl	%edi, %r9d
	movl	%r9d, %edi
	imull	%edi, %edi
	imull	%r9d, %edi
	imull	%edi, %r9d
	imull	$15, %edi, %edi
	addl	$-20, %edi
	imull	%edi, %r9d
	imull	%r9d, %r12d
	addl	%r12d, %eax
	imull	%r9d, %r11d
	addl	%r11d, %ecx
	imull	%r9d, %r14d
	addl	%r14d, %edx
	addq	$1, %rsi
	movq	-112(%rbp), %rdi        # 8-byte Reload
	shlq	$5, %rdi
	addq	%rsi, %rdi
	movl	(%r8,%rdi,4), %r9d
	movslq	%r9d, %rdi
	movl	(%r10,%rdi,4), %r11d
	movslq	%r9d, %rdi
	movl	(%rbx,%rdi,4), %r14d
	movslq	%r9d, %rdi
	movl	(%r15,%rdi,4), %r9d
	movl	-116(%rbp), %r12d       # 4-byte Reload
	subl	%r11d, %r12d
	movl	-120(%rbp), %r11d       # 4-byte Reload
	subl	%r14d, %r11d
	movl	-124(%rbp), %r14d       # 4-byte Reload
	subl	%r9d, %r14d
	movl	%r12d, %r9d
	imull	%r9d, %r9d
	movl	%r11d, %r13d
	imull	%r13d, %r13d
	movl	%r14d, %edi
	imull	%edi, %edi
	addl	%r13d, %r9d
	addl	%edi, %r9d
	movl	%r9d, %edi
	imull	%edi, %edi
	imull	%r9d, %edi
	imull	%edi, %r9d
	imull	$15, %edi, %edi
	addl	$-20, %edi
	imull	%edi, %r9d
	imull	%r9d, %r12d
	addl	%r12d, %eax
	imull	%r9d, %r11d
	addl	%r11d, %ecx
	imull	%r9d, %r14d
	addl	%r14d, %edx
	addq	$1, %rsi
	movq	-112(%rbp), %rdi        # 8-byte Reload
	shlq	$5, %rdi
	addq	%rsi, %rdi
	movl	(%r8,%rdi,4), %r9d
	movslq	%r9d, %rdi
	movl	(%r10,%rdi,4), %r11d
	movslq	%r9d, %rdi
	movl	(%rbx,%rdi,4), %r14d
	movslq	%r9d, %rdi
	movl	(%r15,%rdi,4), %r9d
	movl	-116(%rbp), %r12d       # 4-byte Reload
	subl	%r11d, %r12d
	movl	-120(%rbp), %r11d       # 4-byte Reload
	subl	%r14d, %r11d
	movl	-124(%rbp), %r14d       # 4-byte Reload
	subl	%r9d, %r14d
	movl	%r12d, %r9d
	imull	%r9d, %r9d
	movl	%r11d, %r13d
	imull	%r13d, %r13d
	movl	%r14d, %edi
	imull	%edi, %edi
	addl	%r13d, %r9d
	addl	%edi, %r9d
	movl	%r9d, %edi
	imull	%edi, %edi
	imull	%r9d, %edi
	imull	%edi, %r9d
	imull	$15, %edi, %edi
	addl	$-20, %edi
	imull	%edi, %r9d
	imull	%r9d, %r12d
	addl	%r12d, %eax
	imull	%r9d, %r11d
	addl	%r11d, %ecx
	imull	%r9d, %r14d
	addl	%r14d, %edx
	addq	$1, %rsi
	movq	-112(%rbp), %rdi        # 8-byte Reload
	shlq	$5, %rdi
	addq	%rsi, %rdi
	movl	(%r8,%rdi,4), %r9d
	movslq	%r9d, %rdi
	movl	(%r10,%rdi,4), %r11d
	movslq	%r9d, %rdi
	movl	(%rbx,%rdi,4), %r14d
	movslq	%r9d, %rdi
	movl	(%r15,%rdi,4), %r9d
	movl	-116(%rbp), %r12d       # 4-byte Reload
	subl	%r11d, %r12d
	movl	-120(%rbp), %r11d       # 4-byte Reload
	subl	%r14d, %r11d
	movl	-124(%rbp), %r14d       # 4-byte Reload
	subl	%r9d, %r14d
	movl	%r12d, %r9d
	imull	%r9d, %r9d
	movl	%r11d, %r13d
	imull	%r13d, %r13d
	movl	%r14d, %edi
	imull	%edi, %edi
	addl	%r13d, %r9d
	addl	%edi, %r9d
	movl	%r9d, %edi
	imull	%edi, %edi
	imull	%r9d, %edi
	imull	%edi, %r9d
	imull	$15, %edi, %edi
	addl	$-20, %edi
	imull	%edi, %r9d
	imull	%r9d, %r12d
	addl	%r12d, %eax
	imull	%r9d, %r11d
	addl	%r11d, %ecx
	imull	%r9d, %r14d
	addl	%r14d, %edx
	addq	$1, %rsi
	movq	-112(%rbp), %rdi        # 8-byte Reload
	shlq	$5, %rdi
	addq	%rsi, %rdi
	movl	(%r8,%rdi,4), %r9d
	movslq	%r9d, %rdi
	movl	(%r10,%rdi,4), %r11d
	movslq	%r9d, %rdi
	movl	(%rbx,%rdi,4), %r14d
	movslq	%r9d, %rdi
	movl	(%r15,%rdi,4), %r9d
	movl	-116(%rbp), %r12d       # 4-byte Reload
	subl	%r11d, %r12d
	movl	-120(%rbp), %r11d       # 4-byte Reload
	subl	%r14d, %r11d
	movl	-124(%rbp), %r14d       # 4-byte Reload
	subl	%r9d, %r14d
	movl	%r12d, %r9d
	imull	%r9d, %r9d
	movl	%r11d, %r13d
	imull	%r13d, %r13d
	movl	%r14d, %edi
	imull	%edi, %edi
	addl	%r13d, %r9d
	addl	%edi, %r9d
	movl	%r9d, %edi
	imull	%edi, %edi
	imull	%r9d, %edi
	imull	%edi, %r9d
	imull	$15, %edi, %edi
	addl	$-20, %edi
	imull	%edi, %r9d
	imull	%r9d, %r12d
	addl	%r12d, %eax
	imull	%r9d, %r11d
	addl	%r11d, %ecx
	imull	%r9d, %r14d
	addl	%r14d, %edx
	addq	$1, %rsi
	movq	-112(%rbp), %rdi        # 8-byte Reload
	shlq	$5, %rdi
	addq	%rsi, %rdi
	movl	(%r8,%rdi,4), %r9d
	movslq	%r9d, %rdi
	movl	(%r10,%rdi,4), %r11d
	movslq	%r9d, %rdi
	movl	(%rbx,%rdi,4), %r14d
	movslq	%r9d, %rdi
	movl	(%r15,%rdi,4), %r9d
	movl	-116(%rbp), %r12d       # 4-byte Reload
	subl	%r11d, %r12d
	movl	-120(%rbp), %r11d       # 4-byte Reload
	subl	%r14d, %r11d
	movl	-124(%rbp), %r14d       # 4-byte Reload
	subl	%r9d, %r14d
	movl	%r12d, %r9d
	imull	%r9d, %r9d
	movl	%r11d, %r13d
	imull	%r13d, %r13d
	movl	%r14d, %edi
	imull	%edi, %edi
	addl	%r13d, %r9d
	addl	%edi, %r9d
	movl	%r9d, %edi
	imull	%edi, %edi
	imull	%r9d, %edi
	imull	%edi, %r9d
	imull	$15, %edi, %edi
	addl	$-20, %edi
	imull	%edi, %r9d
	imull	%r9d, %r12d
	addl	%r12d, %eax
	imull	%r9d, %r11d
	addl	%r11d, %ecx
	imull	%r9d, %r14d
	addl	%r14d, %edx
	addq	$1, %rsi
	movq	-112(%rbp), %rdi        # 8-byte Reload
	shlq	$5, %rdi
	addq	%rsi, %rdi
	movl	(%r8,%rdi,4), %r9d
	movslq	%r9d, %rdi
	movl	(%r10,%rdi,4), %r11d
	movslq	%r9d, %rdi
	movl	(%rbx,%rdi,4), %r14d
	movslq	%r9d, %rdi
	movl	(%r15,%rdi,4), %r9d
	movl	-116(%rbp), %r12d       # 4-byte Reload
	subl	%r11d, %r12d
	movl	-120(%rbp), %r11d       # 4-byte Reload
	subl	%r14d, %r11d
	movl	-124(%rbp), %r14d       # 4-byte Reload
	subl	%r9d, %r14d
	movl	%r12d, %r9d
	imull	%r9d, %r9d
	movl	%r11d, %r13d
	imull	%r13d, %r13d
	movl	%r14d, %edi
	imull	%edi, %edi
	addl	%r13d, %r9d
	addl	%edi, %r9d
	movl	%r9d, %edi
	imull	%edi, %edi
	imull	%r9d, %edi
	imull	%edi, %r9d
	imull	$15, %edi, %edi
	addl	$-20, %edi
	imull	%edi, %r9d
	imull	%r9d, %r12d
	addl	%r12d, %eax
	imull	%r9d, %r11d
	addl	%r11d, %ecx
	imull	%r9d, %r14d
	addl	%r14d, %edx
	addq	$1, %rsi
	movq	-112(%rbp), %rdi        # 8-byte Reload
	shlq	$5, %rdi
	addq	%rsi, %rdi
	movl	(%r8,%rdi,4), %r9d
	movslq	%r9d, %rdi
	movl	(%r10,%rdi,4), %r11d
	movslq	%r9d, %rdi
	movl	(%rbx,%rdi,4), %r14d
	movslq	%r9d, %rdi
	movl	(%r15,%rdi,4), %r9d
	movl	-116(%rbp), %r12d       # 4-byte Reload
	subl	%r11d, %r12d
	movl	-120(%rbp), %r11d       # 4-byte Reload
	subl	%r14d, %r11d
	movl	-124(%rbp), %r14d       # 4-byte Reload
	subl	%r9d, %r14d
	movl	%r12d, %r9d
	imull	%r9d, %r9d
	movl	%r11d, %r13d
	imull	%r13d, %r13d
	movl	%r14d, %edi
	imull	%edi, %edi
	addl	%r13d, %r9d
	addl	%edi, %r9d
	movl	%r9d, %edi
	imull	%edi, %edi
	imull	%r9d, %edi
	imull	%edi, %r9d
	imull	$15, %edi, %edi
	addl	$-20, %edi
	imull	%edi, %r9d
	imull	%r9d, %r12d
	addl	%r12d, %eax
	imull	%r9d, %r11d
	addl	%r11d, %ecx
	imull	%r9d, %r14d
	addl	%r14d, %edx
	addq	$1, %rsi
	movq	-112(%rbp), %rdi        # 8-byte Reload
	shlq	$5, %rdi
	addq	%rsi, %rdi
	movl	(%r8,%rdi,4), %r9d
	movslq	%r9d, %rdi
	movl	(%r10,%rdi,4), %r11d
	movslq	%r9d, %rdi
	movl	(%rbx,%rdi,4), %r14d
	movslq	%r9d, %rdi
	movl	(%r15,%rdi,4), %r9d
	movl	-116(%rbp), %r12d       # 4-byte Reload
	subl	%r11d, %r12d
	movl	-120(%rbp), %r11d       # 4-byte Reload
	subl	%r14d, %r11d
	movl	-124(%rbp), %r14d       # 4-byte Reload
	subl	%r9d, %r14d
	movl	%r12d, %r9d
	imull	%r9d, %r9d
	movl	%r11d, %r13d
	imull	%r13d, %r13d
	movl	%r14d, %edi
	imull	%edi, %edi
	addl	%r13d, %r9d
	addl	%edi, %r9d
	movl	%r9d, %edi
	imull	%edi, %edi
	imull	%r9d, %edi
	imull	%edi, %r9d
	imull	$15, %edi, %edi
	addl	$-20, %edi
	imull	%edi, %r9d
	imull	%r9d, %r12d
	addl	%r12d, %eax
	imull	%r9d, %r11d
	addl	%r11d, %ecx
	imull	%r9d, %r14d
	addl	%r14d, %edx
	addq	$1, %rsi
	movq	-112(%rbp), %rdi        # 8-byte Reload
	shlq	$5, %rdi
	addq	%rsi, %rdi
	movl	(%r8,%rdi,4), %r9d
	movslq	%r9d, %rdi
	movl	(%r10,%rdi,4), %r11d
	movslq	%r9d, %rdi
	movl	(%rbx,%rdi,4), %r14d
	movslq	%r9d, %rdi
	movl	(%r15,%rdi,4), %r9d
	movl	-116(%rbp), %r12d       # 4-byte Reload
	subl	%r11d, %r12d
	movl	-120(%rbp), %r11d       # 4-byte Reload
	subl	%r14d, %r11d
	movl	-124(%rbp), %r14d       # 4-byte Reload
	subl	%r9d, %r14d
	movl	%r12d, %r9d
	imull	%r9d, %r9d
	movl	%r11d, %r13d
	imull	%r13d, %r13d
	movl	%r14d, %edi
	imull	%edi, %edi
	addl	%r13d, %r9d
	addl	%edi, %r9d
	movl	%r9d, %edi
	imull	%edi, %edi
	imull	%r9d, %edi
	imull	%edi, %r9d
	imull	$15, %edi, %edi
	addl	$-20, %edi
	imull	%edi, %r9d
	imull	%r9d, %r12d
	addl	%r12d, %eax
	imull	%r9d, %r11d
	addl	%r11d, %ecx
	imull	%r9d, %r14d
	addl	%r14d, %edx
	addq	$1, %rsi
	movq	-112(%rbp), %rdi        # 8-byte Reload
	shlq	$5, %rdi
	addq	%rsi, %rdi
	movl	(%r8,%rdi,4), %r9d
	movslq	%r9d, %rdi
	movl	(%r10,%rdi,4), %r11d
	movslq	%r9d, %rdi
	movl	(%rbx,%rdi,4), %r14d
	movslq	%r9d, %rdi
	movl	(%r15,%rdi,4), %r9d
	movl	-116(%rbp), %r12d       # 4-byte Reload
	subl	%r11d, %r12d
	movl	-120(%rbp), %r11d       # 4-byte Reload
	subl	%r14d, %r11d
	movl	-124(%rbp), %r14d       # 4-byte Reload
	subl	%r9d, %r14d
	movl	%r12d, %r9d
	imull	%r9d, %r9d
	movl	%r11d, %r13d
	imull	%r13d, %r13d
	movl	%r14d, %edi
	imull	%edi, %edi
	addl	%r13d, %r9d
	addl	%edi, %r9d
	movl	%r9d, %edi
	imull	%edi, %edi
	imull	%r9d, %edi
	imull	%edi, %r9d
	imull	$15, %edi, %edi
	addl	$-20, %edi
	imull	%edi, %r9d
	imull	%r9d, %r12d
	addl	%r12d, %eax
	imull	%r9d, %r11d
	addl	%r11d, %ecx
	imull	%r9d, %r14d
	addl	%r14d, %edx
	addq	$1, %rsi
	movq	-112(%rbp), %rdi        # 8-byte Reload
	shlq	$5, %rdi
	addq	%rsi, %rdi
	movl	(%r8,%rdi,4), %r9d
	movslq	%r9d, %rdi
	movl	(%r10,%rdi,4), %r11d
	movslq	%r9d, %rdi
	movl	(%rbx,%rdi,4), %r14d
	movslq	%r9d, %rdi
	movl	(%r15,%rdi,4), %r9d
	movl	-116(%rbp), %r12d       # 4-byte Reload
	subl	%r11d, %r12d
	movl	-120(%rbp), %r11d       # 4-byte Reload
	subl	%r14d, %r11d
	movl	-124(%rbp), %r14d       # 4-byte Reload
	subl	%r9d, %r14d
	movl	%r12d, %r9d
	imull	%r9d, %r9d
	movl	%r11d, %r13d
	imull	%r13d, %r13d
	movl	%r14d, %edi
	imull	%edi, %edi
	addl	%r13d, %r9d
	addl	%edi, %r9d
	movl	%r9d, %edi
	imull	%edi, %edi
	imull	%r9d, %edi
	imull	%edi, %r9d
	imull	$15, %edi, %edi
	addl	$-20, %edi
	imull	%edi, %r9d
	imull	%r9d, %r12d
	addl	%r12d, %eax
	imull	%r9d, %r11d
	addl	%r11d, %ecx
	imull	%r9d, %r14d
	addl	%r14d, %edx
	addq	$1, %rsi
	movq	-112(%rbp), %rdi        # 8-byte Reload
	shlq	$5, %rdi
	addq	%rsi, %rdi
	movl	(%r8,%rdi,4), %r9d
	movslq	%r9d, %rdi
	movl	(%r10,%rdi,4), %r11d
	movslq	%r9d, %rdi
	movl	(%rbx,%rdi,4), %r14d
	movslq	%r9d, %rdi
	movl	(%r15,%rdi,4), %r9d
	movl	-116(%rbp), %r12d       # 4-byte Reload
	subl	%r11d, %r12d
	movl	-120(%rbp), %r11d       # 4-byte Reload
	subl	%r14d, %r11d
	movl	-124(%rbp), %r14d       # 4-byte Reload
	subl	%r9d, %r14d
	movl	%r12d, %r9d
	imull	%r9d, %r9d
	movl	%r11d, %r13d
	imull	%r13d, %r13d
	movl	%r14d, %edi
	imull	%edi, %edi
	addl	%r13d, %r9d
	addl	%edi, %r9d
	movl	%r9d, %edi
	imull	%edi, %edi
	imull	%r9d, %edi
	imull	%edi, %r9d
	imull	$15, %edi, %edi
	addl	$-20, %edi
	imull	%edi, %r9d
	imull	%r9d, %r12d
	addl	%r12d, %eax
	imull	%r9d, %r11d
	addl	%r11d, %ecx
	imull	%r9d, %r14d
	addl	%r14d, %edx
	addq	$1, %rsi
	movq	-112(%rbp), %rdi        # 8-byte Reload
	shlq	$5, %rdi
	addq	%rsi, %rdi
	movl	(%r8,%rdi,4), %r9d
	movslq	%r9d, %rdi
	movl	(%r10,%rdi,4), %r11d
	movslq	%r9d, %rdi
	movl	(%rbx,%rdi,4), %r14d
	movslq	%r9d, %rdi
	movl	(%r15,%rdi,4), %r9d
	movl	-116(%rbp), %r12d       # 4-byte Reload
	subl	%r11d, %r12d
	movl	-120(%rbp), %r11d       # 4-byte Reload
	subl	%r14d, %r11d
	movl	-124(%rbp), %r14d       # 4-byte Reload
	subl	%r9d, %r14d
	movl	%r12d, %r9d
	imull	%r9d, %r9d
	movl	%r11d, %r13d
	imull	%r13d, %r13d
	movl	%r14d, %edi
	imull	%edi, %edi
	addl	%r13d, %r9d
	addl	%edi, %r9d
	movl	%r9d, %edi
	imull	%edi, %edi
	imull	%r9d, %edi
	imull	%edi, %r9d
	imull	$15, %edi, %edi
	addl	$-20, %edi
	imull	%edi, %r9d
	imull	%r9d, %r12d
	addl	%r12d, %eax
	imull	%r9d, %r11d
	addl	%r11d, %ecx
	imull	%r9d, %r14d
	addl	%r14d, %edx
	addq	$1, %rsi
	movq	-112(%rbp), %rdi        # 8-byte Reload
	shlq	$5, %rdi
	addq	%rsi, %rdi
	movl	(%r8,%rdi,4), %r9d
	movslq	%r9d, %rdi
	movl	(%r10,%rdi,4), %r11d
	movslq	%r9d, %rdi
	movl	(%rbx,%rdi,4), %r14d
	movslq	%r9d, %rdi
	movl	(%r15,%rdi,4), %r9d
	movl	-116(%rbp), %r12d       # 4-byte Reload
	subl	%r11d, %r12d
	movl	-120(%rbp), %r11d       # 4-byte Reload
	subl	%r14d, %r11d
	movl	-124(%rbp), %r14d       # 4-byte Reload
	subl	%r9d, %r14d
	movl	%r12d, %r9d
	imull	%r9d, %r9d
	movl	%r11d, %r13d
	imull	%r13d, %r13d
	movl	%r14d, %edi
	imull	%edi, %edi
	addl	%r13d, %r9d
	addl	%edi, %r9d
	movl	%r9d, %edi
	imull	%edi, %edi
	imull	%r9d, %edi
	imull	%edi, %r9d
	imull	$15, %edi, %edi
	addl	$-20, %edi
	imull	%edi, %r9d
	imull	%r9d, %r12d
	addl	%r12d, %eax
	imull	%r9d, %r11d
	addl	%r11d, %ecx
	imull	%r9d, %r14d
	addl	%r14d, %edx
	addq	$1, %rsi
	movq	-112(%rbp), %rdi        # 8-byte Reload
	shlq	$5, %rdi
	addq	%rsi, %rdi
	movl	(%r8,%rdi,4), %r9d
	movslq	%r9d, %rdi
	movl	(%r10,%rdi,4), %r11d
	movslq	%r9d, %rdi
	movl	(%rbx,%rdi,4), %r14d
	movslq	%r9d, %rdi
	movl	(%r15,%rdi,4), %r9d
	movl	-116(%rbp), %r12d       # 4-byte Reload
	subl	%r11d, %r12d
	movl	-120(%rbp), %r11d       # 4-byte Reload
	subl	%r14d, %r11d
	movl	-124(%rbp), %r14d       # 4-byte Reload
	subl	%r9d, %r14d
	movl	%r12d, %r9d
	imull	%r9d, %r9d
	movl	%r11d, %r13d
	imull	%r13d, %r13d
	movl	%r14d, %edi
	imull	%edi, %edi
	addl	%r13d, %r9d
	addl	%edi, %r9d
	movl	%r9d, %edi
	imull	%edi, %edi
	imull	%r9d, %edi
	imull	%edi, %r9d
	imull	$15, %edi, %edi
	addl	$-20, %edi
	imull	%edi, %r9d
	imull	%r9d, %r12d
	addl	%r12d, %eax
	imull	%r9d, %r11d
	addl	%r11d, %ecx
	imull	%r9d, %r14d
	addl	%r14d, %edx
	addq	$1, %rsi
	movq	-112(%rbp), %rdi        # 8-byte Reload
	shlq	$5, %rdi
	addq	%rsi, %rdi
	movl	(%r8,%rdi,4), %r9d
	movslq	%r9d, %rdi
	movl	(%r10,%rdi,4), %r11d
	movslq	%r9d, %rdi
	movl	(%rbx,%rdi,4), %r14d
	movslq	%r9d, %rdi
	movl	(%r15,%rdi,4), %r9d
	movl	-116(%rbp), %r12d       # 4-byte Reload
	subl	%r11d, %r12d
	movl	-120(%rbp), %r11d       # 4-byte Reload
	subl	%r14d, %r11d
	movl	-124(%rbp), %r14d       # 4-byte Reload
	subl	%r9d, %r14d
	movl	%r12d, %r9d
	imull	%r9d, %r9d
	movl	%r11d, %r13d
	imull	%r13d, %r13d
	movl	%r14d, %edi
	imull	%edi, %edi
	addl	%r13d, %r9d
	addl	%edi, %r9d
	movl	%r9d, %edi
	imull	%edi, %edi
	imull	%r9d, %edi
	imull	%edi, %r9d
	imull	$15, %edi, %edi
	addl	$-20, %edi
	imull	%edi, %r9d
	imull	%r9d, %r12d
	addl	%r12d, %eax
	imull	%r9d, %r11d
	addl	%r11d, %ecx
	imull	%r9d, %r14d
	addl	%r14d, %edx
	addq	$1, %rsi
	movq	-112(%rbp), %rdi        # 8-byte Reload
	shlq	$5, %rdi
	addq	%rsi, %rdi
	movl	(%r8,%rdi,4), %r9d
	movslq	%r9d, %rdi
	movl	(%r10,%rdi,4), %r11d
	movslq	%r9d, %rdi
	movl	(%rbx,%rdi,4), %r14d
	movslq	%r9d, %rdi
	movl	(%r15,%rdi,4), %r9d
	movl	-116(%rbp), %r12d       # 4-byte Reload
	subl	%r11d, %r12d
	movl	-120(%rbp), %r11d       # 4-byte Reload
	subl	%r14d, %r11d
	movl	-124(%rbp), %r14d       # 4-byte Reload
	subl	%r9d, %r14d
	movl	%r12d, %r9d
	imull	%r9d, %r9d
	movl	%r11d, %r13d
	imull	%r13d, %r13d
	movl	%r14d, %edi
	imull	%edi, %edi
	addl	%r13d, %r9d
	addl	%edi, %r9d
	movl	%r9d, %edi
	imull	%edi, %edi
	imull	%r9d, %edi
	imull	%edi, %r9d
	imull	$15, %edi, %edi
	addl	$-20, %edi
	imull	%edi, %r9d
	imull	%r9d, %r12d
	addl	%r12d, %eax
	imull	%r9d, %r11d
	addl	%r11d, %ecx
	imull	%r9d, %r14d
	addl	%r14d, %edx
	addq	$1, %rsi
	movq	-112(%rbp), %rdi        # 8-byte Reload
	shlq	$5, %rdi
	addq	%rsi, %rdi
	movl	(%r8,%rdi,4), %r9d
	movslq	%r9d, %rdi
	movl	(%r10,%rdi,4), %r11d
	movslq	%r9d, %rdi
	movl	(%rbx,%rdi,4), %r14d
	movslq	%r9d, %rdi
	movl	(%r15,%rdi,4), %r9d
	movl	-116(%rbp), %r12d       # 4-byte Reload
	subl	%r11d, %r12d
	movl	-120(%rbp), %r11d       # 4-byte Reload
	subl	%r14d, %r11d
	movl	-124(%rbp), %r14d       # 4-byte Reload
	subl	%r9d, %r14d
	movl	%r12d, %r9d
	imull	%r9d, %r9d
	movl	%r11d, %r13d
	imull	%r13d, %r13d
	movl	%r14d, %edi
	imull	%edi, %edi
	addl	%r13d, %r9d
	addl	%edi, %r9d
	movl	%r9d, %edi
	imull	%edi, %edi
	imull	%r9d, %edi
	imull	%edi, %r9d
	imull	$15, %edi, %edi
	addl	$-20, %edi
	imull	%edi, %r9d
	imull	%r9d, %r12d
	addl	%r12d, %eax
	imull	%r9d, %r11d
	addl	%r11d, %ecx
	imull	%r9d, %r14d
	addl	%r14d, %edx
	addq	$1, %rsi
	movq	-112(%rbp), %rdi        # 8-byte Reload
	shlq	$5, %rdi
	addq	%rsi, %rdi
	movl	(%r8,%rdi,4), %r9d
	movslq	%r9d, %rdi
	movl	(%r10,%rdi,4), %r11d
	movslq	%r9d, %rdi
	movl	(%rbx,%rdi,4), %r14d
	movslq	%r9d, %rdi
	movl	(%r15,%rdi,4), %r9d
	movl	-116(%rbp), %r12d       # 4-byte Reload
	subl	%r11d, %r12d
	movl	-120(%rbp), %r11d       # 4-byte Reload
	subl	%r14d, %r11d
	movl	-124(%rbp), %r14d       # 4-byte Reload
	subl	%r9d, %r14d
	movl	%r12d, %r9d
	imull	%r9d, %r9d
	movl	%r11d, %r13d
	imull	%r13d, %r13d
	movl	%r14d, %edi
	imull	%edi, %edi
	addl	%r13d, %r9d
	addl	%edi, %r9d
	movl	%r9d, %edi
	imull	%edi, %edi
	imull	%r9d, %edi
	imull	%edi, %r9d
	imull	$15, %edi, %edi
	addl	$-20, %edi
	imull	%edi, %r9d
	imull	%r9d, %r12d
	addl	%r12d, %eax
	imull	%r9d, %r11d
	addl	%r11d, %ecx
	imull	%r9d, %r14d
	addl	%r14d, %edx
	addq	$1, %rsi
	movq	-112(%rbp), %rdi        # 8-byte Reload
	shlq	$5, %rdi
	addq	%rsi, %rdi
	movl	(%r8,%rdi,4), %r9d
	movslq	%r9d, %rdi
	movl	(%r10,%rdi,4), %r11d
	movslq	%r9d, %rdi
	movl	(%rbx,%rdi,4), %r14d
	movslq	%r9d, %rdi
	movl	(%r15,%rdi,4), %r9d
	movl	-116(%rbp), %r12d       # 4-byte Reload
	subl	%r11d, %r12d
	movl	-120(%rbp), %r11d       # 4-byte Reload
	subl	%r14d, %r11d
	movl	-124(%rbp), %r14d       # 4-byte Reload
	subl	%r9d, %r14d
	movl	%r12d, %r9d
	imull	%r9d, %r9d
	movl	%r11d, %r13d
	imull	%r13d, %r13d
	movl	%r14d, %edi
	imull	%edi, %edi
	addl	%r13d, %r9d
	addl	%edi, %r9d
	movl	%r9d, %edi
	imull	%edi, %edi
	imull	%r9d, %edi
	imull	%edi, %r9d
	imull	$15, %edi, %edi
	addl	$-20, %edi
	imull	%edi, %r9d
	imull	%r9d, %r12d
	addl	%r12d, %eax
	imull	%r9d, %r11d
	addl	%r11d, %ecx
	imull	%r9d, %r14d
	addl	%r14d, %edx
	addq	$1, %rsi
	movq	-112(%rbp), %rdi        # 8-byte Reload
	shlq	$5, %rdi
	addq	%rsi, %rdi
	movl	(%r8,%rdi,4), %r9d
	movslq	%r9d, %rdi
	movl	(%r10,%rdi,4), %r11d
	movslq	%r9d, %rdi
	movl	(%rbx,%rdi,4), %r14d
	movslq	%r9d, %rdi
	movl	(%r15,%rdi,4), %r9d
	movl	-116(%rbp), %r12d       # 4-byte Reload
	subl	%r11d, %r12d
	movl	-120(%rbp), %r11d       # 4-byte Reload
	subl	%r14d, %r11d
	movl	-124(%rbp), %r14d       # 4-byte Reload
	subl	%r9d, %r14d
	movl	%r12d, %r9d
	imull	%r9d, %r9d
	movl	%r11d, %r13d
	imull	%r13d, %r13d
	movl	%r14d, %edi
	imull	%edi, %edi
	addl	%r13d, %r9d
	addl	%edi, %r9d
	movl	%r9d, %edi
	imull	%edi, %edi
	imull	%r9d, %edi
	imull	%edi, %r9d
	imull	$15, %edi, %edi
	addl	$-20, %edi
	imull	%edi, %r9d
	imull	%r9d, %r12d
	addl	%r12d, %eax
	imull	%r9d, %r11d
	addl	%r11d, %ecx
	imull	%r9d, %r14d
	addl	%r14d, %edx
	addq	$1, %rsi
	movq	-112(%rbp), %rdi        # 8-byte Reload
	shlq	$5, %rdi
	addq	%rsi, %rdi
	movl	(%r8,%rdi,4), %r9d
	movslq	%r9d, %rdi
	movl	(%r10,%rdi,4), %r11d
	movslq	%r9d, %rdi
	movl	(%rbx,%rdi,4), %r14d
	movslq	%r9d, %rdi
	movl	(%r15,%rdi,4), %r9d
	movl	-116(%rbp), %r12d       # 4-byte Reload
	subl	%r11d, %r12d
	movl	-120(%rbp), %r11d       # 4-byte Reload
	subl	%r14d, %r11d
	movl	-124(%rbp), %r14d       # 4-byte Reload
	subl	%r9d, %r14d
	movl	%r12d, %r9d
	imull	%r9d, %r9d
	movl	%r11d, %r13d
	imull	%r13d, %r13d
	movl	%r14d, %edi
	imull	%edi, %edi
	addl	%r13d, %r9d
	addl	%edi, %r9d
	movl	%r9d, %edi
	imull	%edi, %edi
	imull	%r9d, %edi
	imull	%edi, %r9d
	imull	$15, %edi, %edi
	addl	$-20, %edi
	imull	%edi, %r9d
	imull	%r9d, %r12d
	addl	%r12d, %eax
	imull	%r9d, %r11d
	addl	%r11d, %ecx
	imull	%r9d, %r14d
	addl	%r14d, %edx
	addq	$1, %rsi
	movq	-112(%rbp), %rdi        # 8-byte Reload
	shlq	$5, %rdi
	addq	%rsi, %rdi
	movl	(%r8,%rdi,4), %r9d
	movslq	%r9d, %rdi
	movl	(%r10,%rdi,4), %r11d
	movslq	%r9d, %rdi
	movl	(%rbx,%rdi,4), %r14d
	movslq	%r9d, %rdi
	movl	(%r15,%rdi,4), %r9d
	movl	-116(%rbp), %r12d       # 4-byte Reload
	subl	%r11d, %r12d
	movl	-120(%rbp), %r11d       # 4-byte Reload
	subl	%r14d, %r11d
	movl	-124(%rbp), %r14d       # 4-byte Reload
	subl	%r9d, %r14d
	movl	%r12d, %r9d
	imull	%r9d, %r9d
	movl	%r11d, %r13d
	imull	%r13d, %r13d
	movl	%r14d, %edi
	imull	%edi, %edi
	addl	%r13d, %r9d
	addl	%edi, %r9d
	movl	%r9d, %edi
	imull	%edi, %edi
	imull	%r9d, %edi
	imull	%edi, %r9d
	imull	$15, %edi, %edi
	addl	$-20, %edi
	imull	%edi, %r9d
	imull	%r9d, %r12d
	addl	%r12d, %eax
	imull	%r9d, %r11d
	addl	%r11d, %ecx
	imull	%r9d, %r14d
	addl	%r14d, %edx
	addq	$1, %rsi
	movq	-112(%rbp), %rdi        # 8-byte Reload
	shlq	$5, %rdi
	addq	%rsi, %rdi
	movl	(%r8,%rdi,4), %r9d
	movslq	%r9d, %rdi
	movl	(%r10,%rdi,4), %r11d
	movslq	%r9d, %rdi
	movl	(%rbx,%rdi,4), %r14d
	movslq	%r9d, %rdi
	movl	(%r15,%rdi,4), %r9d
	movl	-116(%rbp), %r12d       # 4-byte Reload
	subl	%r11d, %r12d
	movl	-120(%rbp), %r11d       # 4-byte Reload
	subl	%r14d, %r11d
	movl	-124(%rbp), %r14d       # 4-byte Reload
	subl	%r9d, %r14d
	movl	%r12d, %r9d
	imull	%r9d, %r9d
	movl	%r11d, %r13d
	imull	%r13d, %r13d
	movl	%r14d, %edi
	imull	%edi, %edi
	addl	%r13d, %r9d
	addl	%edi, %r9d
	movl	%r9d, %edi
	imull	%edi, %edi
	imull	%r9d, %edi
	imull	%edi, %r9d
	imull	$15, %edi, %edi
	addl	$-20, %edi
	imull	%edi, %r9d
	imull	%r9d, %r12d
	addl	%r12d, %eax
	imull	%r9d, %r11d
	addl	%r11d, %ecx
	imull	%r9d, %r14d
	addl	%r14d, %edx
	addq	$1, %rsi
	movq	-112(%rbp), %rdi        # 8-byte Reload
	shlq	$5, %rdi
	addq	%rsi, %rdi
	movl	(%r8,%rdi,4), %r9d
	movslq	%r9d, %rdi
	movl	(%r10,%rdi,4), %r11d
	movslq	%r9d, %rdi
	movl	(%rbx,%rdi,4), %r14d
	movslq	%r9d, %rdi
	movl	(%r15,%rdi,4), %r9d
	movl	-116(%rbp), %r12d       # 4-byte Reload
	subl	%r11d, %r12d
	movl	-120(%rbp), %r11d       # 4-byte Reload
	subl	%r14d, %r11d
	movl	-124(%rbp), %r14d       # 4-byte Reload
	subl	%r9d, %r14d
	movl	%r12d, %r9d
	imull	%r9d, %r9d
	movl	%r11d, %r13d
	imull	%r13d, %r13d
	movl	%r14d, %edi
	imull	%edi, %edi
	addl	%r13d, %r9d
	addl	%edi, %r9d
	movl	%r9d, %edi
	imull	%edi, %edi
	imull	%r9d, %edi
	imull	%edi, %r9d
	imull	$15, %edi, %edi
	addl	$-20, %edi
	imull	%edi, %r9d
	imull	%r9d, %r12d
	addl	%r12d, %eax
	imull	%r9d, %r11d
	addl	%r11d, %ecx
	imull	%r9d, %r14d
	addl	%r14d, %edx
	addq	$1, %rsi
	movq	-112(%rbp), %rdi        # 8-byte Reload
	shlq	$5, %rdi
	addq	%rsi, %rdi
	movl	(%r8,%rdi,4), %r9d
	movslq	%r9d, %rdi
	movl	(%r10,%rdi,4), %r11d
	movslq	%r9d, %rdi
	movl	(%rbx,%rdi,4), %r14d
	movslq	%r9d, %rdi
	movl	(%r15,%rdi,4), %r9d
	movl	-116(%rbp), %r12d       # 4-byte Reload
	subl	%r11d, %r12d
	movl	-120(%rbp), %r11d       # 4-byte Reload
	subl	%r14d, %r11d
	movl	-124(%rbp), %r14d       # 4-byte Reload
	subl	%r9d, %r14d
	movl	%r12d, %r9d
	imull	%r9d, %r9d
	movl	%r11d, %r13d
	imull	%r13d, %r13d
	movl	%r14d, %edi
	imull	%edi, %edi
	addl	%r13d, %r9d
	addl	%edi, %r9d
	movl	%r9d, %edi
	imull	%edi, %edi
	imull	%r9d, %edi
	imull	%edi, %r9d
	imull	$15, %edi, %edi
	addl	$-20, %edi
	imull	%edi, %r9d
	imull	%r9d, %r12d
	addl	%r12d, %eax
	imull	%r9d, %r11d
	addl	%r11d, %ecx
	imull	%r9d, %r14d
	addl	%r14d, %edx
	addq	$1, %rsi
	movq	-112(%rbp), %rdi        # 8-byte Reload
	shlq	$5, %rdi
	addq	%rsi, %rdi
	movl	(%r8,%rdi,4), %r9d
	movslq	%r9d, %rdi
	movl	(%r10,%rdi,4), %r11d
	movslq	%r9d, %rdi
	movl	(%rbx,%rdi,4), %r14d
	movslq	%r9d, %rdi
	movl	(%r15,%rdi,4), %r9d
	movl	-116(%rbp), %r12d       # 4-byte Reload
	subl	%r11d, %r12d
	movl	-120(%rbp), %r11d       # 4-byte Reload
	subl	%r14d, %r11d
	movl	-124(%rbp), %r14d       # 4-byte Reload
	subl	%r9d, %r14d
	movl	%r12d, %r9d
	imull	%r9d, %r9d
	movl	%r11d, %r13d
	imull	%r13d, %r13d
	movl	%r14d, %edi
	imull	%edi, %edi
	addl	%r13d, %r9d
	addl	%edi, %r9d
	movl	%r9d, %edi
	imull	%edi, %edi
	imull	%r9d, %edi
	imull	%edi, %r9d
	imull	$15, %edi, %edi
	addl	$-20, %edi
	imull	%edi, %r9d
	imull	%r9d, %r12d
	addl	%r12d, %eax
	imull	%r9d, %r11d
	addl	%r11d, %ecx
	imull	%r9d, %r14d
	addl	%r14d, %edx
	addq	$1, %rsi
	movq	-112(%rbp), %rdi        # 8-byte Reload
	shlq	$5, %rdi
	addq	%rsi, %rdi
	movl	(%r8,%rdi,4), %r9d
	movslq	%r9d, %rdi
	movl	(%r10,%rdi,4), %r11d
	movslq	%r9d, %rdi
	movl	(%rbx,%rdi,4), %r14d
	movslq	%r9d, %rdi
	movl	(%r15,%rdi,4), %r9d
	movl	-116(%rbp), %r12d       # 4-byte Reload
	subl	%r11d, %r12d
	movl	-120(%rbp), %r11d       # 4-byte Reload
	subl	%r14d, %r11d
	movl	-124(%rbp), %r14d       # 4-byte Reload
	subl	%r9d, %r14d
	movl	%r12d, %r9d
	imull	%r9d, %r9d
	movl	%r11d, %r13d
	imull	%r13d, %r13d
	movl	%r14d, %edi
	imull	%edi, %edi
	addl	%r13d, %r9d
	addl	%edi, %r9d
	movl	%r9d, %edi
	imull	%edi, %edi
	imull	%r9d, %edi
	imull	%edi, %r9d
	imull	$15, %edi, %edi
	addl	$-20, %edi
	imull	%edi, %r9d
	imull	%r9d, %r12d
	addl	%r12d, %eax
	imull	%r9d, %r11d
	addl	%r11d, %ecx
	imull	%r9d, %r14d
	addl	%r14d, %edx
	addq	$1, %rsi
	movq	-112(%rbp), %rdi        # 8-byte Reload
	shlq	$5, %rdi
	addq	%rsi, %rdi
	movl	(%r8,%rdi,4), %r9d
	movslq	%r9d, %rdi
	movl	(%r10,%rdi,4), %r11d
	movslq	%r9d, %rdi
	movl	(%rbx,%rdi,4), %r14d
	movslq	%r9d, %rdi
	movl	(%r15,%rdi,4), %r9d
	movl	-116(%rbp), %r12d       # 4-byte Reload
	subl	%r11d, %r12d
	movl	-120(%rbp), %r11d       # 4-byte Reload
	subl	%r14d, %r11d
	movl	-124(%rbp), %r14d       # 4-byte Reload
	subl	%r9d, %r14d
	movl	%r12d, %r9d
	imull	%r9d, %r9d
	movl	%r11d, %r13d
	imull	%r13d, %r13d
	movl	%r14d, %edi
	imull	%edi, %edi
	addl	%r13d, %r9d
	addl	%edi, %r9d
	movl	%r9d, %edi
	imull	%edi, %edi
	imull	%r9d, %edi
	imull	%edi, %r9d
	imull	$15, %edi, %edi
	addl	$-20, %edi
	imull	%edi, %r9d
	imull	%r9d, %r12d
	addl	%r12d, %eax
	imull	%r9d, %r11d
	addl	%r11d, %ecx
	imull	%r9d, %r14d
	addl	%r14d, %edx
	addq	$1, %rsi
	movq	-112(%rbp), %rdi        # 8-byte Reload
	shlq	$5, %rdi
	addq	%rsi, %rdi
	movl	(%r8,%rdi,4), %r9d
	movslq	%r9d, %rdi
	movl	(%r10,%rdi,4), %r11d
	movslq	%r9d, %rdi
	movl	(%rbx,%rdi,4), %r14d
	movslq	%r9d, %rdi
	movl	(%r15,%rdi,4), %r9d
	movl	-116(%rbp), %r12d       # 4-byte Reload
	subl	%r11d, %r12d
	movl	-120(%rbp), %r11d       # 4-byte Reload
	subl	%r14d, %r11d
	movl	-124(%rbp), %r14d       # 4-byte Reload
	subl	%r9d, %r14d
	movl	%r12d, %r9d
	imull	%r9d, %r9d
	movl	%r11d, %r13d
	imull	%r13d, %r13d
	movl	%r14d, %edi
	imull	%edi, %edi
	addl	%r13d, %r9d
	addl	%edi, %r9d
	movl	%r9d, %edi
	imull	%edi, %edi
	imull	%r9d, %edi
	imull	%edi, %r9d
	imull	$15, %edi, %edi
	addl	$-20, %edi
	imull	%edi, %r9d
	imull	%r9d, %r12d
	addl	%r12d, %eax
	imull	%r9d, %r11d
	addl	%r11d, %ecx
	imull	%r9d, %r14d
	addl	%r14d, %edx
	addq	$1, %rsi
	movq	-112(%rbp), %rdi        # 8-byte Reload
	shlq	$5, %rdi
	addq	%rsi, %rdi
	movl	(%r8,%rdi,4), %r9d
	movslq	%r9d, %rdi
	movl	(%r10,%rdi,4), %r11d
	movslq	%r9d, %rdi
	movl	(%rbx,%rdi,4), %r14d
	movslq	%r9d, %rdi
	movl	(%r15,%rdi,4), %r9d
	movl	-116(%rbp), %r12d       # 4-byte Reload
	subl	%r11d, %r12d
	movl	-120(%rbp), %r11d       # 4-byte Reload
	subl	%r14d, %r11d
	movl	-124(%rbp), %r14d       # 4-byte Reload
	subl	%r9d, %r14d
	movl	%r12d, %r9d
	imull	%r9d, %r9d
	movl	%r11d, %r13d
	imull	%r13d, %r13d
	movl	%r14d, %edi
	imull	%edi, %edi
	addl	%r13d, %r9d
	addl	%edi, %r9d
	movl	%r9d, %edi
	imull	%edi, %edi
	imull	%r9d, %edi
	imull	%edi, %r9d
	imull	$15, %edi, %edi
	addl	$-20, %edi
	imull	%edi, %r9d
	imull	%r9d, %r12d
	addl	%r12d, %eax
	imull	%r9d, %r11d
	addl	%r11d, %ecx
	imull	%r9d, %r14d
	addl	%r14d, %edx
	addq	$1, %rsi
	movq	-112(%rbp), %rdi        # 8-byte Reload
	shlq	$5, %rdi
	addq	%rsi, %rdi
	movl	(%r8,%rdi,4), %r9d
	movslq	%r9d, %rdi
	movl	(%r10,%rdi,4), %r11d
	movslq	%r9d, %rdi
	movl	(%rbx,%rdi,4), %r14d
	movslq	%r9d, %rdi
	movl	(%r15,%rdi,4), %r9d
	movl	-116(%rbp), %r12d       # 4-byte Reload
	subl	%r11d, %r12d
	movl	-120(%rbp), %r11d       # 4-byte Reload
	subl	%r14d, %r11d
	movl	-124(%rbp), %r14d       # 4-byte Reload
	subl	%r9d, %r14d
	movl	%r12d, %r9d
	imull	%r9d, %r9d
	movl	%r11d, %r13d
	imull	%r13d, %r13d
	movl	%r14d, %edi
	imull	%edi, %edi
	addl	%r13d, %r9d
	addl	%edi, %r9d
	movl	%r9d, %edi
	imull	%edi, %edi
	imull	%r9d, %edi
	imull	%edi, %r9d
	imull	$15, %edi, %edi
	addl	$-20, %edi
	imull	%edi, %r9d
	imull	%r9d, %r12d
	addl	%r12d, %eax
	imull	%r9d, %r11d
	addl	%r11d, %ecx
	imull	%r9d, %r14d
	addl	%r14d, %edx
	addq	$1, %rsi
	movq	-112(%rbp), %rdi        # 8-byte Reload
	shlq	$5, %rdi
	addq	%rsi, %rdi
	movl	(%r8,%rdi,4), %r9d
	movslq	%r9d, %rdi
	movl	(%r10,%rdi,4), %r11d
	movslq	%r9d, %rdi
	movl	(%rbx,%rdi,4), %r14d
	movslq	%r9d, %rdi
	movl	(%r15,%rdi,4), %r9d
	movl	-116(%rbp), %r12d       # 4-byte Reload
	subl	%r11d, %r12d
	movl	-120(%rbp), %r11d       # 4-byte Reload
	subl	%r14d, %r11d
	movl	-124(%rbp), %r14d       # 4-byte Reload
	subl	%r9d, %r14d
	movl	%r12d, %r9d
	imull	%r9d, %r9d
	movl	%r11d, %r13d
	imull	%r13d, %r13d
	movl	%r14d, %edi
	imull	%edi, %edi
	addl	%r13d, %r9d
	addl	%edi, %r9d
	movl	%r9d, %edi
	imull	%edi, %edi
	imull	%r9d, %edi
	imull	%edi, %r9d
	imull	$15, %edi, %edi
	addl	$-20, %edi
	imull	%edi, %r9d
	imull	%r9d, %r12d
	addl	%r12d, %eax
	imull	%r9d, %r11d
	addl	%r11d, %ecx
	imull	%r9d, %r14d
	addl	%r14d, %edx
	addq	$1, %rsi
	movq	-112(%rbp), %rdi        # 8-byte Reload
	shlq	$5, %rdi
	addq	%rsi, %rdi
	movl	(%r8,%rdi,4), %r9d
	movslq	%r9d, %rdi
	movl	(%r10,%rdi,4), %r11d
	movslq	%r9d, %rdi
	movl	(%rbx,%rdi,4), %r14d
	movslq	%r9d, %rdi
	movl	(%r15,%rdi,4), %r9d
	movl	-116(%rbp), %r12d       # 4-byte Reload
	subl	%r11d, %r12d
	movl	-120(%rbp), %r11d       # 4-byte Reload
	subl	%r14d, %r11d
	movl	-124(%rbp), %r14d       # 4-byte Reload
	subl	%r9d, %r14d
	movl	%r12d, %r9d
	imull	%r9d, %r9d
	movl	%r11d, %r13d
	imull	%r13d, %r13d
	movl	%r14d, %edi
	imull	%edi, %edi
	addl	%r13d, %r9d
	addl	%edi, %r9d
	movl	%r9d, %edi
	imull	%edi, %edi
	imull	%r9d, %edi
	imull	%edi, %r9d
	imull	$15, %edi, %edi
	addl	$-20, %edi
	imull	%edi, %r9d
	imull	%r9d, %r12d
	addl	%r12d, %eax
	imull	%r9d, %r11d
	addl	%r11d, %ecx
	imull	%r9d, %r14d
	addl	%r14d, %edx
	addq	$1, %rsi
	movq	-112(%rbp), %rdi        # 8-byte Reload
	shlq	$5, %rdi
	addq	%rsi, %rdi
	movl	(%r8,%rdi,4), %r9d
	movslq	%r9d, %rdi
	movl	(%r10,%rdi,4), %r11d
	movslq	%r9d, %rdi
	movl	(%rbx,%rdi,4), %r14d
	movslq	%r9d, %rdi
	movl	(%r15,%rdi,4), %r9d
	movl	-116(%rbp), %r12d       # 4-byte Reload
	subl	%r11d, %r12d
	movl	-120(%rbp), %r11d       # 4-byte Reload
	subl	%r14d, %r11d
	movl	-124(%rbp), %r14d       # 4-byte Reload
	subl	%r9d, %r14d
	movl	%r12d, %r9d
	imull	%r9d, %r9d
	movl	%r11d, %r13d
	imull	%r13d, %r13d
	movl	%r14d, %edi
	imull	%edi, %edi
	addl	%r13d, %r9d
	addl	%edi, %r9d
	movl	%r9d, %edi
	imull	%edi, %edi
	imull	%r9d, %edi
	imull	%edi, %r9d
	imull	$15, %edi, %edi
	addl	$-20, %edi
	imull	%edi, %r9d
	imull	%r9d, %r12d
	addl	%r12d, %eax
	imull	%r9d, %r11d
	addl	%r11d, %ecx
	imull	%r9d, %r14d
	addl	%r14d, %edx
	addq	$1, %rsi
	movq	-112(%rbp), %rdi        # 8-byte Reload
	shlq	$5, %rdi
	addq	%rsi, %rdi
	movl	(%r8,%rdi,4), %r9d
	movslq	%r9d, %rdi
	movl	(%r10,%rdi,4), %r11d
	movslq	%r9d, %rdi
	movl	(%rbx,%rdi,4), %r14d
	movslq	%r9d, %rdi
	movl	(%r15,%rdi,4), %r9d
	movl	-116(%rbp), %r12d       # 4-byte Reload
	subl	%r11d, %r12d
	movl	-120(%rbp), %r11d       # 4-byte Reload
	subl	%r14d, %r11d
	movl	-124(%rbp), %r14d       # 4-byte Reload
	subl	%r9d, %r14d
	movl	%r12d, %r9d
	imull	%r9d, %r9d
	movl	%r11d, %r13d
	imull	%r13d, %r13d
	movl	%r14d, %edi
	imull	%edi, %edi
	addl	%r13d, %r9d
	addl	%edi, %r9d
	movl	%r9d, %edi
	imull	%edi, %edi
	imull	%r9d, %edi
	imull	%edi, %r9d
	imull	$15, %edi, %edi
	addl	$-20, %edi
	imull	%edi, %r9d
	imull	%r9d, %r12d
	addl	%r12d, %eax
	imull	%r9d, %r11d
	addl	%r11d, %ecx
	imull	%r9d, %r14d
	addl	%r14d, %edx
	addq	$1, %rsi
	movq	-112(%rbp), %rdi        # 8-byte Reload
	shlq	$5, %rdi
	addq	%rsi, %rdi
	movl	(%r8,%rdi,4), %r9d
	movslq	%r9d, %rdi
	movl	(%r10,%rdi,4), %r11d
	movslq	%r9d, %rdi
	movl	(%rbx,%rdi,4), %r14d
	movslq	%r9d, %rdi
	movl	(%r15,%rdi,4), %r9d
	movl	-116(%rbp), %r12d       # 4-byte Reload
	subl	%r11d, %r12d
	movl	-120(%rbp), %r11d       # 4-byte Reload
	subl	%r14d, %r11d
	movl	-124(%rbp), %r14d       # 4-byte Reload
	subl	%r9d, %r14d
	movl	%r12d, %r9d
	imull	%r9d, %r9d
	movl	%r11d, %r13d
	imull	%r13d, %r13d
	movl	%r14d, %edi
	imull	%edi, %edi
	addl	%r13d, %r9d
	addl	%edi, %r9d
	movl	%r9d, %edi
	imull	%edi, %edi
	imull	%r9d, %edi
	imull	%edi, %r9d
	imull	$15, %edi, %edi
	addl	$-20, %edi
	imull	%edi, %r9d
	imull	%r9d, %r12d
	addl	%r12d, %eax
	imull	%r9d, %r11d
	addl	%r11d, %ecx
	imull	%r9d, %r14d
	addl	%r14d, %edx
	addq	$1, %rsi
	movq	-112(%rbp), %rdi        # 8-byte Reload
	shlq	$5, %rdi
	addq	%rsi, %rdi
	movl	(%r8,%rdi,4), %r9d
	movslq	%r9d, %rdi
	movl	(%r10,%rdi,4), %r11d
	movslq	%r9d, %rdi
	movl	(%rbx,%rdi,4), %r14d
	movslq	%r9d, %rdi
	movl	(%r15,%rdi,4), %r9d
	movl	-116(%rbp), %r12d       # 4-byte Reload
	subl	%r11d, %r12d
	movl	-120(%rbp), %r11d       # 4-byte Reload
	subl	%r14d, %r11d
	movl	-124(%rbp), %r14d       # 4-byte Reload
	subl	%r9d, %r14d
	movl	%r12d, %r9d
	imull	%r9d, %r9d
	movl	%r11d, %r13d
	imull	%r13d, %r13d
	movl	%r14d, %edi
	imull	%edi, %edi
	addl	%r13d, %r9d
	addl	%edi, %r9d
	movl	%r9d, %edi
	imull	%edi, %edi
	imull	%r9d, %edi
	imull	%edi, %r9d
	imull	$15, %edi, %edi
	addl	$-20, %edi
	imull	%edi, %r9d
	imull	%r9d, %r12d
	addl	%r12d, %eax
	imull	%r9d, %r11d
	addl	%r11d, %ecx
	imull	%r9d, %r14d
	addl	%r14d, %edx
	addq	$1, %rsi
	movq	-112(%rbp), %rdi        # 8-byte Reload
	shlq	$5, %rdi
	addq	%rsi, %rdi
	movl	(%r8,%rdi,4), %r9d
	movslq	%r9d, %rdi
	movl	(%r10,%rdi,4), %r11d
	movslq	%r9d, %rdi
	movl	(%rbx,%rdi,4), %r14d
	movslq	%r9d, %rdi
	movl	(%r15,%rdi,4), %r9d
	movl	-116(%rbp), %r12d       # 4-byte Reload
	subl	%r11d, %r12d
	movl	-120(%rbp), %r11d       # 4-byte Reload
	subl	%r14d, %r11d
	movl	-124(%rbp), %r14d       # 4-byte Reload
	subl	%r9d, %r14d
	movl	%r12d, %r9d
	imull	%r9d, %r9d
	movl	%r11d, %r13d
	imull	%r13d, %r13d
	movl	%r14d, %edi
	imull	%edi, %edi
	addl	%r13d, %r9d
	addl	%edi, %r9d
	movl	%r9d, %edi
	imull	%edi, %edi
	imull	%r9d, %edi
	imull	%edi, %r9d
	imull	$15, %edi, %edi
	addl	$-20, %edi
	imull	%edi, %r9d
	imull	%r9d, %r12d
	addl	%r12d, %eax
	imull	%r9d, %r11d
	addl	%r11d, %ecx
	imull	%r9d, %r14d
	addl	%r14d, %edx
	addq	$1, %rsi
	movq	-112(%rbp), %rdi        # 8-byte Reload
	shlq	$5, %rdi
	addq	%rsi, %rdi
	movl	(%r8,%rdi,4), %r9d
	movslq	%r9d, %rdi
	movl	(%r10,%rdi,4), %r11d
	movslq	%r9d, %rdi
	movl	(%rbx,%rdi,4), %r14d
	movslq	%r9d, %rdi
	movl	(%r15,%rdi,4), %r9d
	movl	-116(%rbp), %r12d       # 4-byte Reload
	subl	%r11d, %r12d
	movl	-120(%rbp), %r11d       # 4-byte Reload
	subl	%r14d, %r11d
	movl	-124(%rbp), %r14d       # 4-byte Reload
	subl	%r9d, %r14d
	movl	%r12d, %r9d
	imull	%r9d, %r9d
	movl	%r11d, %r13d
	imull	%r13d, %r13d
	movl	%r14d, %edi
	imull	%edi, %edi
	addl	%r13d, %r9d
	addl	%edi, %r9d
	movl	%r9d, %edi
	imull	%edi, %edi
	imull	%r9d, %edi
	imull	%edi, %r9d
	imull	$15, %edi, %edi
	addl	$-20, %edi
	imull	%edi, %r9d
	imull	%r9d, %r12d
	addl	%r12d, %eax
	imull	%r9d, %r11d
	addl	%r11d, %ecx
	imull	%r9d, %r14d
	addl	%r14d, %edx
	addq	$1, %rsi
	movq	-112(%rbp), %rdi        # 8-byte Reload
	shlq	$5, %rdi
	addq	%rsi, %rdi
	movl	(%r8,%rdi,4), %r9d
	movslq	%r9d, %rdi
	movl	(%r10,%rdi,4), %r11d
	movslq	%r9d, %rdi
	movl	(%rbx,%rdi,4), %r14d
	movslq	%r9d, %rdi
	movl	(%r15,%rdi,4), %r9d
	movl	-116(%rbp), %r12d       # 4-byte Reload
	subl	%r11d, %r12d
	movl	-120(%rbp), %r11d       # 4-byte Reload
	subl	%r14d, %r11d
	movl	-124(%rbp), %r14d       # 4-byte Reload
	subl	%r9d, %r14d
	movl	%r12d, %r9d
	imull	%r9d, %r9d
	movl	%r11d, %r13d
	imull	%r13d, %r13d
	movl	%r14d, %edi
	imull	%edi, %edi
	addl	%r13d, %r9d
	addl	%edi, %r9d
	movl	%r9d, %edi
	imull	%edi, %edi
	imull	%r9d, %edi
	imull	%edi, %r9d
	imull	$15, %edi, %edi
	addl	$-20, %edi
	imull	%edi, %r9d
	imull	%r9d, %r12d
	addl	%r12d, %eax
	imull	%r9d, %r11d
	addl	%r11d, %ecx
	imull	%r9d, %r14d
	addl	%r14d, %edx
	addq	$1, %rsi
	movq	-112(%rbp), %rdi        # 8-byte Reload
	shlq	$5, %rdi
	addq	%rsi, %rdi
	movl	(%r8,%rdi,4), %r9d
	movslq	%r9d, %rdi
	movl	(%r10,%rdi,4), %r11d
	movslq	%r9d, %rdi
	movl	(%rbx,%rdi,4), %r14d
	movslq	%r9d, %rdi
	movl	(%r15,%rdi,4), %r9d
	movl	-116(%rbp), %r12d       # 4-byte Reload
	subl	%r11d, %r12d
	movl	-120(%rbp), %r11d       # 4-byte Reload
	subl	%r14d, %r11d
	movl	-124(%rbp), %r14d       # 4-byte Reload
	subl	%r9d, %r14d
	movl	%r12d, %r9d
	imull	%r9d, %r9d
	movl	%r11d, %r13d
	imull	%r13d, %r13d
	movl	%r14d, %edi
	imull	%edi, %edi
	addl	%r13d, %r9d
	addl	%edi, %r9d
	movl	%r9d, %edi
	imull	%edi, %edi
	imull	%r9d, %edi
	imull	%edi, %r9d
	imull	$15, %edi, %edi
	addl	$-20, %edi
	imull	%edi, %r9d
	imull	%r9d, %r12d
	addl	%r12d, %eax
	imull	%r9d, %r11d
	addl	%r11d, %ecx
	imull	%r9d, %r14d
	addl	%r14d, %edx
	addq	$1, %rsi
	movq	-112(%rbp), %rdi        # 8-byte Reload
	shlq	$5, %rdi
	addq	%rsi, %rdi
	movl	(%r8,%rdi,4), %r9d
	movslq	%r9d, %rdi
	movl	(%r10,%rdi,4), %r11d
	movslq	%r9d, %rdi
	movl	(%rbx,%rdi,4), %r14d
	movslq	%r9d, %rdi
	movl	(%r15,%rdi,4), %r9d
	movl	-116(%rbp), %r12d       # 4-byte Reload
	subl	%r11d, %r12d
	movl	-120(%rbp), %r11d       # 4-byte Reload
	subl	%r14d, %r11d
	movl	-124(%rbp), %r14d       # 4-byte Reload
	subl	%r9d, %r14d
	movl	%r12d, %r9d
	imull	%r9d, %r9d
	movl	%r11d, %r13d
	imull	%r13d, %r13d
	movl	%r14d, %edi
	imull	%edi, %edi
	addl	%r13d, %r9d
	addl	%edi, %r9d
	movl	%r9d, %edi
	imull	%edi, %edi
	imull	%r9d, %edi
	imull	%edi, %r9d
	imull	$15, %edi, %edi
	addl	$-20, %edi
	imull	%edi, %r9d
	imull	%r9d, %r12d
	addl	%r12d, %eax
	imull	%r9d, %r11d
	addl	%r11d, %ecx
	imull	%r9d, %r14d
	addl	%r14d, %edx
	addq	$1, %rsi
	movq	-112(%rbp), %rdi        # 8-byte Reload
	shlq	$5, %rdi
	addq	%rsi, %rdi
	movl	(%r8,%rdi,4), %r9d
	movslq	%r9d, %rdi
	movl	(%r10,%rdi,4), %r11d
	movslq	%r9d, %rdi
	movl	(%rbx,%rdi,4), %r14d
	movslq	%r9d, %rdi
	movl	(%r15,%rdi,4), %r9d
	movl	-116(%rbp), %r12d       # 4-byte Reload
	subl	%r11d, %r12d
	movl	-120(%rbp), %r11d       # 4-byte Reload
	subl	%r14d, %r11d
	movl	-124(%rbp), %r14d       # 4-byte Reload
	subl	%r9d, %r14d
	movl	%r12d, %r9d
	imull	%r9d, %r9d
	movl	%r11d, %r13d
	imull	%r13d, %r13d
	movl	%r14d, %edi
	imull	%edi, %edi
	addl	%r13d, %r9d
	addl	%edi, %r9d
	movl	%r9d, %edi
	imull	%edi, %edi
	imull	%r9d, %edi
	imull	%edi, %r9d
	imull	$15, %edi, %edi
	addl	$-20, %edi
	imull	%edi, %r9d
	imull	%r9d, %r12d
	addl	%r12d, %eax
	imull	%r9d, %r11d
	addl	%r11d, %ecx
	imull	%r9d, %r14d
	addl	%r14d, %edx
	addq	$1, %rsi
	movq	-112(%rbp), %rdi        # 8-byte Reload
	shlq	$5, %rdi
	addq	%rsi, %rdi
	movl	(%r8,%rdi,4), %r9d
	movslq	%r9d, %rdi
	movl	(%r10,%rdi,4), %r11d
	movslq	%r9d, %rdi
	movl	(%rbx,%rdi,4), %r14d
	movslq	%r9d, %rdi
	movl	(%r15,%rdi,4), %r9d
	movl	-116(%rbp), %r12d       # 4-byte Reload
	subl	%r11d, %r12d
	movl	-120(%rbp), %r11d       # 4-byte Reload
	subl	%r14d, %r11d
	movl	-124(%rbp), %r14d       # 4-byte Reload
	subl	%r9d, %r14d
	movl	%r12d, %r9d
	imull	%r9d, %r9d
	movl	%r11d, %r13d
	imull	%r13d, %r13d
	movl	%r14d, %edi
	imull	%edi, %edi
	addl	%r13d, %r9d
	addl	%edi, %r9d
	movl	%r9d, %edi
	imull	%edi, %edi
	imull	%r9d, %edi
	imull	%edi, %r9d
	imull	$15, %edi, %edi
	addl	$-20, %edi
	imull	%edi, %r9d
	imull	%r9d, %r12d
	addl	%r12d, %eax
	imull	%r9d, %r11d
	addl	%r11d, %ecx
	imull	%r9d, %r14d
	addl	%r14d, %edx
	addq	$1, %rsi
	movq	-112(%rbp), %rdi        # 8-byte Reload
	shlq	$5, %rdi
	addq	%rsi, %rdi
	movl	(%r8,%rdi,4), %r9d
	movslq	%r9d, %rdi
	movl	(%r10,%rdi,4), %r11d
	movslq	%r9d, %rdi
	movl	(%rbx,%rdi,4), %r14d
	movslq	%r9d, %rdi
	movl	(%r15,%rdi,4), %r9d
	movl	-116(%rbp), %r12d       # 4-byte Reload
	subl	%r11d, %r12d
	movl	-120(%rbp), %r11d       # 4-byte Reload
	subl	%r14d, %r11d
	movl	-124(%rbp), %r14d       # 4-byte Reload
	subl	%r9d, %r14d
	movl	%r12d, %r9d
	imull	%r9d, %r9d
	movl	%r11d, %r13d
	imull	%r13d, %r13d
	movl	%r14d, %edi
	imull	%edi, %edi
	addl	%r13d, %r9d
	addl	%edi, %r9d
	movl	%r9d, %edi
	imull	%edi, %edi
	imull	%r9d, %edi
	imull	%edi, %r9d
	imull	$15, %edi, %edi
	addl	$-20, %edi
	imull	%edi, %r9d
	imull	%r9d, %r12d
	addl	%r12d, %eax
	imull	%r9d, %r11d
	addl	%r11d, %ecx
	imull	%r9d, %r14d
	addl	%r14d, %edx
	addq	$1, %rsi
	movq	-112(%rbp), %rdi        # 8-byte Reload
	shlq	$5, %rdi
	addq	%rsi, %rdi
	movl	(%r8,%rdi,4), %r9d
	movslq	%r9d, %rdi
	movl	(%r10,%rdi,4), %r11d
	movslq	%r9d, %rdi
	movl	(%rbx,%rdi,4), %r14d
	movslq	%r9d, %rdi
	movl	(%r15,%rdi,4), %r9d
	movl	-116(%rbp), %r12d       # 4-byte Reload
	subl	%r11d, %r12d
	movl	-120(%rbp), %r11d       # 4-byte Reload
	subl	%r14d, %r11d
	movl	-124(%rbp), %r14d       # 4-byte Reload
	subl	%r9d, %r14d
	movl	%r12d, %r9d
	imull	%r9d, %r9d
	movl	%r11d, %r13d
	imull	%r13d, %r13d
	movl	%r14d, %edi
	imull	%edi, %edi
	addl	%r13d, %r9d
	addl	%edi, %r9d
	movl	%r9d, %edi
	imull	%edi, %edi
	imull	%r9d, %edi
	imull	%edi, %r9d
	imull	$15, %edi, %edi
	addl	$-20, %edi
	imull	%edi, %r9d
	imull	%r9d, %r12d
	addl	%r12d, %eax
	imull	%r9d, %r11d
	addl	%r11d, %ecx
	imull	%r9d, %r14d
	addl	%r14d, %edx
	addq	$1, %rsi
	movq	-112(%rbp), %rdi        # 8-byte Reload
	shlq	$5, %rdi
	addq	%rsi, %rdi
	movl	(%r8,%rdi,4), %r9d
	movslq	%r9d, %rdi
	movl	(%r10,%rdi,4), %r11d
	movslq	%r9d, %rdi
	movl	(%rbx,%rdi,4), %r14d
	movslq	%r9d, %rdi
	movl	(%r15,%rdi,4), %r9d
	movl	-116(%rbp), %r12d       # 4-byte Reload
	subl	%r11d, %r12d
	movl	-120(%rbp), %r11d       # 4-byte Reload
	subl	%r14d, %r11d
	movl	-124(%rbp), %r14d       # 4-byte Reload
	subl	%r9d, %r14d
	movl	%r12d, %r9d
	imull	%r9d, %r9d
	movl	%r11d, %r13d
	imull	%r13d, %r13d
	movl	%r14d, %edi
	imull	%edi, %edi
	addl	%r13d, %r9d
	addl	%edi, %r9d
	movl	%r9d, %edi
	imull	%edi, %edi
	imull	%r9d, %edi
	imull	%edi, %r9d
	imull	$15, %edi, %edi
	addl	$-20, %edi
	imull	%edi, %r9d
	imull	%r9d, %r12d
	addl	%r12d, %eax
	imull	%r9d, %r11d
	addl	%r11d, %ecx
	imull	%r9d, %r14d
	addl	%r14d, %edx
	addq	$1, %rsi
	movq	-112(%rbp), %rdi        # 8-byte Reload
	shlq	$5, %rdi
	addq	%rsi, %rdi
	movl	(%r8,%rdi,4), %r9d
	movslq	%r9d, %rdi
	movl	(%r10,%rdi,4), %r11d
	movslq	%r9d, %rdi
	movl	(%rbx,%rdi,4), %r14d
	movslq	%r9d, %rdi
	movl	(%r15,%rdi,4), %r9d
	movl	-116(%rbp), %r12d       # 4-byte Reload
	subl	%r11d, %r12d
	movl	-120(%rbp), %r11d       # 4-byte Reload
	subl	%r14d, %r11d
	movl	-124(%rbp), %r14d       # 4-byte Reload
	subl	%r9d, %r14d
	movl	%r12d, %r9d
	imull	%r9d, %r9d
	movl	%r11d, %r13d
	imull	%r13d, %r13d
	movl	%r14d, %edi
	imull	%edi, %edi
	addl	%r13d, %r9d
	addl	%edi, %r9d
	movl	%r9d, %edi
	imull	%edi, %edi
	imull	%r9d, %edi
	imull	%edi, %r9d
	imull	$15, %edi, %edi
	addl	$-20, %edi
	imull	%edi, %r9d
	imull	%r9d, %r12d
	addl	%r12d, %eax
	imull	%r9d, %r11d
	addl	%r11d, %ecx
	imull	%r9d, %r14d
	addl	%r14d, %edx
	addq	$1, %rsi
	movq	-112(%rbp), %rdi        # 8-byte Reload
	shlq	$5, %rdi
	addq	%rsi, %rdi
	movl	(%r8,%rdi,4), %r9d
	movslq	%r9d, %rdi
	movl	(%r10,%rdi,4), %r11d
	movslq	%r9d, %rdi
	movl	(%rbx,%rdi,4), %r14d
	movslq	%r9d, %rdi
	movl	(%r15,%rdi,4), %r9d
	movl	-116(%rbp), %r12d       # 4-byte Reload
	subl	%r11d, %r12d
	movl	-120(%rbp), %r11d       # 4-byte Reload
	subl	%r14d, %r11d
	movl	-124(%rbp), %r14d       # 4-byte Reload
	subl	%r9d, %r14d
	movl	%r12d, %r9d
	imull	%r9d, %r9d
	movl	%r11d, %r13d
	imull	%r13d, %r13d
	movl	%r14d, %edi
	imull	%edi, %edi
	addl	%r13d, %r9d
	addl	%edi, %r9d
	movl	%r9d, %edi
	imull	%edi, %edi
	imull	%r9d, %edi
	imull	%edi, %r9d
	imull	$15, %edi, %edi
	addl	$-20, %edi
	imull	%edi, %r9d
	imull	%r9d, %r12d
	addl	%r12d, %eax
	imull	%r9d, %r11d
	addl	%r11d, %ecx
	imull	%r9d, %r14d
	addl	%r14d, %edx
	addq	$1, %rsi
	movq	-112(%rbp), %rdi        # 8-byte Reload
	shlq	$5, %rdi
	addq	%rsi, %rdi
	movl	(%r8,%rdi,4), %r9d
	movslq	%r9d, %rdi
	movl	(%r10,%rdi,4), %r11d
	movslq	%r9d, %rdi
	movl	(%rbx,%rdi,4), %r14d
	movslq	%r9d, %rdi
	movl	(%r15,%rdi,4), %r9d
	movl	-116(%rbp), %r12d       # 4-byte Reload
	subl	%r11d, %r12d
	movl	-120(%rbp), %r11d       # 4-byte Reload
	subl	%r14d, %r11d
	movl	-124(%rbp), %r14d       # 4-byte Reload
	subl	%r9d, %r14d
	movl	%r12d, %r9d
	imull	%r9d, %r9d
	movl	%r11d, %r13d
	imull	%r13d, %r13d
	movl	%r14d, %edi
	imull	%edi, %edi
	addl	%r13d, %r9d
	addl	%edi, %r9d
	movl	%r9d, %edi
	imull	%edi, %edi
	imull	%r9d, %edi
	imull	%edi, %r9d
	imull	$15, %edi, %edi
	addl	$-20, %edi
	imull	%edi, %r9d
	imull	%r9d, %r12d
	addl	%r12d, %eax
	imull	%r9d, %r11d
	addl	%r11d, %ecx
	imull	%r9d, %r14d
	addl	%r14d, %edx
	addq	$1, %rsi
	movq	-112(%rbp), %rdi        # 8-byte Reload
	shlq	$5, %rdi
	addq	%rsi, %rdi
	movl	(%r8,%rdi,4), %r9d
	movslq	%r9d, %rdi
	movl	(%r10,%rdi,4), %r11d
	movslq	%r9d, %rdi
	movl	(%rbx,%rdi,4), %r14d
	movslq	%r9d, %rdi
	movl	(%r15,%rdi,4), %r9d
	movl	-116(%rbp), %r12d       # 4-byte Reload
	subl	%r11d, %r12d
	movl	-120(%rbp), %r11d       # 4-byte Reload
	subl	%r14d, %r11d
	movl	-124(%rbp), %r14d       # 4-byte Reload
	subl	%r9d, %r14d
	movl	%r12d, %r9d
	imull	%r9d, %r9d
	movl	%r11d, %r13d
	imull	%r13d, %r13d
	movl	%r14d, %edi
	imull	%edi, %edi
	addl	%r13d, %r9d
	addl	%edi, %r9d
	movl	%r9d, %edi
	imull	%edi, %edi
	imull	%r9d, %edi
	imull	%edi, %r9d
	imull	$15, %edi, %edi
	addl	$-20, %edi
	imull	%edi, %r9d
	imull	%r9d, %r12d
	addl	%r12d, %eax
	imull	%r9d, %r11d
	addl	%r11d, %ecx
	imull	%r9d, %r14d
	addl	%r14d, %edx
	addq	$1, %rsi
	movq	-112(%rbp), %rdi        # 8-byte Reload
	shlq	$5, %rdi
	addq	%rsi, %rdi
	movl	(%r8,%rdi,4), %r9d
	movslq	%r9d, %rdi
	movl	(%r10,%rdi,4), %r11d
	movslq	%r9d, %rdi
	movl	(%rbx,%rdi,4), %r14d
	movslq	%r9d, %rdi
	movl	(%r15,%rdi,4), %r9d
	movl	-116(%rbp), %r12d       # 4-byte Reload
	subl	%r11d, %r12d
	movl	-120(%rbp), %r11d       # 4-byte Reload
	subl	%r14d, %r11d
	movl	-124(%rbp), %r14d       # 4-byte Reload
	subl	%r9d, %r14d
	movl	%r12d, %r9d
	imull	%r9d, %r9d
	movl	%r11d, %r13d
	imull	%r13d, %r13d
	movl	%r14d, %edi
	imull	%edi, %edi
	addl	%r13d, %r9d
	addl	%edi, %r9d
	movl	%r9d, %edi
	imull	%edi, %edi
	imull	%r9d, %edi
	imull	%edi, %r9d
	imull	$15, %edi, %edi
	addl	$-20, %edi
	imull	%edi, %r9d
	imull	%r9d, %r12d
	addl	%r12d, %eax
	imull	%r9d, %r11d
	addl	%r11d, %ecx
	imull	%r9d, %r14d
	addl	%r14d, %edx
	addq	$1, %rsi
	movq	-112(%rbp), %rdi        # 8-byte Reload
	shlq	$5, %rdi
	addq	%rsi, %rdi
	movl	(%r8,%rdi,4), %r9d
	movslq	%r9d, %rdi
	movl	(%r10,%rdi,4), %r11d
	movslq	%r9d, %rdi
	movl	(%rbx,%rdi,4), %r14d
	movslq	%r9d, %rdi
	movl	(%r15,%rdi,4), %r9d
	movl	-116(%rbp), %r12d       # 4-byte Reload
	subl	%r11d, %r12d
	movl	-120(%rbp), %r11d       # 4-byte Reload
	subl	%r14d, %r11d
	movl	-124(%rbp), %r14d       # 4-byte Reload
	subl	%r9d, %r14d
	movl	%r12d, %r9d
	imull	%r9d, %r9d
	movl	%r11d, %r13d
	imull	%r13d, %r13d
	movl	%r14d, %edi
	imull	%edi, %edi
	addl	%r13d, %r9d
	addl	%edi, %r9d
	movl	%r9d, %edi
	imull	%edi, %edi
	imull	%r9d, %edi
	imull	%edi, %r9d
	imull	$15, %edi, %edi
	addl	$-20, %edi
	imull	%edi, %r9d
	imull	%r9d, %r12d
	addl	%r12d, %eax
	imull	%r9d, %r11d
	addl	%r11d, %ecx
	imull	%r9d, %r14d
	addl	%r14d, %edx
	addq	$1, %rsi
	movq	-112(%rbp), %rdi        # 8-byte Reload
	shlq	$5, %rdi
	addq	%rsi, %rdi
	movl	(%r8,%rdi,4), %r9d
	movslq	%r9d, %rdi
	movl	(%r10,%rdi,4), %r11d
	movslq	%r9d, %rdi
	movl	(%rbx,%rdi,4), %r14d
	movslq	%r9d, %rdi
	movl	(%r15,%rdi,4), %r9d
	movl	-116(%rbp), %r12d       # 4-byte Reload
	subl	%r11d, %r12d
	movl	-120(%rbp), %r11d       # 4-byte Reload
	subl	%r14d, %r11d
	movl	-124(%rbp), %r14d       # 4-byte Reload
	subl	%r9d, %r14d
	movl	%r12d, %r9d
	imull	%r9d, %r9d
	movl	%r11d, %r13d
	imull	%r13d, %r13d
	movl	%r14d, %edi
	imull	%edi, %edi
	addl	%r13d, %r9d
	addl	%edi, %r9d
	movl	%r9d, %edi
	imull	%edi, %edi
	imull	%r9d, %edi
	imull	%edi, %r9d
	imull	$15, %edi, %edi
	addl	$-20, %edi
	imull	%edi, %r9d
	imull	%r9d, %r12d
	addl	%r12d, %eax
	imull	%r9d, %r11d
	addl	%r11d, %ecx
	imull	%r9d, %r14d
	addl	%r14d, %edx
	addq	$1, %rsi
	movq	-112(%rbp), %rdi        # 8-byte Reload
	shlq	$5, %rdi
	addq	%rsi, %rdi
	movl	(%r8,%rdi,4), %r9d
	movslq	%r9d, %rdi
	movl	(%r10,%rdi,4), %r11d
	movslq	%r9d, %rdi
	movl	(%rbx,%rdi,4), %r14d
	movslq	%r9d, %rdi
	movl	(%r15,%rdi,4), %r9d
	movl	-116(%rbp), %r12d       # 4-byte Reload
	subl	%r11d, %r12d
	movl	-120(%rbp), %r11d       # 4-byte Reload
	subl	%r14d, %r11d
	movl	-124(%rbp), %r14d       # 4-byte Reload
	subl	%r9d, %r14d
	movl	%r12d, %r9d
	imull	%r9d, %r9d
	movl	%r11d, %r13d
	imull	%r13d, %r13d
	movl	%r14d, %edi
	imull	%edi, %edi
	addl	%r13d, %r9d
	addl	%edi, %r9d
	movl	%r9d, %edi
	imull	%edi, %edi
	imull	%r9d, %edi
	imull	%edi, %r9d
	imull	$15, %edi, %edi
	addl	$-20, %edi
	imull	%edi, %r9d
	imull	%r9d, %r12d
	addl	%r12d, %eax
	imull	%r9d, %r11d
	addl	%r11d, %ecx
	imull	%r9d, %r14d
	addl	%r14d, %edx
	addq	$1, %rsi
	movq	-112(%rbp), %rdi        # 8-byte Reload
	shlq	$5, %rdi
	addq	%rsi, %rdi
	movl	(%r8,%rdi,4), %r9d
	movslq	%r9d, %rdi
	movl	(%r10,%rdi,4), %r11d
	movslq	%r9d, %rdi
	movl	(%rbx,%rdi,4), %r14d
	movslq	%r9d, %rdi
	movl	(%r15,%rdi,4), %r9d
	movl	-116(%rbp), %r12d       # 4-byte Reload
	subl	%r11d, %r12d
	movl	-120(%rbp), %r11d       # 4-byte Reload
	subl	%r14d, %r11d
	movl	-124(%rbp), %r14d       # 4-byte Reload
	subl	%r9d, %r14d
	movl	%r12d, %r9d
	imull	%r9d, %r9d
	movl	%r11d, %r13d
	imull	%r13d, %r13d
	movl	%r14d, %edi
	imull	%edi, %edi
	addl	%r13d, %r9d
	addl	%edi, %r9d
	movl	%r9d, %edi
	imull	%edi, %edi
	imull	%r9d, %edi
	imull	%edi, %r9d
	imull	$15, %edi, %edi
	addl	$-20, %edi
	imull	%edi, %r9d
	imull	%r9d, %r12d
	addl	%r12d, %eax
	imull	%r9d, %r11d
	addl	%r11d, %ecx
	imull	%r9d, %r14d
	addl	%r14d, %edx
	addq	$1, %rsi
	movq	-112(%rbp), %rdi        # 8-byte Reload
	shlq	$5, %rdi
	addq	%rsi, %rdi
	movl	(%r8,%rdi,4), %r9d
	movslq	%r9d, %rdi
	movl	(%r10,%rdi,4), %r11d
	movslq	%r9d, %rdi
	movl	(%rbx,%rdi,4), %r14d
	movslq	%r9d, %rdi
	movl	(%r15,%rdi,4), %r9d
	movl	-116(%rbp), %r12d       # 4-byte Reload
	subl	%r11d, %r12d
	movl	-120(%rbp), %r11d       # 4-byte Reload
	subl	%r14d, %r11d
	movl	-124(%rbp), %r14d       # 4-byte Reload
	subl	%r9d, %r14d
	movl	%r12d, %r9d
	imull	%r9d, %r9d
	movl	%r11d, %r13d
	imull	%r13d, %r13d
	movl	%r14d, %edi
	imull	%edi, %edi
	addl	%r13d, %r9d
	addl	%edi, %r9d
	movl	%r9d, %edi
	imull	%edi, %edi
	imull	%r9d, %edi
	imull	%edi, %r9d
	imull	$15, %edi, %edi
	addl	$-20, %edi
	imull	%edi, %r9d
	imull	%r9d, %r12d
	addl	%r12d, %eax
	imull	%r9d, %r11d
	addl	%r11d, %ecx
	imull	%r9d, %r14d
	addl	%r14d, %edx
	addq	$1, %rsi
	movq	-112(%rbp), %rdi        # 8-byte Reload
	shlq	$5, %rdi
	addq	%rsi, %rdi
	movl	(%r8,%rdi,4), %r9d
	movslq	%r9d, %rdi
	movl	(%r10,%rdi,4), %r11d
	movslq	%r9d, %rdi
	movl	(%rbx,%rdi,4), %r14d
	movslq	%r9d, %rdi
	movl	(%r15,%rdi,4), %r9d
	movl	-116(%rbp), %r12d       # 4-byte Reload
	subl	%r11d, %r12d
	movl	-120(%rbp), %r11d       # 4-byte Reload
	subl	%r14d, %r11d
	movl	-124(%rbp), %r14d       # 4-byte Reload
	subl	%r9d, %r14d
	movl	%r12d, %r9d
	imull	%r9d, %r9d
	movl	%r11d, %r13d
	imull	%r13d, %r13d
	movl	%r14d, %edi
	imull	%edi, %edi
	addl	%r13d, %r9d
	addl	%edi, %r9d
	movl	%r9d, %edi
	imull	%edi, %edi
	imull	%r9d, %edi
	imull	%edi, %r9d
	imull	$15, %edi, %edi
	addl	$-20, %edi
	imull	%edi, %r9d
	imull	%r9d, %r12d
	addl	%r12d, %eax
	imull	%r9d, %r11d
	addl	%r11d, %ecx
	imull	%r9d, %r14d
	addl	%r14d, %edx
	addq	$1, %rsi
	movq	-112(%rbp), %rdi        # 8-byte Reload
	shlq	$5, %rdi
	addq	%rsi, %rdi
	movl	(%r8,%rdi,4), %r9d
	movslq	%r9d, %rdi
	movl	(%r10,%rdi,4), %r11d
	movslq	%r9d, %rdi
	movl	(%rbx,%rdi,4), %r14d
	movslq	%r9d, %rdi
	movl	(%r15,%rdi,4), %r9d
	movl	-116(%rbp), %r12d       # 4-byte Reload
	subl	%r11d, %r12d
	movl	-120(%rbp), %r11d       # 4-byte Reload
	subl	%r14d, %r11d
	movl	-124(%rbp), %r14d       # 4-byte Reload
	subl	%r9d, %r14d
	movl	%r12d, %r9d
	imull	%r9d, %r9d
	movl	%r11d, %r13d
	imull	%r13d, %r13d
	movl	%r14d, %edi
	imull	%edi, %edi
	addl	%r13d, %r9d
	addl	%edi, %r9d
	movl	%r9d, %edi
	imull	%edi, %edi
	imull	%r9d, %edi
	imull	%edi, %r9d
	imull	$15, %edi, %edi
	addl	$-20, %edi
	imull	%edi, %r9d
	imull	%r9d, %r12d
	addl	%r12d, %eax
	imull	%r9d, %r11d
	addl	%r11d, %ecx
	imull	%r9d, %r14d
	addl	%r14d, %edx
	addq	$1, %rsi
	movq	-112(%rbp), %rdi        # 8-byte Reload
	shlq	$5, %rdi
	addq	%rsi, %rdi
	movl	(%r8,%rdi,4), %r9d
	movslq	%r9d, %rdi
	movl	(%r10,%rdi,4), %r11d
	movslq	%r9d, %rdi
	movl	(%rbx,%rdi,4), %r14d
	movslq	%r9d, %rdi
	movl	(%r15,%rdi,4), %r9d
	movl	-116(%rbp), %r12d       # 4-byte Reload
	subl	%r11d, %r12d
	movl	-120(%rbp), %r11d       # 4-byte Reload
	subl	%r14d, %r11d
	movl	-124(%rbp), %r14d       # 4-byte Reload
	subl	%r9d, %r14d
	movl	%r12d, %r9d
	imull	%r9d, %r9d
	movl	%r11d, %r13d
	imull	%r13d, %r13d
	movl	%r14d, %edi
	imull	%edi, %edi
	addl	%r13d, %r9d
	addl	%edi, %r9d
	movl	%r9d, %edi
	imull	%edi, %edi
	imull	%r9d, %edi
	imull	%edi, %r9d
	imull	$15, %edi, %edi
	addl	$-20, %edi
	imull	%edi, %r9d
	imull	%r9d, %r12d
	addl	%r12d, %eax
	imull	%r9d, %r11d
	addl	%r11d, %ecx
	imull	%r9d, %r14d
	addl	%r14d, %edx
	addq	$1, %rsi
	movq	-112(%rbp), %rdi        # 8-byte Reload
	shlq	$5, %rdi
	addq	%rsi, %rdi
	movl	(%r8,%rdi,4), %r9d
	movslq	%r9d, %rdi
	movl	(%r10,%rdi,4), %r11d
	movslq	%r9d, %rdi
	movl	(%rbx,%rdi,4), %r14d
	movslq	%r9d, %rdi
	movl	(%r15,%rdi,4), %r9d
	movl	-116(%rbp), %r12d       # 4-byte Reload
	subl	%r11d, %r12d
	movl	-120(%rbp), %r11d       # 4-byte Reload
	subl	%r14d, %r11d
	movl	-124(%rbp), %r14d       # 4-byte Reload
	subl	%r9d, %r14d
	movl	%r12d, %r9d
	imull	%r9d, %r9d
	movl	%r11d, %r13d
	imull	%r13d, %r13d
	movl	%r14d, %edi
	imull	%edi, %edi
	addl	%r13d, %r9d
	addl	%edi, %r9d
	movl	%r9d, %edi
	imull	%edi, %edi
	imull	%r9d, %edi
	imull	%edi, %r9d
	imull	$15, %edi, %edi
	addl	$-20, %edi
	imull	%edi, %r9d
	imull	%r9d, %r12d
	addl	%r12d, %eax
	imull	%r9d, %r11d
	addl	%r11d, %ecx
	imull	%r9d, %r14d
	addl	%r14d, %edx
	addq	$1, %rsi
	movq	-112(%rbp), %rdi        # 8-byte Reload
	shlq	$5, %rdi
	addq	%rsi, %rdi
	movl	(%r8,%rdi,4), %r9d
	movslq	%r9d, %rdi
	movl	(%r10,%rdi,4), %r11d
	movslq	%r9d, %rdi
	movl	(%rbx,%rdi,4), %r14d
	movslq	%r9d, %rdi
	movl	(%r15,%rdi,4), %r9d
	movl	-116(%rbp), %r12d       # 4-byte Reload
	subl	%r11d, %r12d
	movl	-120(%rbp), %r11d       # 4-byte Reload
	subl	%r14d, %r11d
	movl	-124(%rbp), %r14d       # 4-byte Reload
	subl	%r9d, %r14d
	movl	%r12d, %r9d
	imull	%r9d, %r9d
	movl	%r11d, %r13d
	imull	%r13d, %r13d
	movl	%r14d, %edi
	imull	%edi, %edi
	addl	%r13d, %r9d
	addl	%edi, %r9d
	movl	%r9d, %edi
	imull	%edi, %edi
	imull	%r9d, %edi
	imull	%edi, %r9d
	imull	$15, %edi, %edi
	addl	$-20, %edi
	imull	%edi, %r9d
	imull	%r9d, %r12d
	addl	%r12d, %eax
	imull	%r9d, %r11d
	addl	%r11d, %ecx
	imull	%r9d, %r14d
	addl	%r14d, %edx
	addq	$1, %rsi
	movq	-112(%rbp), %rdi        # 8-byte Reload
	shlq	$5, %rdi
	addq	%rsi, %rdi
	movl	(%r8,%rdi,4), %r9d
	movslq	%r9d, %rdi
	movl	(%r10,%rdi,4), %r11d
	movslq	%r9d, %rdi
	movl	(%rbx,%rdi,4), %r14d
	movslq	%r9d, %rdi
	movl	(%r15,%rdi,4), %r9d
	movl	-116(%rbp), %r12d       # 4-byte Reload
	subl	%r11d, %r12d
	movl	-120(%rbp), %r11d       # 4-byte Reload
	subl	%r14d, %r11d
	movl	-124(%rbp), %r14d       # 4-byte Reload
	subl	%r9d, %r14d
	movl	%r12d, %r9d
	imull	%r9d, %r9d
	movl	%r11d, %r13d
	imull	%r13d, %r13d
	movl	%r14d, %edi
	imull	%edi, %edi
	addl	%r13d, %r9d
	addl	%edi, %r9d
	movl	%r9d, %edi
	imull	%edi, %edi
	imull	%r9d, %edi
	imull	%edi, %r9d
	imull	$15, %edi, %edi
	addl	$-20, %edi
	imull	%edi, %r9d
	imull	%r9d, %r12d
	addl	%r12d, %eax
	imull	%r9d, %r11d
	addl	%r11d, %ecx
	imull	%r9d, %r14d
	addl	%r14d, %edx
	addq	$1, %rsi
	movq	-112(%rbp), %rdi        # 8-byte Reload
	shlq	$5, %rdi
	addq	%rsi, %rdi
	movl	(%r8,%rdi,4), %r9d
	movslq	%r9d, %rdi
	movl	(%r10,%rdi,4), %r11d
	movslq	%r9d, %rdi
	movl	(%rbx,%rdi,4), %r14d
	movslq	%r9d, %rdi
	movl	(%r15,%rdi,4), %r9d
	movl	-116(%rbp), %r12d       # 4-byte Reload
	subl	%r11d, %r12d
	movl	-120(%rbp), %r11d       # 4-byte Reload
	subl	%r14d, %r11d
	movl	-124(%rbp), %r14d       # 4-byte Reload
	subl	%r9d, %r14d
	movl	%r12d, %r9d
	imull	%r9d, %r9d
	movl	%r11d, %r13d
	imull	%r13d, %r13d
	movl	%r14d, %edi
	imull	%edi, %edi
	addl	%r13d, %r9d
	addl	%edi, %r9d
	movl	%r9d, %edi
	imull	%edi, %edi
	imull	%r9d, %edi
	imull	%edi, %r9d
	imull	$15, %edi, %edi
	addl	$-20, %edi
	imull	%edi, %r9d
	imull	%r9d, %r12d
	addl	%r12d, %eax
	imull	%r9d, %r11d
	addl	%r11d, %ecx
	imull	%r9d, %r14d
	addl	%r14d, %edx
	addq	$1, %rsi
	movq	-112(%rbp), %rdi        # 8-byte Reload
	shlq	$5, %rdi
	addq	%rsi, %rdi
	movl	(%r8,%rdi,4), %r9d
	movslq	%r9d, %rdi
	movl	(%r10,%rdi,4), %r11d
	movslq	%r9d, %rdi
	movl	(%rbx,%rdi,4), %r14d
	movslq	%r9d, %rdi
	movl	(%r15,%rdi,4), %r9d
	movl	-116(%rbp), %r12d       # 4-byte Reload
	subl	%r11d, %r12d
	movl	-120(%rbp), %r11d       # 4-byte Reload
	subl	%r14d, %r11d
	movl	-124(%rbp), %r14d       # 4-byte Reload
	subl	%r9d, %r14d
	movl	%r12d, %r9d
	imull	%r9d, %r9d
	movl	%r11d, %r13d
	imull	%r13d, %r13d
	movl	%r14d, %edi
	imull	%edi, %edi
	addl	%r13d, %r9d
	addl	%edi, %r9d
	movl	%r9d, %edi
	imull	%edi, %edi
	imull	%r9d, %edi
	imull	%edi, %r9d
	imull	$15, %edi, %edi
	addl	$-20, %edi
	imull	%edi, %r9d
	imull	%r9d, %r12d
	addl	%r12d, %eax
	imull	%r9d, %r11d
	addl	%r11d, %ecx
	imull	%r9d, %r14d
	addl	%r14d, %edx
	addq	$1, %rsi
	movq	-112(%rbp), %rdi        # 8-byte Reload
	shlq	$5, %rdi
	addq	%rsi, %rdi
	movl	(%r8,%rdi,4), %r9d
	movslq	%r9d, %rdi
	movl	(%r10,%rdi,4), %r11d
	movslq	%r9d, %rdi
	movl	(%rbx,%rdi,4), %r14d
	movslq	%r9d, %rdi
	movl	(%r15,%rdi,4), %r9d
	movl	-116(%rbp), %r12d       # 4-byte Reload
	subl	%r11d, %r12d
	movl	-120(%rbp), %r11d       # 4-byte Reload
	subl	%r14d, %r11d
	movl	-124(%rbp), %r14d       # 4-byte Reload
	subl	%r9d, %r14d
	movl	%r12d, %r9d
	imull	%r9d, %r9d
	movl	%r11d, %r13d
	imull	%r13d, %r13d
	movl	%r14d, %edi
	imull	%edi, %edi
	addl	%r13d, %r9d
	addl	%edi, %r9d
	movl	%r9d, %edi
	imull	%edi, %edi
	imull	%r9d, %edi
	imull	%edi, %r9d
	imull	$15, %edi, %edi
	addl	$-20, %edi
	imull	%edi, %r9d
	imull	%r9d, %r12d
	addl	%r12d, %eax
	imull	%r9d, %r11d
	addl	%r11d, %ecx
	imull	%r9d, %r14d
	addl	%r14d, %edx
	addq	$1, %rsi
	movq	-112(%rbp), %rdi        # 8-byte Reload
	shlq	$5, %rdi
	addq	%rsi, %rdi
	movl	(%r8,%rdi,4), %r9d
	movslq	%r9d, %rdi
	movl	(%r10,%rdi,4), %r11d
	movslq	%r9d, %rdi
	movl	(%rbx,%rdi,4), %r14d
	movslq	%r9d, %rdi
	movl	(%r15,%rdi,4), %r9d
	movl	-116(%rbp), %r12d       # 4-byte Reload
	subl	%r11d, %r12d
	movl	-120(%rbp), %r11d       # 4-byte Reload
	subl	%r14d, %r11d
	movl	-124(%rbp), %r14d       # 4-byte Reload
	subl	%r9d, %r14d
	movl	%r12d, %r9d
	imull	%r9d, %r9d
	movl	%r11d, %r13d
	imull	%r13d, %r13d
	movl	%r14d, %edi
	imull	%edi, %edi
	addl	%r13d, %r9d
	addl	%edi, %r9d
	movl	%r9d, %edi
	imull	%edi, %edi
	imull	%r9d, %edi
	imull	%edi, %r9d
	imull	$15, %edi, %edi
	addl	$-20, %edi
	imull	%edi, %r9d
	imull	%r9d, %r12d
	addl	%r12d, %eax
	imull	%r9d, %r11d
	addl	%r11d, %ecx
	imull	%r9d, %r14d
	addl	%r14d, %edx
	addq	$1, %rsi
	movq	-112(%rbp), %rdi        # 8-byte Reload
	shlq	$5, %rdi
	addq	%rsi, %rdi
	movl	(%r8,%rdi,4), %r9d
	movslq	%r9d, %rdi
	movl	(%r10,%rdi,4), %r11d
	movslq	%r9d, %rdi
	movl	(%rbx,%rdi,4), %r14d
	movslq	%r9d, %rdi
	movl	(%r15,%rdi,4), %r9d
	movl	-116(%rbp), %r12d       # 4-byte Reload
	subl	%r11d, %r12d
	movl	-120(%rbp), %r11d       # 4-byte Reload
	subl	%r14d, %r11d
	movl	-124(%rbp), %r14d       # 4-byte Reload
	subl	%r9d, %r14d
	movl	%r12d, %r9d
	imull	%r9d, %r9d
	movl	%r11d, %r13d
	imull	%r13d, %r13d
	movl	%r14d, %edi
	imull	%edi, %edi
	addl	%r13d, %r9d
	addl	%edi, %r9d
	movl	%r9d, %edi
	imull	%edi, %edi
	imull	%r9d, %edi
	imull	%edi, %r9d
	imull	$15, %edi, %edi
	addl	$-20, %edi
	imull	%edi, %r9d
	imull	%r9d, %r12d
	addl	%r12d, %eax
	imull	%r9d, %r11d
	addl	%r11d, %ecx
	imull	%r9d, %r14d
	addl	%r14d, %edx
	addq	$1, %rsi
	movq	-112(%rbp), %rdi        # 8-byte Reload
	shlq	$5, %rdi
	addq	%rsi, %rdi
	movl	(%r8,%rdi,4), %r9d
	movslq	%r9d, %rdi
	movl	(%r10,%rdi,4), %r11d
	movslq	%r9d, %rdi
	movl	(%rbx,%rdi,4), %r14d
	movslq	%r9d, %rdi
	movl	(%r15,%rdi,4), %r9d
	movl	-116(%rbp), %r12d       # 4-byte Reload
	subl	%r11d, %r12d
	movl	-120(%rbp), %r11d       # 4-byte Reload
	subl	%r14d, %r11d
	movl	-124(%rbp), %r14d       # 4-byte Reload
	subl	%r9d, %r14d
	movl	%r12d, %r9d
	imull	%r9d, %r9d
	movl	%r11d, %r13d
	imull	%r13d, %r13d
	movl	%r14d, %edi
	imull	%edi, %edi
	addl	%r13d, %r9d
	addl	%edi, %r9d
	movl	%r9d, %edi
	imull	%edi, %edi
	imull	%r9d, %edi
	imull	%edi, %r9d
	imull	$15, %edi, %edi
	addl	$-20, %edi
	imull	%edi, %r9d
	imull	%r9d, %r12d
	addl	%r12d, %eax
	imull	%r9d, %r11d
	addl	%r11d, %ecx
	imull	%r9d, %r14d
	addl	%r14d, %edx
	addq	$1, %rsi
	movq	-112(%rbp), %rdi        # 8-byte Reload
	shlq	$5, %rdi
	addq	%rsi, %rdi
	movl	(%r8,%rdi,4), %r9d
	movslq	%r9d, %rdi
	movl	(%r10,%rdi,4), %r11d
	movslq	%r9d, %rdi
	movl	(%rbx,%rdi,4), %r14d
	movslq	%r9d, %rdi
	movl	(%r15,%rdi,4), %r9d
	movl	-116(%rbp), %r12d       # 4-byte Reload
	subl	%r11d, %r12d
	movl	-120(%rbp), %r11d       # 4-byte Reload
	subl	%r14d, %r11d
	movl	-124(%rbp), %r14d       # 4-byte Reload
	subl	%r9d, %r14d
	movl	%r12d, %r9d
	imull	%r9d, %r9d
	movl	%r11d, %r13d
	imull	%r13d, %r13d
	movl	%r14d, %edi
	imull	%edi, %edi
	addl	%r13d, %r9d
	addl	%edi, %r9d
	movl	%r9d, %edi
	imull	%edi, %edi
	imull	%r9d, %edi
	imull	%edi, %r9d
	imull	$15, %edi, %edi
	addl	$-20, %edi
	imull	%edi, %r9d
	imull	%r9d, %r12d
	addl	%r12d, %eax
	imull	%r9d, %r11d
	addl	%r11d, %ecx
	imull	%r9d, %r14d
	addl	%r14d, %edx
	addq	$1, %rsi
	movq	-112(%rbp), %rdi        # 8-byte Reload
	shlq	$5, %rdi
	addq	%rsi, %rdi
	movl	(%r8,%rdi,4), %r9d
	movslq	%r9d, %rdi
	movl	(%r10,%rdi,4), %r11d
	movslq	%r9d, %rdi
	movl	(%rbx,%rdi,4), %r14d
	movslq	%r9d, %rdi
	movl	(%r15,%rdi,4), %r9d
	movl	-116(%rbp), %r12d       # 4-byte Reload
	subl	%r11d, %r12d
	movl	-120(%rbp), %r11d       # 4-byte Reload
	subl	%r14d, %r11d
	movl	-124(%rbp), %r14d       # 4-byte Reload
	subl	%r9d, %r14d
	movl	%r12d, %r9d
	imull	%r9d, %r9d
	movl	%r11d, %r13d
	imull	%r13d, %r13d
	movl	%r14d, %edi
	imull	%edi, %edi
	addl	%r13d, %r9d
	addl	%edi, %r9d
	movl	%r9d, %edi
	imull	%edi, %edi
	imull	%r9d, %edi
	imull	%edi, %r9d
	imull	$15, %edi, %edi
	addl	$-20, %edi
	imull	%edi, %r9d
	imull	%r9d, %r12d
	addl	%r12d, %eax
	imull	%r9d, %r11d
	addl	%r11d, %ecx
	imull	%r9d, %r14d
	addl	%r14d, %edx
	addq	$1, %rsi
	movq	-112(%rbp), %rdi        # 8-byte Reload
	shlq	$5, %rdi
	addq	%rsi, %rdi
	movl	(%r8,%rdi,4), %r9d
	movslq	%r9d, %rdi
	movl	(%r10,%rdi,4), %r11d
	movslq	%r9d, %rdi
	movl	(%rbx,%rdi,4), %r14d
	movslq	%r9d, %rdi
	movl	(%r15,%rdi,4), %r9d
	movl	-116(%rbp), %r12d       # 4-byte Reload
	subl	%r11d, %r12d
	movl	-120(%rbp), %r11d       # 4-byte Reload
	subl	%r14d, %r11d
	movl	-124(%rbp), %r14d       # 4-byte Reload
	subl	%r9d, %r14d
	movl	%r12d, %r9d
	imull	%r9d, %r9d
	movl	%r11d, %r13d
	imull	%r13d, %r13d
	movl	%r14d, %edi
	imull	%edi, %edi
	addl	%r13d, %r9d
	addl	%edi, %r9d
	movl	%r9d, %edi
	imull	%edi, %edi
	imull	%r9d, %edi
	imull	%edi, %r9d
	imull	$15, %edi, %edi
	addl	$-20, %edi
	imull	%edi, %r9d
	imull	%r9d, %r12d
	addl	%r12d, %eax
	imull	%r9d, %r11d
	addl	%r11d, %ecx
	imull	%r9d, %r14d
	addl	%r14d, %edx
	addq	$1, %rsi
	movq	-112(%rbp), %rdi        # 8-byte Reload
	shlq	$5, %rdi
	addq	%rsi, %rdi
	movl	(%r8,%rdi,4), %r9d
	movslq	%r9d, %rdi
	movl	(%r10,%rdi,4), %r11d
	movslq	%r9d, %rdi
	movl	(%rbx,%rdi,4), %r14d
	movslq	%r9d, %rdi
	movl	(%r15,%rdi,4), %r9d
	movl	-116(%rbp), %r12d       # 4-byte Reload
	subl	%r11d, %r12d
	movl	-120(%rbp), %r11d       # 4-byte Reload
	subl	%r14d, %r11d
	movl	-124(%rbp), %r14d       # 4-byte Reload
	subl	%r9d, %r14d
	movl	%r12d, %r9d
	imull	%r9d, %r9d
	movl	%r11d, %r13d
	imull	%r13d, %r13d
	movl	%r14d, %edi
	imull	%edi, %edi
	addl	%r13d, %r9d
	addl	%edi, %r9d
	movl	%r9d, %edi
	imull	%edi, %edi
	imull	%r9d, %edi
	imull	%edi, %r9d
	imull	$15, %edi, %edi
	addl	$-20, %edi
	imull	%edi, %r9d
	imull	%r9d, %r12d
	addl	%r12d, %eax
	imull	%r9d, %r11d
	addl	%r11d, %ecx
	imull	%r9d, %r14d
	addl	%r14d, %edx
	addq	$1, %rsi
	movq	-112(%rbp), %rdi        # 8-byte Reload
	shlq	$5, %rdi
	addq	%rsi, %rdi
	movl	(%r8,%rdi,4), %r9d
	movslq	%r9d, %rdi
	movl	(%r10,%rdi,4), %r11d
	movslq	%r9d, %rdi
	movl	(%rbx,%rdi,4), %r14d
	movslq	%r9d, %rdi
	movl	(%r15,%rdi,4), %r9d
	movl	-116(%rbp), %r12d       # 4-byte Reload
	subl	%r11d, %r12d
	movl	-120(%rbp), %r11d       # 4-byte Reload
	subl	%r14d, %r11d
	movl	-124(%rbp), %r14d       # 4-byte Reload
	subl	%r9d, %r14d
	movl	%r12d, %r9d
	imull	%r9d, %r9d
	movl	%r11d, %r13d
	imull	%r13d, %r13d
	movl	%r14d, %edi
	imull	%edi, %edi
	addl	%r13d, %r9d
	addl	%edi, %r9d
	movl	%r9d, %edi
	imull	%edi, %edi
	imull	%r9d, %edi
	imull	%edi, %r9d
	imull	$15, %edi, %edi
	addl	$-20, %edi
	imull	%edi, %r9d
	imull	%r9d, %r12d
	addl	%r12d, %eax
	imull	%r9d, %r11d
	addl	%r11d, %ecx
	imull	%r9d, %r14d
	addl	%r14d, %edx
	addq	$1, %rsi
	movq	-112(%rbp), %rdi        # 8-byte Reload
	shlq	$5, %rdi
	addq	%rsi, %rdi
	movl	(%r8,%rdi,4), %r9d
	movslq	%r9d, %rdi
	movl	(%r10,%rdi,4), %r11d
	movslq	%r9d, %rdi
	movl	(%rbx,%rdi,4), %r14d
	movslq	%r9d, %rdi
	movl	(%r15,%rdi,4), %r9d
	movl	-116(%rbp), %r12d       # 4-byte Reload
	subl	%r11d, %r12d
	movl	-120(%rbp), %r11d       # 4-byte Reload
	subl	%r14d, %r11d
	movl	-124(%rbp), %r14d       # 4-byte Reload
	subl	%r9d, %r14d
	movl	%r12d, %r9d
	imull	%r9d, %r9d
	movl	%r11d, %r13d
	imull	%r13d, %r13d
	movl	%r14d, %edi
	imull	%edi, %edi
	addl	%r13d, %r9d
	addl	%edi, %r9d
	movl	%r9d, %edi
	imull	%edi, %edi
	imull	%r9d, %edi
	imull	%edi, %r9d
	imull	$15, %edi, %edi
	addl	$-20, %edi
	imull	%edi, %r9d
	imull	%r9d, %r12d
	addl	%r12d, %eax
	imull	%r9d, %r11d
	addl	%r11d, %ecx
	imull	%r9d, %r14d
	addl	%r14d, %edx
	addq	$1, %rsi
	movq	-112(%rbp), %rdi        # 8-byte Reload
	shlq	$5, %rdi
	addq	%rsi, %rdi
	movl	(%r8,%rdi,4), %r9d
	movslq	%r9d, %rdi
	movl	(%r10,%rdi,4), %r11d
	movslq	%r9d, %rdi
	movl	(%rbx,%rdi,4), %r14d
	movslq	%r9d, %rdi
	movl	(%r15,%rdi,4), %r9d
	movl	-116(%rbp), %r12d       # 4-byte Reload
	subl	%r11d, %r12d
	movl	-120(%rbp), %r11d       # 4-byte Reload
	subl	%r14d, %r11d
	movl	-124(%rbp), %r14d       # 4-byte Reload
	subl	%r9d, %r14d
	movl	%r12d, %r9d
	imull	%r9d, %r9d
	movl	%r11d, %r13d
	imull	%r13d, %r13d
	movl	%r14d, %edi
	imull	%edi, %edi
	addl	%r13d, %r9d
	addl	%edi, %r9d
	movl	%r9d, %edi
	imull	%edi, %edi
	imull	%r9d, %edi
	imull	%edi, %r9d
	imull	$15, %edi, %edi
	addl	$-20, %edi
	imull	%edi, %r9d
	imull	%r9d, %r12d
	addl	%r12d, %eax
	imull	%r9d, %r11d
	addl	%r11d, %ecx
	imull	%r9d, %r14d
	addl	%r14d, %edx
	addq	$1, %rsi
	movq	-112(%rbp), %rdi        # 8-byte Reload
	shlq	$5, %rdi
	addq	%rsi, %rdi
	movl	(%r8,%rdi,4), %r9d
	movslq	%r9d, %rdi
	movl	(%r10,%rdi,4), %r11d
	movslq	%r9d, %rdi
	movl	(%rbx,%rdi,4), %r14d
	movslq	%r9d, %rdi
	movl	(%r15,%rdi,4), %r9d
	movl	-116(%rbp), %r12d       # 4-byte Reload
	subl	%r11d, %r12d
	movl	-120(%rbp), %r11d       # 4-byte Reload
	subl	%r14d, %r11d
	movl	-124(%rbp), %r14d       # 4-byte Reload
	subl	%r9d, %r14d
	movl	%r12d, %r9d
	imull	%r9d, %r9d
	movl	%r11d, %r13d
	imull	%r13d, %r13d
	movl	%r14d, %edi
	imull	%edi, %edi
	addl	%r13d, %r9d
	addl	%edi, %r9d
	movl	%r9d, %edi
	imull	%edi, %edi
	imull	%r9d, %edi
	imull	%edi, %r9d
	imull	$15, %edi, %edi
	addl	$-20, %edi
	imull	%edi, %r9d
	imull	%r9d, %r12d
	addl	%r12d, %eax
	imull	%r9d, %r11d
	addl	%r11d, %ecx
	imull	%r9d, %r14d
	addl	%r14d, %edx
	addq	$1, %rsi
	movq	-112(%rbp), %rdi        # 8-byte Reload
	shlq	$5, %rdi
	addq	%rsi, %rdi
	movl	(%r8,%rdi,4), %r9d
	movslq	%r9d, %rdi
	movl	(%r10,%rdi,4), %r11d
	movslq	%r9d, %rdi
	movl	(%rbx,%rdi,4), %r14d
	movslq	%r9d, %rdi
	movl	(%r15,%rdi,4), %r9d
	movl	-116(%rbp), %r12d       # 4-byte Reload
	subl	%r11d, %r12d
	movl	-120(%rbp), %r11d       # 4-byte Reload
	subl	%r14d, %r11d
	movl	-124(%rbp), %r14d       # 4-byte Reload
	subl	%r9d, %r14d
	movl	%r12d, %r9d
	imull	%r9d, %r9d
	movl	%r11d, %r13d
	imull	%r13d, %r13d
	movl	%r14d, %edi
	imull	%edi, %edi
	addl	%r13d, %r9d
	addl	%edi, %r9d
	movl	%r9d, %edi
	imull	%edi, %edi
	imull	%r9d, %edi
	imull	%edi, %r9d
	imull	$15, %edi, %edi
	addl	$-20, %edi
	imull	%edi, %r9d
	imull	%r9d, %r12d
	addl	%r12d, %eax
	imull	%r9d, %r11d
	addl	%r11d, %ecx
	imull	%r9d, %r14d
	addl	%r14d, %edx
	addq	$1, %rsi
	movq	-112(%rbp), %rdi        # 8-byte Reload
	shlq	$5, %rdi
	addq	%rsi, %rdi
	movl	(%r8,%rdi,4), %r9d
	movslq	%r9d, %rdi
	movl	(%r10,%rdi,4), %r11d
	movslq	%r9d, %rdi
	movl	(%rbx,%rdi,4), %r14d
	movslq	%r9d, %rdi
	movl	(%r15,%rdi,4), %r9d
	movl	-116(%rbp), %r12d       # 4-byte Reload
	subl	%r11d, %r12d
	movl	-120(%rbp), %r11d       # 4-byte Reload
	subl	%r14d, %r11d
	movl	-124(%rbp), %r14d       # 4-byte Reload
	subl	%r9d, %r14d
	movl	%r12d, %r9d
	imull	%r9d, %r9d
	movl	%r11d, %r13d
	imull	%r13d, %r13d
	movl	%r14d, %edi
	imull	%edi, %edi
	addl	%r13d, %r9d
	addl	%edi, %r9d
	movl	%r9d, %edi
	imull	%edi, %edi
	imull	%r9d, %edi
	imull	%edi, %r9d
	imull	$15, %edi, %edi
	addl	$-20, %edi
	imull	%edi, %r9d
	imull	%r9d, %r12d
	addl	%r12d, %eax
	imull	%r9d, %r11d
	addl	%r11d, %ecx
	imull	%r9d, %r14d
	addl	%r14d, %edx
	addq	$1, %rsi
	movq	-112(%rbp), %rdi        # 8-byte Reload
	shlq	$5, %rdi
	addq	%rsi, %rdi
	movl	(%r8,%rdi,4), %r9d
	movslq	%r9d, %rdi
	movl	(%r10,%rdi,4), %r11d
	movslq	%r9d, %rdi
	movl	(%rbx,%rdi,4), %r14d
	movslq	%r9d, %rdi
	movl	(%r15,%rdi,4), %r9d
	movl	-116(%rbp), %r12d       # 4-byte Reload
	subl	%r11d, %r12d
	movl	-120(%rbp), %r11d       # 4-byte Reload
	subl	%r14d, %r11d
	movl	-124(%rbp), %r14d       # 4-byte Reload
	subl	%r9d, %r14d
	movl	%r12d, %r9d
	imull	%r9d, %r9d
	movl	%r11d, %r13d
	imull	%r13d, %r13d
	movl	%r14d, %edi
	imull	%edi, %edi
	addl	%r13d, %r9d
	addl	%edi, %r9d
	movl	%r9d, %edi
	imull	%edi, %edi
	imull	%r9d, %edi
	imull	%edi, %r9d
	imull	$15, %edi, %edi
	addl	$-20, %edi
	imull	%edi, %r9d
	imull	%r9d, %r12d
	addl	%r12d, %eax
	imull	%r9d, %r11d
	addl	%r11d, %ecx
	imull	%r9d, %r14d
	addl	%r14d, %edx
	addq	$1, %rsi
	movq	-112(%rbp), %rdi        # 8-byte Reload
	shlq	$5, %rdi
	addq	%rsi, %rdi
	movl	(%r8,%rdi,4), %r9d
	movslq	%r9d, %rdi
	movl	(%r10,%rdi,4), %r11d
	movslq	%r9d, %rdi
	movl	(%rbx,%rdi,4), %r14d
	movslq	%r9d, %rdi
	movl	(%r15,%rdi,4), %r9d
	movl	-116(%rbp), %r12d       # 4-byte Reload
	subl	%r11d, %r12d
	movl	-120(%rbp), %r11d       # 4-byte Reload
	subl	%r14d, %r11d
	movl	-124(%rbp), %r14d       # 4-byte Reload
	subl	%r9d, %r14d
	movl	%r12d, %r9d
	imull	%r9d, %r9d
	movl	%r11d, %r13d
	imull	%r13d, %r13d
	movl	%r14d, %edi
	imull	%edi, %edi
	addl	%r13d, %r9d
	addl	%edi, %r9d
	movl	%r9d, %edi
	imull	%edi, %edi
	imull	%r9d, %edi
	imull	%edi, %r9d
	imull	$15, %edi, %edi
	addl	$-20, %edi
	imull	%edi, %r9d
	imull	%r9d, %r12d
	addl	%r12d, %eax
	imull	%r9d, %r11d
	addl	%r11d, %ecx
	imull	%r9d, %r14d
	addl	%r14d, %edx
	addq	$1, %rsi
	movq	-112(%rbp), %rdi        # 8-byte Reload
	shlq	$5, %rdi
	addq	%rsi, %rdi
	movl	(%r8,%rdi,4), %r9d
	movslq	%r9d, %rdi
	movl	(%r10,%rdi,4), %r11d
	movslq	%r9d, %rdi
	movl	(%rbx,%rdi,4), %r14d
	movslq	%r9d, %rdi
	movl	(%r15,%rdi,4), %r9d
	movl	-116(%rbp), %r12d       # 4-byte Reload
	subl	%r11d, %r12d
	movl	-120(%rbp), %r11d       # 4-byte Reload
	subl	%r14d, %r11d
	movl	-124(%rbp), %r14d       # 4-byte Reload
	subl	%r9d, %r14d
	movl	%r12d, %r9d
	imull	%r9d, %r9d
	movl	%r11d, %r13d
	imull	%r13d, %r13d
	movl	%r14d, %edi
	imull	%edi, %edi
	addl	%r13d, %r9d
	addl	%edi, %r9d
	movl	%r9d, %edi
	imull	%edi, %edi
	imull	%r9d, %edi
	imull	%edi, %r9d
	imull	$15, %edi, %edi
	addl	$-20, %edi
	imull	%edi, %r9d
	imull	%r9d, %r12d
	addl	%r12d, %eax
	imull	%r9d, %r11d
	addl	%r11d, %ecx
	imull	%r9d, %r14d
	addl	%r14d, %edx
	addq	$1, %rsi
	movq	-112(%rbp), %rdi        # 8-byte Reload
	shlq	$5, %rdi
	addq	%rsi, %rdi
	movl	(%r8,%rdi,4), %r9d
	movslq	%r9d, %rdi
	movl	(%r10,%rdi,4), %r11d
	movslq	%r9d, %rdi
	movl	(%rbx,%rdi,4), %r14d
	movslq	%r9d, %rdi
	movl	(%r15,%rdi,4), %r9d
	movl	-116(%rbp), %r12d       # 4-byte Reload
	subl	%r11d, %r12d
	movl	-120(%rbp), %r11d       # 4-byte Reload
	subl	%r14d, %r11d
	movl	-124(%rbp), %r14d       # 4-byte Reload
	subl	%r9d, %r14d
	movl	%r12d, %r9d
	imull	%r9d, %r9d
	movl	%r11d, %r13d
	imull	%r13d, %r13d
	movl	%r14d, %edi
	imull	%edi, %edi
	addl	%r13d, %r9d
	addl	%edi, %r9d
	movl	%r9d, %edi
	imull	%edi, %edi
	imull	%r9d, %edi
	imull	%edi, %r9d
	imull	$15, %edi, %edi
	addl	$-20, %edi
	imull	%edi, %r9d
	imull	%r9d, %r12d
	addl	%r12d, %eax
	imull	%r9d, %r11d
	addl	%r11d, %ecx
	imull	%r9d, %r14d
	addl	%r14d, %edx
	addq	$1, %rsi
	movq	-112(%rbp), %rdi        # 8-byte Reload
	shlq	$5, %rdi
	addq	%rsi, %rdi
	movl	(%r8,%rdi,4), %r9d
	movslq	%r9d, %rdi
	movl	(%r10,%rdi,4), %r11d
	movslq	%r9d, %rdi
	movl	(%rbx,%rdi,4), %r14d
	movslq	%r9d, %rdi
	movl	(%r15,%rdi,4), %r9d
	movl	-116(%rbp), %r12d       # 4-byte Reload
	subl	%r11d, %r12d
	movl	-120(%rbp), %r11d       # 4-byte Reload
	subl	%r14d, %r11d
	movl	-124(%rbp), %r14d       # 4-byte Reload
	subl	%r9d, %r14d
	movl	%r12d, %r9d
	imull	%r9d, %r9d
	movl	%r11d, %r13d
	imull	%r13d, %r13d
	movl	%r14d, %edi
	imull	%edi, %edi
	addl	%r13d, %r9d
	addl	%edi, %r9d
	movl	%r9d, %edi
	imull	%edi, %edi
	imull	%r9d, %edi
	imull	%edi, %r9d
	imull	$15, %edi, %edi
	addl	$-20, %edi
	imull	%edi, %r9d
	imull	%r9d, %r12d
	addl	%r12d, %eax
	imull	%r9d, %r11d
	addl	%r11d, %ecx
	imull	%r9d, %r14d
	addl	%r14d, %edx
	addq	$1, %rsi
	movq	-112(%rbp), %rdi        # 8-byte Reload
	shlq	$5, %rdi
	addq	%rsi, %rdi
	movl	(%r8,%rdi,4), %r9d
	movslq	%r9d, %rdi
	movl	(%r10,%rdi,4), %r11d
	movslq	%r9d, %rdi
	movl	(%rbx,%rdi,4), %r14d
	movslq	%r9d, %rdi
	movl	(%r15,%rdi,4), %r9d
	movl	-116(%rbp), %r12d       # 4-byte Reload
	subl	%r11d, %r12d
	movl	-120(%rbp), %r11d       # 4-byte Reload
	subl	%r14d, %r11d
	movl	-124(%rbp), %r14d       # 4-byte Reload
	subl	%r9d, %r14d
	movl	%r12d, %r9d
	imull	%r9d, %r9d
	movl	%r11d, %r13d
	imull	%r13d, %r13d
	movl	%r14d, %edi
	imull	%edi, %edi
	addl	%r13d, %r9d
	addl	%edi, %r9d
	movl	%r9d, %edi
	imull	%edi, %edi
	imull	%r9d, %edi
	imull	%edi, %r9d
	imull	$15, %edi, %edi
	addl	$-20, %edi
	imull	%edi, %r9d
	imull	%r9d, %r12d
	addl	%r12d, %eax
	imull	%r9d, %r11d
	addl	%r11d, %ecx
	imull	%r9d, %r14d
	addl	%r14d, %edx
	addq	$1, %rsi
	movq	-112(%rbp), %rdi        # 8-byte Reload
	shlq	$5, %rdi
	addq	%rsi, %rdi
	movl	(%r8,%rdi,4), %r9d
	movslq	%r9d, %rdi
	movl	(%r10,%rdi,4), %r11d
	movslq	%r9d, %rdi
	movl	(%rbx,%rdi,4), %r14d
	movslq	%r9d, %rdi
	movl	(%r15,%rdi,4), %r9d
	movl	-116(%rbp), %r12d       # 4-byte Reload
	subl	%r11d, %r12d
	movl	-120(%rbp), %r11d       # 4-byte Reload
	subl	%r14d, %r11d
	movl	-124(%rbp), %r14d       # 4-byte Reload
	subl	%r9d, %r14d
	movl	%r12d, %r9d
	imull	%r9d, %r9d
	movl	%r11d, %r13d
	imull	%r13d, %r13d
	movl	%r14d, %edi
	imull	%edi, %edi
	addl	%r13d, %r9d
	addl	%edi, %r9d
	movl	%r9d, %edi
	imull	%edi, %edi
	imull	%r9d, %edi
	imull	%edi, %r9d
	imull	$15, %edi, %edi
	addl	$-20, %edi
	imull	%edi, %r9d
	imull	%r9d, %r12d
	addl	%r12d, %eax
	imull	%r9d, %r11d
	addl	%r11d, %ecx
	imull	%r9d, %r14d
	addl	%r14d, %edx
	addq	$1, %rsi
	movq	-112(%rbp), %rdi        # 8-byte Reload
	shlq	$5, %rdi
	addq	%rsi, %rdi
	movl	(%r8,%rdi,4), %r9d
	movslq	%r9d, %rdi
	movl	(%r10,%rdi,4), %r11d
	movslq	%r9d, %rdi
	movl	(%rbx,%rdi,4), %r14d
	movslq	%r9d, %rdi
	movl	(%r15,%rdi,4), %r9d
	movl	-116(%rbp), %r12d       # 4-byte Reload
	subl	%r11d, %r12d
	movl	-120(%rbp), %r11d       # 4-byte Reload
	subl	%r14d, %r11d
	movl	-124(%rbp), %r14d       # 4-byte Reload
	subl	%r9d, %r14d
	movl	%r12d, %r9d
	imull	%r9d, %r9d
	movl	%r11d, %r13d
	imull	%r13d, %r13d
	movl	%r14d, %edi
	imull	%edi, %edi
	addl	%r13d, %r9d
	addl	%edi, %r9d
	movl	%r9d, %edi
	imull	%edi, %edi
	imull	%r9d, %edi
	imull	%edi, %r9d
	imull	$15, %edi, %edi
	addl	$-20, %edi
	imull	%edi, %r9d
	imull	%r9d, %r12d
	addl	%r12d, %eax
	imull	%r9d, %r11d
	addl	%r11d, %ecx
	imull	%r9d, %r14d
	addl	%r14d, %edx
	addq	$1, %rsi
	movq	-112(%rbp), %rdi        # 8-byte Reload
	shlq	$5, %rdi
	addq	%rsi, %rdi
	movl	(%r8,%rdi,4), %r9d
	movslq	%r9d, %rdi
	movl	(%r10,%rdi,4), %r11d
	movslq	%r9d, %rdi
	movl	(%rbx,%rdi,4), %r14d
	movslq	%r9d, %rdi
	movl	(%r15,%rdi,4), %r9d
	movl	-116(%rbp), %r12d       # 4-byte Reload
	subl	%r11d, %r12d
	movl	-120(%rbp), %r11d       # 4-byte Reload
	subl	%r14d, %r11d
	movl	-124(%rbp), %r14d       # 4-byte Reload
	subl	%r9d, %r14d
	movl	%r12d, %r9d
	imull	%r9d, %r9d
	movl	%r11d, %r13d
	imull	%r13d, %r13d
	movl	%r14d, %edi
	imull	%edi, %edi
	addl	%r13d, %r9d
	addl	%edi, %r9d
	movl	%r9d, %edi
	imull	%edi, %edi
	imull	%r9d, %edi
	imull	%edi, %r9d
	imull	$15, %edi, %edi
	addl	$-20, %edi
	imull	%edi, %r9d
	imull	%r9d, %r12d
	addl	%r12d, %eax
	imull	%r9d, %r11d
	addl	%r11d, %ecx
	imull	%r9d, %r14d
	addl	%r14d, %edx
	addq	$1, %rsi
	movq	-112(%rbp), %rdi        # 8-byte Reload
	shlq	$5, %rdi
	addq	%rsi, %rdi
	movl	(%r8,%rdi,4), %r9d
	movslq	%r9d, %rdi
	movl	(%r10,%rdi,4), %r11d
	movslq	%r9d, %rdi
	movl	(%rbx,%rdi,4), %r14d
	movslq	%r9d, %rdi
	movl	(%r15,%rdi,4), %r9d
	movl	-116(%rbp), %r12d       # 4-byte Reload
	subl	%r11d, %r12d
	movl	-120(%rbp), %r11d       # 4-byte Reload
	subl	%r14d, %r11d
	movl	-124(%rbp), %r14d       # 4-byte Reload
	subl	%r9d, %r14d
	movl	%r12d, %r9d
	imull	%r9d, %r9d
	movl	%r11d, %r13d
	imull	%r13d, %r13d
	movl	%r14d, %edi
	imull	%edi, %edi
	addl	%r13d, %r9d
	addl	%edi, %r9d
	movl	%r9d, %edi
	imull	%edi, %edi
	imull	%r9d, %edi
	imull	%edi, %r9d
	imull	$15, %edi, %edi
	addl	$-20, %edi
	imull	%edi, %r9d
	imull	%r9d, %r12d
	addl	%r12d, %eax
	imull	%r9d, %r11d
	addl	%r11d, %ecx
	imull	%r9d, %r14d
	addl	%r14d, %edx
	addq	$1, %rsi
	movq	-112(%rbp), %rdi        # 8-byte Reload
	shlq	$5, %rdi
	addq	%rsi, %rdi
	movl	(%r8,%rdi,4), %r9d
	movslq	%r9d, %rdi
	movl	(%r10,%rdi,4), %r11d
	movslq	%r9d, %rdi
	movl	(%rbx,%rdi,4), %r14d
	movslq	%r9d, %rdi
	movl	(%r15,%rdi,4), %r9d
	movl	-116(%rbp), %r12d       # 4-byte Reload
	subl	%r11d, %r12d
	movl	-120(%rbp), %r11d       # 4-byte Reload
	subl	%r14d, %r11d
	movl	-124(%rbp), %r14d       # 4-byte Reload
	subl	%r9d, %r14d
	movl	%r12d, %r9d
	imull	%r9d, %r9d
	movl	%r11d, %r13d
	imull	%r13d, %r13d
	movl	%r14d, %edi
	imull	%edi, %edi
	addl	%r13d, %r9d
	addl	%edi, %r9d
	movl	%r9d, %edi
	imull	%edi, %edi
	imull	%r9d, %edi
	imull	%edi, %r9d
	imull	$15, %edi, %edi
	addl	$-20, %edi
	imull	%edi, %r9d
	imull	%r9d, %r12d
	addl	%r12d, %eax
	imull	%r9d, %r11d
	addl	%r11d, %ecx
	imull	%r9d, %r14d
	addl	%r14d, %edx
	addq	$1, %rsi
	movq	-112(%rbp), %rdi        # 8-byte Reload
	shlq	$5, %rdi
	addq	%rsi, %rdi
	movl	(%r8,%rdi,4), %r9d
	movslq	%r9d, %rdi
	movl	(%r10,%rdi,4), %r11d
	movslq	%r9d, %rdi
	movl	(%rbx,%rdi,4), %r14d
	movslq	%r9d, %rdi
	movl	(%r15,%rdi,4), %r9d
	movl	-116(%rbp), %r12d       # 4-byte Reload
	subl	%r11d, %r12d
	movl	-120(%rbp), %r11d       # 4-byte Reload
	subl	%r14d, %r11d
	movl	-124(%rbp), %r14d       # 4-byte Reload
	subl	%r9d, %r14d
	movl	%r12d, %r9d
	imull	%r9d, %r9d
	movl	%r11d, %r13d
	imull	%r13d, %r13d
	movl	%r14d, %edi
	imull	%edi, %edi
	addl	%r13d, %r9d
	addl	%edi, %r9d
	movl	%r9d, %edi
	imull	%edi, %edi
	imull	%r9d, %edi
	imull	%edi, %r9d
	imull	$15, %edi, %edi
	addl	$-20, %edi
	imull	%edi, %r9d
	imull	%r9d, %r12d
	addl	%r12d, %eax
	imull	%r9d, %r11d
	addl	%r11d, %ecx
	imull	%r9d, %r14d
	addl	%r14d, %edx
	addq	$1, %rsi
	movq	-112(%rbp), %rdi        # 8-byte Reload
	shlq	$5, %rdi
	addq	%rsi, %rdi
	movl	(%r8,%rdi,4), %r9d
	movslq	%r9d, %rdi
	movl	(%r10,%rdi,4), %r11d
	movslq	%r9d, %rdi
	movl	(%rbx,%rdi,4), %r14d
	movslq	%r9d, %rdi
	movl	(%r15,%rdi,4), %r9d
	movl	-116(%rbp), %r12d       # 4-byte Reload
	subl	%r11d, %r12d
	movl	-120(%rbp), %r11d       # 4-byte Reload
	subl	%r14d, %r11d
	movl	-124(%rbp), %r14d       # 4-byte Reload
	subl	%r9d, %r14d
	movl	%r12d, %r9d
	imull	%r9d, %r9d
	movl	%r11d, %r13d
	imull	%r13d, %r13d
	movl	%r14d, %edi
	imull	%edi, %edi
	addl	%r13d, %r9d
	addl	%edi, %r9d
	movl	%r9d, %edi
	imull	%edi, %edi
	imull	%r9d, %edi
	imull	%edi, %r9d
	imull	$15, %edi, %edi
	addl	$-20, %edi
	imull	%edi, %r9d
	imull	%r9d, %r12d
	addl	%r12d, %eax
	imull	%r9d, %r11d
	addl	%r11d, %ecx
	imull	%r9d, %r14d
	addl	%r14d, %edx
	addq	$1, %rsi
	movq	-112(%rbp), %rdi        # 8-byte Reload
	shlq	$5, %rdi
	addq	%rsi, %rdi
	movl	(%r8,%rdi,4), %r9d
	movslq	%r9d, %rdi
	movl	(%r10,%rdi,4), %r11d
	movslq	%r9d, %rdi
	movl	(%rbx,%rdi,4), %r14d
	movslq	%r9d, %rdi
	movl	(%r15,%rdi,4), %r9d
	movl	-116(%rbp), %r12d       # 4-byte Reload
	subl	%r11d, %r12d
	movl	-120(%rbp), %r11d       # 4-byte Reload
	subl	%r14d, %r11d
	movl	-124(%rbp), %r14d       # 4-byte Reload
	subl	%r9d, %r14d
	movl	%r12d, %r9d
	imull	%r9d, %r9d
	movl	%r11d, %r13d
	imull	%r13d, %r13d
	movl	%r14d, %edi
	imull	%edi, %edi
	addl	%r13d, %r9d
	addl	%edi, %r9d
	movl	%r9d, %edi
	imull	%edi, %edi
	imull	%r9d, %edi
	imull	%edi, %r9d
	imull	$15, %edi, %edi
	addl	$-20, %edi
	imull	%edi, %r9d
	imull	%r9d, %r12d
	addl	%r12d, %eax
	imull	%r9d, %r11d
	addl	%r11d, %ecx
	imull	%r9d, %r14d
	addl	%r14d, %edx
	addq	$1, %rsi
	movq	-112(%rbp), %rdi        # 8-byte Reload
	shlq	$5, %rdi
	addq	%rsi, %rdi
	movl	(%r8,%rdi,4), %r9d
	movslq	%r9d, %rdi
	movl	(%r10,%rdi,4), %r11d
	movslq	%r9d, %rdi
	movl	(%rbx,%rdi,4), %r14d
	movslq	%r9d, %rdi
	movl	(%r15,%rdi,4), %r9d
	movl	-116(%rbp), %r12d       # 4-byte Reload
	subl	%r11d, %r12d
	movl	-120(%rbp), %r11d       # 4-byte Reload
	subl	%r14d, %r11d
	movl	-124(%rbp), %r14d       # 4-byte Reload
	subl	%r9d, %r14d
	movl	%r12d, %r9d
	imull	%r9d, %r9d
	movl	%r11d, %r13d
	imull	%r13d, %r13d
	movl	%r14d, %edi
	imull	%edi, %edi
	addl	%r13d, %r9d
	addl	%edi, %r9d
	movl	%r9d, %edi
	imull	%edi, %edi
	imull	%r9d, %edi
	imull	%edi, %r9d
	imull	$15, %edi, %edi
	addl	$-20, %edi
	imull	%edi, %r9d
	imull	%r9d, %r12d
	addl	%r12d, %eax
	imull	%r9d, %r11d
	addl	%r11d, %ecx
	imull	%r9d, %r14d
	addl	%r14d, %edx
	addq	$1, %rsi
	movq	-112(%rbp), %rdi        # 8-byte Reload
	shlq	$5, %rdi
	addq	%rsi, %rdi
	movl	(%r8,%rdi,4), %r9d
	movslq	%r9d, %rdi
	movl	(%r10,%rdi,4), %r11d
	movslq	%r9d, %rdi
	movl	(%rbx,%rdi,4), %r14d
	movslq	%r9d, %rdi
	movl	(%r15,%rdi,4), %r9d
	movl	-116(%rbp), %r12d       # 4-byte Reload
	subl	%r11d, %r12d
	movl	-120(%rbp), %r11d       # 4-byte Reload
	subl	%r14d, %r11d
	movl	-124(%rbp), %r14d       # 4-byte Reload
	subl	%r9d, %r14d
	movl	%r12d, %r9d
	imull	%r9d, %r9d
	movl	%r11d, %r13d
	imull	%r13d, %r13d
	movl	%r14d, %edi
	imull	%edi, %edi
	addl	%r13d, %r9d
	addl	%edi, %r9d
	movl	%r9d, %edi
	imull	%edi, %edi
	imull	%r9d, %edi
	imull	%edi, %r9d
	imull	$15, %edi, %edi
	addl	$-20, %edi
	imull	%edi, %r9d
	imull	%r9d, %r12d
	addl	%r12d, %eax
	imull	%r9d, %r11d
	addl	%r11d, %ecx
	imull	%r9d, %r14d
	addl	%r14d, %edx
	addq	$1, %rsi
	movq	-112(%rbp), %rdi        # 8-byte Reload
	shlq	$5, %rdi
	addq	%rsi, %rdi
	movl	(%r8,%rdi,4), %r9d
	movslq	%r9d, %rdi
	movl	(%r10,%rdi,4), %r11d
	movslq	%r9d, %rdi
	movl	(%rbx,%rdi,4), %r14d
	movslq	%r9d, %rdi
	movl	(%r15,%rdi,4), %r9d
	movl	-116(%rbp), %r12d       # 4-byte Reload
	subl	%r11d, %r12d
	movl	-120(%rbp), %r11d       # 4-byte Reload
	subl	%r14d, %r11d
	movl	-124(%rbp), %r14d       # 4-byte Reload
	subl	%r9d, %r14d
	movl	%r12d, %r9d
	imull	%r9d, %r9d
	movl	%r11d, %r13d
	imull	%r13d, %r13d
	movl	%r14d, %edi
	imull	%edi, %edi
	addl	%r13d, %r9d
	addl	%edi, %r9d
	movl	%r9d, %edi
	imull	%edi, %edi
	imull	%r9d, %edi
	imull	%edi, %r9d
	imull	$15, %edi, %edi
	addl	$-20, %edi
	imull	%edi, %r9d
	imull	%r9d, %r12d
	addl	%r12d, %eax
	imull	%r9d, %r11d
	addl	%r11d, %ecx
	imull	%r9d, %r14d
	addl	%r14d, %edx
	addq	$1, %rsi
	movq	-112(%rbp), %rdi        # 8-byte Reload
	shlq	$5, %rdi
	addq	%rsi, %rdi
	movl	(%r8,%rdi,4), %r9d
	movslq	%r9d, %rdi
	movl	(%r10,%rdi,4), %r11d
	movslq	%r9d, %rdi
	movl	(%rbx,%rdi,4), %r14d
	movslq	%r9d, %rdi
	movl	(%r15,%rdi,4), %r9d
	movl	-116(%rbp), %r12d       # 4-byte Reload
	subl	%r11d, %r12d
	movl	-120(%rbp), %r11d       # 4-byte Reload
	subl	%r14d, %r11d
	movl	-124(%rbp), %r14d       # 4-byte Reload
	subl	%r9d, %r14d
	movl	%r12d, %r9d
	imull	%r9d, %r9d
	movl	%r11d, %r13d
	imull	%r13d, %r13d
	movl	%r14d, %edi
	imull	%edi, %edi
	addl	%r13d, %r9d
	addl	%edi, %r9d
	movl	%r9d, %edi
	imull	%edi, %edi
	imull	%r9d, %edi
	imull	%edi, %r9d
	imull	$15, %edi, %edi
	addl	$-20, %edi
	imull	%edi, %r9d
	imull	%r9d, %r12d
	addl	%r12d, %eax
	imull	%r9d, %r11d
	addl	%r11d, %ecx
	imull	%r9d, %r14d
	addl	%r14d, %edx
	addq	$1, %rsi
	movq	-112(%rbp), %rdi        # 8-byte Reload
	shlq	$5, %rdi
	addq	%rsi, %rdi
	movl	(%r8,%rdi,4), %r9d
	movslq	%r9d, %rdi
	movl	(%r10,%rdi,4), %r11d
	movslq	%r9d, %rdi
	movl	(%rbx,%rdi,4), %r14d
	movslq	%r9d, %rdi
	movl	(%r15,%rdi,4), %r9d
	movl	-116(%rbp), %r12d       # 4-byte Reload
	subl	%r11d, %r12d
	movl	-120(%rbp), %r11d       # 4-byte Reload
	subl	%r14d, %r11d
	movl	-124(%rbp), %r14d       # 4-byte Reload
	subl	%r9d, %r14d
	movl	%r12d, %r9d
	imull	%r9d, %r9d
	movl	%r11d, %r13d
	imull	%r13d, %r13d
	movl	%r14d, %edi
	imull	%edi, %edi
	addl	%r13d, %r9d
	addl	%edi, %r9d
	movl	%r9d, %edi
	imull	%edi, %edi
	imull	%r9d, %edi
	imull	%edi, %r9d
	imull	$15, %edi, %edi
	addl	$-20, %edi
	imull	%edi, %r9d
	imull	%r9d, %r12d
	addl	%r12d, %eax
	imull	%r9d, %r11d
	addl	%r11d, %ecx
	imull	%r9d, %r14d
	addl	%r14d, %edx
	addq	$1, %rsi
	movq	-112(%rbp), %rdi        # 8-byte Reload
	shlq	$5, %rdi
	addq	%rsi, %rdi
	movl	(%r8,%rdi,4), %r9d
	movslq	%r9d, %rdi
	movl	(%r10,%rdi,4), %r11d
	movslq	%r9d, %rdi
	movl	(%rbx,%rdi,4), %r14d
	movslq	%r9d, %rdi
	movl	(%r15,%rdi,4), %r9d
	movl	-116(%rbp), %r12d       # 4-byte Reload
	subl	%r11d, %r12d
	movl	-120(%rbp), %r11d       # 4-byte Reload
	subl	%r14d, %r11d
	movl	-124(%rbp), %r14d       # 4-byte Reload
	subl	%r9d, %r14d
	movl	%r12d, %r9d
	imull	%r9d, %r9d
	movl	%r11d, %r13d
	imull	%r13d, %r13d
	movl	%r14d, %edi
	imull	%edi, %edi
	addl	%r13d, %r9d
	addl	%edi, %r9d
	movl	%r9d, %edi
	imull	%edi, %edi
	imull	%r9d, %edi
	imull	%edi, %r9d
	imull	$15, %edi, %edi
	addl	$-20, %edi
	imull	%edi, %r9d
	imull	%r9d, %r12d
	addl	%r12d, %eax
	imull	%r9d, %r11d
	addl	%r11d, %ecx
	imull	%r9d, %r14d
	addl	%r14d, %edx
	addq	$1, %rsi
	movq	-112(%rbp), %rdi        # 8-byte Reload
	shlq	$5, %rdi
	addq	%rsi, %rdi
	movl	(%r8,%rdi,4), %r9d
	movslq	%r9d, %rdi
	movl	(%r10,%rdi,4), %r11d
	movslq	%r9d, %rdi
	movl	(%rbx,%rdi,4), %r14d
	movslq	%r9d, %rdi
	movl	(%r15,%rdi,4), %r9d
	movl	-116(%rbp), %r12d       # 4-byte Reload
	subl	%r11d, %r12d
	movl	-120(%rbp), %r11d       # 4-byte Reload
	subl	%r14d, %r11d
	movl	-124(%rbp), %r14d       # 4-byte Reload
	subl	%r9d, %r14d
	movl	%r12d, %r9d
	imull	%r9d, %r9d
	movl	%r11d, %r13d
	imull	%r13d, %r13d
	movl	%r14d, %edi
	imull	%edi, %edi
	addl	%r13d, %r9d
	addl	%edi, %r9d
	movl	%r9d, %edi
	imull	%edi, %edi
	imull	%r9d, %edi
	imull	%edi, %r9d
	imull	$15, %edi, %edi
	addl	$-20, %edi
	imull	%edi, %r9d
	imull	%r9d, %r12d
	addl	%r12d, %eax
	imull	%r9d, %r11d
	addl	%r11d, %ecx
	imull	%r9d, %r14d
	addl	%r14d, %edx
	addq	$1, %rsi
	movq	-112(%rbp), %rdi        # 8-byte Reload
	shlq	$5, %rdi
	addq	%rsi, %rdi
	movl	(%r8,%rdi,4), %r9d
	movslq	%r9d, %rdi
	movl	(%r10,%rdi,4), %r11d
	movslq	%r9d, %rdi
	movl	(%rbx,%rdi,4), %r14d
	movslq	%r9d, %rdi
	movl	(%r15,%rdi,4), %r9d
	movl	-116(%rbp), %r12d       # 4-byte Reload
	subl	%r11d, %r12d
	movl	-120(%rbp), %r11d       # 4-byte Reload
	subl	%r14d, %r11d
	movl	-124(%rbp), %r14d       # 4-byte Reload
	subl	%r9d, %r14d
	movl	%r12d, %r9d
	imull	%r9d, %r9d
	movl	%r11d, %r13d
	imull	%r13d, %r13d
	movl	%r14d, %edi
	imull	%edi, %edi
	addl	%r13d, %r9d
	addl	%edi, %r9d
	movl	%r9d, %edi
	imull	%edi, %edi
	imull	%r9d, %edi
	imull	%edi, %r9d
	imull	$15, %edi, %edi
	addl	$-20, %edi
	imull	%edi, %r9d
	imull	%r9d, %r12d
	addl	%r12d, %eax
	imull	%r9d, %r11d
	addl	%r11d, %ecx
	imull	%r9d, %r14d
	addl	%r14d, %edx
	addq	$1, %rsi
	movq	-112(%rbp), %rdi        # 8-byte Reload
	shlq	$5, %rdi
	addq	%rsi, %rdi
	movl	(%r8,%rdi,4), %r9d
	movslq	%r9d, %rdi
	movl	(%r10,%rdi,4), %r11d
	movslq	%r9d, %rdi
	movl	(%rbx,%rdi,4), %r14d
	movslq	%r9d, %rdi
	movl	(%r15,%rdi,4), %r9d
	movl	-116(%rbp), %r12d       # 4-byte Reload
	subl	%r11d, %r12d
	movl	-120(%rbp), %r11d       # 4-byte Reload
	subl	%r14d, %r11d
	movl	-124(%rbp), %r14d       # 4-byte Reload
	subl	%r9d, %r14d
	movl	%r12d, %r9d
	imull	%r9d, %r9d
	movl	%r11d, %r13d
	imull	%r13d, %r13d
	movl	%r14d, %edi
	imull	%edi, %edi
	addl	%r13d, %r9d
	addl	%edi, %r9d
	movl	%r9d, %edi
	imull	%edi, %edi
	imull	%r9d, %edi
	imull	%edi, %r9d
	imull	$15, %edi, %edi
	addl	$-20, %edi
	imull	%edi, %r9d
	imull	%r9d, %r12d
	addl	%r12d, %eax
	imull	%r9d, %r11d
	addl	%r11d, %ecx
	imull	%r9d, %r14d
	addl	%r14d, %edx
	addq	$1, %rsi
	movq	-112(%rbp), %rdi        # 8-byte Reload
	shlq	$5, %rdi
	addq	%rsi, %rdi
	movl	(%r8,%rdi,4), %r9d
	movslq	%r9d, %rdi
	movl	(%r10,%rdi,4), %r11d
	movslq	%r9d, %rdi
	movl	(%rbx,%rdi,4), %r14d
	movslq	%r9d, %rdi
	movl	(%r15,%rdi,4), %r9d
	movl	-116(%rbp), %r12d       # 4-byte Reload
	subl	%r11d, %r12d
	movl	-120(%rbp), %r11d       # 4-byte Reload
	subl	%r14d, %r11d
	movl	-124(%rbp), %r14d       # 4-byte Reload
	subl	%r9d, %r14d
	movl	%r12d, %r9d
	imull	%r9d, %r9d
	movl	%r11d, %r13d
	imull	%r13d, %r13d
	movl	%r14d, %edi
	imull	%edi, %edi
	addl	%r13d, %r9d
	addl	%edi, %r9d
	movl	%r9d, %edi
	imull	%edi, %edi
	imull	%r9d, %edi
	imull	%edi, %r9d
	imull	$15, %edi, %edi
	addl	$-20, %edi
	imull	%edi, %r9d
	imull	%r9d, %r12d
	addl	%r12d, %eax
	imull	%r9d, %r11d
	addl	%r11d, %ecx
	imull	%r9d, %r14d
	addl	%r14d, %edx
	addq	$1, %rsi
	movq	-112(%rbp), %rdi        # 8-byte Reload
	shlq	$5, %rdi
	addq	%rsi, %rdi
	movl	(%r8,%rdi,4), %r9d
	movslq	%r9d, %rdi
	movl	(%r10,%rdi,4), %r11d
	movslq	%r9d, %rdi
	movl	(%rbx,%rdi,4), %r14d
	movslq	%r9d, %rdi
	movl	(%r15,%rdi,4), %r9d
	movl	-116(%rbp), %r12d       # 4-byte Reload
	subl	%r11d, %r12d
	movl	-120(%rbp), %r11d       # 4-byte Reload
	subl	%r14d, %r11d
	movl	-124(%rbp), %r14d       # 4-byte Reload
	subl	%r9d, %r14d
	movl	%r12d, %r9d
	imull	%r9d, %r9d
	movl	%r11d, %r13d
	imull	%r13d, %r13d
	movl	%r14d, %edi
	imull	%edi, %edi
	addl	%r13d, %r9d
	addl	%edi, %r9d
	movl	%r9d, %edi
	imull	%edi, %edi
	imull	%r9d, %edi
	imull	%edi, %r9d
	imull	$15, %edi, %edi
	addl	$-20, %edi
	imull	%edi, %r9d
	imull	%r9d, %r12d
	addl	%r12d, %eax
	imull	%r9d, %r11d
	addl	%r11d, %ecx
	imull	%r9d, %r14d
	addl	%r14d, %edx
	addq	$1, %rsi
	movq	-112(%rbp), %rdi        # 8-byte Reload
	shlq	$5, %rdi
	addq	%rsi, %rdi
	movl	(%r8,%rdi,4), %r9d
	movslq	%r9d, %rdi
	movl	(%r10,%rdi,4), %r11d
	movslq	%r9d, %rdi
	movl	(%rbx,%rdi,4), %r14d
	movslq	%r9d, %rdi
	movl	(%r15,%rdi,4), %r9d
	movl	-116(%rbp), %r12d       # 4-byte Reload
	subl	%r11d, %r12d
	movl	-120(%rbp), %r11d       # 4-byte Reload
	subl	%r14d, %r11d
	movl	-124(%rbp), %r14d       # 4-byte Reload
	subl	%r9d, %r14d
	movl	%r12d, %r9d
	imull	%r9d, %r9d
	movl	%r11d, %r13d
	imull	%r13d, %r13d
	movl	%r14d, %edi
	imull	%edi, %edi
	addl	%r13d, %r9d
	addl	%edi, %r9d
	movl	%r9d, %edi
	imull	%edi, %edi
	imull	%r9d, %edi
	imull	%edi, %r9d
	imull	$15, %edi, %edi
	addl	$-20, %edi
	imull	%edi, %r9d
	imull	%r9d, %r12d
	addl	%r12d, %eax
	imull	%r9d, %r11d
	addl	%r11d, %ecx
	imull	%r9d, %r14d
	addl	%r14d, %edx
	addq	$1, %rsi
	movq	-112(%rbp), %rdi        # 8-byte Reload
	shlq	$5, %rdi
	addq	%rsi, %rdi
	movl	(%r8,%rdi,4), %r9d
	movslq	%r9d, %rdi
	movl	(%r10,%rdi,4), %r11d
	movslq	%r9d, %rdi
	movl	(%rbx,%rdi,4), %r14d
	movslq	%r9d, %rdi
	movl	(%r15,%rdi,4), %r9d
	movl	-116(%rbp), %r12d       # 4-byte Reload
	subl	%r11d, %r12d
	movl	-120(%rbp), %r11d       # 4-byte Reload
	subl	%r14d, %r11d
	movl	-124(%rbp), %r14d       # 4-byte Reload
	subl	%r9d, %r14d
	movl	%r12d, %r9d
	imull	%r9d, %r9d
	movl	%r11d, %r13d
	imull	%r13d, %r13d
	movl	%r14d, %edi
	imull	%edi, %edi
	addl	%r13d, %r9d
	addl	%edi, %r9d
	movl	%r9d, %edi
	imull	%edi, %edi
	imull	%r9d, %edi
	imull	%edi, %r9d
	imull	$15, %edi, %edi
	addl	$-20, %edi
	imull	%edi, %r9d
	imull	%r9d, %r12d
	addl	%r12d, %eax
	imull	%r9d, %r11d
	addl	%r11d, %ecx
	imull	%r9d, %r14d
	addl	%r14d, %edx
	addq	$1, %rsi
	movq	-112(%rbp), %rdi        # 8-byte Reload
	shlq	$5, %rdi
	addq	%rsi, %rdi
	movl	(%r8,%rdi,4), %r9d
	movslq	%r9d, %rdi
	movl	(%r10,%rdi,4), %r11d
	movslq	%r9d, %rdi
	movl	(%rbx,%rdi,4), %r14d
	movslq	%r9d, %rdi
	movl	(%r15,%rdi,4), %r9d
	movl	-116(%rbp), %r12d       # 4-byte Reload
	subl	%r11d, %r12d
	movl	-120(%rbp), %r11d       # 4-byte Reload
	subl	%r14d, %r11d
	movl	-124(%rbp), %r14d       # 4-byte Reload
	subl	%r9d, %r14d
	movl	%r12d, %r9d
	imull	%r9d, %r9d
	movl	%r11d, %r13d
	imull	%r13d, %r13d
	movl	%r14d, %edi
	imull	%edi, %edi
	addl	%r13d, %r9d
	addl	%edi, %r9d
	movl	%r9d, %edi
	imull	%edi, %edi
	imull	%r9d, %edi
	imull	%edi, %r9d
	imull	$15, %edi, %edi
	addl	$-20, %edi
	imull	%edi, %r9d
	imull	%r9d, %r12d
	addl	%r12d, %eax
	imull	%r9d, %r11d
	addl	%r11d, %ecx
	imull	%r9d, %r14d
	addl	%r14d, %edx
	addq	$1, %rsi
	movq	-112(%rbp), %rdi        # 8-byte Reload
	shlq	$5, %rdi
	addq	%rsi, %rdi
	movl	(%r8,%rdi,4), %r9d
	movslq	%r9d, %rdi
	movl	(%r10,%rdi,4), %r11d
	movslq	%r9d, %rdi
	movl	(%rbx,%rdi,4), %r14d
	movslq	%r9d, %rdi
	movl	(%r15,%rdi,4), %r9d
	movl	-116(%rbp), %r12d       # 4-byte Reload
	subl	%r11d, %r12d
	movl	-120(%rbp), %r11d       # 4-byte Reload
	subl	%r14d, %r11d
	movl	-124(%rbp), %r14d       # 4-byte Reload
	subl	%r9d, %r14d
	movl	%r12d, %r9d
	imull	%r9d, %r9d
	movl	%r11d, %r13d
	imull	%r13d, %r13d
	movl	%r14d, %edi
	imull	%edi, %edi
	addl	%r13d, %r9d
	addl	%edi, %r9d
	movl	%r9d, %edi
	imull	%edi, %edi
	imull	%r9d, %edi
	imull	%edi, %r9d
	imull	$15, %edi, %edi
	addl	$-20, %edi
	imull	%edi, %r9d
	imull	%r9d, %r12d
	addl	%r12d, %eax
	imull	%r9d, %r11d
	addl	%r11d, %ecx
	imull	%r9d, %r14d
	addl	%r14d, %edx
	addq	$1, %rsi
	movq	-112(%rbp), %rdi        # 8-byte Reload
	shlq	$5, %rdi
	addq	%rsi, %rdi
	movl	(%r8,%rdi,4), %r9d
	movslq	%r9d, %rdi
	movl	(%r10,%rdi,4), %r11d
	movslq	%r9d, %rdi
	movl	(%rbx,%rdi,4), %r14d
	movslq	%r9d, %rdi
	movl	(%r15,%rdi,4), %r9d
	movl	-116(%rbp), %r12d       # 4-byte Reload
	subl	%r11d, %r12d
	movl	-120(%rbp), %r11d       # 4-byte Reload
	subl	%r14d, %r11d
	movl	-124(%rbp), %r14d       # 4-byte Reload
	subl	%r9d, %r14d
	movl	%r12d, %r9d
	imull	%r9d, %r9d
	movl	%r11d, %r13d
	imull	%r13d, %r13d
	movl	%r14d, %edi
	imull	%edi, %edi
	addl	%r13d, %r9d
	addl	%edi, %r9d
	movl	%r9d, %edi
	imull	%edi, %edi
	imull	%r9d, %edi
	imull	%edi, %r9d
	imull	$15, %edi, %edi
	addl	$-20, %edi
	imull	%edi, %r9d
	imull	%r9d, %r12d
	addl	%r12d, %eax
	imull	%r9d, %r11d
	addl	%r11d, %ecx
	imull	%r9d, %r14d
	addl	%r14d, %edx
	addq	$1, %rsi
	movq	-112(%rbp), %rdi        # 8-byte Reload
	shlq	$5, %rdi
	addq	%rsi, %rdi
	movl	(%r8,%rdi,4), %r9d
	movslq	%r9d, %rdi
	movl	(%r10,%rdi,4), %r11d
	movslq	%r9d, %rdi
	movl	(%rbx,%rdi,4), %r14d
	movslq	%r9d, %rdi
	movl	(%r15,%rdi,4), %r9d
	movl	-116(%rbp), %r12d       # 4-byte Reload
	subl	%r11d, %r12d
	movl	-120(%rbp), %r11d       # 4-byte Reload
	subl	%r14d, %r11d
	movl	-124(%rbp), %r14d       # 4-byte Reload
	subl	%r9d, %r14d
	movl	%r12d, %r9d
	imull	%r9d, %r9d
	movl	%r11d, %r13d
	imull	%r13d, %r13d
	movl	%r14d, %edi
	imull	%edi, %edi
	addl	%r13d, %r9d
	addl	%edi, %r9d
	movl	%r9d, %edi
	imull	%edi, %edi
	imull	%r9d, %edi
	imull	%edi, %r9d
	imull	$15, %edi, %edi
	addl	$-20, %edi
	imull	%edi, %r9d
	imull	%r9d, %r12d
	addl	%r12d, %eax
	imull	%r9d, %r11d
	addl	%r11d, %ecx
	imull	%r9d, %r14d
	addl	%r14d, %edx
	addq	$1, %rsi
	movq	-112(%rbp), %rdi        # 8-byte Reload
	shlq	$5, %rdi
	addq	%rsi, %rdi
	movl	(%r8,%rdi,4), %r9d
	movslq	%r9d, %rdi
	movl	(%r10,%rdi,4), %r11d
	movslq	%r9d, %rdi
	movl	(%rbx,%rdi,4), %r14d
	movslq	%r9d, %rdi
	movl	(%r15,%rdi,4), %r9d
	movl	-116(%rbp), %r12d       # 4-byte Reload
	subl	%r11d, %r12d
	movl	-120(%rbp), %r11d       # 4-byte Reload
	subl	%r14d, %r11d
	movl	-124(%rbp), %r14d       # 4-byte Reload
	subl	%r9d, %r14d
	movl	%r12d, %r9d
	imull	%r9d, %r9d
	movl	%r11d, %r13d
	imull	%r13d, %r13d
	movl	%r14d, %edi
	imull	%edi, %edi
	addl	%r13d, %r9d
	addl	%edi, %r9d
	movl	%r9d, %edi
	imull	%edi, %edi
	imull	%r9d, %edi
	imull	%edi, %r9d
	imull	$15, %edi, %edi
	addl	$-20, %edi
	imull	%edi, %r9d
	imull	%r9d, %r12d
	addl	%r12d, %eax
	imull	%r9d, %r11d
	addl	%r11d, %ecx
	imull	%r9d, %r14d
	addl	%r14d, %edx
	addq	$1, %rsi
	movq	-112(%rbp), %rdi        # 8-byte Reload
	shlq	$5, %rdi
	addq	%rsi, %rdi
	movl	(%r8,%rdi,4), %r9d
	movslq	%r9d, %rdi
	movl	(%r10,%rdi,4), %r11d
	movslq	%r9d, %rdi
	movl	(%rbx,%rdi,4), %r14d
	movslq	%r9d, %rdi
	movl	(%r15,%rdi,4), %r9d
	movl	-116(%rbp), %r12d       # 4-byte Reload
	subl	%r11d, %r12d
	movl	-120(%rbp), %r11d       # 4-byte Reload
	subl	%r14d, %r11d
	movl	-124(%rbp), %r14d       # 4-byte Reload
	subl	%r9d, %r14d
	movl	%r12d, %r9d
	imull	%r9d, %r9d
	movl	%r11d, %r13d
	imull	%r13d, %r13d
	movl	%r14d, %edi
	imull	%edi, %edi
	addl	%r13d, %r9d
	addl	%edi, %r9d
	movl	%r9d, %edi
	imull	%edi, %edi
	imull	%r9d, %edi
	imull	%edi, %r9d
	imull	$15, %edi, %edi
	addl	$-20, %edi
	imull	%edi, %r9d
	imull	%r9d, %r12d
	addl	%r12d, %eax
	imull	%r9d, %r11d
	addl	%r11d, %ecx
	imull	%r9d, %r14d
	addl	%r14d, %edx
	addq	$1, %rsi
	movq	-112(%rbp), %rdi        # 8-byte Reload
	shlq	$5, %rdi
	addq	%rsi, %rdi
	movl	(%r8,%rdi,4), %r9d
	movslq	%r9d, %rdi
	movl	(%r10,%rdi,4), %r11d
	movslq	%r9d, %rdi
	movl	(%rbx,%rdi,4), %r14d
	movslq	%r9d, %rdi
	movl	(%r15,%rdi,4), %r9d
	movl	-116(%rbp), %r12d       # 4-byte Reload
	subl	%r11d, %r12d
	movl	-120(%rbp), %r11d       # 4-byte Reload
	subl	%r14d, %r11d
	movl	-124(%rbp), %r14d       # 4-byte Reload
	subl	%r9d, %r14d
	movl	%r12d, %r9d
	imull	%r9d, %r9d
	movl	%r11d, %r13d
	imull	%r13d, %r13d
	movl	%r14d, %edi
	imull	%edi, %edi
	addl	%r13d, %r9d
	addl	%edi, %r9d
	movl	%r9d, %edi
	imull	%edi, %edi
	imull	%r9d, %edi
	imull	%edi, %r9d
	imull	$15, %edi, %edi
	addl	$-20, %edi
	imull	%edi, %r9d
	imull	%r9d, %r12d
	addl	%r12d, %eax
	imull	%r9d, %r11d
	addl	%r11d, %ecx
	imull	%r9d, %r14d
	addl	%r14d, %edx
	addq	$1, %rsi
	movq	-112(%rbp), %rdi        # 8-byte Reload
	shlq	$5, %rdi
	addq	%rsi, %rdi
	movl	(%r8,%rdi,4), %r9d
	movslq	%r9d, %rdi
	movl	(%r10,%rdi,4), %r11d
	movslq	%r9d, %rdi
	movl	(%rbx,%rdi,4), %r14d
	movslq	%r9d, %rdi
	movl	(%r15,%rdi,4), %r9d
	movl	-116(%rbp), %r12d       # 4-byte Reload
	subl	%r11d, %r12d
	movl	-120(%rbp), %r11d       # 4-byte Reload
	subl	%r14d, %r11d
	movl	-124(%rbp), %r14d       # 4-byte Reload
	subl	%r9d, %r14d
	movl	%r12d, %r9d
	imull	%r9d, %r9d
	movl	%r11d, %r13d
	imull	%r13d, %r13d
	movl	%r14d, %edi
	imull	%edi, %edi
	addl	%r13d, %r9d
	addl	%edi, %r9d
	movl	%r9d, %edi
	imull	%edi, %edi
	imull	%r9d, %edi
	imull	%edi, %r9d
	imull	$15, %edi, %edi
	addl	$-20, %edi
	imull	%edi, %r9d
	imull	%r9d, %r12d
	addl	%r12d, %eax
	imull	%r9d, %r11d
	addl	%r11d, %ecx
	imull	%r9d, %r14d
	addl	%r14d, %edx
	addq	$1, %rsi
	movq	-112(%rbp), %rdi        # 8-byte Reload
	shlq	$5, %rdi
	addq	%rsi, %rdi
	movl	(%r8,%rdi,4), %r9d
	movslq	%r9d, %rdi
	movl	(%r10,%rdi,4), %r11d
	movslq	%r9d, %rdi
	movl	(%rbx,%rdi,4), %r14d
	movslq	%r9d, %rdi
	movl	(%r15,%rdi,4), %r9d
	movl	-116(%rbp), %r12d       # 4-byte Reload
	subl	%r11d, %r12d
	movl	-120(%rbp), %r11d       # 4-byte Reload
	subl	%r14d, %r11d
	movl	-124(%rbp), %r14d       # 4-byte Reload
	subl	%r9d, %r14d
	movl	%r12d, %r9d
	imull	%r9d, %r9d
	movl	%r11d, %r13d
	imull	%r13d, %r13d
	movl	%r14d, %edi
	imull	%edi, %edi
	addl	%r13d, %r9d
	addl	%edi, %r9d
	movl	%r9d, %edi
	imull	%edi, %edi
	imull	%r9d, %edi
	imull	%edi, %r9d
	imull	$15, %edi, %edi
	addl	$-20, %edi
	imull	%edi, %r9d
	imull	%r9d, %r12d
	addl	%r12d, %eax
	imull	%r9d, %r11d
	addl	%r11d, %ecx
	imull	%r9d, %r14d
	addl	%r14d, %edx
	addq	$1, %rsi
	movq	-112(%rbp), %rdi        # 8-byte Reload
	shlq	$5, %rdi
	addq	%rsi, %rdi
	movl	(%r8,%rdi,4), %r9d
	movslq	%r9d, %rdi
	movl	(%r10,%rdi,4), %r11d
	movslq	%r9d, %rdi
	movl	(%rbx,%rdi,4), %r14d
	movslq	%r9d, %rdi
	movl	(%r15,%rdi,4), %r9d
	movl	-116(%rbp), %r12d       # 4-byte Reload
	subl	%r11d, %r12d
	movl	-120(%rbp), %r11d       # 4-byte Reload
	subl	%r14d, %r11d
	movl	-124(%rbp), %r14d       # 4-byte Reload
	subl	%r9d, %r14d
	movl	%r12d, %r9d
	imull	%r9d, %r9d
	movl	%r11d, %r13d
	imull	%r13d, %r13d
	movl	%r14d, %edi
	imull	%edi, %edi
	addl	%r13d, %r9d
	addl	%edi, %r9d
	movl	%r9d, %edi
	imull	%edi, %edi
	imull	%r9d, %edi
	imull	%edi, %r9d
	imull	$15, %edi, %edi
	addl	$-20, %edi
	imull	%edi, %r9d
	imull	%r9d, %r12d
	addl	%r12d, %eax
	imull	%r9d, %r11d
	addl	%r11d, %ecx
	imull	%r9d, %r14d
	addl	%r14d, %edx
	addq	$1, %rsi
	movq	-112(%rbp), %rdi        # 8-byte Reload
	shlq	$5, %rdi
	addq	%rsi, %rdi
	movl	(%r8,%rdi,4), %r9d
	movslq	%r9d, %rdi
	movl	(%r10,%rdi,4), %r11d
	movslq	%r9d, %rdi
	movl	(%rbx,%rdi,4), %r14d
	movslq	%r9d, %rdi
	movl	(%r15,%rdi,4), %r9d
	movl	-116(%rbp), %r12d       # 4-byte Reload
	subl	%r11d, %r12d
	movl	-120(%rbp), %r11d       # 4-byte Reload
	subl	%r14d, %r11d
	movl	-124(%rbp), %r14d       # 4-byte Reload
	subl	%r9d, %r14d
	movl	%r12d, %r9d
	imull	%r9d, %r9d
	movl	%r11d, %r13d
	imull	%r13d, %r13d
	movl	%r14d, %edi
	imull	%edi, %edi
	addl	%r13d, %r9d
	addl	%edi, %r9d
	movl	%r9d, %edi
	imull	%edi, %edi
	imull	%r9d, %edi
	imull	%edi, %r9d
	imull	$15, %edi, %edi
	addl	$-20, %edi
	imull	%edi, %r9d
	imull	%r9d, %r12d
	addl	%r12d, %eax
	imull	%r9d, %r11d
	addl	%r11d, %ecx
	imull	%r9d, %r14d
	addl	%r14d, %edx
	addq	$1, %rsi
	movq	-112(%rbp), %rdi        # 8-byte Reload
	shlq	$5, %rdi
	addq	%rsi, %rdi
	movl	(%r8,%rdi,4), %r9d
	movslq	%r9d, %rdi
	movl	(%r10,%rdi,4), %r11d
	movslq	%r9d, %rdi
	movl	(%rbx,%rdi,4), %r14d
	movslq	%r9d, %rdi
	movl	(%r15,%rdi,4), %r9d
	movl	-116(%rbp), %r12d       # 4-byte Reload
	subl	%r11d, %r12d
	movl	-120(%rbp), %r11d       # 4-byte Reload
	subl	%r14d, %r11d
	movl	-124(%rbp), %r14d       # 4-byte Reload
	subl	%r9d, %r14d
	movl	%r12d, %r9d
	imull	%r9d, %r9d
	movl	%r11d, %r13d
	imull	%r13d, %r13d
	movl	%r14d, %edi
	imull	%edi, %edi
	addl	%r13d, %r9d
	addl	%edi, %r9d
	movl	%r9d, %edi
	imull	%edi, %edi
	imull	%r9d, %edi
	imull	%edi, %r9d
	imull	$15, %edi, %edi
	addl	$-20, %edi
	imull	%edi, %r9d
	imull	%r9d, %r12d
	addl	%r12d, %eax
	imull	%r9d, %r11d
	addl	%r11d, %ecx
	imull	%r9d, %r14d
	addl	%r14d, %edx
	addq	$1, %rsi
	movq	-112(%rbp), %rdi        # 8-byte Reload
	shlq	$5, %rdi
	addq	%rsi, %rdi
	movl	(%r8,%rdi,4), %r9d
	movslq	%r9d, %rdi
	movl	(%r10,%rdi,4), %r11d
	movslq	%r9d, %rdi
	movl	(%rbx,%rdi,4), %r14d
	movslq	%r9d, %rdi
	movl	(%r15,%rdi,4), %r9d
	movl	-116(%rbp), %r12d       # 4-byte Reload
	subl	%r11d, %r12d
	movl	-120(%rbp), %r11d       # 4-byte Reload
	subl	%r14d, %r11d
	movl	-124(%rbp), %r14d       # 4-byte Reload
	subl	%r9d, %r14d
	movl	%r12d, %r9d
	imull	%r9d, %r9d
	movl	%r11d, %r13d
	imull	%r13d, %r13d
	movl	%r14d, %edi
	imull	%edi, %edi
	addl	%r13d, %r9d
	addl	%edi, %r9d
	movl	%r9d, %edi
	imull	%edi, %edi
	imull	%r9d, %edi
	imull	%edi, %r9d
	imull	$15, %edi, %edi
	addl	$-20, %edi
	imull	%edi, %r9d
	imull	%r9d, %r12d
	addl	%r12d, %eax
	imull	%r9d, %r11d
	addl	%r11d, %ecx
	imull	%r9d, %r14d
	addl	%r14d, %edx
	addq	$1, %rsi
	movq	-112(%rbp), %rdi        # 8-byte Reload
	shlq	$5, %rdi
	addq	%rsi, %rdi
	movl	(%r8,%rdi,4), %r9d
	movslq	%r9d, %rdi
	movl	(%r10,%rdi,4), %r11d
	movslq	%r9d, %rdi
	movl	(%rbx,%rdi,4), %r14d
	movslq	%r9d, %rdi
	movl	(%r15,%rdi,4), %r9d
	movl	-116(%rbp), %r12d       # 4-byte Reload
	subl	%r11d, %r12d
	movl	-120(%rbp), %r11d       # 4-byte Reload
	subl	%r14d, %r11d
	movl	-124(%rbp), %r14d       # 4-byte Reload
	subl	%r9d, %r14d
	movl	%r12d, %r9d
	imull	%r9d, %r9d
	movl	%r11d, %r13d
	imull	%r13d, %r13d
	movl	%r14d, %edi
	imull	%edi, %edi
	addl	%r13d, %r9d
	addl	%edi, %r9d
	movl	%r9d, %edi
	imull	%edi, %edi
	imull	%r9d, %edi
	imull	%edi, %r9d
	imull	$15, %edi, %edi
	addl	$-20, %edi
	imull	%edi, %r9d
	imull	%r9d, %r12d
	addl	%r12d, %eax
	imull	%r9d, %r11d
	addl	%r11d, %ecx
	imull	%r9d, %r14d
	addl	%r14d, %edx
	addq	$1, %rsi
	movq	-112(%rbp), %rdi        # 8-byte Reload
	shlq	$5, %rdi
	addq	%rsi, %rdi
	movl	(%r8,%rdi,4), %r9d
	movslq	%r9d, %rdi
	movl	(%r10,%rdi,4), %r11d
	movslq	%r9d, %rdi
	movl	(%rbx,%rdi,4), %r14d
	movslq	%r9d, %rdi
	movl	(%r15,%rdi,4), %r9d
	movl	-116(%rbp), %r12d       # 4-byte Reload
	subl	%r11d, %r12d
	movl	-120(%rbp), %r11d       # 4-byte Reload
	subl	%r14d, %r11d
	movl	-124(%rbp), %r14d       # 4-byte Reload
	subl	%r9d, %r14d
	movl	%r12d, %r9d
	imull	%r9d, %r9d
	movl	%r11d, %r13d
	imull	%r13d, %r13d
	movl	%r14d, %edi
	imull	%edi, %edi
	addl	%r13d, %r9d
	addl	%edi, %r9d
	movl	%r9d, %edi
	imull	%edi, %edi
	imull	%r9d, %edi
	imull	%edi, %r9d
	imull	$15, %edi, %edi
	addl	$-20, %edi
	imull	%edi, %r9d
	imull	%r9d, %r12d
	addl	%r12d, %eax
	imull	%r9d, %r11d
	addl	%r11d, %ecx
	imull	%r9d, %r14d
	addl	%r14d, %edx
	addq	$1, %rsi
	movq	-112(%rbp), %rdi        # 8-byte Reload
	shlq	$5, %rdi
	addq	%rsi, %rdi
	movl	(%r8,%rdi,4), %r9d
	movslq	%r9d, %rdi
	movl	(%r10,%rdi,4), %r11d
	movslq	%r9d, %rdi
	movl	(%rbx,%rdi,4), %r14d
	movslq	%r9d, %rdi
	movl	(%r15,%rdi,4), %r9d
	movl	-116(%rbp), %r12d       # 4-byte Reload
	subl	%r11d, %r12d
	movl	-120(%rbp), %r11d       # 4-byte Reload
	subl	%r14d, %r11d
	movl	-124(%rbp), %r14d       # 4-byte Reload
	subl	%r9d, %r14d
	movl	%r12d, %r9d
	imull	%r9d, %r9d
	movl	%r11d, %r13d
	imull	%r13d, %r13d
	movl	%r14d, %edi
	imull	%edi, %edi
	addl	%r13d, %r9d
	addl	%edi, %r9d
	movl	%r9d, %edi
	imull	%edi, %edi
	imull	%r9d, %edi
	imull	%edi, %r9d
	imull	$15, %edi, %edi
	addl	$-20, %edi
	imull	%edi, %r9d
	imull	%r9d, %r12d
	addl	%r12d, %eax
	imull	%r9d, %r11d
	addl	%r11d, %ecx
	imull	%r9d, %r14d
	addl	%r14d, %edx
	addq	$1, %rsi
	movq	-112(%rbp), %rdi        # 8-byte Reload
	shlq	$5, %rdi
	addq	%rsi, %rdi
	movl	(%r8,%rdi,4), %r9d
	movslq	%r9d, %rdi
	movl	(%r10,%rdi,4), %r11d
	movslq	%r9d, %rdi
	movl	(%rbx,%rdi,4), %r14d
	movslq	%r9d, %rdi
	movl	(%r15,%rdi,4), %r9d
	movl	-116(%rbp), %r12d       # 4-byte Reload
	subl	%r11d, %r12d
	movl	-120(%rbp), %r11d       # 4-byte Reload
	subl	%r14d, %r11d
	movl	-124(%rbp), %r14d       # 4-byte Reload
	subl	%r9d, %r14d
	movl	%r12d, %r9d
	imull	%r9d, %r9d
	movl	%r11d, %r13d
	imull	%r13d, %r13d
	movl	%r14d, %edi
	imull	%edi, %edi
	addl	%r13d, %r9d
	addl	%edi, %r9d
	movl	%r9d, %edi
	imull	%edi, %edi
	imull	%r9d, %edi
	imull	%edi, %r9d
	imull	$15, %edi, %edi
	addl	$-20, %edi
	imull	%edi, %r9d
	imull	%r9d, %r12d
	addl	%r12d, %eax
	imull	%r9d, %r11d
	addl	%r11d, %ecx
	imull	%r9d, %r14d
	addl	%r14d, %edx
	addq	$1, %rsi
	movq	-112(%rbp), %rdi        # 8-byte Reload
	shlq	$5, %rdi
	addq	%rsi, %rdi
	movl	(%r8,%rdi,4), %r9d
	movslq	%r9d, %rdi
	movl	(%r10,%rdi,4), %r11d
	movslq	%r9d, %rdi
	movl	(%rbx,%rdi,4), %r14d
	movslq	%r9d, %rdi
	movl	(%r15,%rdi,4), %r9d
	movl	-116(%rbp), %r12d       # 4-byte Reload
	subl	%r11d, %r12d
	movl	-120(%rbp), %r11d       # 4-byte Reload
	subl	%r14d, %r11d
	movl	-124(%rbp), %r14d       # 4-byte Reload
	subl	%r9d, %r14d
	movl	%r12d, %r9d
	imull	%r9d, %r9d
	movl	%r11d, %r13d
	imull	%r13d, %r13d
	movl	%r14d, %edi
	imull	%edi, %edi
	addl	%r13d, %r9d
	addl	%edi, %r9d
	movl	%r9d, %edi
	imull	%edi, %edi
	imull	%r9d, %edi
	imull	%edi, %r9d
	imull	$15, %edi, %edi
	addl	$-20, %edi
	imull	%edi, %r9d
	imull	%r9d, %r12d
	addl	%r12d, %eax
	imull	%r9d, %r11d
	addl	%r11d, %ecx
	imull	%r9d, %r14d
	addl	%r14d, %edx
	addq	$1, %rsi
	movq	-112(%rbp), %rdi        # 8-byte Reload
	shlq	$5, %rdi
	addq	%rsi, %rdi
	movl	(%r8,%rdi,4), %r9d
	movslq	%r9d, %rdi
	movl	(%r10,%rdi,4), %r11d
	movslq	%r9d, %rdi
	movl	(%rbx,%rdi,4), %r14d
	movslq	%r9d, %rdi
	movl	(%r15,%rdi,4), %r9d
	movl	-116(%rbp), %r12d       # 4-byte Reload
	subl	%r11d, %r12d
	movl	-120(%rbp), %r11d       # 4-byte Reload
	subl	%r14d, %r11d
	movl	-124(%rbp), %r14d       # 4-byte Reload
	subl	%r9d, %r14d
	movl	%r12d, %r9d
	imull	%r9d, %r9d
	movl	%r11d, %r13d
	imull	%r13d, %r13d
	movl	%r14d, %edi
	imull	%edi, %edi
	addl	%r13d, %r9d
	addl	%edi, %r9d
	movl	%r9d, %edi
	imull	%edi, %edi
	imull	%r9d, %edi
	imull	%edi, %r9d
	imull	$15, %edi, %edi
	addl	$-20, %edi
	imull	%edi, %r9d
	imull	%r9d, %r12d
	addl	%r12d, %eax
	imull	%r9d, %r11d
	addl	%r11d, %ecx
	imull	%r9d, %r14d
	addl	%r14d, %edx
	addq	$1, %rsi
	movq	-112(%rbp), %rdi        # 8-byte Reload
	shlq	$5, %rdi
	addq	%rsi, %rdi
	movl	(%r8,%rdi,4), %r9d
	movslq	%r9d, %rdi
	movl	(%r10,%rdi,4), %r11d
	movslq	%r9d, %rdi
	movl	(%rbx,%rdi,4), %r14d
	movslq	%r9d, %rdi
	movl	(%r15,%rdi,4), %r9d
	movl	-116(%rbp), %r12d       # 4-byte Reload
	subl	%r11d, %r12d
	movl	-120(%rbp), %r11d       # 4-byte Reload
	subl	%r14d, %r11d
	movl	-124(%rbp), %r14d       # 4-byte Reload
	subl	%r9d, %r14d
	movl	%r12d, %r9d
	imull	%r9d, %r9d
	movl	%r11d, %r13d
	imull	%r13d, %r13d
	movl	%r14d, %edi
	imull	%edi, %edi
	addl	%r13d, %r9d
	addl	%edi, %r9d
	movl	%r9d, %edi
	imull	%edi, %edi
	imull	%r9d, %edi
	imull	%edi, %r9d
	imull	$15, %edi, %edi
	addl	$-20, %edi
	imull	%edi, %r9d
	imull	%r9d, %r12d
	addl	%r12d, %eax
	imull	%r9d, %r11d
	addl	%r11d, %ecx
	imull	%r9d, %r14d
	addl	%r14d, %edx
	addq	$1, %rsi
	movq	-112(%rbp), %rdi        # 8-byte Reload
	shlq	$5, %rdi
	addq	%rsi, %rdi
	movl	(%r8,%rdi,4), %r9d
	movslq	%r9d, %rdi
	movl	(%r10,%rdi,4), %r11d
	movslq	%r9d, %rdi
	movl	(%rbx,%rdi,4), %r14d
	movslq	%r9d, %rdi
	movl	(%r15,%rdi,4), %r9d
	movl	-116(%rbp), %r12d       # 4-byte Reload
	subl	%r11d, %r12d
	movl	-120(%rbp), %r11d       # 4-byte Reload
	subl	%r14d, %r11d
	movl	-124(%rbp), %r14d       # 4-byte Reload
	subl	%r9d, %r14d
	movl	%r12d, %r9d
	imull	%r9d, %r9d
	movl	%r11d, %r13d
	imull	%r13d, %r13d
	movl	%r14d, %edi
	imull	%edi, %edi
	addl	%r13d, %r9d
	addl	%edi, %r9d
	movl	%r9d, %edi
	imull	%edi, %edi
	imull	%r9d, %edi
	imull	%edi, %r9d
	imull	$15, %edi, %edi
	addl	$-20, %edi
	imull	%edi, %r9d
	imull	%r9d, %r12d
	addl	%r12d, %eax
	imull	%r9d, %r11d
	addl	%r11d, %ecx
	imull	%r9d, %r14d
	addl	%r14d, %edx
	addq	$1, %rsi
	movq	-112(%rbp), %rdi        # 8-byte Reload
	shlq	$5, %rdi
	addq	%rsi, %rdi
	movl	(%r8,%rdi,4), %r9d
	movslq	%r9d, %rdi
	movl	(%r10,%rdi,4), %r11d
	movslq	%r9d, %rdi
	movl	(%rbx,%rdi,4), %r14d
	movslq	%r9d, %rdi
	movl	(%r15,%rdi,4), %r9d
	movl	-116(%rbp), %r12d       # 4-byte Reload
	subl	%r11d, %r12d
	movl	-120(%rbp), %r11d       # 4-byte Reload
	subl	%r14d, %r11d
	movl	-124(%rbp), %r14d       # 4-byte Reload
	subl	%r9d, %r14d
	movl	%r12d, %r9d
	imull	%r9d, %r9d
	movl	%r11d, %r13d
	imull	%r13d, %r13d
	movl	%r14d, %edi
	imull	%edi, %edi
	addl	%r13d, %r9d
	addl	%edi, %r9d
	movl	%r9d, %edi
	imull	%edi, %edi
	imull	%r9d, %edi
	imull	%edi, %r9d
	imull	$15, %edi, %edi
	addl	$-20, %edi
	imull	%edi, %r9d
	imull	%r9d, %r12d
	addl	%r12d, %eax
	imull	%r9d, %r11d
	addl	%r11d, %ecx
	imull	%r9d, %r14d
	addl	%r14d, %edx
	addq	$1, %rsi
	movq	-112(%rbp), %rdi        # 8-byte Reload
	shlq	$5, %rdi
	addq	%rsi, %rdi
	movl	(%r8,%rdi,4), %r9d
	movslq	%r9d, %rdi
	movl	(%r10,%rdi,4), %r11d
	movslq	%r9d, %rdi
	movl	(%rbx,%rdi,4), %r14d
	movslq	%r9d, %rdi
	movl	(%r15,%rdi,4), %r9d
	movl	-116(%rbp), %r12d       # 4-byte Reload
	subl	%r11d, %r12d
	movl	-120(%rbp), %r11d       # 4-byte Reload
	subl	%r14d, %r11d
	movl	-124(%rbp), %r14d       # 4-byte Reload
	subl	%r9d, %r14d
	movl	%r12d, %r9d
	imull	%r9d, %r9d
	movl	%r11d, %r13d
	imull	%r13d, %r13d
	movl	%r14d, %edi
	imull	%edi, %edi
	addl	%r13d, %r9d
	addl	%edi, %r9d
	movl	%r9d, %edi
	imull	%edi, %edi
	imull	%r9d, %edi
	imull	%edi, %r9d
	imull	$15, %edi, %edi
	addl	$-20, %edi
	imull	%edi, %r9d
	imull	%r9d, %r12d
	addl	%r12d, %eax
	imull	%r9d, %r11d
	addl	%r11d, %ecx
	imull	%r9d, %r14d
	addl	%r14d, %edx
	addq	$1, %rsi
	movq	-112(%rbp), %rdi        # 8-byte Reload
	shlq	$5, %rdi
	addq	%rsi, %rdi
	movl	(%r8,%rdi,4), %r9d
	movslq	%r9d, %rdi
	movl	(%r10,%rdi,4), %r11d
	movslq	%r9d, %rdi
	movl	(%rbx,%rdi,4), %r14d
	movslq	%r9d, %rdi
	movl	(%r15,%rdi,4), %r9d
	movl	-116(%rbp), %r12d       # 4-byte Reload
	subl	%r11d, %r12d
	movl	-120(%rbp), %r11d       # 4-byte Reload
	subl	%r14d, %r11d
	movl	-124(%rbp), %r14d       # 4-byte Reload
	subl	%r9d, %r14d
	movl	%r12d, %r9d
	imull	%r9d, %r9d
	movl	%r11d, %r13d
	imull	%r13d, %r13d
	movl	%r14d, %edi
	imull	%edi, %edi
	addl	%r13d, %r9d
	addl	%edi, %r9d
	movl	%r9d, %edi
	imull	%edi, %edi
	imull	%r9d, %edi
	imull	%edi, %r9d
	imull	$15, %edi, %edi
	addl	$-20, %edi
	imull	%edi, %r9d
	imull	%r9d, %r12d
	addl	%r12d, %eax
	imull	%r9d, %r11d
	addl	%r11d, %ecx
	imull	%r9d, %r14d
	addl	%r14d, %edx
	addq	$1, %rsi
	movq	-112(%rbp), %rdi        # 8-byte Reload
	shlq	$5, %rdi
	addq	%rsi, %rdi
	movl	(%r8,%rdi,4), %r9d
	movslq	%r9d, %rdi
	movl	(%r10,%rdi,4), %r11d
	movslq	%r9d, %rdi
	movl	(%rbx,%rdi,4), %r14d
	movslq	%r9d, %rdi
	movl	(%r15,%rdi,4), %r9d
	movl	-116(%rbp), %r12d       # 4-byte Reload
	subl	%r11d, %r12d
	movl	-120(%rbp), %r11d       # 4-byte Reload
	subl	%r14d, %r11d
	movl	-124(%rbp), %r14d       # 4-byte Reload
	subl	%r9d, %r14d
	movl	%r12d, %r9d
	imull	%r9d, %r9d
	movl	%r11d, %r13d
	imull	%r13d, %r13d
	movl	%r14d, %edi
	imull	%edi, %edi
	addl	%r13d, %r9d
	addl	%edi, %r9d
	movl	%r9d, %edi
	imull	%edi, %edi
	imull	%r9d, %edi
	imull	%edi, %r9d
	imull	$15, %edi, %edi
	addl	$-20, %edi
	imull	%edi, %r9d
	imull	%r9d, %r12d
	addl	%r12d, %eax
	imull	%r9d, %r11d
	addl	%r11d, %ecx
	imull	%r9d, %r14d
	addl	%r14d, %edx
	addq	$1, %rsi
	movq	-112(%rbp), %rdi        # 8-byte Reload
	shlq	$5, %rdi
	addq	%rsi, %rdi
	movl	(%r8,%rdi,4), %r9d
	movslq	%r9d, %rdi
	movl	(%r10,%rdi,4), %r11d
	movslq	%r9d, %rdi
	movl	(%rbx,%rdi,4), %r14d
	movslq	%r9d, %rdi
	movl	(%r15,%rdi,4), %r9d
	movl	-116(%rbp), %r12d       # 4-byte Reload
	subl	%r11d, %r12d
	movl	-120(%rbp), %r11d       # 4-byte Reload
	subl	%r14d, %r11d
	movl	-124(%rbp), %r14d       # 4-byte Reload
	subl	%r9d, %r14d
	movl	%r12d, %r9d
	imull	%r9d, %r9d
	movl	%r11d, %r13d
	imull	%r13d, %r13d
	movl	%r14d, %edi
	imull	%edi, %edi
	addl	%r13d, %r9d
	addl	%edi, %r9d
	movl	%r9d, %edi
	imull	%edi, %edi
	imull	%r9d, %edi
	imull	%edi, %r9d
	imull	$15, %edi, %edi
	addl	$-20, %edi
	imull	%edi, %r9d
	imull	%r9d, %r12d
	addl	%r12d, %eax
	imull	%r9d, %r11d
	addl	%r11d, %ecx
	imull	%r9d, %r14d
	addl	%r14d, %edx
	addq	$1, %rsi
	movq	-112(%rbp), %rdi        # 8-byte Reload
	shlq	$5, %rdi
	addq	%rsi, %rdi
	movl	(%r8,%rdi,4), %r9d
	movslq	%r9d, %rdi
	movl	(%r10,%rdi,4), %r11d
	movslq	%r9d, %rdi
	movl	(%rbx,%rdi,4), %r14d
	movslq	%r9d, %rdi
	movl	(%r15,%rdi,4), %r9d
	movl	-116(%rbp), %r12d       # 4-byte Reload
	subl	%r11d, %r12d
	movl	-120(%rbp), %r11d       # 4-byte Reload
	subl	%r14d, %r11d
	movl	-124(%rbp), %r14d       # 4-byte Reload
	subl	%r9d, %r14d
	movl	%r12d, %r9d
	imull	%r9d, %r9d
	movl	%r11d, %r13d
	imull	%r13d, %r13d
	movl	%r14d, %edi
	imull	%edi, %edi
	addl	%r13d, %r9d
	addl	%edi, %r9d
	movl	%r9d, %edi
	imull	%edi, %edi
	imull	%r9d, %edi
	imull	%edi, %r9d
	imull	$15, %edi, %edi
	addl	$-20, %edi
	imull	%edi, %r9d
	imull	%r9d, %r12d
	addl	%r12d, %eax
	imull	%r9d, %r11d
	addl	%r11d, %ecx
	imull	%r9d, %r14d
	addl	%r14d, %edx
	addq	$1, %rsi
	movq	-112(%rbp), %rdi        # 8-byte Reload
	shlq	$5, %rdi
	addq	%rsi, %rdi
	movl	(%r8,%rdi,4), %r9d
	movslq	%r9d, %rdi
	movl	(%r10,%rdi,4), %r11d
	movslq	%r9d, %rdi
	movl	(%rbx,%rdi,4), %r14d
	movslq	%r9d, %rdi
	movl	(%r15,%rdi,4), %r9d
	movl	-116(%rbp), %r12d       # 4-byte Reload
	subl	%r11d, %r12d
	movl	-120(%rbp), %r11d       # 4-byte Reload
	subl	%r14d, %r11d
	movl	-124(%rbp), %r14d       # 4-byte Reload
	subl	%r9d, %r14d
	movl	%r12d, %r9d
	imull	%r9d, %r9d
	movl	%r11d, %r13d
	imull	%r13d, %r13d
	movl	%r14d, %edi
	imull	%edi, %edi
	addl	%r13d, %r9d
	addl	%edi, %r9d
	movl	%r9d, %edi
	imull	%edi, %edi
	imull	%r9d, %edi
	imull	%edi, %r9d
	imull	$15, %edi, %edi
	addl	$-20, %edi
	imull	%edi, %r9d
	imull	%r9d, %r12d
	addl	%r12d, %eax
	imull	%r9d, %r11d
	addl	%r11d, %ecx
	imull	%r9d, %r14d
	addl	%r14d, %edx
	addq	$1, %rsi
	movq	-112(%rbp), %rdi        # 8-byte Reload
	shlq	$5, %rdi
	addq	%rsi, %rdi
	movl	(%r8,%rdi,4), %r9d
	movslq	%r9d, %rdi
	movl	(%r10,%rdi,4), %r11d
	movslq	%r9d, %rdi
	movl	(%rbx,%rdi,4), %r14d
	movslq	%r9d, %rdi
	movl	(%r15,%rdi,4), %r9d
	movl	-116(%rbp), %r12d       # 4-byte Reload
	subl	%r11d, %r12d
	movl	-120(%rbp), %r11d       # 4-byte Reload
	subl	%r14d, %r11d
	movl	-124(%rbp), %r14d       # 4-byte Reload
	subl	%r9d, %r14d
	movl	%r12d, %r9d
	imull	%r9d, %r9d
	movl	%r11d, %r13d
	imull	%r13d, %r13d
	movl	%r14d, %edi
	imull	%edi, %edi
	addl	%r13d, %r9d
	addl	%edi, %r9d
	movl	%r9d, %edi
	imull	%edi, %edi
	imull	%r9d, %edi
	imull	%edi, %r9d
	imull	$15, %edi, %edi
	addl	$-20, %edi
	imull	%edi, %r9d
	imull	%r9d, %r12d
	addl	%r12d, %eax
	imull	%r9d, %r11d
	addl	%r11d, %ecx
	imull	%r9d, %r14d
	addl	%r14d, %edx
	addq	$1, %rsi
	movq	-112(%rbp), %rdi        # 8-byte Reload
	shlq	$5, %rdi
	addq	%rsi, %rdi
	movl	(%r8,%rdi,4), %r9d
	movslq	%r9d, %rdi
	movl	(%r10,%rdi,4), %r11d
	movslq	%r9d, %rdi
	movl	(%rbx,%rdi,4), %r14d
	movslq	%r9d, %rdi
	movl	(%r15,%rdi,4), %r9d
	movl	-116(%rbp), %r12d       # 4-byte Reload
	subl	%r11d, %r12d
	movl	-120(%rbp), %r11d       # 4-byte Reload
	subl	%r14d, %r11d
	movl	-124(%rbp), %r14d       # 4-byte Reload
	subl	%r9d, %r14d
	movl	%r12d, %r9d
	imull	%r9d, %r9d
	movl	%r11d, %r13d
	imull	%r13d, %r13d
	movl	%r14d, %edi
	imull	%edi, %edi
	addl	%r13d, %r9d
	addl	%edi, %r9d
	movl	%r9d, %edi
	imull	%edi, %edi
	imull	%r9d, %edi
	imull	%edi, %r9d
	imull	$15, %edi, %edi
	addl	$-20, %edi
	imull	%edi, %r9d
	imull	%r9d, %r12d
	addl	%r12d, %eax
	imull	%r9d, %r11d
	addl	%r11d, %ecx
	imull	%r9d, %r14d
	addl	%r14d, %edx
	addq	$1, %rsi
	movq	-112(%rbp), %rdi        # 8-byte Reload
	shlq	$5, %rdi
	addq	%rsi, %rdi
	movl	(%r8,%rdi,4), %r9d
	movslq	%r9d, %rdi
	movl	(%r10,%rdi,4), %r11d
	movslq	%r9d, %rdi
	movl	(%rbx,%rdi,4), %r14d
	movslq	%r9d, %rdi
	movl	(%r15,%rdi,4), %r9d
	movl	-116(%rbp), %r12d       # 4-byte Reload
	subl	%r11d, %r12d
	movl	-120(%rbp), %r11d       # 4-byte Reload
	subl	%r14d, %r11d
	movl	-124(%rbp), %r14d       # 4-byte Reload
	subl	%r9d, %r14d
	movl	%r12d, %r9d
	imull	%r9d, %r9d
	movl	%r11d, %r13d
	imull	%r13d, %r13d
	movl	%r14d, %edi
	imull	%edi, %edi
	addl	%r13d, %r9d
	addl	%edi, %r9d
	movl	%r9d, %edi
	imull	%edi, %edi
	imull	%r9d, %edi
	imull	%edi, %r9d
	imull	$15, %edi, %edi
	addl	$-20, %edi
	imull	%edi, %r9d
	imull	%r9d, %r12d
	addl	%r12d, %eax
	imull	%r9d, %r11d
	addl	%r11d, %ecx
	imull	%r9d, %r14d
	addl	%r14d, %edx
	addq	$1, %rsi
	movq	-112(%rbp), %rdi        # 8-byte Reload
	shlq	$5, %rdi
	addq	%rsi, %rdi
	movl	(%r8,%rdi,4), %r9d
	movslq	%r9d, %rdi
	movl	(%r10,%rdi,4), %r11d
	movslq	%r9d, %rdi
	movl	(%rbx,%rdi,4), %r14d
	movslq	%r9d, %rdi
	movl	(%r15,%rdi,4), %r9d
	movl	-116(%rbp), %r12d       # 4-byte Reload
	subl	%r11d, %r12d
	movl	-120(%rbp), %r11d       # 4-byte Reload
	subl	%r14d, %r11d
	movl	-124(%rbp), %r14d       # 4-byte Reload
	subl	%r9d, %r14d
	movl	%r12d, %r9d
	imull	%r9d, %r9d
	movl	%r11d, %r13d
	imull	%r13d, %r13d
	movl	%r14d, %edi
	imull	%edi, %edi
	addl	%r13d, %r9d
	addl	%edi, %r9d
	movl	%r9d, %edi
	imull	%edi, %edi
	imull	%r9d, %edi
	imull	%edi, %r9d
	imull	$15, %edi, %edi
	addl	$-20, %edi
	imull	%edi, %r9d
	imull	%r9d, %r12d
	addl	%r12d, %eax
	imull	%r9d, %r11d
	addl	%r11d, %ecx
	imull	%r9d, %r14d
	addl	%r14d, %edx
	addq	$1, %rsi
	movq	-112(%rbp), %rdi        # 8-byte Reload
	shlq	$5, %rdi
	addq	%rsi, %rdi
	movl	(%r8,%rdi,4), %r9d
	movslq	%r9d, %rdi
	movl	(%r10,%rdi,4), %r11d
	movslq	%r9d, %rdi
	movl	(%rbx,%rdi,4), %r14d
	movslq	%r9d, %rdi
	movl	(%r15,%rdi,4), %r9d
	movl	-116(%rbp), %r12d       # 4-byte Reload
	subl	%r11d, %r12d
	movl	-120(%rbp), %r11d       # 4-byte Reload
	subl	%r14d, %r11d
	movl	-124(%rbp), %r14d       # 4-byte Reload
	subl	%r9d, %r14d
	movl	%r12d, %r9d
	imull	%r9d, %r9d
	movl	%r11d, %r13d
	imull	%r13d, %r13d
	movl	%r14d, %edi
	imull	%edi, %edi
	addl	%r13d, %r9d
	addl	%edi, %r9d
	movl	%r9d, %edi
	imull	%edi, %edi
	imull	%r9d, %edi
	imull	%edi, %r9d
	imull	$15, %edi, %edi
	addl	$-20, %edi
	imull	%edi, %r9d
	imull	%r9d, %r12d
	addl	%r12d, %eax
	imull	%r9d, %r11d
	addl	%r11d, %ecx
	imull	%r9d, %r14d
	addl	%r14d, %edx
	addq	$1, %rsi
	movq	-112(%rbp), %rdi        # 8-byte Reload
	shlq	$5, %rdi
	addq	%rsi, %rdi
	movl	(%r8,%rdi,4), %r9d
	movslq	%r9d, %rdi
	movl	(%r10,%rdi,4), %r11d
	movslq	%r9d, %rdi
	movl	(%rbx,%rdi,4), %r14d
	movslq	%r9d, %rdi
	movl	(%r15,%rdi,4), %r9d
	movl	-116(%rbp), %r12d       # 4-byte Reload
	subl	%r11d, %r12d
	movl	-120(%rbp), %r11d       # 4-byte Reload
	subl	%r14d, %r11d
	movl	-124(%rbp), %r14d       # 4-byte Reload
	subl	%r9d, %r14d
	movl	%r12d, %r9d
	imull	%r9d, %r9d
	movl	%r11d, %r13d
	imull	%r13d, %r13d
	movl	%r14d, %edi
	imull	%edi, %edi
	addl	%r13d, %r9d
	addl	%edi, %r9d
	movl	%r9d, %edi
	imull	%edi, %edi
	imull	%r9d, %edi
	imull	%edi, %r9d
	imull	$15, %edi, %edi
	addl	$-20, %edi
	imull	%edi, %r9d
	imull	%r9d, %r12d
	addl	%r12d, %eax
	imull	%r9d, %r11d
	addl	%r11d, %ecx
	imull	%r9d, %r14d
	addl	%r14d, %edx
	addq	$1, %rsi
	movq	-112(%rbp), %rdi        # 8-byte Reload
	shlq	$5, %rdi
	addq	%rsi, %rdi
	movl	(%r8,%rdi,4), %r9d
	movslq	%r9d, %rdi
	movl	(%r10,%rdi,4), %r11d
	movslq	%r9d, %rdi
	movl	(%rbx,%rdi,4), %r14d
	movslq	%r9d, %rdi
	movl	(%r15,%rdi,4), %r9d
	movl	-116(%rbp), %r12d       # 4-byte Reload
	subl	%r11d, %r12d
	movl	-120(%rbp), %r11d       # 4-byte Reload
	subl	%r14d, %r11d
	movl	-124(%rbp), %r14d       # 4-byte Reload
	subl	%r9d, %r14d
	movl	%r12d, %r9d
	imull	%r9d, %r9d
	movl	%r11d, %r13d
	imull	%r13d, %r13d
	movl	%r14d, %edi
	imull	%edi, %edi
	addl	%r13d, %r9d
	addl	%edi, %r9d
	movl	%r9d, %edi
	imull	%edi, %edi
	imull	%r9d, %edi
	imull	%edi, %r9d
	imull	$15, %edi, %edi
	addl	$-20, %edi
	imull	%edi, %r9d
	imull	%r9d, %r12d
	addl	%r12d, %eax
	imull	%r9d, %r11d
	addl	%r11d, %ecx
	imull	%r9d, %r14d
	addl	%r14d, %edx
	addq	$1, %rsi
	movq	-112(%rbp), %rdi        # 8-byte Reload
	shlq	$5, %rdi
	addq	%rsi, %rdi
	movl	(%r8,%rdi,4), %r9d
	movslq	%r9d, %rdi
	movl	(%r10,%rdi,4), %r11d
	movslq	%r9d, %rdi
	movl	(%rbx,%rdi,4), %r14d
	movslq	%r9d, %rdi
	movl	(%r15,%rdi,4), %r9d
	movl	-116(%rbp), %r12d       # 4-byte Reload
	subl	%r11d, %r12d
	movl	-120(%rbp), %r11d       # 4-byte Reload
	subl	%r14d, %r11d
	movl	-124(%rbp), %r14d       # 4-byte Reload
	subl	%r9d, %r14d
	movl	%r12d, %r9d
	imull	%r9d, %r9d
	movl	%r11d, %r13d
	imull	%r13d, %r13d
	movl	%r14d, %edi
	imull	%edi, %edi
	addl	%r13d, %r9d
	addl	%edi, %r9d
	movl	%r9d, %edi
	imull	%edi, %edi
	imull	%r9d, %edi
	imull	%edi, %r9d
	imull	$15, %edi, %edi
	addl	$-20, %edi
	imull	%edi, %r9d
	imull	%r9d, %r12d
	addl	%r12d, %eax
	imull	%r9d, %r11d
	addl	%r11d, %ecx
	imull	%r9d, %r14d
	addl	%r14d, %edx
	addq	$1, %rsi
	movq	-112(%rbp), %rdi        # 8-byte Reload
	shlq	$5, %rdi
	addq	%rsi, %rdi
	movl	(%r8,%rdi,4), %r9d
	movslq	%r9d, %rdi
	movl	(%r10,%rdi,4), %r11d
	movslq	%r9d, %rdi
	movl	(%rbx,%rdi,4), %r14d
	movslq	%r9d, %rdi
	movl	(%r15,%rdi,4), %r9d
	movl	-116(%rbp), %r12d       # 4-byte Reload
	subl	%r11d, %r12d
	movl	-120(%rbp), %r11d       # 4-byte Reload
	subl	%r14d, %r11d
	movl	-124(%rbp), %r14d       # 4-byte Reload
	subl	%r9d, %r14d
	movl	%r12d, %r9d
	imull	%r9d, %r9d
	movl	%r11d, %r13d
	imull	%r13d, %r13d
	movl	%r14d, %edi
	imull	%edi, %edi
	addl	%r13d, %r9d
	addl	%edi, %r9d
	movl	%r9d, %edi
	imull	%edi, %edi
	imull	%r9d, %edi
	imull	%edi, %r9d
	imull	$15, %edi, %edi
	addl	$-20, %edi
	imull	%edi, %r9d
	imull	%r9d, %r12d
	addl	%r12d, %eax
	imull	%r9d, %r11d
	addl	%r11d, %ecx
	imull	%r9d, %r14d
	addl	%r14d, %edx
	addq	$1, %rsi
	movq	-112(%rbp), %rdi        # 8-byte Reload
	shlq	$5, %rdi
	addq	%rsi, %rdi
	movl	(%r8,%rdi,4), %r9d
	movslq	%r9d, %rdi
	movl	(%r10,%rdi,4), %r11d
	movslq	%r9d, %rdi
	movl	(%rbx,%rdi,4), %r14d
	movslq	%r9d, %rdi
	movl	(%r15,%rdi,4), %r9d
	movl	-116(%rbp), %r12d       # 4-byte Reload
	subl	%r11d, %r12d
	movl	-120(%rbp), %r11d       # 4-byte Reload
	subl	%r14d, %r11d
	movl	-124(%rbp), %r14d       # 4-byte Reload
	subl	%r9d, %r14d
	movl	%r12d, %r9d
	imull	%r9d, %r9d
	movl	%r11d, %r13d
	imull	%r13d, %r13d
	movl	%r14d, %edi
	imull	%edi, %edi
	addl	%r13d, %r9d
	addl	%edi, %r9d
	movl	%r9d, %edi
	imull	%edi, %edi
	imull	%r9d, %edi
	imull	%edi, %r9d
	imull	$15, %edi, %edi
	addl	$-20, %edi
	imull	%edi, %r9d
	imull	%r9d, %r12d
	addl	%r12d, %eax
	imull	%r9d, %r11d
	addl	%r11d, %ecx
	imull	%r9d, %r14d
	addl	%r14d, %edx
	addq	$1, %rsi
	movq	-112(%rbp), %rdi        # 8-byte Reload
	shlq	$5, %rdi
	addq	%rsi, %rdi
	movl	(%r8,%rdi,4), %r9d
	movslq	%r9d, %rdi
	movl	(%r10,%rdi,4), %r11d
	movslq	%r9d, %rdi
	movl	(%rbx,%rdi,4), %r14d
	movslq	%r9d, %rdi
	movl	(%r15,%rdi,4), %r9d
	movl	-116(%rbp), %r12d       # 4-byte Reload
	subl	%r11d, %r12d
	movl	-120(%rbp), %r11d       # 4-byte Reload
	subl	%r14d, %r11d
	movl	-124(%rbp), %r14d       # 4-byte Reload
	subl	%r9d, %r14d
	movl	%r12d, %r9d
	imull	%r9d, %r9d
	movl	%r11d, %r13d
	imull	%r13d, %r13d
	movl	%r14d, %edi
	imull	%edi, %edi
	addl	%r13d, %r9d
	addl	%edi, %r9d
	movl	%r9d, %edi
	imull	%edi, %edi
	imull	%r9d, %edi
	imull	%edi, %r9d
	imull	$15, %edi, %edi
	addl	$-20, %edi
	imull	%edi, %r9d
	imull	%r9d, %r12d
	addl	%r12d, %eax
	imull	%r9d, %r11d
	addl	%r11d, %ecx
	imull	%r9d, %r14d
	addl	%r14d, %edx
	addq	$1, %rsi
	movq	-112(%rbp), %rdi        # 8-byte Reload
	shlq	$5, %rdi
	addq	%rsi, %rdi
	movl	(%r8,%rdi,4), %r9d
	movslq	%r9d, %rdi
	movl	(%r10,%rdi,4), %r11d
	movslq	%r9d, %rdi
	movl	(%rbx,%rdi,4), %r14d
	movslq	%r9d, %rdi
	movl	(%r15,%rdi,4), %r9d
	movl	-116(%rbp), %r12d       # 4-byte Reload
	subl	%r11d, %r12d
	movl	-120(%rbp), %r11d       # 4-byte Reload
	subl	%r14d, %r11d
	movl	-124(%rbp), %r14d       # 4-byte Reload
	subl	%r9d, %r14d
	movl	%r12d, %r9d
	imull	%r9d, %r9d
	movl	%r11d, %r13d
	imull	%r13d, %r13d
	movl	%r14d, %edi
	imull	%edi, %edi
	addl	%r13d, %r9d
	addl	%edi, %r9d
	movl	%r9d, %edi
	imull	%edi, %edi
	imull	%r9d, %edi
	imull	%edi, %r9d
	imull	$15, %edi, %edi
	addl	$-20, %edi
	imull	%edi, %r9d
	imull	%r9d, %r12d
	addl	%r12d, %eax
	imull	%r9d, %r11d
	addl	%r11d, %ecx
	imull	%r9d, %r14d
	addl	%r14d, %edx
	addq	$1, %rsi
	movq	-112(%rbp), %rdi        # 8-byte Reload
	shlq	$5, %rdi
	addq	%rsi, %rdi
	movl	(%r8,%rdi,4), %r9d
	movslq	%r9d, %rdi
	movl	(%r10,%rdi,4), %r11d
	movslq	%r9d, %rdi
	movl	(%rbx,%rdi,4), %r14d
	movslq	%r9d, %rdi
	movl	(%r15,%rdi,4), %r9d
	movl	-116(%rbp), %r12d       # 4-byte Reload
	subl	%r11d, %r12d
	movl	-120(%rbp), %r11d       # 4-byte Reload
	subl	%r14d, %r11d
	movl	-124(%rbp), %r14d       # 4-byte Reload
	subl	%r9d, %r14d
	movl	%r12d, %r9d
	imull	%r9d, %r9d
	movl	%r11d, %r13d
	imull	%r13d, %r13d
	movl	%r14d, %edi
	imull	%edi, %edi
	addl	%r13d, %r9d
	addl	%edi, %r9d
	movl	%r9d, %edi
	imull	%edi, %edi
	imull	%r9d, %edi
	imull	%edi, %r9d
	imull	$15, %edi, %edi
	addl	$-20, %edi
	imull	%edi, %r9d
	imull	%r9d, %r12d
	addl	%r12d, %eax
	imull	%r9d, %r11d
	addl	%r11d, %ecx
	imull	%r9d, %r14d
	addl	%r14d, %edx
	addq	$1, %rsi
	movq	-112(%rbp), %rdi        # 8-byte Reload
	shlq	$5, %rdi
	addq	%rsi, %rdi
	movl	(%r8,%rdi,4), %r9d
	movslq	%r9d, %rdi
	movl	(%r10,%rdi,4), %r11d
	movslq	%r9d, %rdi
	movl	(%rbx,%rdi,4), %r14d
	movslq	%r9d, %rdi
	movl	(%r15,%rdi,4), %r9d
	movl	-116(%rbp), %r12d       # 4-byte Reload
	subl	%r11d, %r12d
	movl	-120(%rbp), %r11d       # 4-byte Reload
	subl	%r14d, %r11d
	movl	-124(%rbp), %r14d       # 4-byte Reload
	subl	%r9d, %r14d
	movl	%r12d, %r9d
	imull	%r9d, %r9d
	movl	%r11d, %r13d
	imull	%r13d, %r13d
	movl	%r14d, %edi
	imull	%edi, %edi
	addl	%r13d, %r9d
	addl	%edi, %r9d
	movl	%r9d, %edi
	imull	%edi, %edi
	imull	%r9d, %edi
	imull	%edi, %r9d
	imull	$15, %edi, %edi
	addl	$-20, %edi
	imull	%edi, %r9d
	imull	%r9d, %r12d
	addl	%r12d, %eax
	imull	%r9d, %r11d
	addl	%r11d, %ecx
	imull	%r9d, %r14d
	addl	%r14d, %edx
	addq	$1, %rsi
	movq	-112(%rbp), %rdi        # 8-byte Reload
	shlq	$5, %rdi
	addq	%rsi, %rdi
	movl	(%r8,%rdi,4), %r9d
	movslq	%r9d, %rdi
	movl	(%r10,%rdi,4), %r11d
	movslq	%r9d, %rdi
	movl	(%rbx,%rdi,4), %r14d
	movslq	%r9d, %rdi
	movl	(%r15,%rdi,4), %r9d
	movl	-116(%rbp), %r12d       # 4-byte Reload
	subl	%r11d, %r12d
	movl	-120(%rbp), %r11d       # 4-byte Reload
	subl	%r14d, %r11d
	movl	-124(%rbp), %r14d       # 4-byte Reload
	subl	%r9d, %r14d
	movl	%r12d, %r9d
	imull	%r9d, %r9d
	movl	%r11d, %r13d
	imull	%r13d, %r13d
	movl	%r14d, %edi
	imull	%edi, %edi
	addl	%r13d, %r9d
	addl	%edi, %r9d
	movl	%r9d, %edi
	imull	%edi, %edi
	imull	%r9d, %edi
	imull	%edi, %r9d
	imull	$15, %edi, %edi
	addl	$-20, %edi
	imull	%edi, %r9d
	imull	%r9d, %r12d
	addl	%r12d, %eax
	imull	%r9d, %r11d
	addl	%r11d, %ecx
	imull	%r9d, %r14d
	addl	%r14d, %edx
	addq	$1, %rsi
	movq	-112(%rbp), %rdi        # 8-byte Reload
	shlq	$5, %rdi
	addq	%rsi, %rdi
	movl	(%r8,%rdi,4), %r9d
	movslq	%r9d, %rdi
	movl	(%r10,%rdi,4), %r11d
	movslq	%r9d, %rdi
	movl	(%rbx,%rdi,4), %r14d
	movslq	%r9d, %rdi
	movl	(%r15,%rdi,4), %r9d
	movl	-116(%rbp), %r12d       # 4-byte Reload
	subl	%r11d, %r12d
	movl	-120(%rbp), %r11d       # 4-byte Reload
	subl	%r14d, %r11d
	movl	-124(%rbp), %r14d       # 4-byte Reload
	subl	%r9d, %r14d
	movl	%r12d, %r9d
	imull	%r9d, %r9d
	movl	%r11d, %r13d
	imull	%r13d, %r13d
	movl	%r14d, %edi
	imull	%edi, %edi
	addl	%r13d, %r9d
	addl	%edi, %r9d
	movl	%r9d, %edi
	imull	%edi, %edi
	imull	%r9d, %edi
	imull	%edi, %r9d
	imull	$15, %edi, %edi
	addl	$-20, %edi
	imull	%edi, %r9d
	imull	%r9d, %r12d
	addl	%r12d, %eax
	imull	%r9d, %r11d
	addl	%r11d, %ecx
	imull	%r9d, %r14d
	addl	%r14d, %edx
	addq	$1, %rsi
	movq	-112(%rbp), %rdi        # 8-byte Reload
	shlq	$5, %rdi
	addq	%rsi, %rdi
	movl	(%r8,%rdi,4), %r9d
	movslq	%r9d, %rdi
	movl	(%r10,%rdi,4), %r11d
	movslq	%r9d, %rdi
	movl	(%rbx,%rdi,4), %r14d
	movslq	%r9d, %rdi
	movl	(%r15,%rdi,4), %r9d
	movl	-116(%rbp), %r12d       # 4-byte Reload
	subl	%r11d, %r12d
	movl	-120(%rbp), %r11d       # 4-byte Reload
	subl	%r14d, %r11d
	movl	-124(%rbp), %r14d       # 4-byte Reload
	subl	%r9d, %r14d
	movl	%r12d, %r9d
	imull	%r9d, %r9d
	movl	%r11d, %r13d
	imull	%r13d, %r13d
	movl	%r14d, %edi
	imull	%edi, %edi
	addl	%r13d, %r9d
	addl	%edi, %r9d
	movl	%r9d, %edi
	imull	%edi, %edi
	imull	%r9d, %edi
	imull	%edi, %r9d
	imull	$15, %edi, %edi
	addl	$-20, %edi
	imull	%edi, %r9d
	imull	%r9d, %r12d
	addl	%r12d, %eax
	imull	%r9d, %r11d
	addl	%r11d, %ecx
	imull	%r9d, %r14d
	addl	%r14d, %edx
	addq	$1, %rsi
	movq	-112(%rbp), %rdi        # 8-byte Reload
	shlq	$5, %rdi
	addq	%rsi, %rdi
	movl	(%r8,%rdi,4), %r9d
	movslq	%r9d, %rdi
	movl	(%r10,%rdi,4), %r11d
	movslq	%r9d, %rdi
	movl	(%rbx,%rdi,4), %r14d
	movslq	%r9d, %rdi
	movl	(%r15,%rdi,4), %r9d
	movl	-116(%rbp), %r12d       # 4-byte Reload
	subl	%r11d, %r12d
	movl	-120(%rbp), %r11d       # 4-byte Reload
	subl	%r14d, %r11d
	movl	-124(%rbp), %r14d       # 4-byte Reload
	subl	%r9d, %r14d
	movl	%r12d, %r9d
	imull	%r9d, %r9d
	movl	%r11d, %r13d
	imull	%r13d, %r13d
	movl	%r14d, %edi
	imull	%edi, %edi
	addl	%r13d, %r9d
	addl	%edi, %r9d
	movl	%r9d, %edi
	imull	%edi, %edi
	imull	%r9d, %edi
	imull	%edi, %r9d
	imull	$15, %edi, %edi
	addl	$-20, %edi
	imull	%edi, %r9d
	imull	%r9d, %r12d
	addl	%r12d, %eax
	imull	%r9d, %r11d
	addl	%r11d, %ecx
	imull	%r9d, %r14d
	addl	%r14d, %edx
	addq	$1, %rsi
	movq	-112(%rbp), %rdi        # 8-byte Reload
	shlq	$5, %rdi
	addq	%rsi, %rdi
	movl	(%r8,%rdi,4), %r9d
	movslq	%r9d, %rdi
	movl	(%r10,%rdi,4), %r11d
	movslq	%r9d, %rdi
	movl	(%rbx,%rdi,4), %r14d
	movslq	%r9d, %rdi
	movl	(%r15,%rdi,4), %r9d
	movl	-116(%rbp), %r12d       # 4-byte Reload
	subl	%r11d, %r12d
	movl	-120(%rbp), %r11d       # 4-byte Reload
	subl	%r14d, %r11d
	movl	-124(%rbp), %r14d       # 4-byte Reload
	subl	%r9d, %r14d
	movl	%r12d, %r9d
	imull	%r9d, %r9d
	movl	%r11d, %r13d
	imull	%r13d, %r13d
	movl	%r14d, %edi
	imull	%edi, %edi
	addl	%r13d, %r9d
	addl	%edi, %r9d
	movl	%r9d, %edi
	imull	%edi, %edi
	imull	%r9d, %edi
	imull	%edi, %r9d
	imull	$15, %edi, %edi
	addl	$-20, %edi
	imull	%edi, %r9d
	imull	%r9d, %r12d
	addl	%r12d, %eax
	imull	%r9d, %r11d
	addl	%r11d, %ecx
	imull	%r9d, %r14d
	addl	%r14d, %edx
	addq	$1, %rsi
	movq	-112(%rbp), %rdi        # 8-byte Reload
	shlq	$5, %rdi
	addq	%rsi, %rdi
	movl	(%r8,%rdi,4), %r9d
	movslq	%r9d, %rdi
	movl	(%r10,%rdi,4), %r11d
	movslq	%r9d, %rdi
	movl	(%rbx,%rdi,4), %r14d
	movslq	%r9d, %rdi
	movl	(%r15,%rdi,4), %r9d
	movl	-116(%rbp), %r12d       # 4-byte Reload
	subl	%r11d, %r12d
	movl	-120(%rbp), %r11d       # 4-byte Reload
	subl	%r14d, %r11d
	movl	-124(%rbp), %r14d       # 4-byte Reload
	subl	%r9d, %r14d
	movl	%r12d, %r9d
	imull	%r9d, %r9d
	movl	%r11d, %r13d
	imull	%r13d, %r13d
	movl	%r14d, %edi
	imull	%edi, %edi
	addl	%r13d, %r9d
	addl	%edi, %r9d
	movl	%r9d, %edi
	imull	%edi, %edi
	imull	%r9d, %edi
	imull	%edi, %r9d
	imull	$15, %edi, %edi
	addl	$-20, %edi
	imull	%edi, %r9d
	imull	%r9d, %r12d
	addl	%r12d, %eax
	imull	%r9d, %r11d
	addl	%r11d, %ecx
	imull	%r9d, %r14d
	addl	%r14d, %edx
	addq	$1, %rsi
	movq	-112(%rbp), %rdi        # 8-byte Reload
	shlq	$5, %rdi
	addq	%rsi, %rdi
	movl	(%r8,%rdi,4), %r9d
	movslq	%r9d, %rdi
	movl	(%r10,%rdi,4), %r11d
	movslq	%r9d, %rdi
	movl	(%rbx,%rdi,4), %r14d
	movslq	%r9d, %rdi
	movl	(%r15,%rdi,4), %r9d
	movl	-116(%rbp), %r12d       # 4-byte Reload
	subl	%r11d, %r12d
	movl	-120(%rbp), %r11d       # 4-byte Reload
	subl	%r14d, %r11d
	movl	-124(%rbp), %r14d       # 4-byte Reload
	subl	%r9d, %r14d
	movl	%r12d, %r9d
	imull	%r9d, %r9d
	movl	%r11d, %r13d
	imull	%r13d, %r13d
	movl	%r14d, %edi
	imull	%edi, %edi
	addl	%r13d, %r9d
	addl	%edi, %r9d
	movl	%r9d, %edi
	imull	%edi, %edi
	imull	%r9d, %edi
	imull	%edi, %r9d
	imull	$15, %edi, %edi
	addl	$-20, %edi
	imull	%edi, %r9d
	imull	%r9d, %r12d
	addl	%r12d, %eax
	imull	%r9d, %r11d
	addl	%r11d, %ecx
	imull	%r9d, %r14d
	addl	%r14d, %edx
	addq	$1, %rsi
	movq	-112(%rbp), %rdi        # 8-byte Reload
	shlq	$5, %rdi
	addq	%rsi, %rdi
	movl	(%r8,%rdi,4), %r9d
	movslq	%r9d, %rdi
	movl	(%r10,%rdi,4), %r11d
	movslq	%r9d, %rdi
	movl	(%rbx,%rdi,4), %r14d
	movslq	%r9d, %rdi
	movl	(%r15,%rdi,4), %r9d
	movl	-116(%rbp), %r12d       # 4-byte Reload
	subl	%r11d, %r12d
	movl	-120(%rbp), %r11d       # 4-byte Reload
	subl	%r14d, %r11d
	movl	-124(%rbp), %r14d       # 4-byte Reload
	subl	%r9d, %r14d
	movl	%r12d, %r9d
	imull	%r9d, %r9d
	movl	%r11d, %r13d
	imull	%r13d, %r13d
	movl	%r14d, %edi
	imull	%edi, %edi
	addl	%r13d, %r9d
	addl	%edi, %r9d
	movl	%r9d, %edi
	imull	%edi, %edi
	imull	%r9d, %edi
	imull	%edi, %r9d
	imull	$15, %edi, %edi
	addl	$-20, %edi
	imull	%edi, %r9d
	imull	%r9d, %r12d
	addl	%r12d, %eax
	imull	%r9d, %r11d
	addl	%r11d, %ecx
	imull	%r9d, %r14d
	addl	%r14d, %edx
	addq	$1, %rsi
	movq	-112(%rbp), %rdi        # 8-byte Reload
	shlq	$5, %rdi
	addq	%rsi, %rdi
	movl	(%r8,%rdi,4), %r9d
	movslq	%r9d, %rdi
	movl	(%r10,%rdi,4), %r11d
	movslq	%r9d, %rdi
	movl	(%rbx,%rdi,4), %r14d
	movslq	%r9d, %rdi
	movl	(%r15,%rdi,4), %r9d
	movl	-116(%rbp), %r12d       # 4-byte Reload
	subl	%r11d, %r12d
	movl	-120(%rbp), %r11d       # 4-byte Reload
	subl	%r14d, %r11d
	movl	-124(%rbp), %r14d       # 4-byte Reload
	subl	%r9d, %r14d
	movl	%r12d, %r9d
	imull	%r9d, %r9d
	movl	%r11d, %r13d
	imull	%r13d, %r13d
	movl	%r14d, %edi
	imull	%edi, %edi
	addl	%r13d, %r9d
	addl	%edi, %r9d
	movl	%r9d, %edi
	imull	%edi, %edi
	imull	%r9d, %edi
	imull	%edi, %r9d
	imull	$15, %edi, %edi
	addl	$-20, %edi
	imull	%edi, %r9d
	imull	%r9d, %r12d
	addl	%r12d, %eax
	imull	%r9d, %r11d
	addl	%r11d, %ecx
	imull	%r9d, %r14d
	addl	%r14d, %edx
	addq	$1, %rsi
	movq	-112(%rbp), %rdi        # 8-byte Reload
	shlq	$5, %rdi
	addq	%rsi, %rdi
	movl	(%r8,%rdi,4), %r9d
	movslq	%r9d, %rdi
	movl	(%r10,%rdi,4), %r11d
	movslq	%r9d, %rdi
	movl	(%rbx,%rdi,4), %r14d
	movslq	%r9d, %rdi
	movl	(%r15,%rdi,4), %r9d
	movl	-116(%rbp), %r12d       # 4-byte Reload
	subl	%r11d, %r12d
	movl	-120(%rbp), %r11d       # 4-byte Reload
	subl	%r14d, %r11d
	movl	-124(%rbp), %r14d       # 4-byte Reload
	subl	%r9d, %r14d
	movl	%r12d, %r9d
	imull	%r9d, %r9d
	movl	%r11d, %r13d
	imull	%r13d, %r13d
	movl	%r14d, %edi
	imull	%edi, %edi
	addl	%r13d, %r9d
	addl	%edi, %r9d
	movl	%r9d, %edi
	imull	%edi, %edi
	imull	%r9d, %edi
	imull	%edi, %r9d
	imull	$15, %edi, %edi
	addl	$-20, %edi
	imull	%edi, %r9d
	imull	%r9d, %r12d
	addl	%r12d, %eax
	imull	%r9d, %r11d
	addl	%r11d, %ecx
	imull	%r9d, %r14d
	addl	%r14d, %edx
	addq	$1, %rsi
	movq	-112(%rbp), %rdi        # 8-byte Reload
	shlq	$5, %rdi
	addq	%rsi, %rdi
	movl	(%r8,%rdi,4), %r9d
	movslq	%r9d, %rdi
	movl	(%r10,%rdi,4), %r11d
	movslq	%r9d, %rdi
	movl	(%rbx,%rdi,4), %r14d
	movslq	%r9d, %rdi
	movl	(%r15,%rdi,4), %r9d
	movl	-116(%rbp), %r12d       # 4-byte Reload
	subl	%r11d, %r12d
	movl	-120(%rbp), %r11d       # 4-byte Reload
	subl	%r14d, %r11d
	movl	-124(%rbp), %r14d       # 4-byte Reload
	subl	%r9d, %r14d
	movl	%r12d, %r9d
	imull	%r9d, %r9d
	movl	%r11d, %r13d
	imull	%r13d, %r13d
	movl	%r14d, %edi
	imull	%edi, %edi
	addl	%r13d, %r9d
	addl	%edi, %r9d
	movl	%r9d, %edi
	imull	%edi, %edi
	imull	%r9d, %edi
	imull	%edi, %r9d
	imull	$15, %edi, %edi
	addl	$-20, %edi
	imull	%edi, %r9d
	imull	%r9d, %r12d
	addl	%r12d, %eax
	imull	%r9d, %r11d
	addl	%r11d, %ecx
	imull	%r9d, %r14d
	addl	%r14d, %edx
	addq	$1, %rsi
	movq	-112(%rbp), %rdi        # 8-byte Reload
	shlq	$5, %rdi
	addq	%rsi, %rdi
	movl	(%r8,%rdi,4), %r9d
	movslq	%r9d, %rdi
	movl	(%r10,%rdi,4), %r11d
	movslq	%r9d, %rdi
	movl	(%rbx,%rdi,4), %r14d
	movslq	%r9d, %rdi
	movl	(%r15,%rdi,4), %r9d
	movl	-116(%rbp), %r12d       # 4-byte Reload
	subl	%r11d, %r12d
	movl	-120(%rbp), %r11d       # 4-byte Reload
	subl	%r14d, %r11d
	movl	-124(%rbp), %r14d       # 4-byte Reload
	subl	%r9d, %r14d
	movl	%r12d, %r9d
	imull	%r9d, %r9d
	movl	%r11d, %r13d
	imull	%r13d, %r13d
	movl	%r14d, %edi
	imull	%edi, %edi
	addl	%r13d, %r9d
	addl	%edi, %r9d
	movl	%r9d, %edi
	imull	%edi, %edi
	imull	%r9d, %edi
	imull	%edi, %r9d
	imull	$15, %edi, %edi
	addl	$-20, %edi
	imull	%edi, %r9d
	imull	%r9d, %r12d
	addl	%r12d, %eax
	imull	%r9d, %r11d
	addl	%r11d, %ecx
	imull	%r9d, %r14d
	addl	%r14d, %edx
	addq	$1, %rsi
	movq	-112(%rbp), %rdi        # 8-byte Reload
	shlq	$5, %rdi
	addq	%rsi, %rdi
	movl	(%r8,%rdi,4), %r9d
	movslq	%r9d, %rdi
	movl	(%r10,%rdi,4), %r11d
	movslq	%r9d, %rdi
	movl	(%rbx,%rdi,4), %r14d
	movslq	%r9d, %rdi
	movl	(%r15,%rdi,4), %r9d
	movl	-116(%rbp), %r12d       # 4-byte Reload
	subl	%r11d, %r12d
	movl	-120(%rbp), %r11d       # 4-byte Reload
	subl	%r14d, %r11d
	movl	-124(%rbp), %r14d       # 4-byte Reload
	subl	%r9d, %r14d
	movl	%r12d, %r9d
	imull	%r9d, %r9d
	movl	%r11d, %r13d
	imull	%r13d, %r13d
	movl	%r14d, %edi
	imull	%edi, %edi
	addl	%r13d, %r9d
	addl	%edi, %r9d
	movl	%r9d, %edi
	imull	%edi, %edi
	imull	%r9d, %edi
	imull	%edi, %r9d
	imull	$15, %edi, %edi
	addl	$-20, %edi
	imull	%edi, %r9d
	imull	%r9d, %r12d
	addl	%r12d, %eax
	imull	%r9d, %r11d
	addl	%r11d, %ecx
	imull	%r9d, %r14d
	addl	%r14d, %edx
	addq	$1, %rsi
	movq	-112(%rbp), %rdi        # 8-byte Reload
	shlq	$5, %rdi
	addq	%rsi, %rdi
	movl	(%r8,%rdi,4), %r9d
	movslq	%r9d, %rdi
	movl	(%r10,%rdi,4), %r11d
	movslq	%r9d, %rdi
	movl	(%rbx,%rdi,4), %r14d
	movslq	%r9d, %rdi
	movl	(%r15,%rdi,4), %r9d
	movl	-116(%rbp), %r12d       # 4-byte Reload
	subl	%r11d, %r12d
	movl	-120(%rbp), %r11d       # 4-byte Reload
	subl	%r14d, %r11d
	movl	-124(%rbp), %r14d       # 4-byte Reload
	subl	%r9d, %r14d
	movl	%r12d, %r9d
	imull	%r9d, %r9d
	movl	%r11d, %r13d
	imull	%r13d, %r13d
	movl	%r14d, %edi
	imull	%edi, %edi
	addl	%r13d, %r9d
	addl	%edi, %r9d
	movl	%r9d, %edi
	imull	%edi, %edi
	imull	%r9d, %edi
	imull	%edi, %r9d
	imull	$15, %edi, %edi
	addl	$-20, %edi
	imull	%edi, %r9d
	imull	%r9d, %r12d
	addl	%r12d, %eax
	imull	%r9d, %r11d
	addl	%r11d, %ecx
	imull	%r9d, %r14d
	addl	%r14d, %edx
	addq	$1, %rsi
	movq	-112(%rbp), %rdi        # 8-byte Reload
	shlq	$5, %rdi
	addq	%rsi, %rdi
	movl	(%r8,%rdi,4), %r9d
	movslq	%r9d, %rdi
	movl	(%r10,%rdi,4), %r11d
	movslq	%r9d, %rdi
	movl	(%rbx,%rdi,4), %r14d
	movslq	%r9d, %rdi
	movl	(%r15,%rdi,4), %r9d
	movl	-116(%rbp), %r12d       # 4-byte Reload
	subl	%r11d, %r12d
	movl	-120(%rbp), %r11d       # 4-byte Reload
	subl	%r14d, %r11d
	movl	-124(%rbp), %r14d       # 4-byte Reload
	subl	%r9d, %r14d
	movl	%r12d, %r9d
	imull	%r9d, %r9d
	movl	%r11d, %r13d
	imull	%r13d, %r13d
	movl	%r14d, %edi
	imull	%edi, %edi
	addl	%r13d, %r9d
	addl	%edi, %r9d
	movl	%r9d, %edi
	imull	%edi, %edi
	imull	%r9d, %edi
	imull	%edi, %r9d
	imull	$15, %edi, %edi
	addl	$-20, %edi
	imull	%edi, %r9d
	imull	%r9d, %r12d
	addl	%r12d, %eax
	imull	%r9d, %r11d
	addl	%r11d, %ecx
	imull	%r9d, %r14d
	addl	%r14d, %edx
	addq	$1, %rsi
	movq	-112(%rbp), %rdi        # 8-byte Reload
	shlq	$5, %rdi
	addq	%rsi, %rdi
	movl	(%r8,%rdi,4), %r9d
	movslq	%r9d, %rdi
	movl	(%r10,%rdi,4), %r11d
	movslq	%r9d, %rdi
	movl	(%rbx,%rdi,4), %r14d
	movslq	%r9d, %rdi
	movl	(%r15,%rdi,4), %r9d
	movl	-116(%rbp), %r12d       # 4-byte Reload
	subl	%r11d, %r12d
	movl	-120(%rbp), %r11d       # 4-byte Reload
	subl	%r14d, %r11d
	movl	-124(%rbp), %r14d       # 4-byte Reload
	subl	%r9d, %r14d
	movl	%r12d, %r9d
	imull	%r9d, %r9d
	movl	%r11d, %r13d
	imull	%r13d, %r13d
	movl	%r14d, %edi
	imull	%edi, %edi
	addl	%r13d, %r9d
	addl	%edi, %r9d
	movl	%r9d, %edi
	imull	%edi, %edi
	imull	%r9d, %edi
	imull	%edi, %r9d
	imull	$15, %edi, %edi
	addl	$-20, %edi
	imull	%edi, %r9d
	imull	%r9d, %r12d
	addl	%r12d, %eax
	imull	%r9d, %r11d
	addl	%r11d, %ecx
	imull	%r9d, %r14d
	addl	%r14d, %edx
	addq	$1, %rsi
	movq	-112(%rbp), %rdi        # 8-byte Reload
	shlq	$5, %rdi
	addq	%rsi, %rdi
	movl	(%r8,%rdi,4), %r9d
	movslq	%r9d, %rdi
	movl	(%r10,%rdi,4), %r11d
	movslq	%r9d, %rdi
	movl	(%rbx,%rdi,4), %r14d
	movslq	%r9d, %rdi
	movl	(%r15,%rdi,4), %r9d
	movl	-116(%rbp), %r12d       # 4-byte Reload
	subl	%r11d, %r12d
	movl	-120(%rbp), %r11d       # 4-byte Reload
	subl	%r14d, %r11d
	movl	-124(%rbp), %r14d       # 4-byte Reload
	subl	%r9d, %r14d
	movl	%r12d, %r9d
	imull	%r9d, %r9d
	movl	%r11d, %r13d
	imull	%r13d, %r13d
	movl	%r14d, %edi
	imull	%edi, %edi
	addl	%r13d, %r9d
	addl	%edi, %r9d
	movl	%r9d, %edi
	imull	%edi, %edi
	imull	%r9d, %edi
	imull	%edi, %r9d
	imull	$15, %edi, %edi
	addl	$-20, %edi
	imull	%edi, %r9d
	imull	%r9d, %r12d
	addl	%r12d, %eax
	imull	%r9d, %r11d
	addl	%r11d, %ecx
	imull	%r9d, %r14d
	addl	%r14d, %edx
	addq	$1, %rsi
	movq	-112(%rbp), %rdi        # 8-byte Reload
	shlq	$5, %rdi
	addq	%rsi, %rdi
	movl	(%r8,%rdi,4), %r9d
	movslq	%r9d, %rdi
	movl	(%r10,%rdi,4), %r11d
	movslq	%r9d, %rdi
	movl	(%rbx,%rdi,4), %r14d
	movslq	%r9d, %rdi
	movl	(%r15,%rdi,4), %r9d
	movl	-116(%rbp), %r12d       # 4-byte Reload
	subl	%r11d, %r12d
	movl	-120(%rbp), %r11d       # 4-byte Reload
	subl	%r14d, %r11d
	movl	-124(%rbp), %r14d       # 4-byte Reload
	subl	%r9d, %r14d
	movl	%r12d, %r9d
	imull	%r9d, %r9d
	movl	%r11d, %r13d
	imull	%r13d, %r13d
	movl	%r14d, %edi
	imull	%edi, %edi
	addl	%r13d, %r9d
	addl	%edi, %r9d
	movl	%r9d, %edi
	imull	%edi, %edi
	imull	%r9d, %edi
	imull	%edi, %r9d
	imull	$15, %edi, %edi
	addl	$-20, %edi
	imull	%edi, %r9d
	imull	%r9d, %r12d
	addl	%r12d, %eax
	imull	%r9d, %r11d
	addl	%r11d, %ecx
	imull	%r9d, %r14d
	addl	%r14d, %edx
	addq	$1, %rsi
	movq	-112(%rbp), %rdi        # 8-byte Reload
	shlq	$5, %rdi
	addq	%rsi, %rdi
	movl	(%r8,%rdi,4), %r9d
	movslq	%r9d, %rdi
	movl	(%r10,%rdi,4), %r11d
	movslq	%r9d, %rdi
	movl	(%rbx,%rdi,4), %r14d
	movslq	%r9d, %rdi
	movl	(%r15,%rdi,4), %r9d
	movl	-116(%rbp), %r12d       # 4-byte Reload
	subl	%r11d, %r12d
	movl	-120(%rbp), %r11d       # 4-byte Reload
	subl	%r14d, %r11d
	movl	-124(%rbp), %r14d       # 4-byte Reload
	subl	%r9d, %r14d
	movl	%r12d, %r9d
	imull	%r9d, %r9d
	movl	%r11d, %r13d
	imull	%r13d, %r13d
	movl	%r14d, %edi
	imull	%edi, %edi
	addl	%r13d, %r9d
	addl	%edi, %r9d
	movl	%r9d, %edi
	imull	%edi, %edi
	imull	%r9d, %edi
	imull	%edi, %r9d
	imull	$15, %edi, %edi
	addl	$-20, %edi
	imull	%edi, %r9d
	imull	%r9d, %r12d
	addl	%r12d, %eax
	imull	%r9d, %r11d
	addl	%r11d, %ecx
	imull	%r9d, %r14d
	addl	%r14d, %edx
	addq	$1, %rsi
	movq	-112(%rbp), %rdi        # 8-byte Reload
	shlq	$5, %rdi
	addq	%rsi, %rdi
	movl	(%r8,%rdi,4), %r9d
	movslq	%r9d, %rdi
	movl	(%r10,%rdi,4), %r11d
	movslq	%r9d, %rdi
	movl	(%rbx,%rdi,4), %r14d
	movslq	%r9d, %rdi
	movl	(%r15,%rdi,4), %r9d
	movl	-116(%rbp), %r12d       # 4-byte Reload
	subl	%r11d, %r12d
	movl	-120(%rbp), %r11d       # 4-byte Reload
	subl	%r14d, %r11d
	movl	-124(%rbp), %r14d       # 4-byte Reload
	subl	%r9d, %r14d
	movl	%r12d, %r9d
	imull	%r9d, %r9d
	movl	%r11d, %r13d
	imull	%r13d, %r13d
	movl	%r14d, %edi
	imull	%edi, %edi
	addl	%r13d, %r9d
	addl	%edi, %r9d
	movl	%r9d, %edi
	imull	%edi, %edi
	imull	%r9d, %edi
	imull	%edi, %r9d
	imull	$15, %edi, %edi
	addl	$-20, %edi
	imull	%edi, %r9d
	imull	%r9d, %r12d
	addl	%r12d, %eax
	imull	%r9d, %r11d
	addl	%r11d, %ecx
	imull	%r9d, %r14d
	addl	%r14d, %edx
	addq	$1, %rsi
	movq	-112(%rbp), %rdi        # 8-byte Reload
	shlq	$5, %rdi
	addq	%rsi, %rdi
	movl	(%r8,%rdi,4), %r9d
	movslq	%r9d, %rdi
	movl	(%r10,%rdi,4), %r11d
	movslq	%r9d, %rdi
	movl	(%rbx,%rdi,4), %r14d
	movslq	%r9d, %rdi
	movl	(%r15,%rdi,4), %r9d
	movl	-116(%rbp), %r12d       # 4-byte Reload
	subl	%r11d, %r12d
	movl	-120(%rbp), %r11d       # 4-byte Reload
	subl	%r14d, %r11d
	movl	-124(%rbp), %r14d       # 4-byte Reload
	subl	%r9d, %r14d
	movl	%r12d, %r9d
	imull	%r9d, %r9d
	movl	%r11d, %r13d
	imull	%r13d, %r13d
	movl	%r14d, %edi
	imull	%edi, %edi
	addl	%r13d, %r9d
	addl	%edi, %r9d
	movl	%r9d, %edi
	imull	%edi, %edi
	imull	%r9d, %edi
	imull	%edi, %r9d
	imull	$15, %edi, %edi
	addl	$-20, %edi
	imull	%edi, %r9d
	imull	%r9d, %r12d
	addl	%r12d, %eax
	imull	%r9d, %r11d
	addl	%r11d, %ecx
	imull	%r9d, %r14d
	addl	%r14d, %edx
	addq	$1, %rsi
	movq	-112(%rbp), %rdi        # 8-byte Reload
	shlq	$5, %rdi
	addq	%rsi, %rdi
	movl	(%r8,%rdi,4), %r9d
	movslq	%r9d, %rdi
	movl	(%r10,%rdi,4), %r11d
	movslq	%r9d, %rdi
	movl	(%rbx,%rdi,4), %r14d
	movslq	%r9d, %rdi
	movl	(%r15,%rdi,4), %r9d
	movl	-116(%rbp), %r12d       # 4-byte Reload
	subl	%r11d, %r12d
	movl	-120(%rbp), %r11d       # 4-byte Reload
	subl	%r14d, %r11d
	movl	-124(%rbp), %r14d       # 4-byte Reload
	subl	%r9d, %r14d
	movl	%r12d, %r9d
	imull	%r9d, %r9d
	movl	%r11d, %r13d
	imull	%r13d, %r13d
	movl	%r14d, %edi
	imull	%edi, %edi
	addl	%r13d, %r9d
	addl	%edi, %r9d
	movl	%r9d, %edi
	imull	%edi, %edi
	imull	%r9d, %edi
	imull	%edi, %r9d
	imull	$15, %edi, %edi
	addl	$-20, %edi
	imull	%edi, %r9d
	imull	%r9d, %r12d
	addl	%r12d, %eax
	imull	%r9d, %r11d
	addl	%r11d, %ecx
	imull	%r9d, %r14d
	addl	%r14d, %edx
	addq	$1, %rsi
	movq	-112(%rbp), %rdi        # 8-byte Reload
	shlq	$5, %rdi
	addq	%rsi, %rdi
	movl	(%r8,%rdi,4), %r9d
	movslq	%r9d, %rdi
	movl	(%r10,%rdi,4), %r11d
	movslq	%r9d, %rdi
	movl	(%rbx,%rdi,4), %r14d
	movslq	%r9d, %rdi
	movl	(%r15,%rdi,4), %r9d
	movl	-116(%rbp), %r12d       # 4-byte Reload
	subl	%r11d, %r12d
	movl	-120(%rbp), %r11d       # 4-byte Reload
	subl	%r14d, %r11d
	movl	-124(%rbp), %r14d       # 4-byte Reload
	subl	%r9d, %r14d
	movl	%r12d, %r9d
	imull	%r9d, %r9d
	movl	%r11d, %r13d
	imull	%r13d, %r13d
	movl	%r14d, %edi
	imull	%edi, %edi
	addl	%r13d, %r9d
	addl	%edi, %r9d
	movl	%r9d, %edi
	imull	%edi, %edi
	imull	%r9d, %edi
	imull	%edi, %r9d
	imull	$15, %edi, %edi
	addl	$-20, %edi
	imull	%edi, %r9d
	imull	%r9d, %r12d
	addl	%r12d, %eax
	imull	%r9d, %r11d
	addl	%r11d, %ecx
	imull	%r9d, %r14d
	addl	%r14d, %edx
	addq	$1, %rsi
	movq	-112(%rbp), %rdi        # 8-byte Reload
	shlq	$5, %rdi
	addq	%rsi, %rdi
	movl	(%r8,%rdi,4), %r9d
	movslq	%r9d, %rdi
	movl	(%r10,%rdi,4), %r11d
	movslq	%r9d, %rdi
	movl	(%rbx,%rdi,4), %r14d
	movslq	%r9d, %rdi
	movl	(%r15,%rdi,4), %r9d
	movl	-116(%rbp), %r12d       # 4-byte Reload
	subl	%r11d, %r12d
	movl	-120(%rbp), %r11d       # 4-byte Reload
	subl	%r14d, %r11d
	movl	-124(%rbp), %r14d       # 4-byte Reload
	subl	%r9d, %r14d
	movl	%r12d, %r9d
	imull	%r9d, %r9d
	movl	%r11d, %r13d
	imull	%r13d, %r13d
	movl	%r14d, %edi
	imull	%edi, %edi
	addl	%r13d, %r9d
	addl	%edi, %r9d
	movl	%r9d, %edi
	imull	%edi, %edi
	imull	%r9d, %edi
	imull	%edi, %r9d
	imull	$15, %edi, %edi
	addl	$-20, %edi
	imull	%edi, %r9d
	imull	%r9d, %r12d
	addl	%r12d, %eax
	imull	%r9d, %r11d
	addl	%r11d, %ecx
	imull	%r9d, %r14d
	addl	%r14d, %edx
	addq	$1, %rsi
	movq	-112(%rbp), %rdi        # 8-byte Reload
	shlq	$5, %rdi
	addq	%rsi, %rdi
	movl	(%r8,%rdi,4), %r9d
	movslq	%r9d, %rdi
	movl	(%r10,%rdi,4), %r11d
	movslq	%r9d, %rdi
	movl	(%rbx,%rdi,4), %r14d
	movslq	%r9d, %rdi
	movl	(%r15,%rdi,4), %r9d
	movl	-116(%rbp), %r12d       # 4-byte Reload
	subl	%r11d, %r12d
	movl	-120(%rbp), %r11d       # 4-byte Reload
	subl	%r14d, %r11d
	movl	-124(%rbp), %r14d       # 4-byte Reload
	subl	%r9d, %r14d
	movl	%r12d, %r9d
	imull	%r9d, %r9d
	movl	%r11d, %r13d
	imull	%r13d, %r13d
	movl	%r14d, %edi
	imull	%edi, %edi
	addl	%r13d, %r9d
	addl	%edi, %r9d
	movl	%r9d, %edi
	imull	%edi, %edi
	imull	%r9d, %edi
	imull	%edi, %r9d
	imull	$15, %edi, %edi
	addl	$-20, %edi
	imull	%edi, %r9d
	imull	%r9d, %r12d
	addl	%r12d, %eax
	imull	%r9d, %r11d
	addl	%r11d, %ecx
	imull	%r9d, %r14d
	addl	%r14d, %edx
	addq	$1, %rsi
	movq	-112(%rbp), %rdi        # 8-byte Reload
	shlq	$5, %rdi
	addq	%rsi, %rdi
	movl	(%r8,%rdi,4), %r9d
	movslq	%r9d, %rdi
	movl	(%r10,%rdi,4), %r11d
	movslq	%r9d, %rdi
	movl	(%rbx,%rdi,4), %r14d
	movslq	%r9d, %rdi
	movl	(%r15,%rdi,4), %r9d
	movl	-116(%rbp), %r12d       # 4-byte Reload
	subl	%r11d, %r12d
	movl	-120(%rbp), %r11d       # 4-byte Reload
	subl	%r14d, %r11d
	movl	-124(%rbp), %r14d       # 4-byte Reload
	subl	%r9d, %r14d
	movl	%r12d, %r9d
	imull	%r9d, %r9d
	movl	%r11d, %r13d
	imull	%r13d, %r13d
	movl	%r14d, %edi
	imull	%edi, %edi
	addl	%r13d, %r9d
	addl	%edi, %r9d
	movl	%r9d, %edi
	imull	%edi, %edi
	imull	%r9d, %edi
	imull	%edi, %r9d
	imull	$15, %edi, %edi
	addl	$-20, %edi
	imull	%edi, %r9d
	imull	%r9d, %r12d
	addl	%r12d, %eax
	imull	%r9d, %r11d
	addl	%r11d, %ecx
	imull	%r9d, %r14d
	addl	%r14d, %edx
	addq	$1, %rsi
	movq	-112(%rbp), %rdi        # 8-byte Reload
	shlq	$5, %rdi
	addq	%rsi, %rdi
	movl	(%r8,%rdi,4), %r9d
	movslq	%r9d, %rdi
	movl	(%r10,%rdi,4), %r11d
	movslq	%r9d, %rdi
	movl	(%rbx,%rdi,4), %r14d
	movslq	%r9d, %rdi
	movl	(%r15,%rdi,4), %r9d
	movl	-116(%rbp), %r12d       # 4-byte Reload
	subl	%r11d, %r12d
	movl	-120(%rbp), %r11d       # 4-byte Reload
	subl	%r14d, %r11d
	movl	-124(%rbp), %r14d       # 4-byte Reload
	subl	%r9d, %r14d
	movl	%r12d, %r9d
	imull	%r9d, %r9d
	movl	%r11d, %r13d
	imull	%r13d, %r13d
	movl	%r14d, %edi
	imull	%edi, %edi
	addl	%r13d, %r9d
	addl	%edi, %r9d
	movl	%r9d, %edi
	imull	%edi, %edi
	imull	%r9d, %edi
	imull	%edi, %r9d
	imull	$15, %edi, %edi
	addl	$-20, %edi
	imull	%edi, %r9d
	imull	%r9d, %r12d
	addl	%r12d, %eax
	imull	%r9d, %r11d
	addl	%r11d, %ecx
	imull	%r9d, %r14d
	addl	%r14d, %edx
	addq	$1, %rsi
	movq	-112(%rbp), %rdi        # 8-byte Reload
	shlq	$5, %rdi
	addq	%rsi, %rdi
	movl	(%r8,%rdi,4), %r9d
	movslq	%r9d, %rdi
	movl	(%r10,%rdi,4), %r11d
	movslq	%r9d, %rdi
	movl	(%rbx,%rdi,4), %r14d
	movslq	%r9d, %rdi
	movl	(%r15,%rdi,4), %r9d
	movl	-116(%rbp), %r12d       # 4-byte Reload
	subl	%r11d, %r12d
	movl	-120(%rbp), %r11d       # 4-byte Reload
	subl	%r14d, %r11d
	movl	-124(%rbp), %r14d       # 4-byte Reload
	subl	%r9d, %r14d
	movl	%r12d, %r9d
	imull	%r9d, %r9d
	movl	%r11d, %r13d
	imull	%r13d, %r13d
	movl	%r14d, %edi
	imull	%edi, %edi
	addl	%r13d, %r9d
	addl	%edi, %r9d
	movl	%r9d, %edi
	imull	%edi, %edi
	imull	%r9d, %edi
	imull	%edi, %r9d
	imull	$15, %edi, %edi
	addl	$-20, %edi
	imull	%edi, %r9d
	imull	%r9d, %r12d
	addl	%r12d, %eax
	imull	%r9d, %r11d
	addl	%r11d, %ecx
	imull	%r9d, %r14d
	addl	%r14d, %edx
	addq	$1, %rsi
	movq	-112(%rbp), %rdi        # 8-byte Reload
	shlq	$5, %rdi
	addq	%rsi, %rdi
	movl	(%r8,%rdi,4), %r9d
	movslq	%r9d, %rdi
	movl	(%r10,%rdi,4), %r11d
	movslq	%r9d, %rdi
	movl	(%rbx,%rdi,4), %r14d
	movslq	%r9d, %rdi
	movl	(%r15,%rdi,4), %r9d
	movl	-116(%rbp), %r12d       # 4-byte Reload
	subl	%r11d, %r12d
	movl	-120(%rbp), %r11d       # 4-byte Reload
	subl	%r14d, %r11d
	movl	-124(%rbp), %r14d       # 4-byte Reload
	subl	%r9d, %r14d
	movl	%r12d, %r9d
	imull	%r9d, %r9d
	movl	%r11d, %r13d
	imull	%r13d, %r13d
	movl	%r14d, %edi
	imull	%edi, %edi
	addl	%r13d, %r9d
	addl	%edi, %r9d
	movl	%r9d, %edi
	imull	%edi, %edi
	imull	%r9d, %edi
	imull	%edi, %r9d
	imull	$15, %edi, %edi
	addl	$-20, %edi
	imull	%edi, %r9d
	imull	%r9d, %r12d
	addl	%r12d, %eax
	imull	%r9d, %r11d
	addl	%r11d, %ecx
	imull	%r9d, %r14d
	addl	%r14d, %edx
	addq	$1, %rsi
	movq	-112(%rbp), %rdi        # 8-byte Reload
	shlq	$5, %rdi
	addq	%rsi, %rdi
	movl	(%r8,%rdi,4), %r9d
	movslq	%r9d, %rdi
	movl	(%r10,%rdi,4), %r11d
	movslq	%r9d, %rdi
	movl	(%rbx,%rdi,4), %r14d
	movslq	%r9d, %rdi
	movl	(%r15,%rdi,4), %r9d
	movl	-116(%rbp), %r12d       # 4-byte Reload
	subl	%r11d, %r12d
	movl	-120(%rbp), %r11d       # 4-byte Reload
	subl	%r14d, %r11d
	movl	-124(%rbp), %r14d       # 4-byte Reload
	subl	%r9d, %r14d
	movl	%r12d, %r9d
	imull	%r9d, %r9d
	movl	%r11d, %r13d
	imull	%r13d, %r13d
	movl	%r14d, %edi
	imull	%edi, %edi
	addl	%r13d, %r9d
	addl	%edi, %r9d
	movl	%r9d, %edi
	imull	%edi, %edi
	imull	%r9d, %edi
	imull	%edi, %r9d
	imull	$15, %edi, %edi
	addl	$-20, %edi
	imull	%edi, %r9d
	imull	%r9d, %r12d
	addl	%r12d, %eax
	imull	%r9d, %r11d
	addl	%r11d, %ecx
	imull	%r9d, %r14d
	addl	%r14d, %edx
	addq	$1, %rsi
	movq	-112(%rbp), %rdi        # 8-byte Reload
	shlq	$5, %rdi
	addq	%rsi, %rdi
	movl	(%r8,%rdi,4), %r9d
	movslq	%r9d, %rdi
	movl	(%r10,%rdi,4), %r11d
	movslq	%r9d, %rdi
	movl	(%rbx,%rdi,4), %r14d
	movslq	%r9d, %rdi
	movl	(%r15,%rdi,4), %r9d
	movl	-116(%rbp), %r12d       # 4-byte Reload
	subl	%r11d, %r12d
	movl	-120(%rbp), %r11d       # 4-byte Reload
	subl	%r14d, %r11d
	movl	-124(%rbp), %r14d       # 4-byte Reload
	subl	%r9d, %r14d
	movl	%r12d, %r9d
	imull	%r9d, %r9d
	movl	%r11d, %r13d
	imull	%r13d, %r13d
	movl	%r14d, %edi
	imull	%edi, %edi
	addl	%r13d, %r9d
	addl	%edi, %r9d
	movl	%r9d, %edi
	imull	%edi, %edi
	imull	%r9d, %edi
	imull	%edi, %r9d
	imull	$15, %edi, %edi
	addl	$-20, %edi
	imull	%edi, %r9d
	imull	%r9d, %r12d
	addl	%r12d, %eax
	imull	%r9d, %r11d
	addl	%r11d, %ecx
	imull	%r9d, %r14d
	addl	%r14d, %edx
	addq	$1, %rsi
	movq	-112(%rbp), %rdi        # 8-byte Reload
	shlq	$5, %rdi
	addq	%rsi, %rdi
	movl	(%r8,%rdi,4), %r9d
	movslq	%r9d, %rdi
	movl	(%r10,%rdi,4), %r11d
	movslq	%r9d, %rdi
	movl	(%rbx,%rdi,4), %r14d
	movslq	%r9d, %rdi
	movl	(%r15,%rdi,4), %r9d
	movl	-116(%rbp), %r12d       # 4-byte Reload
	subl	%r11d, %r12d
	movl	-120(%rbp), %r11d       # 4-byte Reload
	subl	%r14d, %r11d
	movl	-124(%rbp), %r14d       # 4-byte Reload
	subl	%r9d, %r14d
	movl	%r12d, %r9d
	imull	%r9d, %r9d
	movl	%r11d, %r13d
	imull	%r13d, %r13d
	movl	%r14d, %edi
	imull	%edi, %edi
	addl	%r13d, %r9d
	addl	%edi, %r9d
	movl	%r9d, %edi
	imull	%edi, %edi
	imull	%r9d, %edi
	imull	%edi, %r9d
	imull	$15, %edi, %edi
	addl	$-20, %edi
	imull	%edi, %r9d
	imull	%r9d, %r12d
	addl	%r12d, %eax
	imull	%r9d, %r11d
	addl	%r11d, %ecx
	imull	%r9d, %r14d
	addl	%r14d, %edx
	addq	$1, %rsi
	movq	-112(%rbp), %rdi        # 8-byte Reload
	shlq	$5, %rdi
	addq	%rsi, %rdi
	movl	(%r8,%rdi,4), %r9d
	movslq	%r9d, %rdi
	movl	(%r10,%rdi,4), %r11d
	movslq	%r9d, %rdi
	movl	(%rbx,%rdi,4), %r14d
	movslq	%r9d, %rdi
	movl	(%r15,%rdi,4), %r9d
	movl	-116(%rbp), %r12d       # 4-byte Reload
	subl	%r11d, %r12d
	movl	-120(%rbp), %r11d       # 4-byte Reload
	subl	%r14d, %r11d
	movl	-124(%rbp), %r14d       # 4-byte Reload
	subl	%r9d, %r14d
	movl	%r12d, %r9d
	imull	%r9d, %r9d
	movl	%r11d, %r13d
	imull	%r13d, %r13d
	movl	%r14d, %edi
	imull	%edi, %edi
	addl	%r13d, %r9d
	addl	%edi, %r9d
	movl	%r9d, %edi
	imull	%edi, %edi
	imull	%r9d, %edi
	imull	%edi, %r9d
	imull	$15, %edi, %edi
	addl	$-20, %edi
	imull	%edi, %r9d
	imull	%r9d, %r12d
	addl	%r12d, %eax
	imull	%r9d, %r11d
	addl	%r11d, %ecx
	imull	%r9d, %r14d
	addl	%r14d, %edx
	addq	$1, %rsi
	movq	-112(%rbp), %rdi        # 8-byte Reload
	shlq	$5, %rdi
	addq	%rsi, %rdi
	movl	(%r8,%rdi,4), %r9d
	movslq	%r9d, %rdi
	movl	(%r10,%rdi,4), %r11d
	movslq	%r9d, %rdi
	movl	(%rbx,%rdi,4), %r14d
	movslq	%r9d, %rdi
	movl	(%r15,%rdi,4), %r9d
	movl	-116(%rbp), %r12d       # 4-byte Reload
	subl	%r11d, %r12d
	movl	-120(%rbp), %r11d       # 4-byte Reload
	subl	%r14d, %r11d
	movl	-124(%rbp), %r14d       # 4-byte Reload
	subl	%r9d, %r14d
	movl	%r12d, %r9d
	imull	%r9d, %r9d
	movl	%r11d, %r13d
	imull	%r13d, %r13d
	movl	%r14d, %edi
	imull	%edi, %edi
	addl	%r13d, %r9d
	addl	%edi, %r9d
	movl	%r9d, %edi
	imull	%edi, %edi
	imull	%r9d, %edi
	imull	%edi, %r9d
	imull	$15, %edi, %edi
	addl	$-20, %edi
	imull	%edi, %r9d
	imull	%r9d, %r12d
	addl	%r12d, %eax
	imull	%r9d, %r11d
	addl	%r11d, %ecx
	imull	%r9d, %r14d
	addl	%r14d, %edx
	addq	$1, %rsi
	movq	-112(%rbp), %rdi        # 8-byte Reload
	shlq	$5, %rdi
	addq	%rsi, %rdi
	movl	(%r8,%rdi,4), %r9d
	movslq	%r9d, %rdi
	movl	(%r10,%rdi,4), %r11d
	movslq	%r9d, %rdi
	movl	(%rbx,%rdi,4), %r14d
	movslq	%r9d, %rdi
	movl	(%r15,%rdi,4), %r9d
	movl	-116(%rbp), %r12d       # 4-byte Reload
	subl	%r11d, %r12d
	movl	-120(%rbp), %r11d       # 4-byte Reload
	subl	%r14d, %r11d
	movl	-124(%rbp), %r14d       # 4-byte Reload
	subl	%r9d, %r14d
	movl	%r12d, %r9d
	imull	%r9d, %r9d
	movl	%r11d, %r13d
	imull	%r13d, %r13d
	movl	%r14d, %edi
	imull	%edi, %edi
	addl	%r13d, %r9d
	addl	%edi, %r9d
	movl	%r9d, %edi
	imull	%edi, %edi
	imull	%r9d, %edi
	imull	%edi, %r9d
	imull	$15, %edi, %edi
	addl	$-20, %edi
	imull	%edi, %r9d
	imull	%r9d, %r12d
	addl	%r12d, %eax
	imull	%r9d, %r11d
	addl	%r11d, %ecx
	imull	%r9d, %r14d
	addl	%r14d, %edx
	addq	$1, %rsi
	movq	-112(%rbp), %rdi        # 8-byte Reload
	shlq	$5, %rdi
	addq	%rsi, %rdi
	movl	(%r8,%rdi,4), %r9d
	movslq	%r9d, %rdi
	movl	(%r10,%rdi,4), %r11d
	movslq	%r9d, %rdi
	movl	(%rbx,%rdi,4), %r14d
	movslq	%r9d, %rdi
	movl	(%r15,%rdi,4), %r9d
	movl	-116(%rbp), %r12d       # 4-byte Reload
	subl	%r11d, %r12d
	movl	-120(%rbp), %r11d       # 4-byte Reload
	subl	%r14d, %r11d
	movl	-124(%rbp), %r14d       # 4-byte Reload
	subl	%r9d, %r14d
	movl	%r12d, %r9d
	imull	%r9d, %r9d
	movl	%r11d, %r13d
	imull	%r13d, %r13d
	movl	%r14d, %edi
	imull	%edi, %edi
	addl	%r13d, %r9d
	addl	%edi, %r9d
	movl	%r9d, %edi
	imull	%edi, %edi
	imull	%r9d, %edi
	imull	%edi, %r9d
	imull	$15, %edi, %edi
	addl	$-20, %edi
	imull	%edi, %r9d
	imull	%r9d, %r12d
	addl	%r12d, %eax
	imull	%r9d, %r11d
	addl	%r11d, %ecx
	imull	%r9d, %r14d
	addl	%r14d, %edx
	addq	$1, %rsi
	movq	-112(%rbp), %rdi        # 8-byte Reload
	shlq	$5, %rdi
	addq	%rsi, %rdi
	movl	(%r8,%rdi,4), %r9d
	movslq	%r9d, %rdi
	movl	(%r10,%rdi,4), %r11d
	movslq	%r9d, %rdi
	movl	(%rbx,%rdi,4), %r14d
	movslq	%r9d, %rdi
	movl	(%r15,%rdi,4), %r9d
	movl	-116(%rbp), %r12d       # 4-byte Reload
	subl	%r11d, %r12d
	movl	-120(%rbp), %r11d       # 4-byte Reload
	subl	%r14d, %r11d
	movl	-124(%rbp), %r14d       # 4-byte Reload
	subl	%r9d, %r14d
	movl	%r12d, %r9d
	imull	%r9d, %r9d
	movl	%r11d, %r13d
	imull	%r13d, %r13d
	movl	%r14d, %edi
	imull	%edi, %edi
	addl	%r13d, %r9d
	addl	%edi, %r9d
	movl	%r9d, %edi
	imull	%edi, %edi
	imull	%r9d, %edi
	imull	%edi, %r9d
	imull	$15, %edi, %edi
	addl	$-20, %edi
	imull	%edi, %r9d
	imull	%r9d, %r12d
	addl	%r12d, %eax
	imull	%r9d, %r11d
	addl	%r11d, %ecx
	imull	%r9d, %r14d
	addl	%r14d, %edx
	addq	$1, %rsi
	movq	-112(%rbp), %rdi        # 8-byte Reload
	shlq	$5, %rdi
	addq	%rsi, %rdi
	movl	(%r8,%rdi,4), %r9d
	movslq	%r9d, %rdi
	movl	(%r10,%rdi,4), %r11d
	movslq	%r9d, %rdi
	movl	(%rbx,%rdi,4), %r14d
	movslq	%r9d, %rdi
	movl	(%r15,%rdi,4), %r9d
	movl	-116(%rbp), %r12d       # 4-byte Reload
	subl	%r11d, %r12d
	movl	-120(%rbp), %r11d       # 4-byte Reload
	subl	%r14d, %r11d
	movl	-124(%rbp), %r14d       # 4-byte Reload
	subl	%r9d, %r14d
	movl	%r12d, %r9d
	imull	%r9d, %r9d
	movl	%r11d, %r13d
	imull	%r13d, %r13d
	movl	%r14d, %edi
	imull	%edi, %edi
	addl	%r13d, %r9d
	addl	%edi, %r9d
	movl	%r9d, %edi
	imull	%edi, %edi
	imull	%r9d, %edi
	imull	%edi, %r9d
	imull	$15, %edi, %edi
	addl	$-20, %edi
	imull	%edi, %r9d
	imull	%r9d, %r12d
	addl	%r12d, %eax
	imull	%r9d, %r11d
	addl	%r11d, %ecx
	imull	%r9d, %r14d
	addl	%r14d, %edx
	addq	$1, %rsi
	movq	-112(%rbp), %rdi        # 8-byte Reload
	shlq	$5, %rdi
	addq	%rsi, %rdi
	movl	(%r8,%rdi,4), %r9d
	movslq	%r9d, %rdi
	movl	(%r10,%rdi,4), %r11d
	movslq	%r9d, %rdi
	movl	(%rbx,%rdi,4), %r14d
	movslq	%r9d, %rdi
	movl	(%r15,%rdi,4), %r9d
	movl	-116(%rbp), %r12d       # 4-byte Reload
	subl	%r11d, %r12d
	movl	-120(%rbp), %r11d       # 4-byte Reload
	subl	%r14d, %r11d
	movl	-124(%rbp), %r14d       # 4-byte Reload
	subl	%r9d, %r14d
	movl	%r12d, %r9d
	imull	%r9d, %r9d
	movl	%r11d, %r13d
	imull	%r13d, %r13d
	movl	%r14d, %edi
	imull	%edi, %edi
	addl	%r13d, %r9d
	addl	%edi, %r9d
	movl	%r9d, %edi
	imull	%edi, %edi
	imull	%r9d, %edi
	imull	%edi, %r9d
	imull	$15, %edi, %edi
	addl	$-20, %edi
	imull	%edi, %r9d
	imull	%r9d, %r12d
	addl	%r12d, %eax
	imull	%r9d, %r11d
	addl	%r11d, %ecx
	imull	%r9d, %r14d
	addl	%r14d, %edx
	addq	$1, %rsi
	movq	-112(%rbp), %rdi        # 8-byte Reload
	shlq	$5, %rdi
	addq	%rsi, %rdi
	movl	(%r8,%rdi,4), %r9d
	movslq	%r9d, %rdi
	movl	(%r10,%rdi,4), %r11d
	movslq	%r9d, %rdi
	movl	(%rbx,%rdi,4), %r14d
	movslq	%r9d, %rdi
	movl	(%r15,%rdi,4), %r9d
	movl	-116(%rbp), %r12d       # 4-byte Reload
	subl	%r11d, %r12d
	movl	-120(%rbp), %r11d       # 4-byte Reload
	subl	%r14d, %r11d
	movl	-124(%rbp), %r14d       # 4-byte Reload
	subl	%r9d, %r14d
	movl	%r12d, %r9d
	imull	%r9d, %r9d
	movl	%r11d, %r13d
	imull	%r13d, %r13d
	movl	%r14d, %edi
	imull	%edi, %edi
	addl	%r13d, %r9d
	addl	%edi, %r9d
	movl	%r9d, %edi
	imull	%edi, %edi
	imull	%r9d, %edi
	imull	%edi, %r9d
	imull	$15, %edi, %edi
	addl	$-20, %edi
	imull	%edi, %r9d
	imull	%r9d, %r12d
	addl	%r12d, %eax
	imull	%r9d, %r11d
	addl	%r11d, %ecx
	imull	%r9d, %r14d
	addl	%r14d, %edx
	addq	$1, %rsi
	movq	-112(%rbp), %rdi        # 8-byte Reload
	shlq	$5, %rdi
	addq	%rsi, %rdi
	movl	(%r8,%rdi,4), %r9d
	movslq	%r9d, %rdi
	movl	(%r10,%rdi,4), %r11d
	movslq	%r9d, %rdi
	movl	(%rbx,%rdi,4), %r14d
	movslq	%r9d, %rdi
	movl	(%r15,%rdi,4), %r9d
	movl	-116(%rbp), %r12d       # 4-byte Reload
	subl	%r11d, %r12d
	movl	-120(%rbp), %r11d       # 4-byte Reload
	subl	%r14d, %r11d
	movl	-124(%rbp), %r14d       # 4-byte Reload
	subl	%r9d, %r14d
	movl	%r12d, %r9d
	imull	%r9d, %r9d
	movl	%r11d, %r13d
	imull	%r13d, %r13d
	movl	%r14d, %edi
	imull	%edi, %edi
	addl	%r13d, %r9d
	addl	%edi, %r9d
	movl	%r9d, %edi
	imull	%edi, %edi
	imull	%r9d, %edi
	imull	%edi, %r9d
	imull	$15, %edi, %edi
	addl	$-20, %edi
	imull	%edi, %r9d
	imull	%r9d, %r12d
	addl	%r12d, %eax
	imull	%r9d, %r11d
	addl	%r11d, %ecx
	imull	%r9d, %r14d
	addl	%r14d, %edx
	addq	$1, %rsi
	movq	-112(%rbp), %rdi        # 8-byte Reload
	shlq	$5, %rdi
	addq	%rsi, %rdi
	movl	(%r8,%rdi,4), %r9d
	movslq	%r9d, %rdi
	movl	(%r10,%rdi,4), %r11d
	movslq	%r9d, %rdi
	movl	(%rbx,%rdi,4), %r14d
	movslq	%r9d, %rdi
	movl	(%r15,%rdi,4), %r9d
	movl	-116(%rbp), %r12d       # 4-byte Reload
	subl	%r11d, %r12d
	movl	-120(%rbp), %r11d       # 4-byte Reload
	subl	%r14d, %r11d
	movl	-124(%rbp), %r14d       # 4-byte Reload
	subl	%r9d, %r14d
	movl	%r12d, %r9d
	imull	%r9d, %r9d
	movl	%r11d, %r13d
	imull	%r13d, %r13d
	movl	%r14d, %edi
	imull	%edi, %edi
	addl	%r13d, %r9d
	addl	%edi, %r9d
	movl	%r9d, %edi
	imull	%edi, %edi
	imull	%r9d, %edi
	imull	%edi, %r9d
	imull	$15, %edi, %edi
	addl	$-20, %edi
	imull	%edi, %r9d
	imull	%r9d, %r12d
	addl	%r12d, %eax
	imull	%r9d, %r11d
	addl	%r11d, %ecx
	imull	%r9d, %r14d
	addl	%r14d, %edx
	addq	$1, %rsi
	movq	-112(%rbp), %rdi        # 8-byte Reload
	shlq	$5, %rdi
	addq	%rsi, %rdi
	movl	(%r8,%rdi,4), %r9d
	movslq	%r9d, %rdi
	movl	(%r10,%rdi,4), %r11d
	movslq	%r9d, %rdi
	movl	(%rbx,%rdi,4), %r14d
	movslq	%r9d, %rdi
	movl	(%r15,%rdi,4), %r9d
	movl	-116(%rbp), %r12d       # 4-byte Reload
	subl	%r11d, %r12d
	movl	-120(%rbp), %r11d       # 4-byte Reload
	subl	%r14d, %r11d
	movl	-124(%rbp), %r14d       # 4-byte Reload
	subl	%r9d, %r14d
	movl	%r12d, %r9d
	imull	%r9d, %r9d
	movl	%r11d, %r13d
	imull	%r13d, %r13d
	movl	%r14d, %edi
	imull	%edi, %edi
	addl	%r13d, %r9d
	addl	%edi, %r9d
	movl	%r9d, %edi
	imull	%edi, %edi
	imull	%r9d, %edi
	imull	%edi, %r9d
	imull	$15, %edi, %edi
	addl	$-20, %edi
	imull	%edi, %r9d
	imull	%r9d, %r12d
	addl	%r12d, %eax
	imull	%r9d, %r11d
	addl	%r11d, %ecx
	imull	%r9d, %r14d
	addl	%r14d, %edx
	addq	$1, %rsi
	movq	-112(%rbp), %rdi        # 8-byte Reload
	shlq	$5, %rdi
	addq	%rsi, %rdi
	movl	(%r8,%rdi,4), %r9d
	movslq	%r9d, %rdi
	movl	(%r10,%rdi,4), %r11d
	movslq	%r9d, %rdi
	movl	(%rbx,%rdi,4), %r14d
	movslq	%r9d, %rdi
	movl	(%r15,%rdi,4), %r9d
	movl	-116(%rbp), %r12d       # 4-byte Reload
	subl	%r11d, %r12d
	movl	-120(%rbp), %r11d       # 4-byte Reload
	subl	%r14d, %r11d
	movl	-124(%rbp), %r14d       # 4-byte Reload
	subl	%r9d, %r14d
	movl	%r12d, %r9d
	imull	%r9d, %r9d
	movl	%r11d, %r13d
	imull	%r13d, %r13d
	movl	%r14d, %edi
	imull	%edi, %edi
	addl	%r13d, %r9d
	addl	%edi, %r9d
	movl	%r9d, %edi
	imull	%edi, %edi
	imull	%r9d, %edi
	imull	%edi, %r9d
	imull	$15, %edi, %edi
	addl	$-20, %edi
	imull	%edi, %r9d
	imull	%r9d, %r12d
	addl	%r12d, %eax
	imull	%r9d, %r11d
	addl	%r11d, %ecx
	imull	%r9d, %r14d
	addl	%r14d, %edx
	addq	$1, %rsi
	movq	-112(%rbp), %rdi        # 8-byte Reload
	shlq	$5, %rdi
	addq	%rsi, %rdi
	movl	(%r8,%rdi,4), %r9d
	movslq	%r9d, %rdi
	movl	(%r10,%rdi,4), %r11d
	movslq	%r9d, %rdi
	movl	(%rbx,%rdi,4), %r14d
	movslq	%r9d, %rdi
	movl	(%r15,%rdi,4), %r9d
	movl	-116(%rbp), %r12d       # 4-byte Reload
	subl	%r11d, %r12d
	movl	-120(%rbp), %r11d       # 4-byte Reload
	subl	%r14d, %r11d
	movl	-124(%rbp), %r14d       # 4-byte Reload
	subl	%r9d, %r14d
	movl	%r12d, %r9d
	imull	%r9d, %r9d
	movl	%r11d, %r13d
	imull	%r13d, %r13d
	movl	%r14d, %edi
	imull	%edi, %edi
	addl	%r13d, %r9d
	addl	%edi, %r9d
	movl	%r9d, %edi
	imull	%edi, %edi
	imull	%r9d, %edi
	imull	%edi, %r9d
	imull	$15, %edi, %edi
	addl	$-20, %edi
	imull	%edi, %r9d
	imull	%r9d, %r12d
	addl	%r12d, %eax
	imull	%r9d, %r11d
	addl	%r11d, %ecx
	imull	%r9d, %r14d
	addl	%r14d, %edx
	addq	$1, %rsi
	movq	-112(%rbp), %rdi        # 8-byte Reload
	shlq	$5, %rdi
	addq	%rsi, %rdi
	movl	(%r8,%rdi,4), %r9d
	movslq	%r9d, %rdi
	movl	(%r10,%rdi,4), %r11d
	movslq	%r9d, %rdi
	movl	(%rbx,%rdi,4), %r14d
	movslq	%r9d, %rdi
	movl	(%r15,%rdi,4), %r9d
	movl	-116(%rbp), %r12d       # 4-byte Reload
	subl	%r11d, %r12d
	movl	-120(%rbp), %r11d       # 4-byte Reload
	subl	%r14d, %r11d
	movl	-124(%rbp), %r14d       # 4-byte Reload
	subl	%r9d, %r14d
	movl	%r12d, %r9d
	imull	%r9d, %r9d
	movl	%r11d, %r13d
	imull	%r13d, %r13d
	movl	%r14d, %edi
	imull	%edi, %edi
	addl	%r13d, %r9d
	addl	%edi, %r9d
	movl	%r9d, %edi
	imull	%edi, %edi
	imull	%r9d, %edi
	imull	%edi, %r9d
	imull	$15, %edi, %edi
	addl	$-20, %edi
	imull	%edi, %r9d
	imull	%r9d, %r12d
	addl	%r12d, %eax
	imull	%r9d, %r11d
	addl	%r11d, %ecx
	imull	%r9d, %r14d
	addl	%r14d, %edx
	addq	$1, %rsi
	movq	-112(%rbp), %rdi        # 8-byte Reload
	shlq	$5, %rdi
	addq	%rsi, %rdi
	movl	(%r8,%rdi,4), %r9d
	movslq	%r9d, %rdi
	movl	(%r10,%rdi,4), %r11d
	movslq	%r9d, %rdi
	movl	(%rbx,%rdi,4), %r14d
	movslq	%r9d, %rdi
	movl	(%r15,%rdi,4), %r9d
	movl	-116(%rbp), %r12d       # 4-byte Reload
	subl	%r11d, %r12d
	movl	-120(%rbp), %r11d       # 4-byte Reload
	subl	%r14d, %r11d
	movl	-124(%rbp), %r14d       # 4-byte Reload
	subl	%r9d, %r14d
	movl	%r12d, %r9d
	imull	%r9d, %r9d
	movl	%r11d, %r13d
	imull	%r13d, %r13d
	movl	%r14d, %edi
	imull	%edi, %edi
	addl	%r13d, %r9d
	addl	%edi, %r9d
	movl	%r9d, %edi
	imull	%edi, %edi
	imull	%r9d, %edi
	imull	%edi, %r9d
	imull	$15, %edi, %edi
	addl	$-20, %edi
	imull	%edi, %r9d
	imull	%r9d, %r12d
	addl	%r12d, %eax
	imull	%r9d, %r11d
	addl	%r11d, %ecx
	imull	%r9d, %r14d
	addl	%r14d, %edx
	addq	$1, %rsi
	movq	-112(%rbp), %rdi        # 8-byte Reload
	shlq	$5, %rdi
	addq	%rsi, %rdi
	movl	(%r8,%rdi,4), %r9d
	movslq	%r9d, %rdi
	movl	(%r10,%rdi,4), %r11d
	movslq	%r9d, %rdi
	movl	(%rbx,%rdi,4), %r14d
	movslq	%r9d, %rdi
	movl	(%r15,%rdi,4), %r9d
	movl	-116(%rbp), %r12d       # 4-byte Reload
	subl	%r11d, %r12d
	movl	-120(%rbp), %r11d       # 4-byte Reload
	subl	%r14d, %r11d
	movl	-124(%rbp), %r14d       # 4-byte Reload
	subl	%r9d, %r14d
	movl	%r12d, %r9d
	imull	%r9d, %r9d
	movl	%r11d, %r13d
	imull	%r13d, %r13d
	movl	%r14d, %edi
	imull	%edi, %edi
	addl	%r13d, %r9d
	addl	%edi, %r9d
	movl	%r9d, %edi
	imull	%edi, %edi
	imull	%r9d, %edi
	imull	%edi, %r9d
	imull	$15, %edi, %edi
	addl	$-20, %edi
	imull	%edi, %r9d
	imull	%r9d, %r12d
	addl	%r12d, %eax
	imull	%r9d, %r11d
	addl	%r11d, %ecx
	imull	%r9d, %r14d
	addl	%r14d, %edx
	addq	$1, %rsi
	movq	-112(%rbp), %rdi        # 8-byte Reload
	shlq	$5, %rdi
	addq	%rsi, %rdi
	movl	(%r8,%rdi,4), %r9d
	movslq	%r9d, %rdi
	movl	(%r10,%rdi,4), %r11d
	movslq	%r9d, %rdi
	movl	(%rbx,%rdi,4), %r14d
	movslq	%r9d, %rdi
	movl	(%r15,%rdi,4), %r9d
	movl	-116(%rbp), %r12d       # 4-byte Reload
	subl	%r11d, %r12d
	movl	-120(%rbp), %r11d       # 4-byte Reload
	subl	%r14d, %r11d
	movl	-124(%rbp), %r14d       # 4-byte Reload
	subl	%r9d, %r14d
	movl	%r12d, %r9d
	imull	%r9d, %r9d
	movl	%r11d, %r13d
	imull	%r13d, %r13d
	movl	%r14d, %edi
	imull	%edi, %edi
	addl	%r13d, %r9d
	addl	%edi, %r9d
	movl	%r9d, %edi
	imull	%edi, %edi
	imull	%r9d, %edi
	imull	%edi, %r9d
	imull	$15, %edi, %edi
	addl	$-20, %edi
	imull	%edi, %r9d
	imull	%r9d, %r12d
	addl	%r12d, %eax
	imull	%r9d, %r11d
	addl	%r11d, %ecx
	imull	%r9d, %r14d
	addl	%r14d, %edx
	addq	$1, %rsi
	movq	-112(%rbp), %rdi        # 8-byte Reload
	shlq	$5, %rdi
	addq	%rsi, %rdi
	movl	(%r8,%rdi,4), %r9d
	movslq	%r9d, %rdi
	movl	(%r10,%rdi,4), %r11d
	movslq	%r9d, %rdi
	movl	(%rbx,%rdi,4), %r14d
	movslq	%r9d, %rdi
	movl	(%r15,%rdi,4), %r9d
	movl	-116(%rbp), %r12d       # 4-byte Reload
	subl	%r11d, %r12d
	movl	-120(%rbp), %r11d       # 4-byte Reload
	subl	%r14d, %r11d
	movl	-124(%rbp), %r14d       # 4-byte Reload
	subl	%r9d, %r14d
	movl	%r12d, %r9d
	imull	%r9d, %r9d
	movl	%r11d, %r13d
	imull	%r13d, %r13d
	movl	%r14d, %edi
	imull	%edi, %edi
	addl	%r13d, %r9d
	addl	%edi, %r9d
	movl	%r9d, %edi
	imull	%edi, %edi
	imull	%r9d, %edi
	imull	%edi, %r9d
	imull	$15, %edi, %edi
	addl	$-20, %edi
	imull	%edi, %r9d
	imull	%r9d, %r12d
	addl	%r12d, %eax
	imull	%r9d, %r11d
	addl	%r11d, %ecx
	imull	%r9d, %r14d
	addl	%r14d, %edx
	addq	$1, %rsi
	movq	-112(%rbp), %rdi        # 8-byte Reload
	shlq	$5, %rdi
	addq	%rsi, %rdi
	movl	(%r8,%rdi,4), %r9d
	movslq	%r9d, %rdi
	movl	(%r10,%rdi,4), %r11d
	movslq	%r9d, %rdi
	movl	(%rbx,%rdi,4), %r14d
	movslq	%r9d, %rdi
	movl	(%r15,%rdi,4), %r9d
	movl	-116(%rbp), %r12d       # 4-byte Reload
	subl	%r11d, %r12d
	movl	-120(%rbp), %r11d       # 4-byte Reload
	subl	%r14d, %r11d
	movl	-124(%rbp), %r14d       # 4-byte Reload
	subl	%r9d, %r14d
	movl	%r12d, %r9d
	imull	%r9d, %r9d
	movl	%r11d, %r13d
	imull	%r13d, %r13d
	movl	%r14d, %edi
	imull	%edi, %edi
	addl	%r13d, %r9d
	addl	%edi, %r9d
	movl	%r9d, %edi
	imull	%edi, %edi
	imull	%r9d, %edi
	imull	%edi, %r9d
	imull	$15, %edi, %edi
	addl	$-20, %edi
	imull	%edi, %r9d
	imull	%r9d, %r12d
	addl	%r12d, %eax
	imull	%r9d, %r11d
	addl	%r11d, %ecx
	imull	%r9d, %r14d
	addl	%r14d, %edx
	addq	$1, %rsi
	movq	-112(%rbp), %rdi        # 8-byte Reload
	shlq	$5, %rdi
	addq	%rsi, %rdi
	movl	(%r8,%rdi,4), %r9d
	movslq	%r9d, %rdi
	movl	(%r10,%rdi,4), %r11d
	movslq	%r9d, %rdi
	movl	(%rbx,%rdi,4), %r14d
	movslq	%r9d, %rdi
	movl	(%r15,%rdi,4), %r9d
	movl	-116(%rbp), %r12d       # 4-byte Reload
	subl	%r11d, %r12d
	movl	-120(%rbp), %r11d       # 4-byte Reload
	subl	%r14d, %r11d
	movl	-124(%rbp), %r14d       # 4-byte Reload
	subl	%r9d, %r14d
	movl	%r12d, %r9d
	imull	%r9d, %r9d
	movl	%r11d, %r13d
	imull	%r13d, %r13d
	movl	%r14d, %edi
	imull	%edi, %edi
	addl	%r13d, %r9d
	addl	%edi, %r9d
	movl	%r9d, %edi
	imull	%edi, %edi
	imull	%r9d, %edi
	imull	%edi, %r9d
	imull	$15, %edi, %edi
	addl	$-20, %edi
	imull	%edi, %r9d
	imull	%r9d, %r12d
	addl	%r12d, %eax
	imull	%r9d, %r11d
	addl	%r11d, %ecx
	imull	%r9d, %r14d
	addl	%r14d, %edx
	addq	$1, %rsi
	movq	-112(%rbp), %rdi        # 8-byte Reload
	shlq	$5, %rdi
	addq	%rsi, %rdi
	movl	(%r8,%rdi,4), %r9d
	movslq	%r9d, %rdi
	movl	(%r10,%rdi,4), %r11d
	movslq	%r9d, %rdi
	movl	(%rbx,%rdi,4), %r14d
	movslq	%r9d, %rdi
	movl	(%r15,%rdi,4), %r9d
	movl	-116(%rbp), %r12d       # 4-byte Reload
	subl	%r11d, %r12d
	movl	-120(%rbp), %r11d       # 4-byte Reload
	subl	%r14d, %r11d
	movl	-124(%rbp), %r14d       # 4-byte Reload
	subl	%r9d, %r14d
	movl	%r12d, %r9d
	imull	%r9d, %r9d
	movl	%r11d, %r13d
	imull	%r13d, %r13d
	movl	%r14d, %edi
	imull	%edi, %edi
	addl	%r13d, %r9d
	addl	%edi, %r9d
	movl	%r9d, %edi
	imull	%edi, %edi
	imull	%r9d, %edi
	imull	%edi, %r9d
	imull	$15, %edi, %edi
	addl	$-20, %edi
	imull	%edi, %r9d
	imull	%r9d, %r12d
	addl	%r12d, %eax
	imull	%r9d, %r11d
	addl	%r11d, %ecx
	imull	%r9d, %r14d
	addl	%r14d, %edx
	addq	$1, %rsi
	movq	-112(%rbp), %rdi        # 8-byte Reload
	shlq	$5, %rdi
	addq	%rsi, %rdi
	movl	(%r8,%rdi,4), %r9d
	movslq	%r9d, %rdi
	movl	(%r10,%rdi,4), %r11d
	movslq	%r9d, %rdi
	movl	(%rbx,%rdi,4), %r14d
	movslq	%r9d, %rdi
	movl	(%r15,%rdi,4), %r9d
	movl	-116(%rbp), %r12d       # 4-byte Reload
	subl	%r11d, %r12d
	movl	-120(%rbp), %r11d       # 4-byte Reload
	subl	%r14d, %r11d
	movl	-124(%rbp), %r14d       # 4-byte Reload
	subl	%r9d, %r14d
	movl	%r12d, %r9d
	imull	%r9d, %r9d
	movl	%r11d, %r13d
	imull	%r13d, %r13d
	movl	%r14d, %edi
	imull	%edi, %edi
	addl	%r13d, %r9d
	addl	%edi, %r9d
	movl	%r9d, %edi
	imull	%edi, %edi
	imull	%r9d, %edi
	imull	%edi, %r9d
	imull	$15, %edi, %edi
	addl	$-20, %edi
	imull	%edi, %r9d
	imull	%r9d, %r12d
	addl	%r12d, %eax
	imull	%r9d, %r11d
	addl	%r11d, %ecx
	imull	%r9d, %r14d
	addl	%r14d, %edx
	addq	$1, %rsi
	movq	-112(%rbp), %rdi        # 8-byte Reload
	shlq	$5, %rdi
	addq	%rsi, %rdi
	movl	(%r8,%rdi,4), %r9d
	movslq	%r9d, %rdi
	movl	(%r10,%rdi,4), %r11d
	movslq	%r9d, %rdi
	movl	(%rbx,%rdi,4), %r14d
	movslq	%r9d, %rdi
	movl	(%r15,%rdi,4), %r9d
	movl	-116(%rbp), %r12d       # 4-byte Reload
	subl	%r11d, %r12d
	movl	-120(%rbp), %r11d       # 4-byte Reload
	subl	%r14d, %r11d
	movl	-124(%rbp), %r14d       # 4-byte Reload
	subl	%r9d, %r14d
	movl	%r12d, %r9d
	imull	%r9d, %r9d
	movl	%r11d, %r13d
	imull	%r13d, %r13d
	movl	%r14d, %edi
	imull	%edi, %edi
	addl	%r13d, %r9d
	addl	%edi, %r9d
	movl	%r9d, %edi
	imull	%edi, %edi
	imull	%r9d, %edi
	imull	%edi, %r9d
	imull	$15, %edi, %edi
	addl	$-20, %edi
	imull	%edi, %r9d
	imull	%r9d, %r12d
	addl	%r12d, %eax
	imull	%r9d, %r11d
	addl	%r11d, %ecx
	imull	%r9d, %r14d
	addl	%r14d, %edx
	addq	$1, %rsi
	movq	-112(%rbp), %rdi        # 8-byte Reload
	shlq	$5, %rdi
	addq	%rsi, %rdi
	movl	(%r8,%rdi,4), %r9d
	movslq	%r9d, %rdi
	movl	(%r10,%rdi,4), %r11d
	movslq	%r9d, %rdi
	movl	(%rbx,%rdi,4), %r14d
	movslq	%r9d, %rdi
	movl	(%r15,%rdi,4), %r9d
	movl	-116(%rbp), %r12d       # 4-byte Reload
	subl	%r11d, %r12d
	movl	-120(%rbp), %r11d       # 4-byte Reload
	subl	%r14d, %r11d
	movl	-124(%rbp), %r14d       # 4-byte Reload
	subl	%r9d, %r14d
	movl	%r12d, %r9d
	imull	%r9d, %r9d
	movl	%r11d, %r13d
	imull	%r13d, %r13d
	movl	%r14d, %edi
	imull	%edi, %edi
	addl	%r13d, %r9d
	addl	%edi, %r9d
	movl	%r9d, %edi
	imull	%edi, %edi
	imull	%r9d, %edi
	imull	%edi, %r9d
	imull	$15, %edi, %edi
	addl	$-20, %edi
	imull	%edi, %r9d
	imull	%r9d, %r12d
	addl	%r12d, %eax
	imull	%r9d, %r11d
	addl	%r11d, %ecx
	imull	%r9d, %r14d
	addl	%r14d, %edx
	addq	$1, %rsi
	movq	-112(%rbp), %rdi        # 8-byte Reload
	shlq	$5, %rdi
	addq	%rsi, %rdi
	movl	(%r8,%rdi,4), %r9d
	movslq	%r9d, %rdi
	movl	(%r10,%rdi,4), %r11d
	movslq	%r9d, %rdi
	movl	(%rbx,%rdi,4), %r14d
	movslq	%r9d, %rdi
	movl	(%r15,%rdi,4), %r9d
	movl	-116(%rbp), %r12d       # 4-byte Reload
	subl	%r11d, %r12d
	movl	-120(%rbp), %r11d       # 4-byte Reload
	subl	%r14d, %r11d
	movl	-124(%rbp), %r14d       # 4-byte Reload
	subl	%r9d, %r14d
	movl	%r12d, %r9d
	imull	%r9d, %r9d
	movl	%r11d, %r13d
	imull	%r13d, %r13d
	movl	%r14d, %edi
	imull	%edi, %edi
	addl	%r13d, %r9d
	addl	%edi, %r9d
	movl	%r9d, %edi
	imull	%edi, %edi
	imull	%r9d, %edi
	imull	%edi, %r9d
	imull	$15, %edi, %edi
	addl	$-20, %edi
	imull	%edi, %r9d
	imull	%r9d, %r12d
	addl	%r12d, %eax
	imull	%r9d, %r11d
	addl	%r11d, %ecx
	imull	%r9d, %r14d
	addl	%r14d, %edx
	addq	$1, %rsi
	movq	-112(%rbp), %rdi        # 8-byte Reload
	shlq	$5, %rdi
	addq	%rsi, %rdi
	movl	(%r8,%rdi,4), %r9d
	movslq	%r9d, %rdi
	movl	(%r10,%rdi,4), %r11d
	movslq	%r9d, %rdi
	movl	(%rbx,%rdi,4), %r14d
	movslq	%r9d, %rdi
	movl	(%r15,%rdi,4), %r9d
	movl	-116(%rbp), %r12d       # 4-byte Reload
	subl	%r11d, %r12d
	movl	-120(%rbp), %r11d       # 4-byte Reload
	subl	%r14d, %r11d
	movl	-124(%rbp), %r14d       # 4-byte Reload
	subl	%r9d, %r14d
	movl	%r12d, %r9d
	imull	%r9d, %r9d
	movl	%r11d, %r13d
	imull	%r13d, %r13d
	movl	%r14d, %edi
	imull	%edi, %edi
	addl	%r13d, %r9d
	addl	%edi, %r9d
	movl	%r9d, %edi
	imull	%edi, %edi
	imull	%r9d, %edi
	imull	%edi, %r9d
	imull	$15, %edi, %edi
	addl	$-20, %edi
	imull	%edi, %r9d
	imull	%r9d, %r12d
	addl	%r12d, %eax
	imull	%r9d, %r11d
	addl	%r11d, %ecx
	imull	%r9d, %r14d
	addl	%r14d, %edx
	addq	$1, %rsi
	movq	-112(%rbp), %rdi        # 8-byte Reload
	shlq	$5, %rdi
	addq	%rsi, %rdi
	movl	(%r8,%rdi,4), %r9d
	movslq	%r9d, %rdi
	movl	(%r10,%rdi,4), %r11d
	movslq	%r9d, %rdi
	movl	(%rbx,%rdi,4), %r14d
	movslq	%r9d, %rdi
	movl	(%r15,%rdi,4), %r9d
	movl	-116(%rbp), %r12d       # 4-byte Reload
	subl	%r11d, %r12d
	movl	-120(%rbp), %r11d       # 4-byte Reload
	subl	%r14d, %r11d
	movl	-124(%rbp), %r14d       # 4-byte Reload
	subl	%r9d, %r14d
	movl	%r12d, %r9d
	imull	%r9d, %r9d
	movl	%r11d, %r13d
	imull	%r13d, %r13d
	movl	%r14d, %edi
	imull	%edi, %edi
	addl	%r13d, %r9d
	addl	%edi, %r9d
	movl	%r9d, %edi
	imull	%edi, %edi
	imull	%r9d, %edi
	imull	%edi, %r9d
	imull	$15, %edi, %edi
	addl	$-20, %edi
	imull	%edi, %r9d
	imull	%r9d, %r12d
	addl	%r12d, %eax
	imull	%r9d, %r11d
	addl	%r11d, %ecx
	imull	%r9d, %r14d
	addl	%r14d, %edx
	addq	$1, %rsi
	movq	-112(%rbp), %rdi        # 8-byte Reload
	shlq	$5, %rdi
	addq	%rsi, %rdi
	movl	(%r8,%rdi,4), %r9d
	movslq	%r9d, %rdi
	movl	(%r10,%rdi,4), %r11d
	movslq	%r9d, %rdi
	movl	(%rbx,%rdi,4), %r14d
	movslq	%r9d, %rdi
	movl	(%r15,%rdi,4), %r9d
	movl	-116(%rbp), %r12d       # 4-byte Reload
	subl	%r11d, %r12d
	movl	-120(%rbp), %r11d       # 4-byte Reload
	subl	%r14d, %r11d
	movl	-124(%rbp), %r14d       # 4-byte Reload
	subl	%r9d, %r14d
	movl	%r12d, %r9d
	imull	%r9d, %r9d
	movl	%r11d, %r13d
	imull	%r13d, %r13d
	movl	%r14d, %edi
	imull	%edi, %edi
	addl	%r13d, %r9d
	addl	%edi, %r9d
	movl	%r9d, %edi
	imull	%edi, %edi
	imull	%r9d, %edi
	imull	%edi, %r9d
	imull	$15, %edi, %edi
	addl	$-20, %edi
	imull	%edi, %r9d
	imull	%r9d, %r12d
	addl	%r12d, %eax
	imull	%r9d, %r11d
	addl	%r11d, %ecx
	imull	%r9d, %r14d
	addl	%r14d, %edx
	addq	$1, %rsi
	movq	-112(%rbp), %rdi        # 8-byte Reload
	shlq	$5, %rdi
	addq	%rsi, %rdi
	movl	(%r8,%rdi,4), %r9d
	movslq	%r9d, %rdi
	movl	(%r10,%rdi,4), %r11d
	movslq	%r9d, %rdi
	movl	(%rbx,%rdi,4), %r14d
	movslq	%r9d, %rdi
	movl	(%r15,%rdi,4), %r9d
	movl	-116(%rbp), %r12d       # 4-byte Reload
	subl	%r11d, %r12d
	movl	-120(%rbp), %r11d       # 4-byte Reload
	subl	%r14d, %r11d
	movl	-124(%rbp), %r14d       # 4-byte Reload
	subl	%r9d, %r14d
	movl	%r12d, %r9d
	imull	%r9d, %r9d
	movl	%r11d, %r13d
	imull	%r13d, %r13d
	movl	%r14d, %edi
	imull	%edi, %edi
	addl	%r13d, %r9d
	addl	%edi, %r9d
	movl	%r9d, %edi
	imull	%edi, %edi
	imull	%r9d, %edi
	imull	%edi, %r9d
	imull	$15, %edi, %edi
	addl	$-20, %edi
	imull	%edi, %r9d
	imull	%r9d, %r12d
	addl	%r12d, %eax
	imull	%r9d, %r11d
	addl	%r11d, %ecx
	imull	%r9d, %r14d
	addl	%r14d, %edx
	addq	$1, %rsi
	movq	-112(%rbp), %rdi        # 8-byte Reload
	shlq	$5, %rdi
	addq	%rsi, %rdi
	movl	(%r8,%rdi,4), %r9d
	movslq	%r9d, %rdi
	movl	(%r10,%rdi,4), %r11d
	movslq	%r9d, %rdi
	movl	(%rbx,%rdi,4), %r14d
	movslq	%r9d, %rdi
	movl	(%r15,%rdi,4), %r9d
	movl	-116(%rbp), %r12d       # 4-byte Reload
	subl	%r11d, %r12d
	movl	-120(%rbp), %r11d       # 4-byte Reload
	subl	%r14d, %r11d
	movl	-124(%rbp), %r14d       # 4-byte Reload
	subl	%r9d, %r14d
